Certificate:
    Data:
        Version: 3 (0x2)
        Serial Number: 1 (0x1)
    Signature Algorithm: sha256WithRSAEncryption
        Issuer: CN=QUIC Server Root CA
        Validity
            Not Before: Nov  2 11:51:11 2016 GMT
            Not After : Nov  5 11:51:11 2016 GMT
        Subject: C=US, ST=California, L=Mountain View, O=QUIC Server, CN=127.0.0.1
        Subject Public Key Info:
            Public Key Algorithm: rsaEncryption
                Public-Key: (2048 bit)
                Modulus:
                    00:b4:8b:bf:0b:25:b3:1c:ec:20:66:da:93:48:d0:
                    4e:02:4d:40:bf:cb:02:23:88:3b:e7:5e:12:05:98:
                    b8:8a:ea:33:b4:02:cf:49:2a:dc:43:2f:f7:e3:92:
                    58:0f:cd:a1:e5:bd:d8:70:84:a5:b2:4b:93:74:2d:
                    f7:89:c6:f1:37:98:f4:43:b7:be:07:4e:cb:d1:21:
                    23:52:51:aa:29:28:3a:10:40:e4:b8:47:32:3c:5a:
                    93:fe:fe:f9:c5:dc:5e:3d:7b:10:57:db:0c:e3:81:
                    61:36:e4:ac:fe:df:a2:b2:ef:76:8b:b6:5e:03:76:
                    fa:f9:fd:4f:89:c1:d9:c4:a2:c6:9f:0b:57:0a:41:
                    35:30:b2:ef:66:d9:f5:c1:76:fc:eb:3d:6b:df:ba:
                    c0:d1:b8:c7:64:76:e6:71:25:7e:16:a5:84:8f:e2:
                    04:99:bf:5a:41:2e:38:53:85:29:9f:f0:5e:23:fc:
                    27:80:9e:43:be:4a:e1:0e:30:a2:84:8b:7c:c0:06:
                    08:33:c0:02:f8:6d:a4:78:c7:80:1b:52:87:f8:41:
                    a5:73:e4:26:4f:12:68:96:43:63:a3:15:71:d2:c1:
                    13:fb:00:f8:2e:f2:08:8a:0c:93:69:83:d8:ee:dc:
                    d3:ec:e5:8e:82:4f:9e:b5:98:a5:97:e1:0a:8d:f1:
                    a0:fb
                Exponent: 65537 (0x10001)
        X509v3 extensions:
            X509v3 Basic Constraints: critical
                CA:FALSE
            X509v3 Subject Key Identifier: 
                E7:77:A9:CF:E4:B3:12:E3:77:01:BF:14:67:80:83:5E:21:BD:B5:58
            X509v3 Authority Key Identifier: 
                keyid:C4:23:27:DD:EC:5B:65:05:59:5F:FD:B4:8E:CB:4B:96:68:76:10:FD

            X509v3 Extended Key Usage: 
                TLS Web Server Authentication, TLS Web Client Authentication
            X509v3 Subject Alternative Name: 
                DNS:www.example.org, DNS:mail.example.org, DNS:mail.example.com, IP Address:127.0.0.1
    Signature Algorithm: sha256WithRSAEncryption
         10:6b:8c:af:88:b3:1a:53:48:23:a3:c9:85:66:3e:6c:0d:af:
         5b:a2:1d:8c:ce:46:67:40:17:58:49:c2:f4:48:13:5d:09:bf:
         7f:28:3e:8a:3f:44:02:9e:33:8c:95:55:17:5f:a9:a9:86:f7:
         4e:a9:db:51:e4:bd:7e:14:7b:95:a3:a2:2f:46:95:fe:a1:fe:
         8d:39:5c:87:6b:e5:88:a9:82:36:a7:4c:d2:fe:5a:89:d8:e3:
         87:a2:e3:9e:c9:8f:64:8f:ac:f7:74:3b:89:c6:5c:77:3f:ed:
         cf:1f:1c:59:4f:0c:05:d8:c1:cb:e7:5b:19:2c:34:df:1d:6a:
         f5:b5:45:3c:dc:7f:7f:96:df:4f:9d:d1:75:12:1b:24:57:09:
         93:30:44:8f:05:dd:c3:ee:11:92:fa:b2:b6:b9:7c:93:05:42:
         ee:85:ea:52:d6:e7:9f:c1:7f:69:f8:9d:0e:4b:ec:44:9a:c7:
         be:08:c5:bc:3f:fc:bf:c0:db:71:89:09:be:43:04:3e:0c:35:
         88:4a:f1:e0:09:9c:e7:33:42:67:b0:07:ee:87:c9:14:8d:6a:
         86:97:97:bf:3d:70:70:fb:57:67:f8:74:43:4c:3b:38:9b:61:
         0c:e0:ee:07:30:c5:b4:8f:16:60:f1:52:ee:b7:07:3b:33:30:
         ae:8d:31:59
-----BEGIN CERTIFICATE-----
MIIDtDCCApygAwIBAgIBATANBgkqhkiG9w0BAQsFADAeMRwwGgYDVQQDDBNRVUlD
IFNlcnZlciBSb290IENBMB4XDTE2MTEwMjExNTExMVoXDTE2MTEwNTExNTExMVow
ZDELMAkGA1UEBhMCVVMxEzARBgNVBAgMCkNhbGlmb3JuaWExFjAUBgNVBAcMDU1v
dW50YWluIFZpZXcxFDASBgNVBAoMC1FVSUMgU2VydmVyMRIwEAYDVQQDDAkxMjcu
MC4wLjEwggEiMA0GCSqGSIb3DQEBAQUAA4IBDwAwggEKAoIBAQC0i78LJbMc7CBm
2pNI0E4CTUC/ywIjiDvnXhIFmLiK6jO0As9JKtxDL/fjklgPzaHlvdhwhKWyS5N0
LfeJxvE3mPRDt74HTsvRISNSUaopKDoQQOS4RzI8WpP+/vnF3F49exBX2wzjgWE2
5Kz+36Ky73aLtl4Ddvr5/U+JwdnEosafC1cKQTUwsu9m2fXBdvzrPWvfusDRuMdk
duZxJX4WpYSP4gSZv1pBLjhThSmf8F4j/CeAnkO+SuEOMKKEi3zABggzwAL4baR4
x4AbUof4QaVz5CZPEmiWQ2OjFXHSwRP7APgu8giKDJNpg9ju3NPs5Y6CT561mKWX
4QqN8aD7AgMBAAGjgbYwgbMwDAYDVR0TAQH/BAIwADAdBgNVHQ4EFgQU53epz+Sz
EuN3Ab8UZ4CDXiG9tVgwHwYDVR0jBBgwFoAUxCMn3exbZQVZX/20jstLlmh2EP0w
HQYDVR0lBBYwFAYIKwYBBQUHAwEGCCsGAQUFBwMCMEQGA1UdEQQ9MDuCD3d3dy5l
eGFtcGxlLm9yZ4IQbWFpbC5leGFtcGxlLm9yZ4IQbWFpbC5leGFtcGxlLmNvbYcE
fwAAATANBgkqhkiG9w0BAQsFAAOCAQEAEGuMr4izGlNII6PJhWY+bA2vW6IdjM5G
Z0AXWEnC9EgTXQm/fyg+ij9EAp4zjJVVF1+pqYb3TqnbUeS9fhR7laOiL0aV/qH+
jTlch2vliKmCNqdM0v5aidjjh6LjnsmPZI+s93Q7icZcdz/tzx8cWU8MBdjBy+db
GSw03x1q9bVFPNx/f5bfT53RdRIbJFcJkzBEjwXdw+4Rkvqytrl8kwVC7oXqUtbn
n8F/afidDkvsRJrHvgjFvD/8v8DbcYkJvkMEPgw1iErx4Amc5zNCZ7AH7ofJFI1q
hpeXvz1wcPtXZ/h0Q0w7OJthDODuBzDFtI8WYPFS7rcHOzMwro0xWQ==
-----END CERTIFICATE-----
