Certificate:
    Data:
        Version: 3 (0x2)
        Serial Number: 13409793362263214690 (0xba192803cd170a62)
    Signature Algorithm: sha256WithRSAEncryption
        Issuer: CN=QUIC Server Root CA
        Validity
            Not Before: Nov  2 11:51:11 2016 GMT
            Not After : Nov  5 11:51:11 2016 GMT
        Subject: CN=QUIC Server Root CA
        Subject Public Key Info:
            Public Key Algorithm: rsaEncryption
                Public-Key: (2048 bit)
                Modulus:
                    00:d6:fb:09:92:2f:9c:a2:7d:e2:bc:7f:7c:e9:b6:
                    11:d4:0b:0e:2f:64:e6:b4:42:28:1d:fc:ec:c5:b0:
                    c9:cc:1f:10:70:4b:46:73:4e:30:c8:e5:7b:98:d4:
                    65:06:24:48:10:e1:06:83:c5:77:3e:93:d5:c7:98:
                    f2:f7:a2:7b:fe:e4:ae:45:d0:8e:3b:81:bc:5f:0c:
                    5e:3c:0a:e0:35:f8:d7:ad:78:f5:98:a7:60:2c:6a:
                    8c:81:97:e4:fd:9e:af:d5:d5:ab:88:e7:e4:27:9d:
                    e7:45:80:df:47:1f:d1:cc:9f:33:e7:25:63:c3:10:
                    6a:22:38:49:40:39:79:6a:98:29:5b:68:4e:24:1d:
                    4f:2f:db:e6:a5:2a:cd:c0:98:74:ee:6c:5b:15:7d:
                    81:d8:48:13:f1:e6:38:18:e9:54:75:21:ee:72:70:
                    29:31:f0:2b:a9:5e:6b:7c:5c:e7:76:86:ed:06:ec:
                    16:23:fe:19:43:e0:d2:a7:b8:a5:c6:45:06:6c:54:
                    dc:90:65:b6:63:b4:93:d3:65:84:62:36:50:9c:36:
                    2f:87:fe:e0:96:15:f3:5b:b2:08:7d:f1:aa:cc:39:
                    e6:a8:65:a2:5e:61:e7:07:61:60:ba:e2:7f:8f:2d:
                    77:e5:e4:5d:af:4b:fb:b6:9b:10:38:60:f6:57:5c:
                    d2:b9
                Exponent: 65537 (0x10001)
        X509v3 extensions:
            X509v3 Basic Constraints: critical
                CA:TRUE
            X509v3 Subject Key Identifier: 
                C4:23:27:DD:EC:5B:65:05:59:5F:FD:B4:8E:CB:4B:96:68:76:10:FD
            X509v3 Key Usage: critical
                Certificate Sign, CRL Sign
    Signature Algorithm: sha256WithRSAEncryption
         8a:b0:87:c1:fd:c2:c7:e6:f5:d3:d2:ca:b3:fc:5a:b6:7e:6b:
         21:84:25:29:1e:1b:bd:9f:34:15:da:33:86:43:ca:17:d0:87:
         1d:24:93:3c:7a:f8:67:d8:d9:cb:8c:f7:04:9e:df:f8:72:3e:
         4b:21:ae:57:ed:f1:e9:f8:cb:9b:6c:db:52:5f:09:2c:a3:7c:
         f8:71:4a:c4:4c:86:7d:b6:cc:d5:59:1a:dd:e9:05:f2:97:a9:
         35:d7:de:51:68:67:3d:23:39:01:db:a5:d9:c4:6d:39:27:60:
         57:fb:39:c6:09:52:49:71:c7:39:ec:ec:31:6e:ea:59:95:70:
         a2:8b:8d:0a:6f:3e:f6:75:cb:72:30:7a:44:8a:3a:a0:36:27:
         85:f5:c5:89:6d:44:e3:fc:6c:6f:9c:fd:ae:dd:47:2a:43:8c:
         94:b1:34:8c:29:6c:e6:68:50:c8:b8:ad:45:db:5e:42:20:15:
         6e:d3:ef:b5:c6:54:06:9b:55:28:9c:b6:60:be:09:0d:4f:2c:
         1b:b2:ea:f3:5e:17:4d:ad:04:a4:76:41:f3:25:38:25:3e:08:
         ed:e3:c1:ec:de:af:07:c7:e3:dd:de:1b:b4:6f:a3:77:95:2a:
         ad:42:ed:77:26:ed:b8:c7:ec:a0:ac:2e:26:6b:9f:42:f1:17:
         ea:01:41:f8
-----BEGIN CERTIFICATE-----
MIIDATCCAemgAwIBAgIJALoZKAPNFwpiMA0GCSqGSIb3DQEBCwUAMB4xHDAaBgNV
BAMME1FVSUMgU2VydmVyIFJvb3QgQ0EwHhcNMTYxMTAyMTE1MTExWhcNMTYxMTA1
MTE1MTExWjAeMRwwGgYDVQQDDBNRVUlDIFNlcnZlciBSb290IENBMIIBIjANBgkq
hkiG9w0BAQEFAAOCAQ8AMIIBCgKCAQEA1vsJki+con3ivH986bYR1AsOL2TmtEIo
HfzsxbDJzB8QcEtGc04wyOV7mNRlBiRIEOEGg8V3PpPVx5jy96J7/uSuRdCOO4G8
XwxePArgNfjXrXj1mKdgLGqMgZfk/Z6v1dWriOfkJ53nRYDfRx/RzJ8z5yVjwxBq
IjhJQDl5apgpW2hOJB1PL9vmpSrNwJh07mxbFX2B2EgT8eY4GOlUdSHucnApMfAr
qV5rfFzndobtBuwWI/4ZQ+DSp7ilxkUGbFTckGW2Y7ST02WEYjZQnDYvh/7glhXz
W7IIffGqzDnmqGWiXmHnB2FguuJ/jy135eRdr0v7tpsQOGD2V1zSuQIDAQABo0Iw
QDAPBgNVHRMBAf8EBTADAQH/MB0GA1UdDgQWBBTEIyfd7FtlBVlf/bSOy0uWaHYQ
/TAOBgNVHQ8BAf8EBAMCAQYwDQYJKoZIhvcNAQELBQADggEBAIqwh8H9wsfm9dPS
yrP8WrZ+ayGEJSkeG72fNBXaM4ZDyhfQhx0kkzx6+GfY2cuM9wSe3/hyPkshrlft
8en4y5ts21JfCSyjfPhxSsRMhn22zNVZGt3pBfKXqTXX3lFoZz0jOQHbpdnEbTkn
YFf7OcYJUklxxzns7DFu6lmVcKKLjQpvPvZ1y3IwekSKOqA2J4X1xYltROP8bG+c
/a7dRypDjJSxNIwpbOZoUMi4rUXbXkIgFW7T77XGVAabVSictmC+CQ1PLBuy6vNe
F02tBKR2QfMlOCU+CO3jwezerwfH493eG7Rvo3eVKq1C7Xcm7bjH7KCsLiZrn0Lx
F+oBQfg=
-----END CERTIFICATE-----
