[Created by: generate-chains.py]

Certificate chain with 1 intermediate, a trusted root, and a target
certificate that is not a CA, and yet has a pathlen set. Verification is
expected to fail, since pathlen should only be set for CAs.

Certificate:
    Data:
        Version: 3 (0x2)
        Serial Number: 1 (0x1)
    Signature Algorithm: sha256WithRSAEncryption
        Issuer: CN=Intermediate
        Validity
            Not Before: Jan  1 12:00:00 2015 GMT
            Not After : Jan  1 12:00:00 2016 GMT
        Subject: CN=Target
        Subject Public Key Info:
            Public Key Algorithm: rsaEncryption
                Public-Key: (2048 bit)
                Modulus:
                    00:ba:80:5c:f0:d7:23:f0:69:d9:b7:8f:fc:c3:d4:
                    47:a2:41:29:77:01:50:3c:84:8f:52:f7:11:6d:c4:
                    75:04:84:48:98:8c:4e:bb:f6:4b:e2:cb:4d:be:01:
                    dc:b2:8e:48:b6:da:76:4d:b0:28:75:94:28:d7:44:
                    2c:0d:a5:70:fe:b8:ec:c3:d0:0d:8b:74:4a:18:b9:
                    13:bb:b1:99:80:09:d0:bd:00:a3:20:64:70:bb:18:
                    00:7c:61:1f:5d:d2:dc:23:6a:6a:e3:8a:6c:13:9b:
                    a3:c5:7b:dc:91:71:29:46:4e:1c:8e:82:2a:d6:bb:
                    f9:5a:91:be:f0:a7:a9:b2:d5:8c:df:a2:d2:eb:3a:
                    e4:49:30:8b:83:20:6d:fb:af:90:19:3e:44:b5:d3:
                    bb:05:a1:15:a1:0d:4c:61:82:63:5e:24:a5:94:df:
                    a9:35:5a:0f:56:eb:8c:1d:a5:0e:80:4a:16:d1:ef:
                    dd:cf:84:f6:45:55:65:55:b8:73:ae:ca:1c:f8:c7:
                    e2:67:e8:8a:42:5e:eb:f6:2c:bf:55:1c:18:39:51:
                    5b:15:16:1b:0a:06:ba:b0:ad:bc:45:2d:23:5c:3a:
                    ca:2b:04:c9:a2:4f:a6:80:ec:d2:b8:d7:98:44:69:
                    3c:3c:2e:ab:b4:44:e2:50:6a:b8:a6:59:db:d4:61:
                    54:fd
                Exponent: 65537 (0x10001)
        X509v3 extensions:
            X509v3 Subject Key Identifier: 
                5B:3D:C4:92:95:A9:93:D8:29:1F:56:EB:DA:A0:3C:1A:C0:BD:5D:AB
            X509v3 Authority Key Identifier: 
                keyid:FB:3A:43:9C:BA:40:89:72:5B:BD:26:8A:3B:25:77:1C:C1:F0:2C:7E

            Authority Information Access: 
                CA Issuers - URI:http://url-for-aia/Intermediate.cer

            X509v3 CRL Distribution Points: 

                Full Name:
                  URI:http://url-for-crl/Intermediate.crl

            X509v3 Key Usage: critical
                Digital Signature, Key Encipherment
            X509v3 Extended Key Usage: 
                TLS Web Server Authentication, TLS Web Client Authentication
            X509v3 Basic Constraints: critical
                CA:FALSE, pathlen:1
    Signature Algorithm: sha256WithRSAEncryption
         69:8a:39:36:b6:e9:e9:45:2b:cf:6a:01:60:aa:3c:35:01:c9:
         42:70:04:69:d9:20:5b:8c:d4:66:d9:74:7a:dc:d9:d9:f6:f1:
         66:77:70:e8:9f:de:5a:7e:4e:c7:66:33:db:2f:4c:48:d4:9c:
         b2:5c:2a:34:02:31:56:2f:62:11:0a:69:6b:5a:b2:7d:c4:e5:
         98:0a:d3:7a:04:a4:4c:e7:91:b6:9b:54:e9:10:d3:8d:69:38:
         69:50:4e:b4:0e:a0:6a:fd:30:f2:03:b2:a1:77:f3:ce:d4:e1:
         02:9b:35:2f:58:b4:b1:03:e7:e4:52:3e:77:3a:a6:d9:9d:38:
         f7:0e:7f:47:4a:b4:8e:b6:a7:0a:a9:a7:25:e8:03:8a:16:30:
         4d:a7:c9:5d:3b:ca:4e:ef:93:7f:26:02:f1:f8:c4:cc:1e:69:
         41:a8:67:3a:b3:73:6f:ac:bb:85:e7:11:eb:29:37:bb:3d:a2:
         4b:34:32:b3:ae:6e:6b:87:23:8c:44:63:07:63:bc:03:52:b9:
         72:77:bc:06:99:99:2f:ed:2d:51:ca:75:c1:14:7f:88:b8:64:
         21:cf:5b:c9:bd:8c:e9:fb:81:bc:c8:53:dc:50:38:bc:d5:29:
         83:02:3b:03:cc:30:c3:96:f5:69:af:a6:d6:cb:d3:ed:b9:cf:
         ae:cd:6f:c1
-----BEGIN CERTIFICATE-----
MIIDnjCCAoagAwIBAgIBATANBgkqhkiG9w0BAQsFADAXMRUwEwYDVQQDDAxJbnRl
cm1lZGlhdGUwHhcNMTUwMTAxMTIwMDAwWhcNMTYwMTAxMTIwMDAwWjARMQ8wDQYD
VQQDDAZUYXJnZXQwggEiMA0GCSqGSIb3DQEBAQUAA4IBDwAwggEKAoIBAQC6gFzw
1yPwadm3j/zD1EeiQSl3AVA8hI9S9xFtxHUEhEiYjE679kviy02+Adyyjki22nZN
sCh1lCjXRCwNpXD+uOzD0A2LdEoYuRO7sZmACdC9AKMgZHC7GAB8YR9d0twjamrj
imwTm6PFe9yRcSlGThyOgirWu/lakb7wp6my1YzfotLrOuRJMIuDIG37r5AZPkS1
07sFoRWhDUxhgmNeJKWU36k1Wg9W64wdpQ6AShbR793PhPZFVWVVuHOuyhz4x+Jn
6IpCXuv2LL9VHBg5UVsVFhsKBrqwrbxFLSNcOsorBMmiT6aA7NK415hEaTw8Lqu0
ROJQarimWdvUYVT9AgMBAAGjgfowgfcwHQYDVR0OBBYEFFs9xJKVqZPYKR9W69qg
PBrAvV2rMB8GA1UdIwQYMBaAFPs6Q5y6QIlyW70mijsldxzB8Cx+MD8GCCsGAQUF
BwEBBDMwMTAvBggrBgEFBQcwAoYjaHR0cDovL3VybC1mb3ItYWlhL0ludGVybWVk
aWF0ZS5jZXIwNAYDVR0fBC0wKzApoCegJYYjaHR0cDovL3VybC1mb3ItY3JsL0lu
dGVybWVkaWF0ZS5jcmwwDgYDVR0PAQH/BAQDAgWgMB0GA1UdJQQWMBQGCCsGAQUF
BwMBBggrBgEFBQcDAjAPBgNVHRMBAf8EBTADAgEBMA0GCSqGSIb3DQEBCwUAA4IB
AQBpijk2tunpRSvPagFgqjw1AclCcARp2SBbjNRm2XR63NnZ9vFmd3Don95afk7H
ZjPbL0xI1JyyXCo0AjFWL2IRCmlrWrJ9xOWYCtN6BKRM55G2m1TpENONaThpUE60
DqBq/TDyA7Khd/PO1OECmzUvWLSxA+fkUj53OqbZnTj3Dn9HSrSOtqcKqacl6AOK
FjBNp8ldO8pO75N/JgLx+MTMHmlBqGc6s3NvrLuF5xHrKTe7PaJLNDKzrm5rhyOM
RGMHY7wDUrlyd7wGmZkv7S1RynXBFH+IuGQhz1vJvYzp+4G8yFPcUDi81SmDAjsD
zDDDlvVpr6bWy9Ptuc+uzW/B
-----END CERTIFICATE-----

Certificate:
    Data:
        Version: 3 (0x2)
        Serial Number: 2 (0x2)
    Signature Algorithm: sha256WithRSAEncryption
        Issuer: CN=Root
        Validity
            Not Before: Jan  1 12:00:00 2015 GMT
            Not After : Jan  1 12:00:00 2016 GMT
        Subject: CN=Intermediate
        Subject Public Key Info:
            Public Key Algorithm: rsaEncryption
                Public-Key: (2048 bit)
                Modulus:
                    00:b1:bb:78:97:4a:b5:56:42:fa:f9:6b:63:6c:f3:
                    0e:54:92:6c:84:d4:c7:53:48:24:c1:bd:6f:d0:83:
                    ad:f3:7a:5c:93:f1:74:38:ba:46:f1:19:db:0e:fb:
                    1b:b4:f2:9e:8b:c4:10:8e:97:b1:ff:f8:2d:03:cd:
                    36:91:8a:2c:e8:d8:da:a4:7e:58:8d:fb:ff:99:2b:
                    d5:e1:b3:63:7f:ec:2c:66:b5:0d:ca:ba:e1:74:5e:
                    b3:ad:bf:49:65:74:52:30:78:ed:ea:7c:08:26:32:
                    f1:d5:e3:ea:01:7e:3a:fc:0e:84:d6:17:aa:98:f8:
                    92:63:77:4d:5c:d3:13:61:af:e3:d8:35:0c:ff:1e:
                    39:91:0c:24:a9:ec:89:ab:28:97:97:56:eb:2a:73:
                    70:e7:46:17:89:1e:42:73:a5:f6:b6:de:5a:bc:24:
                    69:5d:41:09:31:f6:12:d3:57:2d:dc:96:9c:0a:4d:
                    64:f0:c4:24:44:8e:1d:66:37:a1:01:1a:d5:89:a8:
                    9c:81:82:00:d9:f5:56:e9:58:df:ea:5d:32:7e:fb:
                    2d:19:1b:39:b4:fb:77:2c:2e:e1:ae:f5:ea:b0:ad:
                    b7:d4:2e:35:86:26:9f:96:c6:e3:4c:27:7b:6a:7d:
                    a2:4e:bf:cb:59:33:85:6f:d1:98:e4:27:3c:95:3f:
                    fd:ad
                Exponent: 65537 (0x10001)
        X509v3 extensions:
            X509v3 Subject Key Identifier: 
                FB:3A:43:9C:BA:40:89:72:5B:BD:26:8A:3B:25:77:1C:C1:F0:2C:7E
            X509v3 Authority Key Identifier: 
                keyid:8F:4E:5E:78:19:AE:28:82:69:2F:CF:33:95:04:C1:CD:75:D1:F6:FF

            Authority Information Access: 
                CA Issuers - URI:http://url-for-aia/Root.cer

            X509v3 CRL Distribution Points: 

                Full Name:
                  URI:http://url-for-crl/Root.crl

            X509v3 Key Usage: critical
                Certificate Sign, CRL Sign
            X509v3 Basic Constraints: critical
                CA:TRUE
    Signature Algorithm: sha256WithRSAEncryption
         1e:fc:c8:bb:67:ec:94:d3:7a:62:ee:88:f7:04:40:0f:82:05:
         9e:4e:08:cc:ee:5a:42:b1:ca:e4:eb:c6:32:76:cf:c2:0a:9a:
         04:43:e9:c0:f7:d9:ef:a8:c1:aa:39:09:5c:cc:f7:3e:15:a2:
         dc:52:ba:02:35:c4:e4:10:b9:6e:f2:fa:4b:85:d0:a4:e8:34:
         ef:39:fc:64:94:2a:43:f5:de:46:73:99:6b:bb:68:f5:47:b9:
         af:ec:f4:65:22:e9:c0:28:09:c3:b8:78:9b:82:51:a7:c6:a4:
         59:ac:4c:45:3b:dc:4a:2a:a1:4d:a6:44:d0:66:6e:de:20:e6:
         cc:2a:ae:b5:4a:ca:c3:8e:80:5b:e1:ee:1e:a1:ce:95:f5:d7:
         a2:c0:57:2a:bb:eb:2d:74:f0:c3:12:48:87:c9:d7:26:76:73:
         2e:2b:88:bd:b1:0b:fa:3c:18:b0:78:14:26:84:2e:0f:8d:6a:
         ec:5d:3e:1a:6d:09:e7:88:dc:c8:79:6c:95:75:30:ae:6b:5b:
         85:a6:ce:7b:79:86:f4:20:bd:cd:39:5f:4a:01:0d:64:b5:6f:
         61:ca:d0:88:0c:60:26:6f:32:c1:50:f5:f3:b9:6c:95:b6:89:
         ae:5d:ef:bf:cc:94:9b:5d:aa:b0:78:6c:02:b4:12:a7:f4:38:
         f3:de:60:05
-----BEGIN CERTIFICATE-----
MIIDbTCCAlWgAwIBAgIBAjANBgkqhkiG9w0BAQsFADAPMQ0wCwYDVQQDDARSb290
MB4XDTE1MDEwMTEyMDAwMFoXDTE2MDEwMTEyMDAwMFowFzEVMBMGA1UEAwwMSW50
ZXJtZWRpYXRlMIIBIjANBgkqhkiG9w0BAQEFAAOCAQ8AMIIBCgKCAQEAsbt4l0q1
VkL6+WtjbPMOVJJshNTHU0gkwb1v0IOt83pck/F0OLpG8RnbDvsbtPKei8QQjpex
//gtA802kYos6NjapH5Yjfv/mSvV4bNjf+wsZrUNyrrhdF6zrb9JZXRSMHjt6nwI
JjLx1ePqAX46/A6E1heqmPiSY3dNXNMTYa/j2DUM/x45kQwkqeyJqyiXl1brKnNw
50YXiR5Cc6X2tt5avCRpXUEJMfYS01ct3JacCk1k8MQkRI4dZjehARrViaicgYIA
2fVW6Vjf6l0yfvstGRs5tPt3LC7hrvXqsK231C41hiaflsbjTCd7an2iTr/LWTOF
b9GY5Cc8lT/9rQIDAQABo4HLMIHIMB0GA1UdDgQWBBT7OkOcukCJclu9Joo7JXcc
wfAsfjAfBgNVHSMEGDAWgBSPTl54Ga4ogmkvzzOVBMHNddH2/zA3BggrBgEFBQcB
AQQrMCkwJwYIKwYBBQUHMAKGG2h0dHA6Ly91cmwtZm9yLWFpYS9Sb290LmNlcjAs
BgNVHR8EJTAjMCGgH6AdhhtodHRwOi8vdXJsLWZvci1jcmwvUm9vdC5jcmwwDgYD
VR0PAQH/BAQDAgEGMA8GA1UdEwEB/wQFMAMBAf8wDQYJKoZIhvcNAQELBQADggEB
AB78yLtn7JTTemLuiPcEQA+CBZ5OCMzuWkKxyuTrxjJ2z8IKmgRD6cD32e+owao5
CVzM9z4VotxSugI1xOQQuW7y+kuF0KToNO85/GSUKkP13kZzmWu7aPVHua/s9GUi
6cAoCcO4eJuCUafGpFmsTEU73EoqoU2mRNBmbt4g5swqrrVKysOOgFvh7h6hzpX1
16LAVyq76y108MMSSIfJ1yZ2cy4riL2xC/o8GLB4FCaELg+NauxdPhptCeeI3Mh5
bJV1MK5rW4Wmznt5hvQgvc05X0oBDWS1b2HK0IgMYCZvMsFQ9fO5bJW2ia5d77/M
lJtdqrB4bAK0Eqf0OPPeYAU=
-----END CERTIFICATE-----

Certificate:
    Data:
        Version: 3 (0x2)
        Serial Number: 1 (0x1)
    Signature Algorithm: sha256WithRSAEncryption
        Issuer: CN=Root
        Validity
            Not Before: Jan  1 12:00:00 2015 GMT
            Not After : Jan  1 12:00:00 2016 GMT
        Subject: CN=Root
        Subject Public Key Info:
            Public Key Algorithm: rsaEncryption
                Public-Key: (2048 bit)
                Modulus:
                    00:b3:59:c0:d6:b0:f3:cb:31:46:9d:ef:de:63:f3:
                    1a:24:10:36:fb:e8:ee:05:76:21:51:51:fd:52:47:
                    97:12:13:46:42:bc:94:37:5e:e6:41:d2:d8:75:27:
                    2c:3d:04:bc:e1:ac:bc:a8:f6:d8:74:63:9a:be:a9:
                    7b:d2:1b:96:87:25:3b:ce:d1:ff:b4:dd:fa:29:64:
                    ae:df:4c:1b:b4:fb:9e:8a:9a:6c:74:ba:2a:76:45:
                    03:b7:91:7e:90:ba:04:3d:dc:0a:17:77:b3:5f:dc:
                    56:07:eb:63:5e:2b:54:c9:d7:b3:4b:f3:42:6b:9e:
                    2a:80:9c:71:52:5d:0f:6d:97:c6:d3:f6:c4:7a:7a:
                    ee:ea:22:4f:1c:e8:42:55:6e:b2:2a:56:cf:86:3c:
                    94:d1:e7:e0:7c:78:8c:94:05:05:b0:3f:b2:70:18:
                    da:92:d2:9a:ba:57:7c:fb:52:4b:0f:34:cb:dc:ab:
                    40:a0:76:4e:cc:11:b9:57:be:f2:e2:fa:2b:ba:20:
                    b0:c8:ee:8d:0a:11:a2:02:d4:f7:38:3d:f4:a8:49:
                    f4:b4:8a:08:ff:d0:c3:25:21:0e:dc:f0:17:22:f2:
                    bf:07:3d:e7:5f:4c:b2:cd:1a:18:f1:fd:3a:5a:42:
                    79:b3:82:47:ad:ad:e0:02:7f:0b:19:34:5d:3b:90:
                    81:23
                Exponent: 65537 (0x10001)
        X509v3 extensions:
            X509v3 Subject Key Identifier: 
                8F:4E:5E:78:19:AE:28:82:69:2F:CF:33:95:04:C1:CD:75:D1:F6:FF
            X509v3 Authority Key Identifier: 
                keyid:8F:4E:5E:78:19:AE:28:82:69:2F:CF:33:95:04:C1:CD:75:D1:F6:FF

            Authority Information Access: 
                CA Issuers - URI:http://url-for-aia/Root.cer

            X509v3 CRL Distribution Points: 

                Full Name:
                  URI:http://url-for-crl/Root.crl

            X509v3 Key Usage: critical
                Certificate Sign, CRL Sign
            X509v3 Basic Constraints: critical
                CA:TRUE
    Signature Algorithm: sha256WithRSAEncryption
         31:70:94:d1:2f:b7:58:d6:e9:18:c0:d8:21:be:f7:e5:08:1b:
         34:82:32:4a:2f:55:e8:99:2f:ae:27:ea:f8:53:b3:2b:e1:84:
         17:ed:4b:7e:b8:79:5c:4f:d6:a7:fd:93:f4:dc:f3:ee:97:aa:
         42:27:44:20:d2:f6:7b:32:b8:20:24:a3:06:cb:e6:b0:73:d5:
         3a:c3:cb:ea:09:0f:94:d4:ee:13:bf:28:40:5a:1c:fc:ae:8f:
         7d:06:87:b1:1c:82:e9:1f:ed:97:11:db:1e:e8:0f:61:65:05:
         d4:0e:4d:39:a2:6d:7b:bd:ce:36:63:48:72:9b:fb:ed:c9:09:
         11:23:8c:6a:e8:61:95:5b:f4:01:89:3f:81:75:65:46:6b:8b:
         fe:51:45:c9:47:67:3d:d1:4c:ce:bf:1e:5a:bd:fe:2f:78:9d:
         77:95:15:17:47:57:68:bf:18:36:ba:5d:f8:56:94:14:44:76:
         82:23:dc:1f:79:0e:55:50:83:1c:da:72:70:a8:e8:60:c8:eb:
         09:99:56:6d:4d:f9:23:9f:95:e8:82:23:5b:16:ff:2e:29:a4:
         a1:3b:f5:b4:cd:11:57:fe:fc:ab:a1:75:63:f9:60:85:50:b3:
         18:eb:84:53:d0:73:ca:51:f6:2f:3c:cd:af:75:b0:f2:9b:a5:
         83:62:cd:81
-----BEGIN CERTIFICATE-----
MIIDZTCCAk2gAwIBAgIBATANBgkqhkiG9w0BAQsFADAPMQ0wCwYDVQQDDARSb290
MB4XDTE1MDEwMTEyMDAwMFoXDTE2MDEwMTEyMDAwMFowDzENMAsGA1UEAwwEUm9v
dDCCASIwDQYJKoZIhvcNAQEBBQADggEPADCCAQoCggEBALNZwNaw88sxRp3v3mPz
GiQQNvvo7gV2IVFR/VJHlxITRkK8lDde5kHS2HUnLD0EvOGsvKj22HRjmr6pe9Ib
loclO87R/7Td+ilkrt9MG7T7noqabHS6KnZFA7eRfpC6BD3cChd3s1/cVgfrY14r
VMnXs0vzQmueKoCccVJdD22XxtP2xHp67uoiTxzoQlVusipWz4Y8lNHn4Hx4jJQF
BbA/snAY2pLSmrpXfPtSSw80y9yrQKB2TswRuVe+8uL6K7ogsMjujQoRogLU9zg9
9KhJ9LSKCP/QwyUhDtzwFyLyvwc9519Mss0aGPH9OlpCebOCR62t4AJ/Cxk0XTuQ
gSMCAwEAAaOByzCByDAdBgNVHQ4EFgQUj05eeBmuKIJpL88zlQTBzXXR9v8wHwYD
VR0jBBgwFoAUj05eeBmuKIJpL88zlQTBzXXR9v8wNwYIKwYBBQUHAQEEKzApMCcG
CCsGAQUFBzAChhtodHRwOi8vdXJsLWZvci1haWEvUm9vdC5jZXIwLAYDVR0fBCUw
IzAhoB+gHYYbaHR0cDovL3VybC1mb3ItY3JsL1Jvb3QuY3JsMA4GA1UdDwEB/wQE
AwIBBjAPBgNVHRMBAf8EBTADAQH/MA0GCSqGSIb3DQEBCwUAA4IBAQAxcJTRL7dY
1ukYwNghvvflCBs0gjJKL1XomS+uJ+r4U7Mr4YQX7Ut+uHlcT9an/ZP03PPul6pC
J0Qg0vZ7MrggJKMGy+awc9U6w8vqCQ+U1O4TvyhAWhz8ro99BoexHILpH+2XEdse
6A9hZQXUDk05om17vc42Y0hym/vtyQkRI4xq6GGVW/QBiT+BdWVGa4v+UUXJR2c9
0UzOvx5avf4veJ13lRUXR1dovxg2ul34VpQURHaCI9wfeQ5VUIMc2nJwqOhgyOsJ
mVZtTfkjn5XogiNbFv8uKaShO/W0zRFX/vyroXVj+WCFULMY64RT0HPKUfYvPM2v
dbDym6WDYs2B
-----END CERTIFICATE-----
