[Created by: generate-chains.py]

Certificate chain where the target uses a RSA key and has the single key usage decipherOnly

Certificate:
    Data:
        Version: 3 (0x2)
        Serial Number: 5 (0x5)
    Signature Algorithm: sha256WithRSAEncryption
        Issuer: CN=Intermediate
        Validity
            Not Before: Jan  1 12:00:00 2015 GMT
            Not After : Jan  1 12:00:00 2016 GMT
        Subject: CN=Target
        Subject Public Key Info:
            Public Key Algorithm: rsaEncryption
                Public-Key: (2048 bit)
                Modulus:
                    00:c8:f4:c3:ff:ae:99:44:dc:07:19:62:59:1d:ba:
                    0e:13:d0:78:b6:a0:7f:ca:74:4f:a4:c2:5c:de:04:
                    e2:ea:22:d9:28:4d:45:54:14:4c:e8:56:d4:7b:8a:
                    64:fa:f9:e4:14:23:c0:ad:cc:25:63:38:59:55:00:
                    51:e2:82:ac:ae:47:3b:da:e2:95:79:1c:b5:96:ca:
                    d2:4a:3c:f7:b8:7a:cc:9e:e2:8d:d0:17:0b:bc:6e:
                    0e:3c:c2:05:3a:21:64:00:db:c3:08:b5:e6:cf:78:
                    5d:2b:3c:ba:54:a9:5a:64:4e:1b:d8:3a:eb:14:d3:
                    5a:ad:da:6f:d6:a2:e1:7e:0f:ff:ce:71:85:14:c7:
                    fe:54:65:f9:c6:47:73:ae:6e:9b:81:e7:55:cb:7e:
                    ea:76:a8:48:f9:62:25:40:0e:d1:cf:90:8f:68:f7:
                    94:20:69:a4:14:8a:14:24:53:3d:55:b8:5a:31:ae:
                    7c:36:74:d2:c2:2c:ce:7b:e9:83:69:56:16:ec:f9:
                    bb:7c:b0:14:6f:95:12:da:7c:b0:23:b8:5d:41:dc:
                    bc:ad:24:d9:b6:6a:3f:82:6c:74:a0:73:68:5a:d3:
                    e4:f2:0a:93:b9:1c:ee:bb:ce:e2:d8:86:86:8e:e0:
                    24:58:e3:ec:f5:e3:84:36:e9:a6:62:72:5c:4b:0c:
                    9c:15
                Exponent: 65537 (0x10001)
        X509v3 extensions:
            X509v3 Subject Key Identifier: 
                F1:A9:E2:E9:58:C3:31:AD:E2:60:9B:55:C0:A2:0A:80:7B:15:10:2D
            X509v3 Authority Key Identifier: 
                keyid:80:14:1E:04:C6:A0:C4:28:25:30:28:59:BD:40:1A:65:07:05:18:38

            Authority Information Access: 
                CA Issuers - URI:http://url-for-aia/Intermediate.cer

            X509v3 CRL Distribution Points: 

                Full Name:
                  URI:http://url-for-crl/Intermediate.crl

            X509v3 Key Usage: critical
                Decipher Only
            X509v3 Extended Key Usage: 
                TLS Web Server Authentication
    Signature Algorithm: sha256WithRSAEncryption
         94:ad:29:5c:ea:65:06:e4:53:7e:84:0b:73:6c:fa:ee:b7:b4:
         1c:75:83:27:06:80:5c:a0:21:2f:46:90:2f:bf:60:5f:3c:83:
         9c:45:9f:de:93:fb:e5:7d:e1:a1:f2:fd:af:af:e9:06:00:33:
         e6:6c:06:32:f3:2b:8d:0a:83:3a:c1:6f:82:9c:30:f0:0b:20:
         22:8a:44:fa:ba:a3:fa:74:a0:c2:8e:c6:f3:cf:f3:d9:ae:ef:
         3c:94:36:9e:0b:2d:7c:57:ff:3d:b2:76:dd:ca:2e:9f:ef:5b:
         e6:36:09:b8:fc:5c:0f:38:ba:1d:34:21:ed:33:d7:e6:fc:4c:
         c9:c0:dd:87:7b:64:fb:0e:97:74:33:9d:ef:34:b9:d9:fa:de:
         2e:e1:e1:e0:ef:d2:9c:67:af:f5:8f:6b:f3:56:f2:9c:51:b1:
         5d:81:b1:b0:c4:a8:69:02:f9:5b:d9:96:54:84:52:ae:21:f8:
         1b:44:14:3a:45:10:7a:5f:98:c7:13:47:5b:09:af:5a:5a:a8:
         af:b3:01:ba:ce:b6:38:bc:f0:ff:6c:ed:9e:f8:59:20:7b:69:
         1c:a2:b6:25:04:d6:32:ee:3f:a4:be:e2:1e:eb:48:5c:64:4a:
         f6:72:f1:94:59:b5:06:45:93:14:28:91:0b:7f:69:15:14:35:
         77:e3:0b:45
-----BEGIN CERTIFICATE-----
MIIDhDCCAmygAwIBAgIBBTANBgkqhkiG9w0BAQsFADAXMRUwEwYDVQQDDAxJbnRl
cm1lZGlhdGUwHhcNMTUwMTAxMTIwMDAwWhcNMTYwMTAxMTIwMDAwWjARMQ8wDQYD
VQQDDAZUYXJnZXQwggEiMA0GCSqGSIb3DQEBAQUAA4IBDwAwggEKAoIBAQDI9MP/
rplE3AcZYlkdug4T0Hi2oH/KdE+kwlzeBOLqItkoTUVUFEzoVtR7imT6+eQUI8Ct
zCVjOFlVAFHigqyuRzva4pV5HLWWytJKPPe4esye4o3QFwu8bg48wgU6IWQA28MI
tebPeF0rPLpUqVpkThvYOusU01qt2m/WouF+D//OcYUUx/5UZfnGR3OubpuB51XL
fup2qEj5YiVADtHPkI9o95QgaaQUihQkUz1VuFoxrnw2dNLCLM576YNpVhbs+bt8
sBRvlRLafLAjuF1B3LytJNm2aj+CbHSgc2ha0+TyCpO5HO67zuLYhoaO4CRY4+z1
44Q26aZiclxLDJwVAgMBAAGjgeAwgd0wHQYDVR0OBBYEFPGp4ulYwzGt4mCbVcCi
CoB7FRAtMB8GA1UdIwQYMBaAFIAUHgTGoMQoJTAoWb1AGmUHBRg4MD8GCCsGAQUF
BwEBBDMwMTAvBggrBgEFBQcwAoYjaHR0cDovL3VybC1mb3ItYWlhL0ludGVybWVk
aWF0ZS5jZXIwNAYDVR0fBC0wKzApoCegJYYjaHR0cDovL3VybC1mb3ItY3JsL0lu
dGVybWVkaWF0ZS5jcmwwDwYDVR0PAQH/BAUDAwcAgDATBgNVHSUEDDAKBggrBgEF
BQcDATANBgkqhkiG9w0BAQsFAAOCAQEAlK0pXOplBuRTfoQLc2z67re0HHWDJwaA
XKAhL0aQL79gXzyDnEWf3pP75X3hofL9r6/pBgAz5mwGMvMrjQqDOsFvgpww8Asg
IopE+rqj+nSgwo7G88/z2a7vPJQ2ngstfFf/PbJ23coun+9b5jYJuPxcDzi6HTQh
7TPX5vxMycDdh3tk+w6XdDOd7zS52freLuHh4O/SnGev9Y9r81bynFGxXYGxsMSo
aQL5W9mWVIRSriH4G0QUOkUQel+YxxNHWwmvWlqor7MBus62OLzw/2ztnvhZIHtp
HKK2JQTWMu4/pL7iHutIXGRK9nLxlFm1BkWTFCiRC39pFRQ1d+MLRQ==
-----END CERTIFICATE-----

Certificate:
    Data:
        Version: 3 (0x2)
        Serial Number: 2 (0x2)
    Signature Algorithm: sha256WithRSAEncryption
        Issuer: CN=Root
        Validity
            Not Before: Jan  1 12:00:00 2015 GMT
            Not After : Jan  1 12:00:00 2016 GMT
        Subject: CN=Intermediate
        Subject Public Key Info:
            Public Key Algorithm: rsaEncryption
                Public-Key: (2048 bit)
                Modulus:
                    00:ad:ea:23:0c:dc:31:55:3d:23:7a:a3:0f:5e:16:
                    9e:62:44:e4:28:bf:0b:b0:76:a3:5e:71:e7:a9:85:
                    52:1e:ae:3b:2b:21:0d:95:35:73:c2:c0:a0:78:13:
                    d3:fc:27:57:8a:98:de:83:e3:8f:a3:13:a5:20:a7:
                    a9:bf:c8:f5:02:1b:08:1a:2e:a5:04:7a:11:24:a1:
                    59:11:3d:c0:3b:57:35:62:cd:2a:41:cd:5c:15:35:
                    ac:c8:66:f8:a9:f2:d4:1c:0c:b4:dc:9d:7b:99:f9:
                    07:1b:c9:f0:03:6a:6c:71:d8:e6:cb:7a:ec:c7:a7:
                    b7:36:0b:f0:49:22:37:22:f4:77:f3:1a:a6:57:59:
                    0b:6c:6a:3b:b8:d1:47:df:48:ac:54:ee:82:1e:39:
                    14:dc:a6:9c:ab:33:b7:87:4f:3b:70:55:af:db:40:
                    e5:26:a9:0f:bc:59:8f:61:92:47:0a:34:73:de:fb:
                    25:fa:f1:bd:a4:03:35:93:5e:57:a3:a3:3f:13:e6:
                    09:68:c5:51:29:20:53:b8:5e:fa:8a:ce:e8:0a:ef:
                    9e:07:6e:55:f7:f6:c1:e7:12:9f:22:c1:72:b8:2a:
                    af:25:34:eb:08:28:36:73:8e:f6:80:70:21:16:8a:
                    81:2b:69:47:62:c5:ef:7e:dd:80:7c:09:4e:6d:57:
                    86:4f
                Exponent: 65537 (0x10001)
        X509v3 extensions:
            X509v3 Subject Key Identifier: 
                80:14:1E:04:C6:A0:C4:28:25:30:28:59:BD:40:1A:65:07:05:18:38
            X509v3 Authority Key Identifier: 
                keyid:71:50:52:35:92:69:F7:54:B1:8A:0C:C1:93:87:3E:84:E9:BE:5C:80

            Authority Information Access: 
                CA Issuers - URI:http://url-for-aia/Root.cer

            X509v3 CRL Distribution Points: 

                Full Name:
                  URI:http://url-for-crl/Root.crl

            X509v3 Key Usage: critical
                Certificate Sign, CRL Sign
            X509v3 Basic Constraints: critical
                CA:TRUE
    Signature Algorithm: sha256WithRSAEncryption
         13:bc:fc:4c:c8:34:97:a7:cb:9c:1f:4f:2d:bd:64:07:c0:2f:
         9e:e2:1b:b5:d4:03:b9:3e:19:47:5d:35:e2:1a:76:76:0e:b6:
         6c:18:00:43:64:53:6f:27:46:56:01:90:3f:2a:e5:7c:68:ea:
         7c:3f:f1:ac:8f:2b:80:8c:d8:0e:fc:3d:4a:06:85:b1:c5:8a:
         d4:d4:b2:f4:d3:20:b8:d3:6e:26:38:80:1c:01:ed:89:9c:0d:
         d9:6f:be:34:e0:ba:cf:37:16:0b:f6:bf:fd:fd:05:79:c7:7b:
         31:07:56:d3:70:bb:94:b8:36:08:35:ca:5e:10:14:db:1d:30:
         53:1e:4a:bf:8a:1e:70:4e:77:4d:07:1e:c3:41:f4:7a:dc:a7:
         4f:96:17:2a:b3:50:03:19:50:45:dd:68:f7:77:ca:78:14:84:
         bd:6e:63:c0:e3:17:c0:7c:18:c3:cd:0a:48:aa:75:58:f6:76:
         75:0a:92:e4:45:09:64:b3:f1:4e:40:dd:40:74:4b:75:cc:b3:
         4c:e1:23:01:78:d3:d4:9a:d2:2e:8f:09:50:14:d8:bd:82:1f:
         ea:f4:97:4d:c7:9a:d5:23:a0:7d:73:77:8c:4f:b3:78:d0:cf:
         82:39:0d:26:8d:f6:33:20:0e:6d:78:c0:82:4f:2b:0a:ac:8d:
         9b:23:1d:3a
-----BEGIN CERTIFICATE-----
MIIDbTCCAlWgAwIBAgIBAjANBgkqhkiG9w0BAQsFADAPMQ0wCwYDVQQDDARSb290
MB4XDTE1MDEwMTEyMDAwMFoXDTE2MDEwMTEyMDAwMFowFzEVMBMGA1UEAwwMSW50
ZXJtZWRpYXRlMIIBIjANBgkqhkiG9w0BAQEFAAOCAQ8AMIIBCgKCAQEAreojDNwx
VT0jeqMPXhaeYkTkKL8LsHajXnHnqYVSHq47KyENlTVzwsCgeBPT/CdXipjeg+OP
oxOlIKepv8j1AhsIGi6lBHoRJKFZET3AO1c1Ys0qQc1cFTWsyGb4qfLUHAy03J17
mfkHG8nwA2pscdjmy3rsx6e3NgvwSSI3IvR38xqmV1kLbGo7uNFH30isVO6CHjkU
3KacqzO3h087cFWv20DlJqkPvFmPYZJHCjRz3vsl+vG9pAM1k15Xo6M/E+YJaMVR
KSBTuF76is7oCu+eB25V9/bB5xKfIsFyuCqvJTTrCCg2c472gHAhFoqBK2lHYsXv
ft2AfAlObVeGTwIDAQABo4HLMIHIMB0GA1UdDgQWBBSAFB4ExqDEKCUwKFm9QBpl
BwUYODAfBgNVHSMEGDAWgBRxUFI1kmn3VLGKDMGThz6E6b5cgDA3BggrBgEFBQcB
AQQrMCkwJwYIKwYBBQUHMAKGG2h0dHA6Ly91cmwtZm9yLWFpYS9Sb290LmNlcjAs
BgNVHR8EJTAjMCGgH6AdhhtodHRwOi8vdXJsLWZvci1jcmwvUm9vdC5jcmwwDgYD
VR0PAQH/BAQDAgEGMA8GA1UdEwEB/wQFMAMBAf8wDQYJKoZIhvcNAQELBQADggEB
ABO8/EzINJeny5wfTy29ZAfAL57iG7XUA7k+GUddNeIadnYOtmwYAENkU28nRlYB
kD8q5Xxo6nw/8ayPK4CM2A78PUoGhbHFitTUsvTTILjTbiY4gBwB7YmcDdlvvjTg
us83Fgv2v/39BXnHezEHVtNwu5S4Ngg1yl4QFNsdMFMeSr+KHnBOd00HHsNB9Hrc
p0+WFyqzUAMZUEXdaPd3yngUhL1uY8DjF8B8GMPNCkiqdVj2dnUKkuRFCWSz8U5A
3UB0S3XMs0zhIwF409Sa0i6PCVAU2L2CH+r0l03HmtUjoH1zd4xPs3jQz4I5DSaN
9jMgDm14wIJPKwqsjZsjHTo=
-----END CERTIFICATE-----

Certificate:
    Data:
        Version: 3 (0x2)
        Serial Number: 1 (0x1)
    Signature Algorithm: sha256WithRSAEncryption
        Issuer: CN=Root
        Validity
            Not Before: Jan  1 12:00:00 2015 GMT
            Not After : Jan  1 12:00:00 2016 GMT
        Subject: CN=Root
        Subject Public Key Info:
            Public Key Algorithm: rsaEncryption
                Public-Key: (2048 bit)
                Modulus:
                    00:b2:df:0b:0b:a2:8a:9c:9c:68:ad:24:f9:f9:e6:
                    95:ef:e4:71:1e:00:fb:ec:bf:b1:cb:6e:d6:40:30:
                    42:7a:38:87:9e:5b:cd:58:3e:b7:31:5c:8d:0d:84:
                    7a:be:ef:e6:98:ba:4e:c5:ae:2b:2f:66:b2:b2:3f:
                    e7:c0:a8:8b:75:60:61:2a:67:8a:d2:55:72:83:e2:
                    ff:de:76:d6:63:58:79:ba:91:c1:80:e1:06:1b:35:
                    9c:b3:e9:19:f8:c7:21:80:dd:9e:04:18:35:de:df:
                    00:80:21:09:06:3c:6c:9a:de:10:d1:fd:4d:2f:27:
                    5e:56:24:44:67:88:48:e4:25:52:cc:c7:17:3f:69:
                    1f:76:fc:b1:83:45:48:5d:37:da:80:3e:3d:7f:f6:
                    8d:ec:83:00:d6:2f:c4:41:5d:79:ae:ad:14:4c:24:
                    b3:5e:1e:fe:ed:e8:39:17:4a:4b:ca:eb:10:5d:6e:
                    af:38:58:b1:12:a5:69:bd:bd:63:dd:f5:21:71:2c:
                    36:37:72:51:3b:3a:de:8f:1e:a0:e2:6b:45:da:02:
                    ad:7e:04:b7:d3:c8:64:34:c6:f4:08:a0:e5:c9:02:
                    1b:6f:42:22:be:d3:8b:7b:63:6e:39:c4:97:17:c6:
                    9a:ba:9e:26:9b:e1:65:a6:4d:4a:93:5e:b2:4e:18:
                    9d:c1
                Exponent: 65537 (0x10001)
        X509v3 extensions:
            X509v3 Subject Key Identifier: 
                71:50:52:35:92:69:F7:54:B1:8A:0C:C1:93:87:3E:84:E9:BE:5C:80
            X509v3 Authority Key Identifier: 
                keyid:71:50:52:35:92:69:F7:54:B1:8A:0C:C1:93:87:3E:84:E9:BE:5C:80

            Authority Information Access: 
                CA Issuers - URI:http://url-for-aia/Root.cer

            X509v3 CRL Distribution Points: 

                Full Name:
                  URI:http://url-for-crl/Root.crl

            X509v3 Key Usage: critical
                Certificate Sign, CRL Sign
            X509v3 Basic Constraints: critical
                CA:TRUE
    Signature Algorithm: sha256WithRSAEncryption
         7a:ca:a0:87:28:94:f4:16:26:cb:1d:3b:96:f7:ad:17:71:18:
         31:86:79:f0:f4:eb:57:33:61:58:33:ab:45:b4:40:50:05:a7:
         c6:b6:a8:38:b7:50:9f:59:85:f2:57:33:e9:6a:62:2b:4d:5d:
         c9:fb:fe:a1:ca:ce:59:25:5d:e7:fb:55:79:11:a5:ef:15:51:
         90:94:9a:58:20:ef:a9:83:38:42:2d:11:e8:18:d9:2d:1f:3f:
         1e:52:e3:59:25:d5:2d:f2:dd:ff:0c:89:07:68:05:45:3c:0e:
         85:3c:1f:e9:81:5f:c3:f7:ea:c2:d1:ed:24:d8:55:83:14:75:
         49:3f:52:e2:19:24:f6:d6:9f:82:75:74:e5:97:af:af:04:ab:
         6b:41:c7:61:1c:9b:ed:3e:9c:c6:ff:e7:61:3b:20:29:30:5f:
         5f:b5:47:71:c6:87:ae:aa:31:ce:d1:b1:3f:27:ee:ca:66:0e:
         6d:2b:e1:99:66:66:94:81:10:18:28:4f:51:32:7a:c4:e1:ce:
         16:ae:69:26:0e:ad:2e:e0:30:cc:52:00:18:3d:e2:75:76:83:
         1f:19:02:7c:f6:54:1e:77:f8:18:e2:1e:c0:0b:2a:b9:6a:6a:
         69:25:5d:a7:f9:c9:3b:bd:22:cc:3b:f1:fd:41:f1:a5:fc:6b:
         65:9e:df:7c
-----BEGIN CERTIFICATE-----
MIIDZTCCAk2gAwIBAgIBATANBgkqhkiG9w0BAQsFADAPMQ0wCwYDVQQDDARSb290
MB4XDTE1MDEwMTEyMDAwMFoXDTE2MDEwMTEyMDAwMFowDzENMAsGA1UEAwwEUm9v
dDCCASIwDQYJKoZIhvcNAQEBBQADggEPADCCAQoCggEBALLfCwuiipycaK0k+fnm
le/kcR4A++y/sctu1kAwQno4h55bzVg+tzFcjQ2Eer7v5pi6TsWuKy9msrI/58Co
i3VgYSpnitJVcoPi/9521mNYebqRwYDhBhs1nLPpGfjHIYDdngQYNd7fAIAhCQY8
bJreENH9TS8nXlYkRGeISOQlUszHFz9pH3b8sYNFSF032oA+PX/2jeyDANYvxEFd
ea6tFEwks14e/u3oORdKS8rrEF1urzhYsRKlab29Y931IXEsNjdyUTs63o8eoOJr
RdoCrX4Et9PIZDTG9Aig5ckCG29CIr7Ti3tjbjnElxfGmrqeJpvhZaZNSpNesk4Y
ncECAwEAAaOByzCByDAdBgNVHQ4EFgQUcVBSNZJp91SxigzBk4c+hOm+XIAwHwYD
VR0jBBgwFoAUcVBSNZJp91SxigzBk4c+hOm+XIAwNwYIKwYBBQUHAQEEKzApMCcG
CCsGAQUFBzAChhtodHRwOi8vdXJsLWZvci1haWEvUm9vdC5jZXIwLAYDVR0fBCUw
IzAhoB+gHYYbaHR0cDovL3VybC1mb3ItY3JsL1Jvb3QuY3JsMA4GA1UdDwEB/wQE
AwIBBjAPBgNVHRMBAf8EBTADAQH/MA0GCSqGSIb3DQEBCwUAA4IBAQB6yqCHKJT0
FibLHTuW960XcRgxhnnw9OtXM2FYM6tFtEBQBafGtqg4t1CfWYXyVzPpamIrTV3J
+/6hys5ZJV3n+1V5EaXvFVGQlJpYIO+pgzhCLRHoGNktHz8eUuNZJdUt8t3/DIkH
aAVFPA6FPB/pgV/D9+rC0e0k2FWDFHVJP1LiGST21p+CdXTll6+vBKtrQcdhHJvt
PpzG/+dhOyApMF9ftUdxxoeuqjHO0bE/J+7KZg5tK+GZZmaUgRAYKE9RMnrE4c4W
rmkmDq0u4DDMUgAYPeJ1doMfGQJ89lQed/gY4h7ACyq5amppJV2n+ck7vSLMO/H9
QfGl/Gtlnt98
-----END CERTIFICATE-----
