[Created by: generate-chains.py]

Certificate chain with 1 intermediate and a trusted root. The target
certificate has an unknown X.509v3 extension (OID=1.2.3.4) that is marked as
critical. Verifying this certificate chain is expected to fail because there is
an unrecognized critical extension.

Certificate:
    Data:
        Version: 3 (0x2)
        Serial Number: 1 (0x1)
    Signature Algorithm: sha256WithRSAEncryption
        Issuer: CN=Intermediate
        Validity
            Not Before: Jan  1 12:00:00 2015 GMT
            Not After : Jan  1 12:00:00 2016 GMT
        Subject: CN=Target
        Subject Public Key Info:
            Public Key Algorithm: rsaEncryption
                Public-Key: (2048 bit)
                Modulus:
                    00:bd:05:ea:3a:1c:14:a1:db:ad:2c:18:3d:25:9c:
                    dc:1c:0f:2b:1e:42:df:c2:7c:b4:39:e6:4b:45:eb:
                    d3:a2:1c:2b:dc:f2:8c:08:f5:81:df:bd:fa:a2:1a:
                    1c:5c:99:cb:00:c7:31:02:c8:44:5f:31:cf:9c:82:
                    6d:3c:0c:5d:f7:d6:cc:91:fe:f3:e7:7a:08:17:85:
                    d5:75:61:ee:dd:66:55:3c:e2:68:98:36:19:20:e4:
                    9b:cd:24:6c:a3:5d:89:84:80:2e:c7:11:4e:c1:82:
                    b2:80:ce:0f:e9:6a:42:54:10:fb:c0:0a:53:be:19:
                    01:38:ba:06:c5:93:93:1c:84:aa:25:c7:c5:9a:4d:
                    32:2e:a4:13:5e:6d:07:d6:9d:e5:b0:29:63:da:14:
                    b7:62:51:63:93:dc:28:ae:4a:bc:35:ac:c0:06:ea:
                    ea:0b:d5:70:61:3b:05:78:e4:d3:ad:c3:ad:95:f1:
                    48:e5:79:a6:dc:12:1f:14:4f:21:9f:ca:6f:7a:dd:
                    d6:45:c8:8a:60:96:1c:02:06:16:18:80:21:58:6a:
                    f6:83:3e:1a:98:b8:b2:a9:22:44:c2:25:e9:dc:a9:
                    aa:bf:1d:2e:3f:2e:a1:78:08:93:04:4c:c4:1f:f9:
                    b3:34:9f:a7:78:5b:02:a6:ca:d3:1f:fa:ba:4d:34:
                    a2:bb
                Exponent: 65537 (0x10001)
        X509v3 extensions:
            X509v3 Subject Key Identifier: 
                D6:55:4E:AC:07:84:35:A9:0D:9A:63:45:82:73:4E:A4:CC:53:B0:02
            X509v3 Authority Key Identifier: 
                keyid:8A:E3:E6:F6:58:6F:1C:90:B4:67:A5:14:D8:64:E7:F7:00:77:61:01

            Authority Information Access: 
                CA Issuers - URI:http://url-for-aia/Intermediate.cer

            X509v3 CRL Distribution Points: 

                Full Name:
                  URI:http://url-for-crl/Intermediate.crl

            X509v3 Key Usage: critical
                Digital Signature, Key Encipherment
            X509v3 Extended Key Usage: 
                TLS Web Server Authentication, TLS Web Client Authentication
            1.2.3.4: critical
                ....
    Signature Algorithm: sha256WithRSAEncryption
         9d:14:85:fa:0d:d6:72:ba:c0:d9:c6:d4:4e:f9:79:34:2f:ab:
         57:20:b8:92:52:8f:c6:9a:35:0c:f2:9c:a7:6b:fc:a9:e2:c9:
         02:6f:e9:9d:2c:9d:1e:95:22:d3:a1:85:9f:80:34:da:07:74:
         ee:2a:e1:cd:04:10:45:fa:2f:52:52:4c:2c:09:ce:9a:33:1d:
         ed:f3:31:11:bd:68:7b:a1:14:2f:2b:6c:6a:22:9c:3b:c7:7d:
         d3:fd:17:01:11:9e:b1:33:6c:91:01:a9:08:7f:77:b5:7e:5e:
         5e:77:56:86:9a:97:e1:9a:7b:d9:1b:f8:d9:19:70:1b:3c:52:
         ef:10:9b:ab:40:c1:41:f0:d4:11:25:74:8f:bc:1d:6c:55:55:
         28:e1:d6:75:12:48:3f:bb:74:d5:4d:8f:b0:77:c1:9e:d0:88:
         ff:fa:00:4c:ba:c6:6a:28:5b:1b:e7:e0:af:91:a8:73:54:de:
         3f:36:fd:f1:ab:73:91:fd:5f:3f:99:1d:46:83:0c:b4:c2:b5:
         c9:17:e3:e9:e5:6e:24:80:a1:f1:52:8a:a8:b6:20:70:b4:d1:
         8a:8d:c4:cb:08:48:ec:31:03:d2:9f:0c:31:ee:18:12:d5:d7:
         c9:60:af:5d:95:4e:72:b0:2a:4d:02:0d:3c:6f:86:d6:9d:89:
         0f:ff:fc:bb
-----BEGIN CERTIFICATE-----
MIIDnTCCAoWgAwIBAgIBATANBgkqhkiG9w0BAQsFADAXMRUwEwYDVQQDDAxJbnRl
cm1lZGlhdGUwHhcNMTUwMTAxMTIwMDAwWhcNMTYwMTAxMTIwMDAwWjARMQ8wDQYD
VQQDDAZUYXJnZXQwggEiMA0GCSqGSIb3DQEBAQUAA4IBDwAwggEKAoIBAQC9Beo6
HBSh260sGD0lnNwcDyseQt/CfLQ55ktF69OiHCvc8owI9YHfvfqiGhxcmcsAxzEC
yERfMc+cgm08DF331syR/vPneggXhdV1Ye7dZlU84miYNhkg5JvNJGyjXYmEgC7H
EU7BgrKAzg/pakJUEPvAClO+GQE4ugbFk5MchKolx8WaTTIupBNebQfWneWwKWPa
FLdiUWOT3CiuSrw1rMAG6uoL1XBhOwV45NOtw62V8UjleabcEh8UTyGfym963dZF
yIpglhwCBhYYgCFYavaDPhqYuLKpIkTCJencqaq/HS4/LqF4CJMETMQf+bM0n6d4
WwKmytMf+rpNNKK7AgMBAAGjgfkwgfYwHQYDVR0OBBYEFNZVTqwHhDWpDZpjRYJz
TqTMU7ACMB8GA1UdIwQYMBaAFIrj5vZYbxyQtGelFNhk5/cAd2EBMD8GCCsGAQUF
BwEBBDMwMTAvBggrBgEFBQcwAoYjaHR0cDovL3VybC1mb3ItYWlhL0ludGVybWVk
aWF0ZS5jZXIwNAYDVR0fBC0wKzApoCegJYYjaHR0cDovL3VybC1mb3ItY3JsL0lu
dGVybWVkaWF0ZS5jcmwwDgYDVR0PAQH/BAQDAgWgMB0GA1UdJQQWMBQGCCsGAQUF
BwMBBggrBgEFBQcDAjAOBgMqAwQBAf8EBAECAwQwDQYJKoZIhvcNAQELBQADggEB
AJ0UhfoN1nK6wNnG1E75eTQvq1cguJJSj8aaNQzynKdr/KniyQJv6Z0snR6VItOh
hZ+ANNoHdO4q4c0EEEX6L1JSTCwJzpozHe3zMRG9aHuhFC8rbGoinDvHfdP9FwER
nrEzbJEBqQh/d7V+Xl53Voaal+Gae9kb+NkZcBs8Uu8Qm6tAwUHw1BEldI+8HWxV
VSjh1nUSSD+7dNVNj7B3wZ7QiP/6AEy6xmooWxvn4K+RqHNU3j82/fGrc5H9Xz+Z
HUaDDLTCtckX4+nlbiSAofFSiqi2IHC00YqNxMsISOwxA9KfDDHuGBLV18lgr12V
TnKwKk0CDTxvhtadiQ///Ls=
-----END CERTIFICATE-----

Certificate:
    Data:
        Version: 3 (0x2)
        Serial Number: 2 (0x2)
    Signature Algorithm: sha256WithRSAEncryption
        Issuer: CN=Root
        Validity
            Not Before: Jan  1 12:00:00 2015 GMT
            Not After : Jan  1 12:00:00 2016 GMT
        Subject: CN=Intermediate
        Subject Public Key Info:
            Public Key Algorithm: rsaEncryption
                Public-Key: (2048 bit)
                Modulus:
                    00:b8:cf:91:dd:b5:74:07:ba:8a:93:3c:ca:0c:11:
                    5d:36:29:ec:53:1e:32:8b:90:ae:f9:c0:db:d2:7e:
                    78:ea:3c:58:57:5f:70:4a:96:9a:93:58:d3:7e:42:
                    60:bd:78:07:38:6b:e4:16:8f:32:17:30:b1:76:95:
                    56:6d:7e:e5:9e:f9:0f:f8:5a:99:ee:80:e1:e6:fc:
                    d6:af:33:61:aa:da:19:98:7f:da:27:2f:80:bc:96:
                    2e:51:81:f8:1a:63:27:0b:ce:ee:02:16:55:4a:96:
                    0a:c5:c1:7e:99:95:e8:70:e7:4d:2b:2f:bf:d3:d2:
                    2d:25:7d:0f:b2:50:96:36:95:e5:2c:ca:0e:59:b5:
                    d4:7c:31:57:96:fa:be:c6:d5:9a:83:b5:96:f2:1c:
                    4a:20:cf:be:0e:7f:42:4f:a7:b4:5b:e2:01:f4:ed:
                    59:c4:6e:51:a1:a5:aa:a7:1f:04:ce:e0:d2:2c:ff:
                    a3:74:c7:e4:2a:a8:d2:7f:cd:f1:56:86:67:fe:75:
                    22:05:f7:2d:3b:3b:ce:5c:b9:95:4e:e5:ca:d8:89:
                    f6:b3:12:27:b4:22:6b:fb:83:f9:0e:de:a8:be:38:
                    5b:15:66:81:3b:62:d7:50:12:29:69:5b:c5:5a:99:
                    97:aa:51:c3:36:88:97:c9:c1:90:53:4f:b3:ec:99:
                    3c:f3
                Exponent: 65537 (0x10001)
        X509v3 extensions:
            X509v3 Subject Key Identifier: 
                8A:E3:E6:F6:58:6F:1C:90:B4:67:A5:14:D8:64:E7:F7:00:77:61:01
            X509v3 Authority Key Identifier: 
                keyid:52:00:A4:BE:8B:5F:23:63:5E:31:05:87:F4:6B:50:A7:01:70:63:DA

            Authority Information Access: 
                CA Issuers - URI:http://url-for-aia/Root.cer

            X509v3 CRL Distribution Points: 

                Full Name:
                  URI:http://url-for-crl/Root.crl

            X509v3 Key Usage: critical
                Certificate Sign, CRL Sign
            X509v3 Basic Constraints: critical
                CA:TRUE
    Signature Algorithm: sha256WithRSAEncryption
         8a:a8:76:2b:f3:3a:53:97:a4:69:2c:ef:29:61:c0:35:54:6c:
         89:2a:10:2f:59:0e:07:02:ce:43:c3:5d:d0:8d:d3:dd:1e:78:
         b1:0a:dc:04:a4:dd:a3:46:23:1c:e1:b8:a6:ca:1f:f1:8f:e7:
         a3:ef:cf:ed:96:3f:09:bb:93:f2:7d:f2:18:a9:92:c2:84:f7:
         0e:b0:d2:01:22:7c:6c:0c:16:b1:4a:ce:ba:63:e7:8e:2f:b8:
         4f:14:23:b6:81:65:86:60:df:83:64:fd:1c:92:85:8b:bd:09:
         c4:d2:42:f4:24:8e:14:c7:64:cd:b3:e1:09:51:3a:a7:d0:b1:
         42:f8:ef:c0:68:d7:e4:d7:16:7a:3f:b3:10:b7:e1:af:5b:09:
         ba:4d:0d:e0:4d:72:66:87:1e:69:ef:43:5e:73:74:cd:8e:19:
         32:0b:e9:c0:66:b1:38:6c:08:13:01:a7:92:0f:b9:2e:4b:13:
         a4:46:70:fe:16:5a:08:ea:2f:1e:07:9a:68:0f:5d:e2:14:44:
         bd:7c:b9:a8:f3:79:b5:86:fc:2f:d2:03:ef:67:06:a1:42:d7:
         62:4f:76:b9:09:65:6c:53:99:a5:9c:e7:99:ad:7c:c0:e7:dc:
         4e:06:10:e1:62:00:7b:cd:a7:9e:de:78:84:8c:aa:00:e3:f9:
         1e:a0:39:88
-----BEGIN CERTIFICATE-----
MIIDbTCCAlWgAwIBAgIBAjANBgkqhkiG9w0BAQsFADAPMQ0wCwYDVQQDDARSb290
MB4XDTE1MDEwMTEyMDAwMFoXDTE2MDEwMTEyMDAwMFowFzEVMBMGA1UEAwwMSW50
ZXJtZWRpYXRlMIIBIjANBgkqhkiG9w0BAQEFAAOCAQ8AMIIBCgKCAQEAuM+R3bV0
B7qKkzzKDBFdNinsUx4yi5Cu+cDb0n546jxYV19wSpaak1jTfkJgvXgHOGvkFo8y
FzCxdpVWbX7lnvkP+FqZ7oDh5vzWrzNhqtoZmH/aJy+AvJYuUYH4GmMnC87uAhZV
SpYKxcF+mZXocOdNKy+/09ItJX0PslCWNpXlLMoOWbXUfDFXlvq+xtWag7WW8hxK
IM++Dn9CT6e0W+IB9O1ZxG5RoaWqpx8EzuDSLP+jdMfkKqjSf83xVoZn/nUiBfct
OzvOXLmVTuXK2In2sxIntCJr+4P5Dt6ovjhbFWaBO2LXUBIpaVvFWpmXqlHDNoiX
ycGQU0+z7Jk88wIDAQABo4HLMIHIMB0GA1UdDgQWBBSK4+b2WG8ckLRnpRTYZOf3
AHdhATAfBgNVHSMEGDAWgBRSAKS+i18jY14xBYf0a1CnAXBj2jA3BggrBgEFBQcB
AQQrMCkwJwYIKwYBBQUHMAKGG2h0dHA6Ly91cmwtZm9yLWFpYS9Sb290LmNlcjAs
BgNVHR8EJTAjMCGgH6AdhhtodHRwOi8vdXJsLWZvci1jcmwvUm9vdC5jcmwwDgYD
VR0PAQH/BAQDAgEGMA8GA1UdEwEB/wQFMAMBAf8wDQYJKoZIhvcNAQELBQADggEB
AIqodivzOlOXpGks7ylhwDVUbIkqEC9ZDgcCzkPDXdCN090eeLEK3ASk3aNGIxzh
uKbKH/GP56Pvz+2WPwm7k/J98hipksKE9w6w0gEifGwMFrFKzrpj544vuE8UI7aB
ZYZg34Nk/RyShYu9CcTSQvQkjhTHZM2z4QlROqfQsUL478Bo1+TXFno/sxC34a9b
CbpNDeBNcmaHHmnvQ15zdM2OGTIL6cBmsThsCBMBp5IPuS5LE6RGcP4WWgjqLx4H
mmgPXeIURL18uajzebWG/C/SA+9nBqFC12JPdrkJZWxTmaWc55mtfMDn3E4GEOFi
AHvNp57eeISMqgDj+R6gOYg=
-----END CERTIFICATE-----

Certificate:
    Data:
        Version: 3 (0x2)
        Serial Number: 1 (0x1)
    Signature Algorithm: sha256WithRSAEncryption
        Issuer: CN=Root
        Validity
            Not Before: Jan  1 12:00:00 2015 GMT
            Not After : Jan  1 12:00:00 2016 GMT
        Subject: CN=Root
        Subject Public Key Info:
            Public Key Algorithm: rsaEncryption
                Public-Key: (2048 bit)
                Modulus:
                    00:c0:8e:83:7c:7e:0c:6a:e8:93:2c:f8:e6:80:17:
                    e6:2a:91:f2:1d:1a:b1:51:6e:3e:4d:96:bd:a1:29:
                    f3:bd:ce:46:17:dc:5f:ed:b7:33:d8:17:31:80:b1:
                    12:f3:bb:86:1d:4a:a7:61:dd:51:15:a8:9d:50:25:
                    4f:93:5b:8c:a6:43:30:a5:46:7e:80:74:51:17:66:
                    61:ba:c0:9d:f5:53:e4:4d:02:58:a4:27:ac:ef:35:
                    eb:01:e6:0d:0f:a2:67:b3:95:1d:33:d3:70:55:6d:
                    73:80:dd:c7:dc:21:c6:58:9a:7d:cb:e6:9d:e2:af:
                    7f:14:02:7c:f8:45:ff:5c:74:7a:7d:b1:35:1f:74:
                    0f:e7:0d:97:51:58:15:41:07:fa:12:99:2a:84:92:
                    48:9b:08:ee:ad:26:37:15:3e:7e:7b:b6:1e:94:36:
                    be:b9:d8:b6:6f:27:71:13:d1:3e:b7:9e:9d:d6:1e:
                    e1:cb:7b:2b:ab:20:46:e0:08:9c:54:5b:c6:db:c2:
                    57:d3:67:ee:00:cf:d2:cb:0b:64:31:a7:9c:97:f5:
                    4b:37:db:7d:d5:dd:91:a7:ed:dc:0c:2f:9c:04:42:
                    50:46:8a:59:d2:9c:10:d7:0c:25:d9:79:de:e1:4c:
                    3d:4a:5a:3f:2c:6c:20:a1:60:9f:24:69:1a:0a:f9:
                    6e:79
                Exponent: 65537 (0x10001)
        X509v3 extensions:
            X509v3 Subject Key Identifier: 
                52:00:A4:BE:8B:5F:23:63:5E:31:05:87:F4:6B:50:A7:01:70:63:DA
            X509v3 Authority Key Identifier: 
                keyid:52:00:A4:BE:8B:5F:23:63:5E:31:05:87:F4:6B:50:A7:01:70:63:DA

            Authority Information Access: 
                CA Issuers - URI:http://url-for-aia/Root.cer

            X509v3 CRL Distribution Points: 

                Full Name:
                  URI:http://url-for-crl/Root.crl

            X509v3 Key Usage: critical
                Certificate Sign, CRL Sign
            X509v3 Basic Constraints: critical
                CA:TRUE
    Signature Algorithm: sha256WithRSAEncryption
         58:1a:70:9e:8c:79:8e:25:bb:be:11:bf:df:c7:49:4e:24:6d:
         a5:dc:95:f2:73:73:03:4f:67:ea:19:c2:01:10:2f:26:ea:5c:
         01:6a:20:36:a5:11:8d:0c:12:f3:27:ea:df:f0:22:ee:3b:5e:
         f7:a5:1e:fc:e5:da:65:af:c2:e8:c0:29:69:93:f5:b3:2c:78:
         18:72:d1:9d:93:14:ed:30:8c:dc:2d:fd:57:89:2a:a8:65:e2:
         94:15:bb:82:ad:cb:7b:11:0a:28:fe:1a:4c:6c:87:6c:55:92:
         fd:bd:4c:6f:8f:59:9f:ce:4c:e9:50:fb:c7:08:ab:3a:d9:a4:
         89:c9:f8:5f:75:38:45:34:c3:18:f8:66:7f:ad:53:6a:2b:0c:
         b2:59:8a:f7:3a:d2:0d:01:ab:d5:86:55:30:52:dd:bd:6d:0a:
         5e:6b:24:9b:48:52:f0:39:6d:18:14:08:91:66:58:da:ec:73:
         56:1d:07:61:56:6f:64:6d:85:4e:b0:53:c1:bc:80:9f:7c:55:
         e4:1a:7e:aa:73:31:4a:92:61:fa:83:86:c2:8c:f0:4e:ac:26:
         d8:1e:aa:c8:47:3e:f0:4a:7f:36:ff:1d:a8:be:c1:0f:0c:08:
         16:e5:f6:47:5a:49:4a:b6:2a:9f:3f:8a:65:90:89:c9:f2:6c:
         41:7b:25:dd
-----BEGIN CERTIFICATE-----
MIIDZTCCAk2gAwIBAgIBATANBgkqhkiG9w0BAQsFADAPMQ0wCwYDVQQDDARSb290
MB4XDTE1MDEwMTEyMDAwMFoXDTE2MDEwMTEyMDAwMFowDzENMAsGA1UEAwwEUm9v
dDCCASIwDQYJKoZIhvcNAQEBBQADggEPADCCAQoCggEBAMCOg3x+DGrokyz45oAX
5iqR8h0asVFuPk2WvaEp873ORhfcX+23M9gXMYCxEvO7hh1Kp2HdURWonVAlT5Nb
jKZDMKVGfoB0URdmYbrAnfVT5E0CWKQnrO816wHmDQ+iZ7OVHTPTcFVtc4Ddx9wh
xliafcvmneKvfxQCfPhF/1x0en2xNR90D+cNl1FYFUEH+hKZKoSSSJsI7q0mNxU+
fnu2HpQ2vrnYtm8ncRPRPreendYe4ct7K6sgRuAInFRbxtvCV9Nn7gDP0ssLZDGn
nJf1SzfbfdXdkaft3AwvnARCUEaKWdKcENcMJdl53uFMPUpaPyxsIKFgnyRpGgr5
bnkCAwEAAaOByzCByDAdBgNVHQ4EFgQUUgCkvotfI2NeMQWH9GtQpwFwY9owHwYD
VR0jBBgwFoAUUgCkvotfI2NeMQWH9GtQpwFwY9owNwYIKwYBBQUHAQEEKzApMCcG
CCsGAQUFBzAChhtodHRwOi8vdXJsLWZvci1haWEvUm9vdC5jZXIwLAYDVR0fBCUw
IzAhoB+gHYYbaHR0cDovL3VybC1mb3ItY3JsL1Jvb3QuY3JsMA4GA1UdDwEB/wQE
AwIBBjAPBgNVHRMBAf8EBTADAQH/MA0GCSqGSIb3DQEBCwUAA4IBAQBYGnCejHmO
Jbu+Eb/fx0lOJG2l3JXyc3MDT2fqGcIBEC8m6lwBaiA2pRGNDBLzJ+rf8CLuO173
pR785dplr8LowClpk/WzLHgYctGdkxTtMIzcLf1XiSqoZeKUFbuCrct7EQoo/hpM
bIdsVZL9vUxvj1mfzkzpUPvHCKs62aSJyfhfdThFNMMY+GZ/rVNqKwyyWYr3OtIN
AavVhlUwUt29bQpeaySbSFLwOW0YFAiRZlja7HNWHQdhVm9kbYVOsFPBvICffFXk
Gn6qczFKkmH6g4bCjPBOrCbYHqrIRz7wSn82/x2ovsEPDAgW5fZHWklKtiqfP4pl
kInJ8mxBeyXd
-----END CERTIFICATE-----
