[Created by: generate-chains.py]

A certificate tree with two self-signed root certificates(oldroot, newroot),
and a third root certificate (newrootrollover) which has the same key as newroot
but is signed by oldroot, all with the same subject and issuer.
There are two intermediates with the same key, subject and issuer
(oldintermediate signed by oldroot, and newintermediate signed by newroot).
The target certificate is signed by the intermediate key.


In graphical form:

   oldroot-------->newrootrollover  newroot
      |                      |        |
      v                      v        v
oldintermediate           newintermediate
      |                          |
      +------------+-------------+
                   |
                   v
                 target


Several chains are output:
  key-rollover-oldchain.pem:
    target<-oldintermediate<-oldroot
  key-rollover-rolloverchain.pem:
    target<-newintermediate<-newrootrollover<-oldroot
  key-rollover-longrolloverchain.pem:
    target<-newintermediate<-newroot<-newrootrollover<-oldroot
  key-rollover-newchain.pem:
    target<-newintermediate<-newroot

All of these chains should verify successfully.


Certificate:
    Data:
        Version: 3 (0x2)
        Serial Number: 1 (0x1)
    Signature Algorithm: sha256WithRSAEncryption
        Issuer: CN=Intermediate
        Validity
            Not Before: Jan  1 12:00:00 2015 GMT
            Not After : Jan  1 12:00:00 2016 GMT
        Subject: CN=Target
        Subject Public Key Info:
            Public Key Algorithm: rsaEncryption
                Public-Key: (2048 bit)
                Modulus:
                    00:ef:77:94:e8:68:c5:7e:1d:9b:ae:10:cd:d5:bb:
                    96:27:0c:05:17:f4:ec:bc:da:7d:28:e5:b7:e5:8f:
                    da:d8:ae:7a:2a:d2:e3:15:9b:12:62:79:02:61:3d:
                    3f:8b:64:4e:fb:7d:e1:59:bd:2f:83:ad:d3:b8:e5:
                    45:33:c4:13:5f:79:ef:8a:3e:c0:39:20:81:e2:98:
                    b9:e6:c9:60:b6:8e:b4:bf:b4:2b:55:ae:b1:7c:21:
                    d3:fe:ec:f0:56:31:fe:0a:19:c4:2c:54:a4:97:aa:
                    84:a2:83:f8:5a:9a:f3:11:b8:ad:3b:14:3a:68:5a:
                    72:24:49:6f:6f:5a:02:39:91:07:09:cb:18:57:13:
                    1e:a4:54:03:31:5c:b6:e9:7d:78:2d:e8:ba:2f:70:
                    17:0a:03:11:aa:90:c7:5e:f0:1b:7f:56:39:f5:e0:
                    1f:1e:33:8d:23:30:e6:7a:ba:5e:ca:46:33:13:04:
                    5c:65:b0:be:53:7f:ab:a7:9f:8d:fb:bd:46:e5:87:
                    44:31:55:e5:9f:97:7e:a3:ec:69:a8:d7:8b:47:ae:
                    48:ae:74:50:5e:57:55:31:ca:36:ec:43:a1:dd:61:
                    b2:18:12:6a:29:0b:63:24:d5:71:4d:da:e7:0f:0d:
                    e3:2c:aa:76:6b:f9:2c:93:c2:fa:f9:40:2c:1b:34:
                    65:53
                Exponent: 65537 (0x10001)
        X509v3 extensions:
            X509v3 Subject Key Identifier: 
                FA:2D:AF:E0:5F:8E:8E:18:7A:FB:AF:FE:D9:C9:A3:62:AA:B8:2A:18
            X509v3 Authority Key Identifier: 
                keyid:CC:72:60:F0:8D:8C:CB:A9:6C:FF:09:57:F3:6A:FE:29:46:24:26:5B

            Authority Information Access: 
                CA Issuers - URI:http://url-for-aia/Intermediate.cer

            X509v3 CRL Distribution Points: 

                Full Name:
                  URI:http://url-for-crl/Intermediate.crl

            X509v3 Key Usage: critical
                Digital Signature, Key Encipherment
            X509v3 Extended Key Usage: 
                TLS Web Server Authentication, TLS Web Client Authentication
    Signature Algorithm: sha256WithRSAEncryption
         51:34:ff:18:bc:d1:50:95:2c:2e:0c:2c:6c:30:c2:1e:d2:c7:
         35:76:25:c3:4f:81:4a:9a:f2:40:e4:f0:26:35:2c:50:79:2f:
         34:91:0d:b6:ee:5b:4f:e1:cb:81:2d:4d:a9:65:21:3e:05:c6:
         71:f0:ea:45:83:43:a1:45:8a:fb:84:d2:19:09:d8:81:6d:81:
         19:4c:07:11:a6:cf:7d:f1:e1:b6:15:0b:c8:e1:ef:f9:97:6c:
         17:db:8c:5d:a0:86:6c:dc:c9:1a:fa:c2:f8:ce:24:c0:8c:88:
         23:13:0a:1a:88:ad:8f:7c:9d:c8:82:cc:c7:05:02:85:dd:f8:
         7b:32:bb:3c:88:11:1c:35:d9:08:51:15:9e:e3:94:f4:d0:04:
         70:8b:62:6b:4f:98:ac:13:8a:d5:b0:07:73:99:1a:87:b4:c1:
         30:36:f2:27:24:7a:40:2b:e9:70:99:39:27:98:95:75:23:d4:
         0c:3e:92:5e:2b:86:14:ec:94:f5:76:95:e2:38:0d:63:01:10:
         f8:a5:0d:67:d8:ca:61:b0:db:7c:9b:b9:6d:83:9b:cd:1c:e6:
         78:54:6a:21:46:8c:88:d6:ae:a4:ad:47:44:f9:99:c0:4c:5f:
         0c:8a:6b:f4:f4:14:68:df:c7:97:91:db:55:1b:64:ef:30:d6:
         6f:3b:99:1f
-----BEGIN CERTIFICATE-----
MIIDjTCCAnWgAwIBAgIBATANBgkqhkiG9w0BAQsFADAXMRUwEwYDVQQDDAxJbnRl
cm1lZGlhdGUwHhcNMTUwMTAxMTIwMDAwWhcNMTYwMTAxMTIwMDAwWjARMQ8wDQYD
VQQDDAZUYXJnZXQwggEiMA0GCSqGSIb3DQEBAQUAA4IBDwAwggEKAoIBAQDvd5To
aMV+HZuuEM3Vu5YnDAUX9Oy82n0o5bflj9rYrnoq0uMVmxJieQJhPT+LZE77feFZ
vS+DrdO45UUzxBNfee+KPsA5IIHimLnmyWC2jrS/tCtVrrF8IdP+7PBWMf4KGcQs
VKSXqoSig/hamvMRuK07FDpoWnIkSW9vWgI5kQcJyxhXEx6kVAMxXLbpfXgt6Lov
cBcKAxGqkMde8Bt/Vjn14B8eM40jMOZ6ul7KRjMTBFxlsL5Tf6unn437vUblh0Qx
VeWfl36j7Gmo14tHrkiudFBeV1UxyjbsQ6HdYbIYEmopC2Mk1XFN2ucPDeMsqnZr
+SyTwvr5QCwbNGVTAgMBAAGjgekwgeYwHQYDVR0OBBYEFPotr+Bfjo4Yevuv/tnJ
o2KquCoYMB8GA1UdIwQYMBaAFMxyYPCNjMupbP8JV/Nq/ilGJCZbMD8GCCsGAQUF
BwEBBDMwMTAvBggrBgEFBQcwAoYjaHR0cDovL3VybC1mb3ItYWlhL0ludGVybWVk
aWF0ZS5jZXIwNAYDVR0fBC0wKzApoCegJYYjaHR0cDovL3VybC1mb3ItY3JsL0lu
dGVybWVkaWF0ZS5jcmwwDgYDVR0PAQH/BAQDAgWgMB0GA1UdJQQWMBQGCCsGAQUF
BwMBBggrBgEFBQcDAjANBgkqhkiG9w0BAQsFAAOCAQEAUTT/GLzRUJUsLgwsbDDC
HtLHNXYlw0+BSpryQOTwJjUsUHkvNJENtu5bT+HLgS1NqWUhPgXGcfDqRYNDoUWK
+4TSGQnYgW2BGUwHEabPffHhthULyOHv+ZdsF9uMXaCGbNzJGvrC+M4kwIyIIxMK
Goitj3ydyILMxwUChd34ezK7PIgRHDXZCFEVnuOU9NAEcItia0+YrBOK1bAHc5ka
h7TBMDbyJyR6QCvpcJk5J5iVdSPUDD6SXiuGFOyU9XaV4jgNYwEQ+KUNZ9jKYbDb
fJu5bYObzRzmeFRqIUaMiNaupK1HRPmZwExfDIpr9PQUaN/Hl5HbVRtk7zDWbzuZ
Hw==
-----END CERTIFICATE-----

Certificate:
    Data:
        Version: 3 (0x2)
        Serial Number: 4 (0x4)
    Signature Algorithm: sha256WithRSAEncryption
        Issuer: CN=Root
        Validity
            Not Before: Jan  2 12:00:00 2015 GMT
            Not After : Jan  1 12:00:00 2016 GMT
        Subject: CN=Intermediate
        Subject Public Key Info:
            Public Key Algorithm: rsaEncryption
                Public-Key: (2048 bit)
                Modulus:
                    00:9d:2b:d3:86:6e:f6:af:a0:b2:08:23:93:2a:c0:
                    1c:02:49:c6:ef:a9:64:39:4e:80:6a:36:56:e5:a5:
                    93:0e:45:12:ad:05:41:9a:5d:cc:ed:af:2e:7b:b6:
                    cf:bd:14:79:8f:a5:59:16:02:fe:23:5c:2b:e4:90:
                    d2:67:7c:bb:74:cb:37:20:40:c4:62:fa:e0:23:f1:
                    a4:89:70:fe:54:ea:ea:3b:d7:1a:7a:9b:0d:a1:74:
                    44:89:c9:58:3d:d6:99:42:6b:e5:da:f5:f1:0c:33:
                    26:11:e1:d4:2b:33:d7:2e:be:b9:42:5d:e7:b2:ce:
                    52:37:51:30:17:80:a7:77:e0:ca:55:ac:42:12:23:
                    17:d6:42:5a:6d:55:1f:f8:f1:13:7b:73:7d:b6:ff:
                    b7:67:72:d8:55:af:8e:60:71:cd:b8:a4:72:9f:84:
                    d8:6f:a6:62:1a:0f:79:de:3e:27:a5:08:bc:90:20:
                    f6:a3:b2:64:21:92:3e:1c:8c:35:f5:38:16:96:18:
                    f1:5c:de:fd:89:b6:4d:ca:00:0a:59:91:84:9a:28:
                    ea:1c:8f:0d:14:aa:4b:e5:56:66:9e:40:36:35:ff:
                    dc:72:f3:ea:e3:7f:b4:73:64:66:ff:81:16:b9:93:
                    8e:61:30:7f:15:2e:1d:6c:23:90:76:56:b2:60:11:
                    91:19
                Exponent: 65537 (0x10001)
        X509v3 extensions:
            X509v3 Subject Key Identifier: 
                CC:72:60:F0:8D:8C:CB:A9:6C:FF:09:57:F3:6A:FE:29:46:24:26:5B
            X509v3 Authority Key Identifier: 
                keyid:01:6B:49:1F:21:8F:80:DD:D4:97:C0:A8:BB:2A:7E:DC:F3:DA:FD:E1

            Authority Information Access: 
                CA Issuers - URI:http://url-for-aia/Root.cer

            X509v3 CRL Distribution Points: 

                Full Name:
                  URI:http://url-for-crl/Root.crl

            X509v3 Key Usage: critical
                Certificate Sign, CRL Sign
            X509v3 Basic Constraints: critical
                CA:TRUE
    Signature Algorithm: sha256WithRSAEncryption
         62:11:b8:11:cd:f2:bc:8f:e4:1a:93:66:fc:d3:d3:48:1f:11:
         66:8b:6f:e6:ba:e3:45:56:6f:66:0e:04:5a:ef:f9:a9:91:0f:
         6a:3a:5f:64:7d:7c:7e:a7:17:f4:0f:e5:20:14:71:51:2e:b1:
         61:97:fd:96:6d:ec:ac:f4:56:c2:0a:66:59:b4:f8:59:73:33:
         90:63:be:da:68:b0:42:4f:d9:3c:e1:11:b3:7c:d7:be:b7:e6:
         7c:7e:7b:c0:ef:ac:3a:c1:d2:9c:72:f2:da:30:fd:e4:76:b6:
         cc:c3:11:89:dd:3d:9a:fc:6b:6f:7b:a1:58:ba:bb:88:38:4c:
         ac:7a:ef:7b:1a:b5:cc:ba:2b:88:77:a8:41:21:8e:46:b4:fe:
         d3:bb:f9:4d:c4:6e:8a:7d:f1:88:70:04:ac:e6:86:14:54:dd:
         cc:3c:69:62:4a:b9:d4:54:5e:89:77:a9:9e:24:21:94:6d:bd:
         2e:60:61:95:76:7c:6b:d7:96:41:28:cc:3c:6f:56:13:ce:5c:
         82:3e:3e:cf:60:22:88:7e:a6:ce:1e:80:9b:ec:bd:16:04:cd:
         c8:0c:db:98:b1:35:ff:16:c3:5c:f5:59:a1:15:05:b9:b0:55:
         81:ca:ba:73:fb:18:de:98:73:22:01:7f:61:64:77:0e:5b:50:
         6b:22:09:d1
-----BEGIN CERTIFICATE-----
MIIDbTCCAlWgAwIBAgIBBDANBgkqhkiG9w0BAQsFADAPMQ0wCwYDVQQDDARSb290
MB4XDTE1MDEwMjEyMDAwMFoXDTE2MDEwMTEyMDAwMFowFzEVMBMGA1UEAwwMSW50
ZXJtZWRpYXRlMIIBIjANBgkqhkiG9w0BAQEFAAOCAQ8AMIIBCgKCAQEAnSvThm72
r6CyCCOTKsAcAknG76lkOU6AajZW5aWTDkUSrQVBml3M7a8ue7bPvRR5j6VZFgL+
I1wr5JDSZ3y7dMs3IEDEYvrgI/GkiXD+VOrqO9caepsNoXREiclYPdaZQmvl2vXx
DDMmEeHUKzPXLr65Ql3nss5SN1EwF4Cnd+DKVaxCEiMX1kJabVUf+PETe3N9tv+3
Z3LYVa+OYHHNuKRyn4TYb6ZiGg953j4npQi8kCD2o7JkIZI+HIw19TgWlhjxXN79
ibZNygAKWZGEmijqHI8NFKpL5VZmnkA2Nf/ccvPq43+0c2Rm/4EWuZOOYTB/FS4d
bCOQdlayYBGRGQIDAQABo4HLMIHIMB0GA1UdDgQWBBTMcmDwjYzLqWz/CVfzav4p
RiQmWzAfBgNVHSMEGDAWgBQBa0kfIY+A3dSXwKi7Kn7c89r94TA3BggrBgEFBQcB
AQQrMCkwJwYIKwYBBQUHMAKGG2h0dHA6Ly91cmwtZm9yLWFpYS9Sb290LmNlcjAs
BgNVHR8EJTAjMCGgH6AdhhtodHRwOi8vdXJsLWZvci1jcmwvUm9vdC5jcmwwDgYD
VR0PAQH/BAQDAgEGMA8GA1UdEwEB/wQFMAMBAf8wDQYJKoZIhvcNAQELBQADggEB
AGIRuBHN8ryP5BqTZvzT00gfEWaLb+a640VWb2YOBFrv+amRD2o6X2R9fH6nF/QP
5SAUcVEusWGX/ZZt7Kz0VsIKZlm0+FlzM5BjvtposEJP2TzhEbN817635nx+e8Dv
rDrB0pxy8tow/eR2tszDEYndPZr8a297oVi6u4g4TKx673satcy6K4h3qEEhjka0
/tO7+U3Ebop98YhwBKzmhhRU3cw8aWJKudRUXol3qZ4kIZRtvS5gYZV2fGvXlkEo
zDxvVhPOXII+Ps9gIoh+ps4egJvsvRYEzcgM25ixNf8Ww1z1WaEVBbmwVYHKunP7
GN6YcyIBf2Fkdw5bUGsiCdE=
-----END CERTIFICATE-----

Certificate:
    Data:
        Version: 3 (0x2)
        Serial Number: 3 (0x3)
    Signature Algorithm: sha256WithRSAEncryption
        Issuer: CN=Root
        Validity
            Not Before: Jan  2 12:00:00 2015 GMT
            Not After : Jan  1 12:00:00 2016 GMT
        Subject: CN=Root
        Subject Public Key Info:
            Public Key Algorithm: rsaEncryption
                Public-Key: (2048 bit)
                Modulus:
                    00:c7:04:19:c8:b2:fc:28:77:e5:99:8e:f0:05:8b:
                    0d:5b:e5:38:f1:8e:d1:07:d2:f6:d8:6b:bd:c8:c3:
                    2c:f3:05:e9:1f:4c:b6:c1:39:d4:0f:03:2f:62:ba:
                    e7:c4:7e:9c:7c:1c:be:df:6b:f2:34:b2:45:ec:b9:
                    76:a5:3a:25:1c:a1:b7:78:76:0c:e8:3d:76:d1:46:
                    bd:20:e1:ef:1c:80:22:12:b5:8a:de:78:4f:ed:05:
                    25:5d:b4:83:4c:9e:b2:ee:64:b5:df:d9:d1:b7:5f:
                    3c:e9:8a:e1:e1:49:bd:d6:7c:fe:4a:38:f1:94:9a:
                    b5:cc:cf:85:aa:bd:bb:2d:93:b9:a9:2b:c1:f9:82:
                    c0:ba:68:a5:90:4f:e1:d4:30:6f:99:c4:d9:6c:e8:
                    6a:0c:71:a8:ff:c4:7f:b5:9a:e6:07:a0:ed:f4:3c:
                    3a:4b:a3:88:b1:41:cf:f1:b8:ea:f8:b7:43:b0:9f:
                    88:05:eb:cd:ab:27:f5:ed:62:55:05:3d:62:59:b4:
                    1c:07:ca:c4:49:3d:07:80:93:13:ff:0f:31:4f:34:
                    41:9e:5b:a9:0a:79:fa:13:91:da:7c:35:c4:7b:56:
                    9c:a1:89:05:7d:6e:12:e5:e4:83:be:9a:5e:14:cd:
                    fc:27:58:ae:f5:26:83:36:a4:04:61:a7:4a:01:2f:
                    1a:4f
                Exponent: 65537 (0x10001)
        X509v3 extensions:
            X509v3 Subject Key Identifier: 
                01:6B:49:1F:21:8F:80:DD:D4:97:C0:A8:BB:2A:7E:DC:F3:DA:FD:E1
            X509v3 Authority Key Identifier: 
                keyid:01:6B:49:1F:21:8F:80:DD:D4:97:C0:A8:BB:2A:7E:DC:F3:DA:FD:E1

            Authority Information Access: 
                CA Issuers - URI:http://url-for-aia/Root.cer

            X509v3 CRL Distribution Points: 

                Full Name:
                  URI:http://url-for-crl/Root.crl

            X509v3 Key Usage: critical
                Certificate Sign, CRL Sign
            X509v3 Basic Constraints: critical
                CA:TRUE
    Signature Algorithm: sha256WithRSAEncryption
         ac:6f:d2:b3:2b:51:36:e5:34:6e:14:1a:cd:fd:9b:51:24:ab:
         c0:11:ca:ce:a3:2a:16:a9:b2:52:a0:01:a8:3a:9c:d0:81:14:
         bb:dc:9e:52:9c:ed:bb:42:06:89:11:7f:ed:5a:c0:c5:be:60:
         e9:b6:1c:e5:4d:b1:06:d2:0c:2f:19:07:01:9b:6a:bd:2a:97:
         71:5d:a7:dd:da:28:00:ae:f5:44:bd:67:7f:ba:98:b8:d4:d3:
         b4:e7:47:3c:82:60:e1:6d:40:db:a5:dd:3f:84:ef:2c:84:53:
         a1:8d:9e:4a:29:b9:a9:5b:8a:b7:79:a5:70:cc:ff:aa:75:01:
         40:dc:e5:ab:93:16:29:9b:ce:de:56:8c:c2:4d:62:f9:70:1a:
         cb:92:cf:67:5a:ad:11:1a:e4:33:21:e9:28:16:23:82:1a:ee:
         91:e6:b9:24:cd:a9:e6:63:46:4b:04:72:2c:d0:79:ab:ca:fc:
         cf:a7:c8:e5:94:e7:f5:4c:0d:99:3d:cf:4a:4a:ab:c7:a6:5e:
         5e:eb:12:b8:3f:35:b5:e6:99:d6:30:ec:aa:33:44:81:20:77:
         d6:13:f4:78:72:a8:20:08:94:c1:4a:b9:d6:f1:d8:05:11:ad:
         03:8b:62:d8:80:8f:96:b5:34:6a:7d:a6:11:52:e0:c4:ea:bf:
         83:3c:66:f5
-----BEGIN CERTIFICATE-----
MIIDZTCCAk2gAwIBAgIBAzANBgkqhkiG9w0BAQsFADAPMQ0wCwYDVQQDDARSb290
MB4XDTE1MDEwMjEyMDAwMFoXDTE2MDEwMTEyMDAwMFowDzENMAsGA1UEAwwEUm9v
dDCCASIwDQYJKoZIhvcNAQEBBQADggEPADCCAQoCggEBAMcEGciy/Ch35ZmO8AWL
DVvlOPGO0QfS9thrvcjDLPMF6R9MtsE51A8DL2K658R+nHwcvt9r8jSyRey5dqU6
JRyht3h2DOg9dtFGvSDh7xyAIhK1it54T+0FJV20g0yesu5ktd/Z0bdfPOmK4eFJ
vdZ8/ko48ZSatczPhaq9uy2TuakrwfmCwLpopZBP4dQwb5nE2WzoagxxqP/Ef7Wa
5geg7fQ8OkujiLFBz/G46vi3Q7CfiAXrzasn9e1iVQU9Ylm0HAfKxEk9B4CTE/8P
MU80QZ5bqQp5+hOR2nw1xHtWnKGJBX1uEuXkg76aXhTN/CdYrvUmgzakBGGnSgEv
Gk8CAwEAAaOByzCByDAdBgNVHQ4EFgQUAWtJHyGPgN3Ul8Couyp+3PPa/eEwHwYD
VR0jBBgwFoAUAWtJHyGPgN3Ul8Couyp+3PPa/eEwNwYIKwYBBQUHAQEEKzApMCcG
CCsGAQUFBzAChhtodHRwOi8vdXJsLWZvci1haWEvUm9vdC5jZXIwLAYDVR0fBCUw
IzAhoB+gHYYbaHR0cDovL3VybC1mb3ItY3JsL1Jvb3QuY3JsMA4GA1UdDwEB/wQE
AwIBBjAPBgNVHRMBAf8EBTADAQH/MA0GCSqGSIb3DQEBCwUAA4IBAQCsb9KzK1E2
5TRuFBrN/ZtRJKvAEcrOoyoWqbJSoAGoOpzQgRS73J5SnO27QgaJEX/tWsDFvmDp
thzlTbEG0gwvGQcBm2q9KpdxXafd2igArvVEvWd/upi41NO050c8gmDhbUDbpd0/
hO8shFOhjZ5KKbmpW4q3eaVwzP+qdQFA3OWrkxYpm87eVozCTWL5cBrLks9nWq0R
GuQzIekoFiOCGu6R5rkkzanmY0ZLBHIs0HmryvzPp8jllOf1TA2ZPc9KSqvHpl5e
6xK4PzW15pnWMOyqM0SBIHfWE/R4cqggCJTBSrnW8dgFEa0Di2LYgI+WtTRqfaYR
UuDE6r+DPGb1
-----END CERTIFICATE-----
