[Created by: generate-chains.py]

A certificate tree with two self-signed root certificates(oldroot, newroot),
and a third root certificate (newrootrollover) which has the same key as newroot
but is signed by oldroot, all with the same subject and issuer.
There are two intermediates with the same key, subject and issuer
(oldintermediate signed by oldroot, and newintermediate signed by newroot).
The target certificate is signed by the intermediate key.


In graphical form:

   oldroot-------->newrootrollover  newroot
      |                      |        |
      v                      v        v
oldintermediate           newintermediate
      |                          |
      +------------+-------------+
                   |
                   v
                 target


Several chains are output:
  key-rollover-oldchain.pem:
    target<-oldintermediate<-oldroot
  key-rollover-rolloverchain.pem:
    target<-newintermediate<-newrootrollover<-oldroot
  key-rollover-longrolloverchain.pem:
    target<-newintermediate<-newroot<-newrootrollover<-oldroot
  key-rollover-newchain.pem:
    target<-newintermediate<-newroot

All of these chains should verify successfully.


Certificate:
    Data:
        Version: 3 (0x2)
        Serial Number: 1 (0x1)
    Signature Algorithm: sha256WithRSAEncryption
        Issuer: CN=Intermediate
        Validity
            Not Before: Jan  1 12:00:00 2015 GMT
            Not After : Jan  1 12:00:00 2016 GMT
        Subject: CN=Target
        Subject Public Key Info:
            Public Key Algorithm: rsaEncryption
                Public-Key: (2048 bit)
                Modulus:
                    00:ef:77:94:e8:68:c5:7e:1d:9b:ae:10:cd:d5:bb:
                    96:27:0c:05:17:f4:ec:bc:da:7d:28:e5:b7:e5:8f:
                    da:d8:ae:7a:2a:d2:e3:15:9b:12:62:79:02:61:3d:
                    3f:8b:64:4e:fb:7d:e1:59:bd:2f:83:ad:d3:b8:e5:
                    45:33:c4:13:5f:79:ef:8a:3e:c0:39:20:81:e2:98:
                    b9:e6:c9:60:b6:8e:b4:bf:b4:2b:55:ae:b1:7c:21:
                    d3:fe:ec:f0:56:31:fe:0a:19:c4:2c:54:a4:97:aa:
                    84:a2:83:f8:5a:9a:f3:11:b8:ad:3b:14:3a:68:5a:
                    72:24:49:6f:6f:5a:02:39:91:07:09:cb:18:57:13:
                    1e:a4:54:03:31:5c:b6:e9:7d:78:2d:e8:ba:2f:70:
                    17:0a:03:11:aa:90:c7:5e:f0:1b:7f:56:39:f5:e0:
                    1f:1e:33:8d:23:30:e6:7a:ba:5e:ca:46:33:13:04:
                    5c:65:b0:be:53:7f:ab:a7:9f:8d:fb:bd:46:e5:87:
                    44:31:55:e5:9f:97:7e:a3:ec:69:a8:d7:8b:47:ae:
                    48:ae:74:50:5e:57:55:31:ca:36:ec:43:a1:dd:61:
                    b2:18:12:6a:29:0b:63:24:d5:71:4d:da:e7:0f:0d:
                    e3:2c:aa:76:6b:f9:2c:93:c2:fa:f9:40:2c:1b:34:
                    65:53
                Exponent: 65537 (0x10001)
        X509v3 extensions:
            X509v3 Subject Key Identifier: 
                FA:2D:AF:E0:5F:8E:8E:18:7A:FB:AF:FE:D9:C9:A3:62:AA:B8:2A:18
            X509v3 Authority Key Identifier: 
                keyid:CC:72:60:F0:8D:8C:CB:A9:6C:FF:09:57:F3:6A:FE:29:46:24:26:5B

            Authority Information Access: 
                CA Issuers - URI:http://url-for-aia/Intermediate.cer

            X509v3 CRL Distribution Points: 

                Full Name:
                  URI:http://url-for-crl/Intermediate.crl

            X509v3 Key Usage: critical
                Digital Signature, Key Encipherment
            X509v3 Extended Key Usage: 
                TLS Web Server Authentication, TLS Web Client Authentication
    Signature Algorithm: sha256WithRSAEncryption
         51:34:ff:18:bc:d1:50:95:2c:2e:0c:2c:6c:30:c2:1e:d2:c7:
         35:76:25:c3:4f:81:4a:9a:f2:40:e4:f0:26:35:2c:50:79:2f:
         34:91:0d:b6:ee:5b:4f:e1:cb:81:2d:4d:a9:65:21:3e:05:c6:
         71:f0:ea:45:83:43:a1:45:8a:fb:84:d2:19:09:d8:81:6d:81:
         19:4c:07:11:a6:cf:7d:f1:e1:b6:15:0b:c8:e1:ef:f9:97:6c:
         17:db:8c:5d:a0:86:6c:dc:c9:1a:fa:c2:f8:ce:24:c0:8c:88:
         23:13:0a:1a:88:ad:8f:7c:9d:c8:82:cc:c7:05:02:85:dd:f8:
         7b:32:bb:3c:88:11:1c:35:d9:08:51:15:9e:e3:94:f4:d0:04:
         70:8b:62:6b:4f:98:ac:13:8a:d5:b0:07:73:99:1a:87:b4:c1:
         30:36:f2:27:24:7a:40:2b:e9:70:99:39:27:98:95:75:23:d4:
         0c:3e:92:5e:2b:86:14:ec:94:f5:76:95:e2:38:0d:63:01:10:
         f8:a5:0d:67:d8:ca:61:b0:db:7c:9b:b9:6d:83:9b:cd:1c:e6:
         78:54:6a:21:46:8c:88:d6:ae:a4:ad:47:44:f9:99:c0:4c:5f:
         0c:8a:6b:f4:f4:14:68:df:c7:97:91:db:55:1b:64:ef:30:d6:
         6f:3b:99:1f
-----BEGIN CERTIFICATE-----
MIIDjTCCAnWgAwIBAgIBATANBgkqhkiG9w0BAQsFADAXMRUwEwYDVQQDDAxJbnRl
cm1lZGlhdGUwHhcNMTUwMTAxMTIwMDAwWhcNMTYwMTAxMTIwMDAwWjARMQ8wDQYD
VQQDDAZUYXJnZXQwggEiMA0GCSqGSIb3DQEBAQUAA4IBDwAwggEKAoIBAQDvd5To
aMV+HZuuEM3Vu5YnDAUX9Oy82n0o5bflj9rYrnoq0uMVmxJieQJhPT+LZE77feFZ
vS+DrdO45UUzxBNfee+KPsA5IIHimLnmyWC2jrS/tCtVrrF8IdP+7PBWMf4KGcQs
VKSXqoSig/hamvMRuK07FDpoWnIkSW9vWgI5kQcJyxhXEx6kVAMxXLbpfXgt6Lov
cBcKAxGqkMde8Bt/Vjn14B8eM40jMOZ6ul7KRjMTBFxlsL5Tf6unn437vUblh0Qx
VeWfl36j7Gmo14tHrkiudFBeV1UxyjbsQ6HdYbIYEmopC2Mk1XFN2ucPDeMsqnZr
+SyTwvr5QCwbNGVTAgMBAAGjgekwgeYwHQYDVR0OBBYEFPotr+Bfjo4Yevuv/tnJ
o2KquCoYMB8GA1UdIwQYMBaAFMxyYPCNjMupbP8JV/Nq/ilGJCZbMD8GCCsGAQUF
BwEBBDMwMTAvBggrBgEFBQcwAoYjaHR0cDovL3VybC1mb3ItYWlhL0ludGVybWVk
aWF0ZS5jZXIwNAYDVR0fBC0wKzApoCegJYYjaHR0cDovL3VybC1mb3ItY3JsL0lu
dGVybWVkaWF0ZS5jcmwwDgYDVR0PAQH/BAQDAgWgMB0GA1UdJQQWMBQGCCsGAQUF
BwMBBggrBgEFBQcDAjANBgkqhkiG9w0BAQsFAAOCAQEAUTT/GLzRUJUsLgwsbDDC
HtLHNXYlw0+BSpryQOTwJjUsUHkvNJENtu5bT+HLgS1NqWUhPgXGcfDqRYNDoUWK
+4TSGQnYgW2BGUwHEabPffHhthULyOHv+ZdsF9uMXaCGbNzJGvrC+M4kwIyIIxMK
Goitj3ydyILMxwUChd34ezK7PIgRHDXZCFEVnuOU9NAEcItia0+YrBOK1bAHc5ka
h7TBMDbyJyR6QCvpcJk5J5iVdSPUDD6SXiuGFOyU9XaV4jgNYwEQ+KUNZ9jKYbDb
fJu5bYObzRzmeFRqIUaMiNaupK1HRPmZwExfDIpr9PQUaN/Hl5HbVRtk7zDWbzuZ
Hw==
-----END CERTIFICATE-----

Certificate:
    Data:
        Version: 3 (0x2)
        Serial Number: 2 (0x2)
    Signature Algorithm: sha256WithRSAEncryption
        Issuer: CN=Root
        Validity
            Not Before: Jan  1 12:00:00 2015 GMT
            Not After : Jan  1 12:00:00 2016 GMT
        Subject: CN=Intermediate
        Subject Public Key Info:
            Public Key Algorithm: rsaEncryption
                Public-Key: (2048 bit)
                Modulus:
                    00:9d:2b:d3:86:6e:f6:af:a0:b2:08:23:93:2a:c0:
                    1c:02:49:c6:ef:a9:64:39:4e:80:6a:36:56:e5:a5:
                    93:0e:45:12:ad:05:41:9a:5d:cc:ed:af:2e:7b:b6:
                    cf:bd:14:79:8f:a5:59:16:02:fe:23:5c:2b:e4:90:
                    d2:67:7c:bb:74:cb:37:20:40:c4:62:fa:e0:23:f1:
                    a4:89:70:fe:54:ea:ea:3b:d7:1a:7a:9b:0d:a1:74:
                    44:89:c9:58:3d:d6:99:42:6b:e5:da:f5:f1:0c:33:
                    26:11:e1:d4:2b:33:d7:2e:be:b9:42:5d:e7:b2:ce:
                    52:37:51:30:17:80:a7:77:e0:ca:55:ac:42:12:23:
                    17:d6:42:5a:6d:55:1f:f8:f1:13:7b:73:7d:b6:ff:
                    b7:67:72:d8:55:af:8e:60:71:cd:b8:a4:72:9f:84:
                    d8:6f:a6:62:1a:0f:79:de:3e:27:a5:08:bc:90:20:
                    f6:a3:b2:64:21:92:3e:1c:8c:35:f5:38:16:96:18:
                    f1:5c:de:fd:89:b6:4d:ca:00:0a:59:91:84:9a:28:
                    ea:1c:8f:0d:14:aa:4b:e5:56:66:9e:40:36:35:ff:
                    dc:72:f3:ea:e3:7f:b4:73:64:66:ff:81:16:b9:93:
                    8e:61:30:7f:15:2e:1d:6c:23:90:76:56:b2:60:11:
                    91:19
                Exponent: 65537 (0x10001)
        X509v3 extensions:
            X509v3 Subject Key Identifier: 
                CC:72:60:F0:8D:8C:CB:A9:6C:FF:09:57:F3:6A:FE:29:46:24:26:5B
            X509v3 Authority Key Identifier: 
                keyid:D2:45:64:68:86:8E:07:F2:AF:BF:0B:F3:DD:7F:61:1D:4B:6B:4A:CD

            Authority Information Access: 
                CA Issuers - URI:http://url-for-aia/Root.cer

            X509v3 CRL Distribution Points: 

                Full Name:
                  URI:http://url-for-crl/Root.crl

            X509v3 Key Usage: critical
                Certificate Sign, CRL Sign
            X509v3 Basic Constraints: critical
                CA:TRUE
    Signature Algorithm: sha256WithRSAEncryption
         29:c4:ea:ed:96:59:cb:8d:42:6f:15:e6:73:c6:90:51:d1:95:
         4f:f3:17:36:3a:2f:8b:05:2f:30:30:51:14:62:3e:c0:cb:89:
         9c:b5:33:db:17:84:a1:e4:84:98:c0:11:61:74:0f:83:b0:1a:
         94:8a:64:2a:65:51:d0:88:28:f1:9f:54:29:17:7b:1d:d2:7e:
         e7:98:46:97:83:7f:3f:b0:6a:d5:ed:64:65:41:2c:94:40:6e:
         77:96:83:f8:60:43:22:cc:b2:0e:ee:4b:31:61:cb:03:05:ca:
         24:0f:4a:c2:70:c0:b9:4c:0c:a7:1c:be:f5:24:3f:b9:78:ed:
         df:df:f9:f9:23:fc:17:80:3f:85:66:b9:c9:3b:e8:53:3f:3e:
         e7:ce:fe:e5:b0:60:9b:20:cc:82:91:4e:a3:be:b0:7f:f1:e6:
         f4:be:58:97:7c:55:00:98:49:77:76:5a:32:29:ba:2d:14:48:
         90:d9:ca:c6:5e:7c:3a:f9:e7:c3:2d:1b:9a:fc:3e:61:3e:4e:
         1f:e1:ce:e1:bb:10:71:ab:aa:5f:c3:7f:60:08:8b:b8:5a:0d:
         46:8e:7e:a3:f6:15:ff:15:3d:e3:a6:18:2b:bf:06:7d:d6:a1:
         03:74:cc:55:3e:0a:97:a2:cb:39:0d:43:c2:b6:14:1b:05:fe:
         58:b5:16:f2
-----BEGIN CERTIFICATE-----
MIIDbTCCAlWgAwIBAgIBAjANBgkqhkiG9w0BAQsFADAPMQ0wCwYDVQQDDARSb290
MB4XDTE1MDEwMTEyMDAwMFoXDTE2MDEwMTEyMDAwMFowFzEVMBMGA1UEAwwMSW50
ZXJtZWRpYXRlMIIBIjANBgkqhkiG9w0BAQEFAAOCAQ8AMIIBCgKCAQEAnSvThm72
r6CyCCOTKsAcAknG76lkOU6AajZW5aWTDkUSrQVBml3M7a8ue7bPvRR5j6VZFgL+
I1wr5JDSZ3y7dMs3IEDEYvrgI/GkiXD+VOrqO9caepsNoXREiclYPdaZQmvl2vXx
DDMmEeHUKzPXLr65Ql3nss5SN1EwF4Cnd+DKVaxCEiMX1kJabVUf+PETe3N9tv+3
Z3LYVa+OYHHNuKRyn4TYb6ZiGg953j4npQi8kCD2o7JkIZI+HIw19TgWlhjxXN79
ibZNygAKWZGEmijqHI8NFKpL5VZmnkA2Nf/ccvPq43+0c2Rm/4EWuZOOYTB/FS4d
bCOQdlayYBGRGQIDAQABo4HLMIHIMB0GA1UdDgQWBBTMcmDwjYzLqWz/CVfzav4p
RiQmWzAfBgNVHSMEGDAWgBTSRWRoho4H8q+/C/Pdf2EdS2tKzTA3BggrBgEFBQcB
AQQrMCkwJwYIKwYBBQUHMAKGG2h0dHA6Ly91cmwtZm9yLWFpYS9Sb290LmNlcjAs
BgNVHR8EJTAjMCGgH6AdhhtodHRwOi8vdXJsLWZvci1jcmwvUm9vdC5jcmwwDgYD
VR0PAQH/BAQDAgEGMA8GA1UdEwEB/wQFMAMBAf8wDQYJKoZIhvcNAQELBQADggEB
ACnE6u2WWcuNQm8V5nPGkFHRlU/zFzY6L4sFLzAwURRiPsDLiZy1M9sXhKHkhJjA
EWF0D4OwGpSKZCplUdCIKPGfVCkXex3SfueYRpeDfz+watXtZGVBLJRAbneWg/hg
QyLMsg7uSzFhywMFyiQPSsJwwLlMDKccvvUkP7l47d/f+fkj/BeAP4Vmuck76FM/
PufO/uWwYJsgzIKRTqO+sH/x5vS+WJd8VQCYSXd2WjIpui0USJDZysZefDr558Mt
G5r8PmE+Th/hzuG7EHGrql/Df2AIi7haDUaOfqP2Ff8VPeOmGCu/Bn3WoQN0zFU+
CpeiyzkNQ8K2FBsF/li1FvI=
-----END CERTIFICATE-----

Certificate:
    Data:
        Version: 3 (0x2)
        Serial Number: 1 (0x1)
    Signature Algorithm: sha256WithRSAEncryption
        Issuer: CN=Root
        Validity
            Not Before: Jan  1 12:00:00 2015 GMT
            Not After : Jan  1 12:00:00 2016 GMT
        Subject: CN=Root
        Subject Public Key Info:
            Public Key Algorithm: rsaEncryption
                Public-Key: (2048 bit)
                Modulus:
                    00:ef:5f:3f:57:00:ad:2d:82:81:56:19:c0:da:98:
                    72:8b:7f:4b:4f:37:f2:d9:0e:b3:3c:7b:73:d3:8a:
                    ad:5a:94:9c:37:0b:bc:68:4b:40:ac:a9:d1:1f:1b:
                    35:6a:74:50:6b:91:c2:30:e5:a6:88:87:90:f4:dc:
                    8d:09:49:6a:3e:f0:fe:cf:bb:b3:3b:33:c1:2a:2e:
                    b9:fb:9b:6a:db:2a:a6:9f:87:46:6a:b0:7d:87:c6:
                    63:27:cd:58:e7:55:7d:c5:6c:d8:ac:c7:10:fb:6e:
                    68:40:9d:69:bf:8f:a0:9c:36:d8:7a:dc:fb:14:48:
                    f4:96:5d:c2:0e:8f:e9:2f:1d:08:13:04:a0:1d:03:
                    78:b8:a6:97:15:13:0f:91:4e:9e:18:00:96:9f:94:
                    e6:ad:02:2e:c7:60:c8:ed:50:54:02:2e:b2:6b:6e:
                    d5:78:7f:7a:74:20:20:f6:9c:fa:98:17:b3:8f:fd:
                    92:01:3d:ff:e6:56:fa:45:28:41:b1:3c:ba:4a:ef:
                    bc:ff:4c:1e:d3:96:bc:5d:a6:06:7d:27:d8:66:13:
                    e0:40:74:83:8c:f4:89:c9:8d:8a:13:b7:98:88:32:
                    6c:51:6c:15:92:1c:1b:e7:f7:08:a6:35:81:b4:24:
                    be:45:10:1f:ff:c9:e4:4d:35:b7:4d:3c:ae:54:d2:
                    ee:6f
                Exponent: 65537 (0x10001)
        X509v3 extensions:
            X509v3 Subject Key Identifier: 
                D2:45:64:68:86:8E:07:F2:AF:BF:0B:F3:DD:7F:61:1D:4B:6B:4A:CD
            X509v3 Authority Key Identifier: 
                keyid:D2:45:64:68:86:8E:07:F2:AF:BF:0B:F3:DD:7F:61:1D:4B:6B:4A:CD

            Authority Information Access: 
                CA Issuers - URI:http://url-for-aia/Root.cer

            X509v3 CRL Distribution Points: 

                Full Name:
                  URI:http://url-for-crl/Root.crl

            X509v3 Key Usage: critical
                Certificate Sign, CRL Sign
            X509v3 Basic Constraints: critical
                CA:TRUE
    Signature Algorithm: sha256WithRSAEncryption
         b6:c1:5c:d8:13:5b:e8:b9:43:d0:d8:44:dc:85:82:03:9f:f3:
         a8:ed:60:da:86:74:14:69:76:69:de:3d:27:c3:f8:c0:84:40:
         7d:e4:ab:93:48:51:fe:b3:d3:9f:42:5d:df:66:86:9a:b3:77:
         de:84:f8:07:b6:a0:fa:01:96:6b:01:3a:21:06:30:cd:47:2f:
         39:bb:e0:8c:78:2d:4c:53:e8:01:0a:7b:8b:46:c1:a8:b2:45:
         e3:99:fb:e0:ea:53:e3:d3:76:0a:28:38:f6:f4:c6:90:18:51:
         b7:af:ae:8f:68:5b:da:be:e9:e3:62:6d:dc:39:0d:27:e4:a1:
         87:d3:f1:6c:c5:84:9c:c4:55:88:b3:25:d0:2a:70:a8:15:de:
         7b:51:fd:d8:3e:db:08:04:1c:af:97:d3:2b:ce:6e:a5:cc:05:
         48:82:f5:46:05:42:29:a7:e8:e5:f3:ad:4f:90:4f:9d:4e:76:
         94:85:c6:26:6c:1a:b2:86:50:13:81:68:e0:3b:5b:51:2c:be:
         f0:9f:ea:98:fa:9d:16:7b:59:8f:e1:91:39:3b:a0:22:e5:13:
         04:ee:d5:28:63:bb:df:ab:58:84:02:95:2e:1e:66:42:b1:e2:
         49:6a:62:f1:e0:1d:fa:86:b0:fb:6d:0b:05:8b:8a:ca:f6:0b:
         85:96:d6:ab
-----BEGIN CERTIFICATE-----
MIIDZTCCAk2gAwIBAgIBATANBgkqhkiG9w0BAQsFADAPMQ0wCwYDVQQDDARSb290
MB4XDTE1MDEwMTEyMDAwMFoXDTE2MDEwMTEyMDAwMFowDzENMAsGA1UEAwwEUm9v
dDCCASIwDQYJKoZIhvcNAQEBBQADggEPADCCAQoCggEBAO9fP1cArS2CgVYZwNqY
cot/S0838tkOszx7c9OKrVqUnDcLvGhLQKyp0R8bNWp0UGuRwjDlpoiHkPTcjQlJ
aj7w/s+7szszwSouufubatsqpp+HRmqwfYfGYyfNWOdVfcVs2KzHEPtuaECdab+P
oJw22Hrc+xRI9JZdwg6P6S8dCBMEoB0DeLimlxUTD5FOnhgAlp+U5q0CLsdgyO1Q
VAIusmtu1Xh/enQgIPac+pgXs4/9kgE9/+ZW+kUoQbE8ukrvvP9MHtOWvF2mBn0n
2GYT4EB0g4z0icmNihO3mIgybFFsFZIcG+f3CKY1gbQkvkUQH//J5E01t008rlTS
7m8CAwEAAaOByzCByDAdBgNVHQ4EFgQU0kVkaIaOB/Kvvwvz3X9hHUtrSs0wHwYD
VR0jBBgwFoAU0kVkaIaOB/Kvvwvz3X9hHUtrSs0wNwYIKwYBBQUHAQEEKzApMCcG
CCsGAQUFBzAChhtodHRwOi8vdXJsLWZvci1haWEvUm9vdC5jZXIwLAYDVR0fBCUw
IzAhoB+gHYYbaHR0cDovL3VybC1mb3ItY3JsL1Jvb3QuY3JsMA4GA1UdDwEB/wQE
AwIBBjAPBgNVHRMBAf8EBTADAQH/MA0GCSqGSIb3DQEBCwUAA4IBAQC2wVzYE1vo
uUPQ2ETchYIDn/Oo7WDahnQUaXZp3j0nw/jAhEB95KuTSFH+s9OfQl3fZoaas3fe
hPgHtqD6AZZrATohBjDNRy85u+CMeC1MU+gBCnuLRsGoskXjmfvg6lPj03YKKDj2
9MaQGFG3r66PaFvavunjYm3cOQ0n5KGH0/FsxYScxFWIsyXQKnCoFd57Uf3YPtsI
BByvl9Mrzm6lzAVIgvVGBUIpp+jl861PkE+dTnaUhcYmbBqyhlATgWjgO1tRLL7w
n+qY+p0We1mP4ZE5O6Ai5RME7tUoY7vfq1iEApUuHmZCseJJamLx4B36hrD7bQsF
i4rK9guFltar
-----END CERTIFICATE-----
