[Created by: generate-chains.py]

A certificate tree with two self-signed root certificates(oldroot, newroot),
and a third root certificate (newrootrollover) which has the same key as newroot
but is signed by oldroot, all with the same subject and issuer.
There are two intermediates with the same key, subject and issuer
(oldintermediate signed by oldroot, and newintermediate signed by newroot).
The target certificate is signed by the intermediate key.


In graphical form:

   oldroot-------->newrootrollover  newroot
      |                      |        |
      v                      v        v
oldintermediate           newintermediate
      |                          |
      +------------+-------------+
                   |
                   v
                 target


Several chains are output:
  key-rollover-oldchain.pem:
    target<-oldintermediate<-oldroot
  key-rollover-rolloverchain.pem:
    target<-newintermediate<-newrootrollover<-oldroot
  key-rollover-longrolloverchain.pem:
    target<-newintermediate<-newroot<-newrootrollover<-oldroot
  key-rollover-newchain.pem:
    target<-newintermediate<-newroot

All of these chains should verify successfully.


Certificate:
    Data:
        Version: 3 (0x2)
        Serial Number: 1 (0x1)
    Signature Algorithm: sha256WithRSAEncryption
        Issuer: CN=Intermediate
        Validity
            Not Before: Jan  1 12:00:00 2015 GMT
            Not After : Jan  1 12:00:00 2016 GMT
        Subject: CN=Target
        Subject Public Key Info:
            Public Key Algorithm: rsaEncryption
                Public-Key: (2048 bit)
                Modulus:
                    00:ef:77:94:e8:68:c5:7e:1d:9b:ae:10:cd:d5:bb:
                    96:27:0c:05:17:f4:ec:bc:da:7d:28:e5:b7:e5:8f:
                    da:d8:ae:7a:2a:d2:e3:15:9b:12:62:79:02:61:3d:
                    3f:8b:64:4e:fb:7d:e1:59:bd:2f:83:ad:d3:b8:e5:
                    45:33:c4:13:5f:79:ef:8a:3e:c0:39:20:81:e2:98:
                    b9:e6:c9:60:b6:8e:b4:bf:b4:2b:55:ae:b1:7c:21:
                    d3:fe:ec:f0:56:31:fe:0a:19:c4:2c:54:a4:97:aa:
                    84:a2:83:f8:5a:9a:f3:11:b8:ad:3b:14:3a:68:5a:
                    72:24:49:6f:6f:5a:02:39:91:07:09:cb:18:57:13:
                    1e:a4:54:03:31:5c:b6:e9:7d:78:2d:e8:ba:2f:70:
                    17:0a:03:11:aa:90:c7:5e:f0:1b:7f:56:39:f5:e0:
                    1f:1e:33:8d:23:30:e6:7a:ba:5e:ca:46:33:13:04:
                    5c:65:b0:be:53:7f:ab:a7:9f:8d:fb:bd:46:e5:87:
                    44:31:55:e5:9f:97:7e:a3:ec:69:a8:d7:8b:47:ae:
                    48:ae:74:50:5e:57:55:31:ca:36:ec:43:a1:dd:61:
                    b2:18:12:6a:29:0b:63:24:d5:71:4d:da:e7:0f:0d:
                    e3:2c:aa:76:6b:f9:2c:93:c2:fa:f9:40:2c:1b:34:
                    65:53
                Exponent: 65537 (0x10001)
        X509v3 extensions:
            X509v3 Subject Key Identifier: 
                FA:2D:AF:E0:5F:8E:8E:18:7A:FB:AF:FE:D9:C9:A3:62:AA:B8:2A:18
            X509v3 Authority Key Identifier: 
                keyid:CC:72:60:F0:8D:8C:CB:A9:6C:FF:09:57:F3:6A:FE:29:46:24:26:5B

            Authority Information Access: 
                CA Issuers - URI:http://url-for-aia/Intermediate.cer

            X509v3 CRL Distribution Points: 

                Full Name:
                  URI:http://url-for-crl/Intermediate.crl

            X509v3 Key Usage: critical
                Digital Signature, Key Encipherment
            X509v3 Extended Key Usage: 
                TLS Web Server Authentication, TLS Web Client Authentication
    Signature Algorithm: sha256WithRSAEncryption
         51:34:ff:18:bc:d1:50:95:2c:2e:0c:2c:6c:30:c2:1e:d2:c7:
         35:76:25:c3:4f:81:4a:9a:f2:40:e4:f0:26:35:2c:50:79:2f:
         34:91:0d:b6:ee:5b:4f:e1:cb:81:2d:4d:a9:65:21:3e:05:c6:
         71:f0:ea:45:83:43:a1:45:8a:fb:84:d2:19:09:d8:81:6d:81:
         19:4c:07:11:a6:cf:7d:f1:e1:b6:15:0b:c8:e1:ef:f9:97:6c:
         17:db:8c:5d:a0:86:6c:dc:c9:1a:fa:c2:f8:ce:24:c0:8c:88:
         23:13:0a:1a:88:ad:8f:7c:9d:c8:82:cc:c7:05:02:85:dd:f8:
         7b:32:bb:3c:88:11:1c:35:d9:08:51:15:9e:e3:94:f4:d0:04:
         70:8b:62:6b:4f:98:ac:13:8a:d5:b0:07:73:99:1a:87:b4:c1:
         30:36:f2:27:24:7a:40:2b:e9:70:99:39:27:98:95:75:23:d4:
         0c:3e:92:5e:2b:86:14:ec:94:f5:76:95:e2:38:0d:63:01:10:
         f8:a5:0d:67:d8:ca:61:b0:db:7c:9b:b9:6d:83:9b:cd:1c:e6:
         78:54:6a:21:46:8c:88:d6:ae:a4:ad:47:44:f9:99:c0:4c:5f:
         0c:8a:6b:f4:f4:14:68:df:c7:97:91:db:55:1b:64:ef:30:d6:
         6f:3b:99:1f
-----BEGIN CERTIFICATE-----
MIIDjTCCAnWgAwIBAgIBATANBgkqhkiG9w0BAQsFADAXMRUwEwYDVQQDDAxJbnRl
cm1lZGlhdGUwHhcNMTUwMTAxMTIwMDAwWhcNMTYwMTAxMTIwMDAwWjARMQ8wDQYD
VQQDDAZUYXJnZXQwggEiMA0GCSqGSIb3DQEBAQUAA4IBDwAwggEKAoIBAQDvd5To
aMV+HZuuEM3Vu5YnDAUX9Oy82n0o5bflj9rYrnoq0uMVmxJieQJhPT+LZE77feFZ
vS+DrdO45UUzxBNfee+KPsA5IIHimLnmyWC2jrS/tCtVrrF8IdP+7PBWMf4KGcQs
VKSXqoSig/hamvMRuK07FDpoWnIkSW9vWgI5kQcJyxhXEx6kVAMxXLbpfXgt6Lov
cBcKAxGqkMde8Bt/Vjn14B8eM40jMOZ6ul7KRjMTBFxlsL5Tf6unn437vUblh0Qx
VeWfl36j7Gmo14tHrkiudFBeV1UxyjbsQ6HdYbIYEmopC2Mk1XFN2ucPDeMsqnZr
+SyTwvr5QCwbNGVTAgMBAAGjgekwgeYwHQYDVR0OBBYEFPotr+Bfjo4Yevuv/tnJ
o2KquCoYMB8GA1UdIwQYMBaAFMxyYPCNjMupbP8JV/Nq/ilGJCZbMD8GCCsGAQUF
BwEBBDMwMTAvBggrBgEFBQcwAoYjaHR0cDovL3VybC1mb3ItYWlhL0ludGVybWVk
aWF0ZS5jZXIwNAYDVR0fBC0wKzApoCegJYYjaHR0cDovL3VybC1mb3ItY3JsL0lu
dGVybWVkaWF0ZS5jcmwwDgYDVR0PAQH/BAQDAgWgMB0GA1UdJQQWMBQGCCsGAQUF
BwMBBggrBgEFBQcDAjANBgkqhkiG9w0BAQsFAAOCAQEAUTT/GLzRUJUsLgwsbDDC
HtLHNXYlw0+BSpryQOTwJjUsUHkvNJENtu5bT+HLgS1NqWUhPgXGcfDqRYNDoUWK
+4TSGQnYgW2BGUwHEabPffHhthULyOHv+ZdsF9uMXaCGbNzJGvrC+M4kwIyIIxMK
Goitj3ydyILMxwUChd34ezK7PIgRHDXZCFEVnuOU9NAEcItia0+YrBOK1bAHc5ka
h7TBMDbyJyR6QCvpcJk5J5iVdSPUDD6SXiuGFOyU9XaV4jgNYwEQ+KUNZ9jKYbDb
fJu5bYObzRzmeFRqIUaMiNaupK1HRPmZwExfDIpr9PQUaN/Hl5HbVRtk7zDWbzuZ
Hw==
-----END CERTIFICATE-----

Certificate:
    Data:
        Version: 3 (0x2)
        Serial Number: 4 (0x4)
    Signature Algorithm: sha256WithRSAEncryption
        Issuer: CN=Root
        Validity
            Not Before: Jan  2 12:00:00 2015 GMT
            Not After : Jan  1 12:00:00 2016 GMT
        Subject: CN=Intermediate
        Subject Public Key Info:
            Public Key Algorithm: rsaEncryption
                Public-Key: (2048 bit)
                Modulus:
                    00:9d:2b:d3:86:6e:f6:af:a0:b2:08:23:93:2a:c0:
                    1c:02:49:c6:ef:a9:64:39:4e:80:6a:36:56:e5:a5:
                    93:0e:45:12:ad:05:41:9a:5d:cc:ed:af:2e:7b:b6:
                    cf:bd:14:79:8f:a5:59:16:02:fe:23:5c:2b:e4:90:
                    d2:67:7c:bb:74:cb:37:20:40:c4:62:fa:e0:23:f1:
                    a4:89:70:fe:54:ea:ea:3b:d7:1a:7a:9b:0d:a1:74:
                    44:89:c9:58:3d:d6:99:42:6b:e5:da:f5:f1:0c:33:
                    26:11:e1:d4:2b:33:d7:2e:be:b9:42:5d:e7:b2:ce:
                    52:37:51:30:17:80:a7:77:e0:ca:55:ac:42:12:23:
                    17:d6:42:5a:6d:55:1f:f8:f1:13:7b:73:7d:b6:ff:
                    b7:67:72:d8:55:af:8e:60:71:cd:b8:a4:72:9f:84:
                    d8:6f:a6:62:1a:0f:79:de:3e:27:a5:08:bc:90:20:
                    f6:a3:b2:64:21:92:3e:1c:8c:35:f5:38:16:96:18:
                    f1:5c:de:fd:89:b6:4d:ca:00:0a:59:91:84:9a:28:
                    ea:1c:8f:0d:14:aa:4b:e5:56:66:9e:40:36:35:ff:
                    dc:72:f3:ea:e3:7f:b4:73:64:66:ff:81:16:b9:93:
                    8e:61:30:7f:15:2e:1d:6c:23:90:76:56:b2:60:11:
                    91:19
                Exponent: 65537 (0x10001)
        X509v3 extensions:
            X509v3 Subject Key Identifier: 
                CC:72:60:F0:8D:8C:CB:A9:6C:FF:09:57:F3:6A:FE:29:46:24:26:5B
            X509v3 Authority Key Identifier: 
                keyid:01:6B:49:1F:21:8F:80:DD:D4:97:C0:A8:BB:2A:7E:DC:F3:DA:FD:E1

            Authority Information Access: 
                CA Issuers - URI:http://url-for-aia/Root.cer

            X509v3 CRL Distribution Points: 

                Full Name:
                  URI:http://url-for-crl/Root.crl

            X509v3 Key Usage: critical
                Certificate Sign, CRL Sign
            X509v3 Basic Constraints: critical
                CA:TRUE
    Signature Algorithm: sha256WithRSAEncryption
         62:11:b8:11:cd:f2:bc:8f:e4:1a:93:66:fc:d3:d3:48:1f:11:
         66:8b:6f:e6:ba:e3:45:56:6f:66:0e:04:5a:ef:f9:a9:91:0f:
         6a:3a:5f:64:7d:7c:7e:a7:17:f4:0f:e5:20:14:71:51:2e:b1:
         61:97:fd:96:6d:ec:ac:f4:56:c2:0a:66:59:b4:f8:59:73:33:
         90:63:be:da:68:b0:42:4f:d9:3c:e1:11:b3:7c:d7:be:b7:e6:
         7c:7e:7b:c0:ef:ac:3a:c1:d2:9c:72:f2:da:30:fd:e4:76:b6:
         cc:c3:11:89:dd:3d:9a:fc:6b:6f:7b:a1:58:ba:bb:88:38:4c:
         ac:7a:ef:7b:1a:b5:cc:ba:2b:88:77:a8:41:21:8e:46:b4:fe:
         d3:bb:f9:4d:c4:6e:8a:7d:f1:88:70:04:ac:e6:86:14:54:dd:
         cc:3c:69:62:4a:b9:d4:54:5e:89:77:a9:9e:24:21:94:6d:bd:
         2e:60:61:95:76:7c:6b:d7:96:41:28:cc:3c:6f:56:13:ce:5c:
         82:3e:3e:cf:60:22:88:7e:a6:ce:1e:80:9b:ec:bd:16:04:cd:
         c8:0c:db:98:b1:35:ff:16:c3:5c:f5:59:a1:15:05:b9:b0:55:
         81:ca:ba:73:fb:18:de:98:73:22:01:7f:61:64:77:0e:5b:50:
         6b:22:09:d1
-----BEGIN CERTIFICATE-----
MIIDbTCCAlWgAwIBAgIBBDANBgkqhkiG9w0BAQsFADAPMQ0wCwYDVQQDDARSb290
MB4XDTE1MDEwMjEyMDAwMFoXDTE2MDEwMTEyMDAwMFowFzEVMBMGA1UEAwwMSW50
ZXJtZWRpYXRlMIIBIjANBgkqhkiG9w0BAQEFAAOCAQ8AMIIBCgKCAQEAnSvThm72
r6CyCCOTKsAcAknG76lkOU6AajZW5aWTDkUSrQVBml3M7a8ue7bPvRR5j6VZFgL+
I1wr5JDSZ3y7dMs3IEDEYvrgI/GkiXD+VOrqO9caepsNoXREiclYPdaZQmvl2vXx
DDMmEeHUKzPXLr65Ql3nss5SN1EwF4Cnd+DKVaxCEiMX1kJabVUf+PETe3N9tv+3
Z3LYVa+OYHHNuKRyn4TYb6ZiGg953j4npQi8kCD2o7JkIZI+HIw19TgWlhjxXN79
ibZNygAKWZGEmijqHI8NFKpL5VZmnkA2Nf/ccvPq43+0c2Rm/4EWuZOOYTB/FS4d
bCOQdlayYBGRGQIDAQABo4HLMIHIMB0GA1UdDgQWBBTMcmDwjYzLqWz/CVfzav4p
RiQmWzAfBgNVHSMEGDAWgBQBa0kfIY+A3dSXwKi7Kn7c89r94TA3BggrBgEFBQcB
AQQrMCkwJwYIKwYBBQUHMAKGG2h0dHA6Ly91cmwtZm9yLWFpYS9Sb290LmNlcjAs
BgNVHR8EJTAjMCGgH6AdhhtodHRwOi8vdXJsLWZvci1jcmwvUm9vdC5jcmwwDgYD
VR0PAQH/BAQDAgEGMA8GA1UdEwEB/wQFMAMBAf8wDQYJKoZIhvcNAQELBQADggEB
AGIRuBHN8ryP5BqTZvzT00gfEWaLb+a640VWb2YOBFrv+amRD2o6X2R9fH6nF/QP
5SAUcVEusWGX/ZZt7Kz0VsIKZlm0+FlzM5BjvtposEJP2TzhEbN817635nx+e8Dv
rDrB0pxy8tow/eR2tszDEYndPZr8a297oVi6u4g4TKx673satcy6K4h3qEEhjka0
/tO7+U3Ebop98YhwBKzmhhRU3cw8aWJKudRUXol3qZ4kIZRtvS5gYZV2fGvXlkEo
zDxvVhPOXII+Ps9gIoh+ps4egJvsvRYEzcgM25ixNf8Ww1z1WaEVBbmwVYHKunP7
GN6YcyIBf2Fkdw5bUGsiCdE=
-----END CERTIFICATE-----

Certificate:
    Data:
        Version: 3 (0x2)
        Serial Number: 5 (0x5)
    Signature Algorithm: sha256WithRSAEncryption
        Issuer: CN=Root
        Validity
            Not Before: Jan  2 12:00:00 2015 GMT
            Not After : Jan  1 12:00:00 2016 GMT
        Subject: CN=Root
        Subject Public Key Info:
            Public Key Algorithm: rsaEncryption
                Public-Key: (2048 bit)
                Modulus:
                    00:c7:04:19:c8:b2:fc:28:77:e5:99:8e:f0:05:8b:
                    0d:5b:e5:38:f1:8e:d1:07:d2:f6:d8:6b:bd:c8:c3:
                    2c:f3:05:e9:1f:4c:b6:c1:39:d4:0f:03:2f:62:ba:
                    e7:c4:7e:9c:7c:1c:be:df:6b:f2:34:b2:45:ec:b9:
                    76:a5:3a:25:1c:a1:b7:78:76:0c:e8:3d:76:d1:46:
                    bd:20:e1:ef:1c:80:22:12:b5:8a:de:78:4f:ed:05:
                    25:5d:b4:83:4c:9e:b2:ee:64:b5:df:d9:d1:b7:5f:
                    3c:e9:8a:e1:e1:49:bd:d6:7c:fe:4a:38:f1:94:9a:
                    b5:cc:cf:85:aa:bd:bb:2d:93:b9:a9:2b:c1:f9:82:
                    c0:ba:68:a5:90:4f:e1:d4:30:6f:99:c4:d9:6c:e8:
                    6a:0c:71:a8:ff:c4:7f:b5:9a:e6:07:a0:ed:f4:3c:
                    3a:4b:a3:88:b1:41:cf:f1:b8:ea:f8:b7:43:b0:9f:
                    88:05:eb:cd:ab:27:f5:ed:62:55:05:3d:62:59:b4:
                    1c:07:ca:c4:49:3d:07:80:93:13:ff:0f:31:4f:34:
                    41:9e:5b:a9:0a:79:fa:13:91:da:7c:35:c4:7b:56:
                    9c:a1:89:05:7d:6e:12:e5:e4:83:be:9a:5e:14:cd:
                    fc:27:58:ae:f5:26:83:36:a4:04:61:a7:4a:01:2f:
                    1a:4f
                Exponent: 65537 (0x10001)
        X509v3 extensions:
            X509v3 Subject Key Identifier: 
                01:6B:49:1F:21:8F:80:DD:D4:97:C0:A8:BB:2A:7E:DC:F3:DA:FD:E1
            X509v3 Authority Key Identifier: 
                keyid:D2:45:64:68:86:8E:07:F2:AF:BF:0B:F3:DD:7F:61:1D:4B:6B:4A:CD

            Authority Information Access: 
                CA Issuers - URI:http://url-for-aia/Root.cer

            X509v3 CRL Distribution Points: 

                Full Name:
                  URI:http://url-for-crl/Root.crl

            X509v3 Key Usage: critical
                Certificate Sign, CRL Sign
            X509v3 Basic Constraints: critical
                CA:TRUE
    Signature Algorithm: sha256WithRSAEncryption
         90:af:1e:a1:3a:88:46:5e:09:6c:7f:b6:52:fe:b6:da:a2:04:
         e3:d7:68:05:17:f8:9a:02:ca:c3:e5:ca:40:2b:ee:25:53:71:
         01:8b:17:f1:5e:c9:50:d5:19:7a:89:d4:84:df:f3:5a:ae:2f:
         aa:ee:74:db:1a:da:51:e3:55:09:9e:45:f0:bf:fd:bf:34:83:
         ec:be:30:13:5d:44:50:af:d2:76:d8:64:92:4e:91:31:d4:6a:
         29:f2:29:19:a5:c1:91:2c:c9:18:b8:00:2c:a0:6e:1c:52:a3:
         70:c3:03:32:01:37:b0:67:dd:de:2e:f0:2a:2c:67:35:f6:cc:
         a4:a4:a6:28:8c:1b:a4:e4:6a:dd:c3:35:05:f3:0d:02:77:c5:
         6d:2b:b5:ba:d1:10:49:9a:db:01:2c:dd:3d:f4:35:b7:87:f7:
         fd:d2:23:a9:98:76:0a:ed:39:3d:44:9b:5f:24:94:7a:57:04:
         9a:34:8e:fb:aa:85:b1:51:24:e8:69:b0:25:e2:4a:73:cf:6a:
         48:41:2c:7e:74:f8:c9:d5:e9:33:c6:43:1c:b8:d3:f0:37:db:
         65:e6:e4:91:6f:e3:73:44:f6:ca:da:aa:73:85:8d:fc:0b:a5:
         0b:33:a4:78:a6:30:77:d7:af:10:6e:48:9a:0f:23:7f:68:18:
         50:58:ce:5f
-----BEGIN CERTIFICATE-----
MIIDZTCCAk2gAwIBAgIBBTANBgkqhkiG9w0BAQsFADAPMQ0wCwYDVQQDDARSb290
MB4XDTE1MDEwMjEyMDAwMFoXDTE2MDEwMTEyMDAwMFowDzENMAsGA1UEAwwEUm9v
dDCCASIwDQYJKoZIhvcNAQEBBQADggEPADCCAQoCggEBAMcEGciy/Ch35ZmO8AWL
DVvlOPGO0QfS9thrvcjDLPMF6R9MtsE51A8DL2K658R+nHwcvt9r8jSyRey5dqU6
JRyht3h2DOg9dtFGvSDh7xyAIhK1it54T+0FJV20g0yesu5ktd/Z0bdfPOmK4eFJ
vdZ8/ko48ZSatczPhaq9uy2TuakrwfmCwLpopZBP4dQwb5nE2WzoagxxqP/Ef7Wa
5geg7fQ8OkujiLFBz/G46vi3Q7CfiAXrzasn9e1iVQU9Ylm0HAfKxEk9B4CTE/8P
MU80QZ5bqQp5+hOR2nw1xHtWnKGJBX1uEuXkg76aXhTN/CdYrvUmgzakBGGnSgEv
Gk8CAwEAAaOByzCByDAdBgNVHQ4EFgQUAWtJHyGPgN3Ul8Couyp+3PPa/eEwHwYD
VR0jBBgwFoAU0kVkaIaOB/Kvvwvz3X9hHUtrSs0wNwYIKwYBBQUHAQEEKzApMCcG
CCsGAQUFBzAChhtodHRwOi8vdXJsLWZvci1haWEvUm9vdC5jZXIwLAYDVR0fBCUw
IzAhoB+gHYYbaHR0cDovL3VybC1mb3ItY3JsL1Jvb3QuY3JsMA4GA1UdDwEB/wQE
AwIBBjAPBgNVHRMBAf8EBTADAQH/MA0GCSqGSIb3DQEBCwUAA4IBAQCQrx6hOohG
Xglsf7ZS/rbaogTj12gFF/iaAsrD5cpAK+4lU3EBixfxXslQ1Rl6idSE3/Nari+q
7nTbGtpR41UJnkXwv/2/NIPsvjATXURQr9J22GSSTpEx1Gop8ikZpcGRLMkYuAAs
oG4cUqNwwwMyATewZ93eLvAqLGc19sykpKYojBuk5GrdwzUF8w0Cd8VtK7W60RBJ
mtsBLN099DW3h/f90iOpmHYK7Tk9RJtfJJR6VwSaNI77qoWxUSToabAl4kpzz2pI
QSx+dPjJ1ekzxkMcuNPwN9tl5uSRb+NzRPbK2qpzhY38C6ULM6R4pjB3168Qbkia
DyN/aBhQWM5f
-----END CERTIFICATE-----

Certificate:
    Data:
        Version: 3 (0x2)
        Serial Number: 1 (0x1)
    Signature Algorithm: sha256WithRSAEncryption
        Issuer: CN=Root
        Validity
            Not Before: Jan  1 12:00:00 2015 GMT
            Not After : Jan  1 12:00:00 2016 GMT
        Subject: CN=Root
        Subject Public Key Info:
            Public Key Algorithm: rsaEncryption
                Public-Key: (2048 bit)
                Modulus:
                    00:ef:5f:3f:57:00:ad:2d:82:81:56:19:c0:da:98:
                    72:8b:7f:4b:4f:37:f2:d9:0e:b3:3c:7b:73:d3:8a:
                    ad:5a:94:9c:37:0b:bc:68:4b:40:ac:a9:d1:1f:1b:
                    35:6a:74:50:6b:91:c2:30:e5:a6:88:87:90:f4:dc:
                    8d:09:49:6a:3e:f0:fe:cf:bb:b3:3b:33:c1:2a:2e:
                    b9:fb:9b:6a:db:2a:a6:9f:87:46:6a:b0:7d:87:c6:
                    63:27:cd:58:e7:55:7d:c5:6c:d8:ac:c7:10:fb:6e:
                    68:40:9d:69:bf:8f:a0:9c:36:d8:7a:dc:fb:14:48:
                    f4:96:5d:c2:0e:8f:e9:2f:1d:08:13:04:a0:1d:03:
                    78:b8:a6:97:15:13:0f:91:4e:9e:18:00:96:9f:94:
                    e6:ad:02:2e:c7:60:c8:ed:50:54:02:2e:b2:6b:6e:
                    d5:78:7f:7a:74:20:20:f6:9c:fa:98:17:b3:8f:fd:
                    92:01:3d:ff:e6:56:fa:45:28:41:b1:3c:ba:4a:ef:
                    bc:ff:4c:1e:d3:96:bc:5d:a6:06:7d:27:d8:66:13:
                    e0:40:74:83:8c:f4:89:c9:8d:8a:13:b7:98:88:32:
                    6c:51:6c:15:92:1c:1b:e7:f7:08:a6:35:81:b4:24:
                    be:45:10:1f:ff:c9:e4:4d:35:b7:4d:3c:ae:54:d2:
                    ee:6f
                Exponent: 65537 (0x10001)
        X509v3 extensions:
            X509v3 Subject Key Identifier: 
                D2:45:64:68:86:8E:07:F2:AF:BF:0B:F3:DD:7F:61:1D:4B:6B:4A:CD
            X509v3 Authority Key Identifier: 
                keyid:D2:45:64:68:86:8E:07:F2:AF:BF:0B:F3:DD:7F:61:1D:4B:6B:4A:CD

            Authority Information Access: 
                CA Issuers - URI:http://url-for-aia/Root.cer

            X509v3 CRL Distribution Points: 

                Full Name:
                  URI:http://url-for-crl/Root.crl

            X509v3 Key Usage: critical
                Certificate Sign, CRL Sign
            X509v3 Basic Constraints: critical
                CA:TRUE
    Signature Algorithm: sha256WithRSAEncryption
         b6:c1:5c:d8:13:5b:e8:b9:43:d0:d8:44:dc:85:82:03:9f:f3:
         a8:ed:60:da:86:74:14:69:76:69:de:3d:27:c3:f8:c0:84:40:
         7d:e4:ab:93:48:51:fe:b3:d3:9f:42:5d:df:66:86:9a:b3:77:
         de:84:f8:07:b6:a0:fa:01:96:6b:01:3a:21:06:30:cd:47:2f:
         39:bb:e0:8c:78:2d:4c:53:e8:01:0a:7b:8b:46:c1:a8:b2:45:
         e3:99:fb:e0:ea:53:e3:d3:76:0a:28:38:f6:f4:c6:90:18:51:
         b7:af:ae:8f:68:5b:da:be:e9:e3:62:6d:dc:39:0d:27:e4:a1:
         87:d3:f1:6c:c5:84:9c:c4:55:88:b3:25:d0:2a:70:a8:15:de:
         7b:51:fd:d8:3e:db:08:04:1c:af:97:d3:2b:ce:6e:a5:cc:05:
         48:82:f5:46:05:42:29:a7:e8:e5:f3:ad:4f:90:4f:9d:4e:76:
         94:85:c6:26:6c:1a:b2:86:50:13:81:68:e0:3b:5b:51:2c:be:
         f0:9f:ea:98:fa:9d:16:7b:59:8f:e1:91:39:3b:a0:22:e5:13:
         04:ee:d5:28:63:bb:df:ab:58:84:02:95:2e:1e:66:42:b1:e2:
         49:6a:62:f1:e0:1d:fa:86:b0:fb:6d:0b:05:8b:8a:ca:f6:0b:
         85:96:d6:ab
-----BEGIN CERTIFICATE-----
MIIDZTCCAk2gAwIBAgIBATANBgkqhkiG9w0BAQsFADAPMQ0wCwYDVQQDDARSb290
MB4XDTE1MDEwMTEyMDAwMFoXDTE2MDEwMTEyMDAwMFowDzENMAsGA1UEAwwEUm9v
dDCCASIwDQYJKoZIhvcNAQEBBQADggEPADCCAQoCggEBAO9fP1cArS2CgVYZwNqY
cot/S0838tkOszx7c9OKrVqUnDcLvGhLQKyp0R8bNWp0UGuRwjDlpoiHkPTcjQlJ
aj7w/s+7szszwSouufubatsqpp+HRmqwfYfGYyfNWOdVfcVs2KzHEPtuaECdab+P
oJw22Hrc+xRI9JZdwg6P6S8dCBMEoB0DeLimlxUTD5FOnhgAlp+U5q0CLsdgyO1Q
VAIusmtu1Xh/enQgIPac+pgXs4/9kgE9/+ZW+kUoQbE8ukrvvP9MHtOWvF2mBn0n
2GYT4EB0g4z0icmNihO3mIgybFFsFZIcG+f3CKY1gbQkvkUQH//J5E01t008rlTS
7m8CAwEAAaOByzCByDAdBgNVHQ4EFgQU0kVkaIaOB/Kvvwvz3X9hHUtrSs0wHwYD
VR0jBBgwFoAU0kVkaIaOB/Kvvwvz3X9hHUtrSs0wNwYIKwYBBQUHAQEEKzApMCcG
CCsGAQUFBzAChhtodHRwOi8vdXJsLWZvci1haWEvUm9vdC5jZXIwLAYDVR0fBCUw
IzAhoB+gHYYbaHR0cDovL3VybC1mb3ItY3JsL1Jvb3QuY3JsMA4GA1UdDwEB/wQE
AwIBBjAPBgNVHRMBAf8EBTADAQH/MA0GCSqGSIb3DQEBCwUAA4IBAQC2wVzYE1vo
uUPQ2ETchYIDn/Oo7WDahnQUaXZp3j0nw/jAhEB95KuTSFH+s9OfQl3fZoaas3fe
hPgHtqD6AZZrATohBjDNRy85u+CMeC1MU+gBCnuLRsGoskXjmfvg6lPj03YKKDj2
9MaQGFG3r66PaFvavunjYm3cOQ0n5KGH0/FsxYScxFWIsyXQKnCoFd57Uf3YPtsI
BByvl9Mrzm6lzAVIgvVGBUIpp+jl861PkE+dTnaUhcYmbBqyhlATgWjgO1tRLL7w
n+qY+p0We1mP4ZE5O6Ai5RME7tUoY7vfq1iEApUuHmZCseJJamLx4B36hrD7bQsF
i4rK9guFltar
-----END CERTIFICATE-----
