Certificate:
    Data:
        Version: 3 (0x2)
        Serial Number: 146006 (0x23a56)
    Signature Algorithm: sha1WithRSAEncryption
        Issuer: C=US, O=GeoTrust Inc., CN=GeoTrust Global CA
        Validity
            Not Before: Jul 22 15:05:42 2010 GMT
            Not After : Jul 21 15:05:42 2017 GMT
        Subject: C=US, O=Aetna Inc., OU=GeoRoot Certification Authority, CN=Aetna Inc. Certificate Authority
        Subject Public Key Info:
            Public Key Algorithm: rsaEncryption
                Public-Key: (2048 bit)
                Modulus:
                    00:90:b4:e3:7e:7b:f4:61:52:46:c0:70:55:2c:15:
                    a7:66:12:1b:19:7e:81:ef:60:dd:5f:0e:81:31:a7:
                    c1:0a:e9:de:91:cb:46:2a:d7:3a:5c:f1:c1:63:fa:
                    14:f5:e8:6f:45:74:41:11:af:25:6b:4f:fd:18:20:
                    d6:a2:8a:59:ef:19:1c:5d:82:0e:d8:3a:cc:53:53:
                    5f:f5:64:69:b5:28:67:af:7c:9f:e9:91:55:c0:70:
                    14:aa:2b:d9:dc:a1:15:02:63:95:ee:c9:d6:b6:01:
                    7a:c8:09:b0:b5:63:1d:9f:8b:22:b2:43:81:c8:f8:
                    6f:61:e4:d5:13:9e:38:14:37:a9:17:b9:36:15:d6:
                    27:58:41:66:17:61:f8:94:54:f5:78:de:d9:20:87:
                    99:ef:b8:21:7a:01:c1:a9:8e:18:1d:d9:a1:c3:ad:
                    f8:68:9e:0f:d6:8a:18:6a:aa:88:c4:87:f2:ea:ef:
                    5a:ad:9e:25:6d:4f:5f:15:ff:50:a7:a7:48:4e:47:
                    92:72:05:00:e8:77:66:e2:90:fd:2a:21:04:b6:50:
                    69:34:96:c2:6e:ee:61:6b:ba:a4:0a:73:bf:e0:7a:
                    87:42:0f:6f:63:5f:b4:03:f6:35:d6:be:b1:da:b9:
                    85:90:08:e3:ae:54:8f:15:7e:c7:af:87:cd:d1:18:
                    92:79
                Exponent: 65537 (0x10001)
        X509v3 extensions:
            X509v3 Authority Key Identifier: 
                keyid:C0:7A:98:68:8D:89:FB:AB:05:64:0C:11:7D:AA:7D:65:B8:CA:CC:4E

            X509v3 Subject Key Identifier: 
                BE:C3:C5:71:C8:A0:8D:62:5D:3D:11:32:27:43:31:63:8D:28:29:C1
            X509v3 Basic Constraints: critical
                CA:TRUE, pathlen:0
            X509v3 Key Usage: critical
                Certificate Sign, CRL Sign
            X509v3 CRL Distribution Points: 

                Full Name:
                  URI:http://crl.geotrust.com/crls/gtglobal.crl

    Signature Algorithm: sha1WithRSAEncryption
         3e:3d:03:d2:37:08:02:ca:8d:e4:ed:09:d2:02:86:68:d8:5a:
         f1:03:0e:70:67:2d:86:ec:11:5a:6f:2e:f6:9b:ba:e6:81:7f:
         50:6c:0e:d1:4b:0a:4b:f3:33:2f:f2:84:a8:1d:2b:0c:64:a0:
         dc:0a:c9:31:02:84:55:6b:bc:22:b2:34:e9:b2:00:66:69:54:
         63:4b:9c:3e:8c:38:e2:cd:01:b9:4a:5e:5c:ed:c7:6d:fb:7b:
         c1:ea:e7:a0:13:86:c8:7a:43:d7:bb:89:eb:ee:24:aa:99:72:
         08:ab:bc:79:a8:72:b0:4b:91:7c:30:63:1a:89:9b:5a:89:d9:
         fa:ea:3f:72:d9:5a:cc:ed:7c:80:8e:de:61:10:99:17:01:e8:
         8c:8d:16:57:27:ae:d2:40:ed:8a:ec:25:ca:f0:10:9a:90:41:
         6b:ce:79:28:ac:c1:2c:24:96:85:d8:a6:a0:c9:e3:f9:e8:8b:
         7c:98:81:3e:4c:30:1c:99:45:58:14:28:91:5d:76:cb:02:1a:
         f5:87:7d:26:19:aa:20:e8:fd:ea:31:92:d6:87:52:bc:17:fd:
         f4:96:da:0d:d7:48:a0:43:7e:72:07:1e:06:1b:e5:1b:ff:33:
         21:92:bb:53:0a:58:a9:70:8b:64:13:0b:bb:7c:71:1d:64:de:
         bf:c1:02:a1
-----BEGIN CERTIFICATE-----
MIID2jCCAsKgAwIBAgIDAjpWMA0GCSqGSIb3DQEBBQUAMEIxCzAJBgNVBAYTAlVT
MRYwFAYDVQQKEw1HZW9UcnVzdCBJbmMuMRswGQYDVQQDExJHZW9UcnVzdCBHbG9i
YWwgQ0EwHhcNMTAwNzIyMTUwNTQyWhcNMTcwNzIxMTUwNTQyWjB3MQswCQYDVQQG
EwJVUzETMBEGA1UEChMKQWV0bmEgSW5jLjEoMCYGA1UECxMfR2VvUm9vdCBDZXJ0
aWZpY2F0aW9uIEF1dGhvcml0eTEpMCcGA1UEAxMgQWV0bmEgSW5jLiBDZXJ0aWZp
Y2F0ZSBBdXRob3JpdHkwggEiMA0GCSqGSIb3DQEBAQUAA4IBDwAwggEKAoIBAQCQ
tON+e/RhUkbAcFUsFadmEhsZfoHvYN1fDoExp8EK6d6Ry0Yq1zpc8cFj+hT16G9F
dEERryVrT/0YINaiilnvGRxdgg7YOsxTU1/1ZGm1KGevfJ/pkVXAcBSqK9ncoRUC
Y5Xuyda2AXrICbC1Yx2fiyKyQ4HI+G9h5NUTnjgUN6kXuTYV1idYQWYXYfiUVPV4
3tkgh5nvuCF6AcGpjhgd2aHDrfhong/WihhqqojEh/Lq71qtniVtT18V/1Cnp0hO
R5JyBQDod2bikP0qIQS2UGk0lsJu7mFruqQKc7/geodCD29jX7QD9jXWvrHauYWQ
COOuVI8Vfsevh83RGJJ5AgMBAAGjgaMwgaAwHwYDVR0jBBgwFoAUwHqYaI2J+6sF
ZAwRfap9ZbjKzE4wHQYDVR0OBBYEFL7DxXHIoI1iXT0RMidDMWONKCnBMBIGA1Ud
EwEB/wQIMAYBAf8CAQAwDgYDVR0PAQH/BAQDAgEGMDoGA1UdHwQzMDEwL6AtoCuG
KWh0dHA6Ly9jcmwuZ2VvdHJ1c3QuY29tL2NybHMvZ3RnbG9iYWwuY3JsMA0GCSqG
SIb3DQEBBQUAA4IBAQA+PQPSNwgCyo3k7QnSAoZo2FrxAw5wZy2G7BFaby72m7rm
gX9QbA7RSwpL8zMv8oSoHSsMZKDcCskxAoRVa7wisjTpsgBmaVRjS5w+jDjizQG5
Sl5c7cdt+3vB6uegE4bIekPXu4nr7iSqmXIIq7x5qHKwS5F8MGMaiZtaidn66j9y
2VrM7XyAjt5hEJkXAeiMjRZXJ67SQO2K7CXK8BCakEFrznkorMEsJJaF2KagyeP5
6It8mIE+TDAcmUVYFCiRXXbLAhr1h30mGaog6P3qMZLWh1K8F/30ltoN10igQ35y
Bx4GG+Ub/zMhkrtTClipcItkEwu7fHEdZN6/wQKh
-----END CERTIFICATE-----
