Certificate:
    Data:
        Version: 3 (0x2)
        Serial Number: 5 (0x5)
    Signature Algorithm: sha256WithRSAEncryption
        Issuer: CN=Test Root CA
        Validity
            Not Before: Oct 30 00:00:00 2008 GMT
            Not After : Oct 29 00:00:00 2018 GMT
        Subject: C=US, ST=California, L=Mountain View, O=Test CA, CN=127.0.0.1
        Subject Public Key Info:
            Public Key Algorithm: rsaEncryption
                Public-Key: (2048 bit)
                Modulus:
                    00:d7:0b:1b:f7:ce:03:86:eb:bd:cb:41:5b:31:e2:
                    a7:fe:b8:2e:a6:3d:e9:ed:c5:21:ca:e7:aa:1e:8f:
                    fb:e8:46:05:1f:64:af:7c:72:33:6b:80:41:a9:0b:
                    79:ad:da:b2:4c:bd:28:76:0b:87:92:2a:fc:10:36:
                    19:90:ec:97:e6:00:d3:a7:f6:7c:7c:41:a7:26:5d:
                    e7:f9:64:49:1f:1e:89:09:a3:08:e6:14:f8:da:52:
                    be:d8:f1:b2:8b:2a:ad:a8:15:02:df:de:89:86:d2:
                    88:3d:b5:2a:72:c4:77:18:f2:8e:48:2c:5f:9d:85:
                    77:2a:9d:36:3d:62:ea:04:1b:ad:3f:7e:53:3d:c9:
                    3f:5e:de:02:0c:2f:1e:a5:b2:9c:d1:03:ce:5d:a6:
                    88:28:29:bc:40:96:6d:e8:fd:99:1f:31:73:ab:a6:
                    2b:de:51:28:e4:0f:24:12:29:6d:69:11:63:10:06:
                    c0:ab:b6:d1:7a:2c:9e:85:ee:93:4c:5e:2a:3d:82:
                    36:60:5f:ae:cd:d4:e3:3c:c9:33:5b:5e:fe:f8:8f:
                    7d:6b:09:01:99:dd:51:cf:c3:2c:69:ca:28:fc:0b:
                    4f:95:89:52:b1:f7:6b:0f:c9:46:31:b0:61:88:ac:
                    0e:c5:2e:45:9a:f3:64:33:01:7c:d4:52:b9:f3:69:
                    af:91
                Exponent: 65537 (0x10001)
        X509v3 extensions:
            X509v3 Basic Constraints: critical
                CA:FALSE
            X509v3 Subject Key Identifier: 
                F4:E5:35:90:3B:34:F5:54:E9:40:D2:16:33:BE:45:0C:1C:AE:05:7B
            X509v3 Authority Key Identifier: 
                keyid:68:27:28:DC:F4:82:CD:72:02:F3:82:88:1E:BC:30:00:E6:7E:79:23

            X509v3 Extended Key Usage: 
                TLS Web Server Authentication, TLS Web Client Authentication
            X509v3 Subject Alternative Name: 
                IP Address:127.0.0.1
    Signature Algorithm: sha256WithRSAEncryption
         08:2e:a1:67:a4:4b:5c:4e:5c:63:a8:c5:21:93:6e:ef:37:97:
         5a:96:89:01:65:4d:2e:b8:78:58:28:ce:33:a7:6b:7f:85:c1:
         d2:0c:5a:bd:ff:f8:96:4b:13:99:6a:9b:f8:ff:32:93:75:99:
         6f:44:7b:13:0b:df:cd:d0:2e:2f:5d:2b:41:8e:aa:05:f0:1c:
         60:27:e7:76:b5:8f:20:45:f8:6c:22:f9:34:f1:c7:70:41:1c:
         9f:6c:d4:08:7f:fb:aa:8f:4e:3b:69:b5:61:e5:e0:b0:bd:0e:
         c8:d4:6c:45:8a:f4:2c:3d:3a:16:3b:b4:59:4d:6c:1e:a6:fb:
         00:ab:d2:9e:0b:00:02:ae:47:c7:06:14:c0:69:0d:21:96:f8:
         86:d6:f2:ad:34:dd:69:66:63:ed:b3:65:50:89:ef:83:c0:d0:
         d6:63:a3:5f:e8:64:2b:25:22:92:78:c2:29:e4:84:8b:8e:69:
         2b:9e:0f:59:e7:b1:06:4c:e8:67:9c:95:8a:b8:4f:26:ed:09:
         2b:37:69:12:68:9d:6d:03:70:06:bf:45:79:d7:0d:78:d8:9b:
         df:68:54:2e:56:b4:e5:82:22:50:4d:09:98:fc:ae:0c:28:cc:
         d6:a6:ce:04:7b:ea:10:d4:03:97:a8:76:3c:d6:4c:ac:0b:20:
         2e:4c:22:89
-----BEGIN CERTIFICATE-----
MIIDczCCAlugAwIBAgIBBTANBgkqhkiG9w0BAQsFADAXMRUwEwYDVQQDDAxUZXN0
IFJvb3QgQ0EwHhcNMDgxMDMwMDAwMDAwWhcNMTgxMDI5MDAwMDAwWjBgMQswCQYD
VQQGEwJVUzETMBEGA1UECAwKQ2FsaWZvcm5pYTEWMBQGA1UEBwwNTW91bnRhaW4g
VmlldzEQMA4GA1UECgwHVGVzdCBDQTESMBAGA1UEAwwJMTI3LjAuMC4xMIIBIjAN
BgkqhkiG9w0BAQEFAAOCAQ8AMIIBCgKCAQEA1wsb984Dhuu9y0FbMeKn/rgupj3p
7cUhyueqHo/76EYFH2SvfHIza4BBqQt5rdqyTL0odguHkir8EDYZkOyX5gDTp/Z8
fEGnJl3n+WRJHx6JCaMI5hT42lK+2PGyiyqtqBUC396JhtKIPbUqcsR3GPKOSCxf
nYV3Kp02PWLqBButP35TPck/Xt4CDC8epbKc0QPOXaaIKCm8QJZt6P2ZHzFzq6Yr
3lEo5A8kEiltaRFjEAbAq7bReiyehe6TTF4qPYI2YF+uzdTjPMkzW17++I99awkB
md1Rz8Msacoo/AtPlYlSsfdrD8lGMbBhiKwOxS5FmvNkMwF81FK582mvkQIDAQAB
o4GAMH4wDAYDVR0TAQH/BAIwADAdBgNVHQ4EFgQU9OU1kDs09VTpQNIWM75FDByu
BXswHwYDVR0jBBgwFoAUaCco3PSCzXIC84KIHrwwAOZ+eSMwHQYDVR0lBBYwFAYI
KwYBBQUHAwEGCCsGAQUFBwMCMA8GA1UdEQQIMAaHBH8AAAEwDQYJKoZIhvcNAQEL
BQADggEBAAguoWekS1xOXGOoxSGTbu83l1qWiQFlTS64eFgozjOna3+FwdIMWr3/
+JZLE5lqm/j/MpN1mW9EexML383QLi9dK0GOqgXwHGAn53a1jyBF+Gwi+TTxx3BB
HJ9s1Ah/+6qPTjtptWHl4LC9DsjUbEWK9Cw9OhY7tFlNbB6m+wCr0p4LAAKuR8cG
FMBpDSGW+IbW8q003WlmY+2zZVCJ74PA0NZjo1/oZCslIpJ4winkhIuOaSueD1nn
sQZM6GeclYq4TybtCSs3aRJonW0DcAa/RXnXDXjYm99oVC5WtOWCIlBNCZj8rgwo
zNamzgR76hDUA5eodjzWTKwLIC5MIok=
-----END CERTIFICATE-----
