Certificate:
    Data:
        Version: 3 (0x2)
        Serial Number: 6 (0x6)
    Signature Algorithm: sha256WithRSAEncryption
        Issuer: CN=Test Root CA
        Validity
            Not Before: Oct 30 00:00:00 2014 GMT
            Not After : Oct 30 00:00:00 2025 GMT
        Subject: C=US, ST=California, L=Mountain View, O=Test CA, CN=127.0.0.1
        Subject Public Key Info:
            Public Key Algorithm: rsaEncryption
                Public-Key: (2048 bit)
                Modulus:
                    00:d7:f7:09:26:5f:1c:c4:93:f4:16:d5:84:61:f5:
                    d9:93:eb:f2:c6:38:96:7f:a7:fe:ea:6b:88:68:bd:
                    8a:81:5a:47:16:eb:54:5f:db:3c:98:21:b7:89:49:
                    cf:3c:c3:4d:ad:7f:54:d0:16:34:16:cb:66:4b:c9:
                    86:c6:42:72:62:68:85:5d:ee:2c:18:9e:2f:99:06:
                    89:f4:a6:8f:cd:65:48:d0:0f:98:08:46:ad:3c:30:
                    0c:0c:85:50:66:66:2e:39:2a:d1:4c:6b:be:46:ce:
                    33:be:d1:ec:2a:66:a7:a0:39:4a:c2:74:2a:1a:08:
                    d1:06:4d:ec:9d:42:69:61:8f:7c:e3:89:9f:a3:e4:
                    fe:65:bd:12:1d:1e:e8:81:9d:f4:89:93:9c:80:7c:
                    14:aa:00:da:ed:f9:49:1a:f6:b0:c9:80:c7:fb:79:
                    b6:b5:26:88:74:52:fd:38:3a:cc:49:81:43:2a:d7:
                    73:7f:a5:9e:78:a4:ca:55:2d:65:ee:1b:42:73:c4:
                    07:3a:18:1e:45:9b:d5:26:be:d2:34:9d:ad:58:98:
                    a7:27:70:c4:aa:61:36:51:59:4a:4c:49:b4:4e:7f:
                    59:63:3a:9f:fb:4d:5b:fd:b6:79:35:eb:06:9e:9b:
                    fb:90:40:99:4c:ec:07:fd:c4:2e:1a:fa:66:f5:ad:
                    b8:bd
                Exponent: 65537 (0x10001)
        X509v3 extensions:
            X509v3 Basic Constraints: critical
                CA:FALSE
            X509v3 Subject Key Identifier: 
                97:61:9A:BC:B0:3B:CC:C3:44:D4:34:31:0A:3F:58:9E:4B:EB:33:95
            X509v3 Authority Key Identifier: 
                keyid:CA:0B:EE:C3:20:AD:63:FC:89:FA:71:69:49:E6:38:78:EC:F9:C6:55

            X509v3 Extended Key Usage: 
                TLS Web Server Authentication, TLS Web Client Authentication
            X509v3 Subject Alternative Name: 
                IP Address:127.0.0.1
    Signature Algorithm: sha256WithRSAEncryption
         30:97:5c:3b:08:b5:5c:f4:13:ad:16:4a:b4:2f:a9:10:f5:9c:
         5b:58:11:d8:87:53:3c:41:fb:ba:0e:98:7a:5a:aa:9c:b4:1e:
         f6:ee:da:56:52:6a:ac:74:2f:6b:d8:c3:4e:b2:c5:ef:6b:55:
         2d:6e:1a:83:2c:63:ac:69:a0:1a:2b:18:a2:18:e7:30:9a:5a:
         35:c2:8e:1d:5f:4e:68:e3:40:97:78:e6:f1:37:5b:d9:ea:06:
         84:b3:65:4a:12:0c:7d:66:c4:97:f9:d1:6d:66:21:8e:52:fc:
         61:6b:0a:78:c7:0d:75:2d:8b:c6:1b:80:5a:f1:e7:ad:7f:a5:
         84:e6:16:b9:f7:89:84:84:0b:44:f7:a6:38:d6:3f:34:87:4e:
         17:08:2b:18:00:d7:c5:25:4c:35:40:95:78:a2:26:ef:96:5e:
         d1:9f:a3:0f:62:ca:5a:2e:13:4e:cd:43:3e:31:dd:3d:b1:77:
         c2:23:b7:79:f4:1a:fa:81:07:ae:9d:c5:8a:4c:15:24:43:97:
         d7:b4:d8:c1:11:ba:08:66:76:5d:05:be:13:00:63:2c:77:21:
         25:fc:38:95:8d:e6:f0:10:90:22:38:57:9a:62:7e:5a:1f:71:
         3a:bf:3b:b0:d7:29:0d:8a:df:e5:0d:00:72:74:92:0e:9b:4a:
         7e:97:98:b4
-----BEGIN CERTIFICATE-----
MIIDczCCAlugAwIBAgIBBjANBgkqhkiG9w0BAQsFADAXMRUwEwYDVQQDDAxUZXN0
IFJvb3QgQ0EwHhcNMTQxMDMwMDAwMDAwWhcNMjUxMDMwMDAwMDAwWjBgMQswCQYD
VQQGEwJVUzETMBEGA1UECAwKQ2FsaWZvcm5pYTEWMBQGA1UEBwwNTW91bnRhaW4g
VmlldzEQMA4GA1UECgwHVGVzdCBDQTESMBAGA1UEAwwJMTI3LjAuMC4xMIIBIjAN
BgkqhkiG9w0BAQEFAAOCAQ8AMIIBCgKCAQEA1/cJJl8cxJP0FtWEYfXZk+vyxjiW
f6f+6muIaL2KgVpHFutUX9s8mCG3iUnPPMNNrX9U0BY0FstmS8mGxkJyYmiFXe4s
GJ4vmQaJ9KaPzWVI0A+YCEatPDAMDIVQZmYuOSrRTGu+Rs4zvtHsKmanoDlKwnQq
GgjRBk3snUJpYY9844mfo+T+Zb0SHR7ogZ30iZOcgHwUqgDa7flJGvawyYDH+3m2
tSaIdFL9ODrMSYFDKtdzf6WeeKTKVS1l7htCc8QHOhgeRZvVJr7SNJ2tWJinJ3DE
qmE2UVlKTEm0Tn9ZYzqf+01b/bZ5NesGnpv7kECZTOwH/cQuGvpm9a24vQIDAQAB
o4GAMH4wDAYDVR0TAQH/BAIwADAdBgNVHQ4EFgQUl2GavLA7zMNE1DQxCj9Ynkvr
M5UwHwYDVR0jBBgwFoAUygvuwyCtY/yJ+nFpSeY4eOz5xlUwHQYDVR0lBBYwFAYI
KwYBBQUHAwEGCCsGAQUFBwMCMA8GA1UdEQQIMAaHBH8AAAEwDQYJKoZIhvcNAQEL
BQADggEBADCXXDsItVz0E60WSrQvqRD1nFtYEdiHUzxB+7oOmHpaqpy0Hvbu2lZS
aqx0L2vYw06yxe9rVS1uGoMsY6xpoBorGKIY5zCaWjXCjh1fTmjjQJd45vE3W9nq
BoSzZUoSDH1mxJf50W1mIY5S/GFrCnjHDXUti8YbgFrx561/pYTmFrn3iYSEC0T3
pjjWPzSHThcIKxgA18UlTDVAlXiiJu+WXtGfow9iylouE07NQz4x3T2xd8Ijt3n0
GvqBB66dxYpMFSRDl9e02MERughmdl0FvhMAYyx3ISX8OJWN5vAQkCI4V5piflof
cTq/O7DXKQ2K3+UNAHJ0kg6bSn6XmLQ=
-----END CERTIFICATE-----
