Certificate:
    Data:
        Version: 3 (0x2)
        Serial Number: 7 (0x7)
    Signature Algorithm: sha256WithRSAEncryption
        Issuer: CN=Test Root CA
        Validity
            Not Before: Apr  2 00:00:00 2015 GMT
            Not After : Jul  2 00:00:00 2018 GMT
        Subject: C=US, ST=California, L=Mountain View, O=Test CA, CN=127.0.0.1
        Subject Public Key Info:
            Public Key Algorithm: rsaEncryption
                Public-Key: (2048 bit)
                Modulus:
                    00:eb:c3:3b:8e:08:b4:9d:a5:ab:35:d2:ab:9e:bb:
                    3f:e6:fc:c0:5f:59:f0:40:f9:1d:d3:90:09:78:27:
                    1d:78:71:9f:40:6b:71:f4:3b:1c:63:f4:44:1e:fc:
                    09:66:5b:6d:20:d3:dd:42:f5:12:d0:ce:65:8b:28:
                    5e:99:14:86:38:ca:e0:f6:2b:df:d8:99:e8:c6:4c:
                    b6:7e:3a:dd:45:89:4b:a5:98:81:26:14:4b:97:39:
                    be:ad:2d:53:64:fb:3d:2e:e8:e2:e7:92:3b:ed:81:
                    29:67:96:0c:0d:67:ed:6c:52:27:c7:fb:61:43:57:
                    bc:5f:c5:08:2d:3f:97:92:33:f1:a4:a6:ea:02:c8:
                    cd:bd:01:62:d3:63:2b:91:c4:b6:5d:03:13:11:bc:
                    b2:72:13:90:2f:db:0d:34:79:e8:01:a0:fd:23:ed:
                    22:10:c9:d8:ad:60:e1:79:a5:75:24:aa:13:7c:4d:
                    71:c5:1d:94:92:ad:25:66:fa:b8:91:12:42:cd:8c:
                    2e:e9:2e:5f:3f:b5:1f:ae:7e:09:7b:88:b8:93:c2:
                    58:65:33:7b:2f:a2:71:45:e0:d4:79:1c:d4:8c:e7:
                    6d:ff:bf:b3:59:b9:b0:a0:f2:fc:e6:8a:7d:31:1a:
                    bc:2e:38:3a:ce:16:85:47:a3:87:c5:f6:43:21:cb:
                    56:eb
                Exponent: 65537 (0x10001)
        X509v3 extensions:
            X509v3 Basic Constraints: critical
                CA:FALSE
            X509v3 Subject Key Identifier: 
                A9:39:E6:EB:3E:23:03:3A:4E:81:DC:F7:6D:77:83:46:8B:F0:8C:0E
            X509v3 Authority Key Identifier: 
                keyid:CA:0B:EE:C3:20:AD:63:FC:89:FA:71:69:49:E6:38:78:EC:F9:C6:55

            X509v3 Extended Key Usage: 
                TLS Web Server Authentication, TLS Web Client Authentication
            X509v3 Subject Alternative Name: 
                IP Address:127.0.0.1
    Signature Algorithm: sha256WithRSAEncryption
         ad:bd:f3:9d:e7:c9:0c:41:fa:c2:1c:a4:59:03:e3:ab:64:b0:
         c9:3a:f6:9a:d8:fb:05:52:95:0d:d9:d0:fa:10:d4:2e:66:81:
         b5:3b:11:01:f6:93:8d:2b:2f:f4:97:50:3c:36:3a:de:5d:eb:
         3e:93:d8:84:86:a2:dd:08:a7:b7:50:0b:df:18:a7:b7:5a:4b:
         d3:99:69:ae:04:70:60:6f:76:1e:6f:69:15:fe:98:6e:a7:aa:
         d8:7f:05:2e:da:16:fc:ff:fd:15:19:e2:3c:9e:82:70:29:0e:
         79:fb:2c:41:59:86:3d:aa:53:ee:b3:10:79:3e:d6:d6:5d:b1:
         b9:bf:5a:83:3a:d4:3b:1e:98:97:bb:cf:79:ee:83:d1:4d:31:
         42:5e:7f:44:19:15:1f:65:bd:6c:ad:c1:b8:dc:2b:bb:64:d3:
         76:eb:8c:d6:79:7a:ab:55:20:9b:02:79:c5:f8:80:01:45:c8:
         0d:ce:54:be:5d:24:44:ea:52:54:f3:e2:9b:cd:20:7d:70:e6:
         d2:ed:d6:51:d0:0c:fa:5d:73:93:40:39:37:bf:f6:4a:98:46:
         e9:41:d7:21:3a:a9:3f:06:c8:b1:12:c9:3e:a6:69:cb:fd:e0:
         05:5f:03:e6:e4:8d:20:25:b6:18:2f:74:a4:50:a0:cb:1b:6e:
         46:d1:ad:a2
-----BEGIN CERTIFICATE-----
MIIDczCCAlugAwIBAgIBBzANBgkqhkiG9w0BAQsFADAXMRUwEwYDVQQDDAxUZXN0
IFJvb3QgQ0EwHhcNMTUwNDAyMDAwMDAwWhcNMTgwNzAyMDAwMDAwWjBgMQswCQYD
VQQGEwJVUzETMBEGA1UECAwKQ2FsaWZvcm5pYTEWMBQGA1UEBwwNTW91bnRhaW4g
VmlldzEQMA4GA1UECgwHVGVzdCBDQTESMBAGA1UEAwwJMTI3LjAuMC4xMIIBIjAN
BgkqhkiG9w0BAQEFAAOCAQ8AMIIBCgKCAQEA68M7jgi0naWrNdKrnrs/5vzAX1nw
QPkd05AJeCcdeHGfQGtx9DscY/REHvwJZlttINPdQvUS0M5liyhemRSGOMrg9ivf
2Jnoxky2fjrdRYlLpZiBJhRLlzm+rS1TZPs9Luji55I77YEpZ5YMDWftbFInx/th
Q1e8X8UILT+XkjPxpKbqAsjNvQFi02MrkcS2XQMTEbyychOQL9sNNHnoAaD9I+0i
EMnYrWDheaV1JKoTfE1xxR2Ukq0lZvq4kRJCzYwu6S5fP7Ufrn4Je4i4k8JYZTN7
L6JxReDUeRzUjOdt/7+zWbmwoPL85op9MRq8Ljg6zhaFR6OHxfZDIctW6wIDAQAB
o4GAMH4wDAYDVR0TAQH/BAIwADAdBgNVHQ4EFgQUqTnm6z4jAzpOgdz3bXeDRovw
jA4wHwYDVR0jBBgwFoAUygvuwyCtY/yJ+nFpSeY4eOz5xlUwHQYDVR0lBBYwFAYI
KwYBBQUHAwEGCCsGAQUFBwMCMA8GA1UdEQQIMAaHBH8AAAEwDQYJKoZIhvcNAQEL
BQADggEBAK29853nyQxB+sIcpFkD46tksMk69prY+wVSlQ3Z0PoQ1C5mgbU7EQH2
k40rL/SXUDw2Ot5d6z6T2ISGot0Ip7dQC98Yp7daS9OZaa4EcGBvdh5vaRX+mG6n
qth/BS7aFvz//RUZ4jyegnApDnn7LEFZhj2qU+6zEHk+1tZdsbm/WoM61DsemJe7
z3nug9FNMUJef0QZFR9lvWytwbjcK7tk03brjNZ5eqtVIJsCecX4gAFFyA3OVL5d
JETqUlTz4pvNIH1w5tLt1lHQDPpdc5NAOTe/9kqYRulB1yE6qT8GyLESyT6macv9
4AVfA+bkjSAlthgvdKRQoMsbbkbRraI=
-----END CERTIFICATE-----
