Certificate:
    Data:
        Version: 3 (0x2)
        Serial Number: 1 (0x1)
    Signature Algorithm: sha256WithRSAEncryption
        Issuer: CN=AIA Test Intermediate CA
        Validity
            Not Before: Aug 14 02:46:18 2014 GMT
            Not After : Aug 11 02:46:18 2024 GMT
        Subject: CN=aia-host.invalid
        Subject Public Key Info:
            Public Key Algorithm: rsaEncryption
                Public-Key: (2048 bit)
                Modulus:
                    00:d7:a8:22:68:e9:32:12:5a:49:cb:cb:47:df:93:
                    34:0d:2e:0e:a0:e8:30:27:a7:69:47:cc:f4:fe:76:
                    ad:13:95:d2:dc:39:05:ad:62:f7:8f:23:d6:04:1c:
                    a3:84:30:a0:0f:37:7d:fa:28:d4:f3:4b:e4:0c:ce:
                    c0:57:96:c4:40:3d:20:20:b0:78:19:1b:a9:7a:ad:
                    20:4e:a6:39:42:39:48:f5:18:a4:05:03:1a:9e:f5:
                    cf:54:e2:3e:5d:38:c7:5d:f8:89:d4:5d:39:f0:15:
                    db:96:26:bb:12:fe:a4:c5:b0:ff:6d:41:f7:f8:25:
                    81:6d:99:03:93:20:7d:29:25:bd:15:a9:ea:2d:98:
                    03:5b:54:88:33:a9:e3:88:1a:de:14:42:f4:42:56:
                    5c:67:9d:3a:9a:69:2c:d2:17:e5:75:ac:28:73:44:
                    48:22:08:6b:3f:5a:82:4b:76:8a:59:3b:f9:55:51:
                    b2:02:94:f2:68:12:13:6a:58:cb:c8:2a:01:15:4d:
                    ed:f5:0f:03:61:4c:c2:94:bf:37:bf:d0:62:ad:51:
                    2e:5a:eb:8a:e1:db:68:d7:96:14:7b:09:dd:75:12:
                    5f:fe:72:40:3b:a0:ae:c2:0b:9d:ae:79:13:81:e1:
                    cb:47:83:cd:ea:07:a6:00:41:a2:b4:08:16:fb:17:
                    73:dd
                Exponent: 65537 (0x10001)
        X509v3 extensions:
            X509v3 Basic Constraints: critical
                CA:FALSE
            X509v3 Extended Key Usage: 
                TLS Web Server Authentication, TLS Web Client Authentication
            Authority Information Access: 
                CA Issuers - URI:http://aia-test.invalid

    Signature Algorithm: sha256WithRSAEncryption
         c2:4f:77:17:5a:0b:78:99:c2:79:06:00:2a:6d:8a:f6:81:a9:
         85:c4:99:dd:fc:b8:0e:77:20:14:13:bd:7e:f5:f7:79:87:f2:
         e6:95:f8:68:4c:59:5c:46:9b:d8:f9:08:ee:ae:9d:11:f2:d6:
         cc:1d:0a:d8:7c:16:fa:36:87:aa:6c:89:74:f0:66:16:9e:99:
         ca:83:8a:ff:0d:20:3a:bd:05:38:52:98:f0:b6:74:3f:a8:6e:
         48:02:86:7d:39:ee:7e:34:db:5c:38:1e:88:90:78:55:08:4c:
         23:5e:e7:3d:e8:2f:66:b3:f1:30:ce:18:94:65:7c:62:08:50:
         2f:29:db:aa:3c:f0:3a:a9:b3:ee:ee:19:cc:f7:0a:23:ba:0a:
         51:f3:c5:af:6d:cc:8c:5f:77:d2:d2:32:f1:df:6d:e2:9c:1b:
         03:b7:81:61:cc:11:09:94:e3:77:86:15:4e:ec:52:f8:d2:8c:
         a3:31:83:20:f2:72:78:0e:c1:3d:af:6f:3c:7d:47:27:0b:97:
         54:5f:be:c7:95:09:bd:5d:d6:a9:b7:27:29:58:fd:85:26:d5:
         c1:c6:ac:63:17:9f:9c:f7:d8:ff:7c:f4:0a:8d:7d:da:8e:fc:
         42:3b:43:4d:83:37:f8:62:32:e5:45:58:7b:45:11:19:2d:17:
         68:ce:23:93
-----BEGIN CERTIFICATE-----
MIIDHTCCAgWgAwIBAgIBATANBgkqhkiG9w0BAQsFADAjMSEwHwYDVQQDDBhBSUEg
VGVzdCBJbnRlcm1lZGlhdGUgQ0EwHhcNMTQwODE0MDI0NjE4WhcNMjQwODExMDI0
NjE4WjAbMRkwFwYDVQQDDBBhaWEtaG9zdC5pbnZhbGlkMIIBIjANBgkqhkiG9w0B
AQEFAAOCAQ8AMIIBCgKCAQEA16giaOkyElpJy8tH35M0DS4OoOgwJ6dpR8z0/nat
E5XS3DkFrWL3jyPWBByjhDCgDzd9+ijU80vkDM7AV5bEQD0gILB4GRupeq0gTqY5
QjlI9RikBQManvXPVOI+XTjHXfiJ1F058BXblia7Ev6kxbD/bUH3+CWBbZkDkyB9
KSW9FanqLZgDW1SIM6njiBreFEL0QlZcZ506mmks0hfldawoc0RIIghrP1qCS3aK
WTv5VVGyApTyaBITaljLyCoBFU3t9Q8DYUzClL83v9BirVEuWuuK4dto15YUewnd
dRJf/nJAO6CuwgudrnkTgeHLR4PN6gemAEGitAgW+xdz3QIDAQABo2QwYjAMBgNV
HRMBAf8EAjAAMB0GA1UdJQQWMBQGCCsGAQUFBwMBBggrBgEFBQcDAjAzBggrBgEF
BQcBAQQnMCUwIwYIKwYBBQUHMAKGF2h0dHA6Ly9haWEtdGVzdC5pbnZhbGlkMA0G
CSqGSIb3DQEBCwUAA4IBAQDCT3cXWgt4mcJ5BgAqbYr2gamFxJnd/LgOdyAUE71+
9fd5h/LmlfhoTFlcRpvY+Qjurp0R8tbMHQrYfBb6NoeqbIl08GYWnpnKg4r/DSA6
vQU4UpjwtnQ/qG5IAoZ9Oe5+NNtcOB6IkHhVCEwjXuc96C9ms/EwzhiUZXxiCFAv
KduqPPA6qbPu7hnM9wojugpR88WvbcyMX3fS0jLx323inBsDt4FhzBEJlON3hhVO
7FL40oyjMYMg8nJ4DsE9r288fUcnC5dUX77HlQm9XdaptycpWP2FJtXBxqxjF5+c
99j/fPQKjX3ajvxCO0NNgzf4YjLlRVh7RREZLRdoziOT
-----END CERTIFICATE-----
