Certificate:
    Data:
        Version: 3 (0x2)
        Serial Number: 4098 (0x1002)
    Signature Algorithm: sha256WithRSAEncryption
        Issuer: CN=E CA
        Validity
            Not Before: Oct  4 18:53:24 2016 GMT
            Not After : Oct  2 18:53:24 2026 GMT
        Subject: CN=Client Cert D
        Subject Public Key Info:
            Public Key Algorithm: rsaEncryption
                Public-Key: (2048 bit)
                Modulus:
                    00:eb:c9:4b:5d:f9:b5:a9:fc:eb:19:88:97:b5:79:
                    98:7d:af:e0:c1:b7:12:18:b4:dc:bb:75:53:0f:d0:
                    a8:c3:60:38:eb:93:cf:c2:9e:9b:b3:a4:2e:dd:e1:
                    60:c2:be:e6:71:e4:3b:da:95:38:d7:4f:b3:13:0c:
                    68:d5:ba:87:a2:b7:1c:d6:a8:5e:98:30:4b:11:a2:
                    f9:72:ed:4a:13:2c:37:18:df:7b:90:94:f1:38:c4:
                    78:cd:a8:51:f0:8b:c3:a6:76:11:ce:34:ed:99:93:
                    ae:2d:4a:59:ec:ba:37:a0:ea:2e:2c:34:3a:3a:9a:
                    0e:c3:d9:8b:bb:62:3b:46:d5:5c:f1:c4:02:8b:23:
                    a7:41:55:8a:79:26:c3:43:ff:a8:af:f9:b7:0d:46:
                    d0:ab:e5:b2:83:d4:d3:8c:35:80:01:ba:b1:bb:79:
                    8f:e4:97:fc:9d:df:08:ff:10:1b:47:17:b4:8c:14:
                    96:f2:18:99:fb:e6:31:8e:8f:e4:2d:59:08:fa:ce:
                    13:04:55:55:dd:d6:ae:d9:be:68:1c:63:2c:16:80:
                    45:09:a4:c8:c8:4f:b8:29:90:0a:64:07:69:b6:fc:
                    6e:87:58:9c:17:f1:a1:49:9c:b7:f8:7d:70:d7:6d:
                    ae:62:6a:bb:28:0e:e9:1b:7d:ac:05:a4:14:97:48:
                    b0:9d
                Exponent: 65537 (0x10001)
        X509v3 extensions:
            X509v3 Basic Constraints: critical
                CA:FALSE
            X509v3 Extended Key Usage: 
                TLS Web Server Authentication, TLS Web Client Authentication
    Signature Algorithm: sha256WithRSAEncryption
         9f:d0:6e:8b:08:58:16:b5:78:3f:05:bb:59:bc:cf:74:1c:88:
         b0:7e:10:c5:71:9d:b5:08:05:59:ca:f0:c8:64:49:96:82:8b:
         14:0c:da:9d:be:a2:8b:37:df:e1:69:bc:8e:f4:be:80:3f:f9:
         8a:1d:7a:70:37:3c:18:a0:92:27:10:e3:74:ca:fa:b8:db:f2:
         c6:a5:32:66:85:88:29:3a:4e:64:95:85:b4:43:37:8a:6d:48:
         f4:12:2f:b2:d0:66:c9:b7:88:ad:b8:a7:1f:97:59:bf:d9:0d:
         d6:ce:ff:5f:75:2f:d2:e0:69:c8:d6:17:b9:fd:3c:ed:fd:1f:
         47:14:f8:ef:0b:33:2a:1c:14:25:d1:82:90:d3:67:1b:ea:b0:
         f7:5b:78:a9:9d:28:1b:d3:cd:8d:bd:30:c2:7e:12:32:dd:83:
         cc:57:47:b3:e7:0c:79:b5:f8:a0:f4:f0:d8:29:1b:9b:fb:2f:
         a9:1c:cb:a9:84:14:29:c7:23:b8:85:88:d9:78:5f:c7:a4:c6:
         1b:bd:6e:70:2e:a2:be:31:98:c7:9c:35:1d:44:59:f8:31:83:
         87:ee:a9:c7:ab:f5:6f:e6:8a:cc:49:5f:23:fd:7c:a4:61:01:
         9b:51:d8:b0:85:9a:bf:1d:9d:62:3e:b0:7c:e0:5e:57:ed:69:
         3c:f3:8c:54
-----BEGIN CERTIFICATE-----
MIIC0jCCAbqgAwIBAgICEAIwDQYJKoZIhvcNAQELBQAwDzENMAsGA1UEAwwERSBD
QTAeFw0xNjEwMDQxODUzMjRaFw0yNjEwMDIxODUzMjRaMBgxFjAUBgNVBAMMDUNs
aWVudCBDZXJ0IEQwggEiMA0GCSqGSIb3DQEBAQUAA4IBDwAwggEKAoIBAQDryUtd
+bWp/OsZiJe1eZh9r+DBtxIYtNy7dVMP0KjDYDjrk8/CnpuzpC7d4WDCvuZx5Dva
lTjXT7MTDGjVuoeitxzWqF6YMEsRovly7UoTLDcY33uQlPE4xHjNqFHwi8OmdhHO
NO2Zk64tSlnsujeg6i4sNDo6mg7D2Yu7YjtG1VzxxAKLI6dBVYp5JsND/6iv+bcN
RtCr5bKD1NOMNYABurG7eY/kl/yd3wj/EBtHF7SMFJbyGJn75jGOj+QtWQj6zhME
VVXd1q7ZvmgcYywWgEUJpMjIT7gpkApkB2m2/G6HWJwX8aFJnLf4fXDXba5iarso
DukbfawFpBSXSLCdAgMBAAGjLzAtMAwGA1UdEwEB/wQCMAAwHQYDVR0lBBYwFAYI
KwYBBQUHAwEGCCsGAQUFBwMCMA0GCSqGSIb3DQEBCwUAA4IBAQCf0G6LCFgWtXg/
BbtZvM90HIiwfhDFcZ21CAVZyvDIZEmWgosUDNqdvqKLN9/habyO9L6AP/mKHXpw
NzwYoJInEON0yvq42/LGpTJmhYgpOk5klYW0QzeKbUj0Ei+y0GbJt4ituKcfl1m/
2Q3Wzv9fdS/S4GnI1he5/Tzt/R9HFPjvCzMqHBQl0YKQ02cb6rD3W3ipnSgb082N
vTDCfhIy3YPMV0ez5wx5tfig9PDYKRub+y+pHMuphBQpxyO4hYjZeF/HpMYbvW5w
LqK+MZjHnDUdRFn4MYOH7qnHq/Vv5orMSV8j/XykYQGbUdiwhZq/HZ1iPrB84F5X
7Wk884xU
-----END CERTIFICATE-----
