Certificate:
    Data:
        Version: 3 (0x2)
        Serial Number: 4100 (0x1004)
    Signature Algorithm: sha256WithRSAEncryption
        Issuer: CN=E CA
        Validity
            Not Before: Oct  4 18:53:24 2016 GMT
            Not After : Oct  2 18:53:24 2026 GMT
        Subject: CN=Client Cert G
        Subject Public Key Info:
            Public Key Algorithm: id-ecPublicKey
                Public-Key: (256 bit)
                pub: 
                    04:79:2e:e1:d9:c5:69:9d:11:1f:85:58:a5:71:3c:
                    91:ce:58:38:90:4d:48:84:64:f7:31:49:75:06:4b:
                    d1:e5:ed:44:82:f9:0b:6a:92:80:f2:52:ed:7b:73:
                    4b:3a:81:ff:80:f2:a7:84:b0:cf:98:de:4d:da:e4:
                    c2:11:98:69:cf
                ASN1 OID: prime256v1
        X509v3 extensions:
            X509v3 Basic Constraints: critical
                CA:FALSE
            X509v3 Extended Key Usage: 
                TLS Web Server Authentication, TLS Web Client Authentication
    Signature Algorithm: sha256WithRSAEncryption
         70:44:30:40:b7:d6:5b:09:e6:81:a1:a7:80:cd:bc:12:5d:e1:
         45:7d:fb:04:5f:5f:21:b9:e5:a9:e0:79:52:5a:50:21:11:bb:
         8c:25:08:e1:6d:19:e3:ba:e7:69:74:db:a6:b2:41:a4:f5:39:
         63:18:e6:bc:ce:db:d8:3f:17:e1:90:9f:62:3a:d3:52:f4:c4:
         01:4d:db:ad:16:ad:8b:31:51:fe:82:68:fd:34:c4:58:dc:4d:
         6b:72:74:30:98:a6:03:4b:21:dd:54:1b:ed:e0:a5:3f:a9:5e:
         1d:e6:57:3f:13:f4:e0:dc:d0:bf:90:68:dc:e1:e7:b5:81:b4:
         f8:d5:45:96:95:b9:cd:83:15:c8:32:a6:20:2c:fc:b5:05:42:
         1a:7e:26:4c:a1:9a:8b:26:2b:1b:72:c7:a5:38:f3:57:4c:b4:
         7f:8e:dc:d9:52:0a:52:ac:e5:d9:18:0b:ae:91:b9:c5:e0:13:
         cb:15:8d:19:3b:e9:60:1b:6b:31:0a:c7:22:4a:5a:ed:49:cf:
         72:e1:dd:93:1e:43:a8:e0:3e:02:b6:06:ee:b9:a9:d3:d9:88:
         2d:81:f6:96:cb:13:07:a8:51:81:89:8c:6b:28:d3:0c:22:8f:
         e9:d7:92:1d:5a:2a:d6:c0:55:6b:86:2b:a7:f9:9e:35:88:5d:
         bb:42:eb:b8
-----BEGIN CERTIFICATE-----
MIICBjCB76ADAgECAgIQBDANBgkqhkiG9w0BAQsFADAPMQ0wCwYDVQQDDARFIENB
MB4XDTE2MTAwNDE4NTMyNFoXDTI2MTAwMjE4NTMyNFowGDEWMBQGA1UEAwwNQ2xp
ZW50IENlcnQgRzBZMBMGByqGSM49AgEGCCqGSM49AwEHA0IABHku4dnFaZ0RH4VY
pXE8kc5YOJBNSIRk9zFJdQZL0eXtRIL5C2qSgPJS7XtzSzqB/4Dyp4Swz5jeTdrk
whGYac+jLzAtMAwGA1UdEwEB/wQCMAAwHQYDVR0lBBYwFAYIKwYBBQUHAwEGCCsG
AQUFBwMCMA0GCSqGSIb3DQEBCwUAA4IBAQBwRDBAt9ZbCeaBoaeAzbwSXeFFffsE
X18hueWp4HlSWlAhEbuMJQjhbRnjuudpdNumskGk9TljGOa8ztvYPxfhkJ9iOtNS
9MQBTdutFq2LMVH+gmj9NMRY3E1rcnQwmKYDSyHdVBvt4KU/qV4d5lc/E/Tg3NC/
kGjc4ee1gbT41UWWlbnNgxXIMqYgLPy1BUIafiZMoZqLJisbcselOPNXTLR/jtzZ
UgpSrOXZGAuukbnF4BPLFY0ZO+lgG2sxCsciSlrtSc9y4d2THkOo4D4CtgbuuanT
2YgtgfaWyxMHqFGBiYxrKNMMIo/p15IdWirWwFVrhiun+Z41iF27Quu4
-----END CERTIFICATE-----
