Certificate:
    Data:
        Version: 3 (0x2)
        Serial Number: 4097 (0x1001)
    Signature Algorithm: sha256WithRSAEncryption
        Issuer: CN=C Root CA
        Validity
            Not Before: Feb 28 20:27:03 2016 GMT
            Not After : Feb 25 20:27:03 2026 GMT
        Subject: CN=B CA
        Subject Public Key Info:
            Public Key Algorithm: rsaEncryption
                Public-Key: (2048 bit)
                Modulus:
                    00:bb:12:09:89:83:8a:9d:83:1a:48:c5:c7:0e:f2:
                    93:3d:ba:25:28:c4:2e:49:7a:02:b9:58:8c:52:77:
                    69:3f:d2:0a:1f:2a:6d:2e:20:96:7e:d1:1f:c0:8f:
                    05:de:fc:a0:57:5f:84:82:90:af:0b:59:df:fa:b6:
                    d7:29:03:f4:10:12:de:a1:de:d9:87:5c:25:f9:bc:
                    fe:45:80:cb:90:ef:5e:4e:8d:5d:4e:2a:5f:7d:f8:
                    2a:87:c1:00:4a:60:74:0f:e2:80:41:6a:d4:fd:65:
                    1c:0b:88:7d:90:a9:31:17:d3:fa:2e:56:a2:15:6c:
                    1a:2f:1f:fc:d8:29:46:f5:5a:30:e3:4b:35:f8:30:
                    e7:b9:b3:d6:56:ed:15:e0:44:21:29:97:d2:46:ec:
                    b8:9c:45:42:3f:c1:c2:18:b9:ff:41:c0:11:71:bc:
                    7b:bc:cd:e1:c1:31:d3:23:d1:be:63:80:4d:17:55:
                    6f:ff:1d:5b:6a:70:38:74:49:ab:d4:79:33:43:54:
                    90:8b:13:4a:72:fb:e8:df:f3:f2:14:40:1c:cb:15:
                    dc:8b:9d:0b:96:1d:ec:65:d6:d4:01:ae:f5:af:a2:
                    29:4f:90:e3:17:19:0a:88:f4:0c:2f:7d:b4:be:15:
                    2a:e8:eb:57:59:00:7a:ab:0c:73:3e:7f:74:ac:e2:
                    eb:e7
                Exponent: 65537 (0x10001)
        X509v3 extensions:
            X509v3 Basic Constraints: critical
                CA:TRUE
            X509v3 Key Usage: critical
                Certificate Sign, CRL Sign
    Signature Algorithm: sha256WithRSAEncryption
         82:1e:66:21:1e:36:15:96:43:c6:38:0f:e0:06:0f:0a:94:51:
         e1:bc:36:30:9b:2a:b5:d0:06:51:e0:e7:06:7c:c5:fb:45:6a:
         23:f5:0e:9f:d4:01:ec:e6:c7:62:cd:6b:37:66:bb:0a:d8:07:
         c9:66:dc:55:53:c9:a3:c3:4c:a1:06:20:f4:b8:c0:92:87:82:
         a1:f5:40:f0:e1:a8:d9:bc:e5:ec:bb:4c:4b:48:f6:86:23:b0:
         d8:a6:fd:16:fe:88:69:08:00:c5:da:c6:de:7c:4b:3c:5b:8e:
         f3:f4:90:ca:f5:25:f2:48:65:b8:9c:f6:fc:9e:37:02:2c:a4:
         c1:48:a4:fd:c5:07:cc:b0:ca:ed:13:d2:15:ad:09:08:0b:e0:
         9e:3b:9e:28:02:1e:93:ae:e7:c7:5e:3f:cf:1f:4b:f3:72:cf:
         f7:f2:19:55:8e:67:be:9b:5a:15:b0:80:cd:cf:dd:7f:79:7d:
         0d:dd:ee:81:4f:47:f6:d5:87:46:15:f8:27:fc:eb:52:0d:c2:
         99:68:91:78:17:43:7f:d3:09:0f:87:35:77:80:31:69:f7:24:
         b5:af:5c:5c:24:f2:8c:24:f5:da:bf:91:01:9d:9d:d1:a0:cb:
         72:93:11:6e:1c:b4:f5:f9:18:d8:5f:dc:b2:7d:43:b7:4b:8e:
         2e:11:79:0e
-----BEGIN CERTIFICATE-----
MIICwjCCAaqgAwIBAgICEAEwDQYJKoZIhvcNAQELBQAwFDESMBAGA1UEAwwJQyBS
b290IENBMB4XDTE2MDIyODIwMjcwM1oXDTI2MDIyNTIwMjcwM1owDzENMAsGA1UE
AwwEQiBDQTCCASIwDQYJKoZIhvcNAQEBBQADggEPADCCAQoCggEBALsSCYmDip2D
GkjFxw7ykz26JSjELkl6ArlYjFJ3aT/SCh8qbS4gln7RH8CPBd78oFdfhIKQrwtZ
3/q21ykD9BAS3qHe2YdcJfm8/kWAy5DvXk6NXU4qX334KofBAEpgdA/igEFq1P1l
HAuIfZCpMRfT+i5WohVsGi8f/NgpRvVaMONLNfgw57mz1lbtFeBEISmX0kbsuJxF
Qj/Bwhi5/0HAEXG8e7zN4cEx0yPRvmOATRdVb/8dW2pwOHRJq9R5M0NUkIsTSnL7
6N/z8hRAHMsV3IudC5Yd7GXW1AGu9a+iKU+Q4xcZCoj0DC99tL4VKujrV1kAeqsM
cz5/dKzi6+cCAwEAAaMjMCEwDwYDVR0TAQH/BAUwAwEB/zAOBgNVHQ8BAf8EBAMC
AQYwDQYJKoZIhvcNAQELBQADggEBAIIeZiEeNhWWQ8Y4D+AGDwqUUeG8NjCbKrXQ
BlHg5wZ8xftFaiP1Dp/UAezmx2LNazdmuwrYB8lm3FVTyaPDTKEGIPS4wJKHgqH1
QPDhqNm85ey7TEtI9oYjsNim/Rb+iGkIAMXaxt58SzxbjvP0kMr1JfJIZbic9vye
NwIspMFIpP3FB8ywyu0T0hWtCQgL4J47nigCHpOu58deP88fS/Nyz/fyGVWOZ76b
WhWwgM3P3X95fQ3d7oFPR/bVh0YV+Cf861INwplokXgXQ3/TCQ+HNXeAMWn3JLWv
XFwk8owk9dq/kQGdndGgy3KTEW4ctPX5GNhf3LJ9Q7dLji4ReQ4=
-----END CERTIFICATE-----
