Certificate:
    Data:
        Version: 3 (0x2)
        Serial Number: 4099 (0x1003)
    Signature Algorithm: sha256WithRSAEncryption
        Issuer: CN=E CA
        Validity
            Not Before: Feb 28 20:27:03 2016 GMT
            Not After : Feb 25 20:27:03 2026 GMT
        Subject: CN=Client Cert F
        Subject Public Key Info:
            Public Key Algorithm: rsaEncryption
                Public-Key: (2048 bit)
                Modulus:
                    00:eb:3f:66:b3:55:6f:61:68:23:db:4d:20:4e:97:
                    4a:0f:db:9f:8c:f8:cd:a7:e2:9d:76:c3:40:51:14:
                    33:28:a5:e5:8b:55:9b:45:eb:47:43:93:51:95:91:
                    61:05:55:8a:bd:8d:01:34:2a:6b:97:5d:85:61:99:
                    b8:6b:d8:6e:c5:86:cc:e2:79:5f:50:91:4c:0d:3b:
                    71:81:40:19:6e:93:e6:68:43:de:bb:eb:4d:46:da:
                    4b:25:9d:e1:85:57:68:92:85:e2:3e:24:bc:30:d1:
                    79:8d:e6:3e:a2:e6:4a:d6:4a:49:07:28:eb:ed:2f:
                    b9:37:f0:c3:b2:c0:64:4a:e1:55:8c:45:16:f0:6c:
                    bb:73:11:0f:b1:30:03:90:0b:de:7f:dd:96:fc:b0:
                    d6:c0:c1:fd:70:f5:e6:73:46:81:4d:9b:86:d9:e8:
                    ac:c9:91:9b:dc:e7:c4:43:b7:0e:e3:c8:12:87:16:
                    87:79:1b:a2:d1:73:fc:fc:5e:f3:36:40:45:a3:cd:
                    fa:0c:40:74:8f:75:15:02:8e:27:8c:41:b9:24:d4:
                    80:01:70:31:f8:d5:55:24:8f:46:e1:82:27:72:1f:
                    66:6e:8a:66:8d:1f:6e:4e:cf:ca:05:fb:7d:49:38:
                    30:2f:ef:5e:23:ff:a0:20:e3:58:84:59:a4:9a:e5:
                    18:ff
                Exponent: 65537 (0x10001)
        X509v3 extensions:
            X509v3 Subject Alternative Name: 
                email:santest@example.com, othername:<unsupported>
    Signature Algorithm: sha256WithRSAEncryption
         3f:63:47:b1:7f:67:6d:14:c9:b0:84:e8:c1:67:4e:a1:18:a5:
         a6:d9:15:03:c3:5b:ec:f1:c3:ee:3d:f2:ea:01:f1:9c:07:da:
         29:b5:62:ae:0e:6b:8e:dc:fd:67:d7:d9:b0:9f:c8:81:ce:85:
         27:8d:80:cf:5b:ab:e6:c3:8c:37:1e:29:42:26:51:90:cf:31:
         e0:4d:49:9f:04:6d:8d:f9:ac:c4:76:1e:3f:0e:f3:70:34:79:
         c8:8e:a9:1e:06:e1:e1:4d:c3:9a:6c:fd:1a:41:66:79:ec:8c:
         78:52:ed:74:6b:90:f1:99:d3:1e:d7:cc:c8:74:d0:72:36:25:
         2e:fc:91:b0:13:6f:4a:53:2e:e9:72:57:f9:dd:f0:b4:60:f4:
         a4:15:57:06:e5:38:be:19:3b:a8:1a:5a:73:42:88:3e:59:ab:
         9b:46:43:38:53:4a:1e:c7:9c:1a:4e:df:88:af:a6:92:17:81:
         28:e1:ad:a5:43:0d:ae:f7:c1:cd:6f:e5:55:2c:c0:9a:ac:18:
         1f:05:2f:52:f7:6c:a9:94:eb:1d:9a:a3:9f:db:44:cc:b2:e0:
         9e:3a:d5:0a:92:70:d8:89:5e:a9:5b:43:60:69:e4:ba:fb:2f:
         37:83:aa:27:a6:d9:b9:11:fa:58:a8:ac:23:6f:c2:a2:c5:c7:
         51:ec:94:f0
-----BEGIN CERTIFICATE-----
MIIC8jCCAdqgAwIBAgICEAMwDQYJKoZIhvcNAQELBQAwDzENMAsGA1UEAwwERSBD
QTAeFw0xNjAyMjgyMDI3MDNaFw0yNjAyMjUyMDI3MDNaMBgxFjAUBgNVBAMMDUNs
aWVudCBDZXJ0IEYwggEiMA0GCSqGSIb3DQEBAQUAA4IBDwAwggEKAoIBAQDrP2az
VW9haCPbTSBOl0oP25+M+M2n4p12w0BRFDMopeWLVZtF60dDk1GVkWEFVYq9jQE0
KmuXXYVhmbhr2G7FhszieV9QkUwNO3GBQBluk+ZoQ967601G2kslneGFV2iSheI+
JLww0XmN5j6i5krWSkkHKOvtL7k38MOywGRK4VWMRRbwbLtzEQ+xMAOQC95/3Zb8
sNbAwf1w9eZzRoFNm4bZ6KzJkZvc58RDtw7jyBKHFod5G6LRc/z8XvM2QEWjzfoM
QHSPdRUCjieMQbkk1IABcDH41VUkj0bhgidyH2ZuimaNH25Oz8oF+31JODAv714j
/6Ag41iEWaSa5Rj/AgMBAAGjTzBNMEsGA1UdEQREMEKBE3NhbnRlc3RAZXhhbXBs
ZS5jb22gKwYKKwYBBAGCNxQCA6AdDBtzYW50ZXN0QGFkLmNvcnAuZXhhbXBsZS5j
b20wDQYJKoZIhvcNAQELBQADggEBAD9jR7F/Z20UybCE6MFnTqEYpabZFQPDW+zx
w+498uoB8ZwH2im1Yq4Oa47c/WfX2bCfyIHOhSeNgM9bq+bDjDceKUImUZDPMeBN
SZ8EbY35rMR2Hj8O83A0eciOqR4G4eFNw5ps/RpBZnnsjHhS7XRrkPGZ0x7XzMh0
0HI2JS78kbATb0pTLulyV/nd8LRg9KQVVwblOL4ZO6gaWnNCiD5Zq5tGQzhTSh7H
nBpO34ivppIXgSjhraVDDa73wc1v5VUswJqsGB8FL1L3bKmU6x2ao5/bRMyy4J46
1QqScNiJXqlbQ2Bp5Lr7LzeDqiem2bkR+liorCNvwqLFx1HslPA=
-----END CERTIFICATE-----
