Certificate:
    Data:
        Version: 3 (0x2)
        Serial Number: 4098 (0x1002)
    Signature Algorithm: sha256WithRSAEncryption
        Issuer: CN=C Root CA
        Validity
            Not Before: Oct  4 18:53:24 2016 GMT
            Not After : Oct  2 18:53:24 2026 GMT
        Subject: CN=E CA
        Subject Public Key Info:
            Public Key Algorithm: rsaEncryption
                Public-Key: (2048 bit)
                Modulus:
                    00:a2:7e:a3:fd:c1:d7:78:cd:57:ac:67:54:37:69:
                    fb:72:6f:1d:8f:d0:47:0f:11:14:ab:42:d8:3d:6a:
                    34:2b:d6:38:07:df:16:1d:c6:62:eb:d7:12:e1:86:
                    83:f2:dd:8f:97:09:94:8f:1b:ff:3b:84:9b:48:e5:
                    0d:43:6b:ae:bb:75:88:1c:c6:3a:7f:d8:12:d9:7c:
                    12:18:6d:e2:f0:88:d4:3e:5a:93:b3:af:c1:79:a1:
                    b6:a3:f7:56:46:21:e6:7d:6e:36:ea:ba:4b:52:f7:
                    a9:45:0b:83:09:2c:09:22:8a:67:5a:8f:88:60:b0:
                    11:07:25:9b:c2:6a:3c:63:4c:0e:69:45:ce:9d:ba:
                    c9:d4:01:fb:78:56:38:08:8f:e5:d6:ff:ac:e4:04:
                    fa:26:cf:d2:05:33:57:a3:8e:80:c0:b6:40:d5:d3:
                    ca:85:17:30:b2:24:f4:19:af:c5:48:a4:ed:c0:49:
                    c1:a4:b7:89:29:ba:e5:2d:37:78:1c:d6:3e:9b:03:
                    fa:bc:7b:e2:76:a6:70:f3:1b:9d:b2:4b:fc:72:7b:
                    77:89:50:bb:88:2f:b5:b6:a2:c7:33:27:b7:d1:1a:
                    7c:d4:58:e3:5e:88:ca:f8:49:c3:cd:cc:0f:93:4b:
                    3c:fd:75:c3:7b:6f:bf:d3:db:ba:2e:31:7b:a7:a5:
                    42:c5
                Exponent: 65537 (0x10001)
        X509v3 extensions:
            X509v3 Basic Constraints: critical
                CA:TRUE
            X509v3 Key Usage: critical
                Certificate Sign, CRL Sign
    Signature Algorithm: sha256WithRSAEncryption
         92:8b:93:94:03:04:91:3f:4d:8b:f3:90:53:ee:73:b5:33:c7:
         61:ea:0f:a5:59:9b:f0:0d:4f:7d:48:0d:5a:58:e7:1f:68:f6:
         d6:58:75:33:a5:d2:b7:65:6a:28:40:bc:0e:1e:78:ee:9a:13:
         3c:b0:8b:8f:98:72:86:50:3a:a3:bf:6d:f0:21:95:a8:73:d0:
         dd:e5:0e:25:b1:62:76:65:69:1f:ee:26:82:ab:be:a4:a8:30:
         a7:41:34:07:57:2f:8b:ab:25:af:cb:23:a5:79:cf:b2:a2:17:
         02:a7:aa:50:92:6e:0d:9b:ff:c9:22:38:b4:0f:47:94:d2:80:
         7f:92:30:00:ec:5b:22:e2:a6:71:5e:e8:8f:0d:2f:38:2c:29:
         47:6a:7f:20:0a:e2:42:cb:b7:6e:2b:29:0f:03:55:94:84:5f:
         e7:47:bf:ae:75:88:05:4e:42:ac:78:57:9d:9c:e2:77:d2:17:
         42:55:ba:f8:77:ee:61:d6:e8:ec:aa:e0:7a:a6:65:c6:35:80:
         08:3d:39:a6:70:8c:9e:6d:7a:ee:e7:cf:36:46:98:00:c8:7b:
         b8:84:7f:9d:9f:bd:31:4f:99:25:6e:76:9a:5d:46:3e:40:70:
         c6:a8:03:f3:98:9c:be:fb:f6:ad:c2:8d:e3:f9:7d:93:3a:78:
         da:b3:d7:dc
-----BEGIN CERTIFICATE-----
MIICwjCCAaqgAwIBAgICEAIwDQYJKoZIhvcNAQELBQAwFDESMBAGA1UEAwwJQyBS
b290IENBMB4XDTE2MTAwNDE4NTMyNFoXDTI2MTAwMjE4NTMyNFowDzENMAsGA1UE
AwwERSBDQTCCASIwDQYJKoZIhvcNAQEBBQADggEPADCCAQoCggEBAKJ+o/3B13jN
V6xnVDdp+3JvHY/QRw8RFKtC2D1qNCvWOAffFh3GYuvXEuGGg/Ldj5cJlI8b/zuE
m0jlDUNrrrt1iBzGOn/YEtl8Ehht4vCI1D5ak7OvwXmhtqP3VkYh5n1uNuq6S1L3
qUULgwksCSKKZ1qPiGCwEQclm8JqPGNMDmlFzp26ydQB+3hWOAiP5db/rOQE+ibP
0gUzV6OOgMC2QNXTyoUXMLIk9BmvxUik7cBJwaS3iSm65S03eBzWPpsD+rx74nam
cPMbnbJL/HJ7d4lQu4gvtbaixzMnt9EafNRY416IyvhJw83MD5NLPP11w3tvv9Pb
ui4xe6elQsUCAwEAAaMjMCEwDwYDVR0TAQH/BAUwAwEB/zAOBgNVHQ8BAf8EBAMC
AQYwDQYJKoZIhvcNAQELBQADggEBAJKLk5QDBJE/TYvzkFPuc7Uzx2HqD6VZm/AN
T31IDVpY5x9o9tZYdTOl0rdlaihAvA4eeO6aEzywi4+YcoZQOqO/bfAhlahz0N3l
DiWxYnZlaR/uJoKrvqSoMKdBNAdXL4urJa/LI6V5z7KiFwKnqlCSbg2b/8kiOLQP
R5TSgH+SMADsWyLipnFe6I8NLzgsKUdqfyAK4kLLt24rKQ8DVZSEX+dHv651iAVO
Qqx4V52c4nfSF0JVuvh37mHW6Oyq4HqmZcY1gAg9OaZwjJ5teu7nzzZGmADIe7iE
f52fvTFPmSVudppdRj5AcMaoA/OYnL779q3CjeP5fZM6eNqz19w=
-----END CERTIFICATE-----
