Certificate:
    Data:
        Version: 3 (0x2)
        Serial Number: 4096 (0x1000)
    Signature Algorithm: sha256WithRSAEncryption
        Issuer: CN=B CA
        Validity
            Not Before: Oct  4 18:53:24 2016 GMT
            Not After : Oct  2 18:53:24 2026 GMT
        Subject: CN=Client Cert A
        Subject Public Key Info:
            Public Key Algorithm: rsaEncryption
                Public-Key: (2048 bit)
                Modulus:
                    00:9b:a6:17:82:7e:c4:ce:c9:02:25:ac:0d:b3:27:
                    df:1f:3e:4f:ff:08:32:2f:d2:e4:91:80:f3:c8:55:
                    ea:48:69:76:46:ce:ba:62:53:e4:7c:14:15:1c:02:
                    57:5d:c4:4c:64:be:86:27:4a:a2:df:67:29:5a:01:
                    2c:6d:74:a4:d7:30:22:c9:25:43:6b:23:5e:8f:e8:
                    d7:36:c4:11:a1:af:47:13:59:46:e9:2b:c7:e6:88:
                    e5:1a:18:91:57:da:fd:73:66:b9:e4:be:87:78:f9:
                    c6:dc:1f:41:4d:4d:67:3d:3d:35:7c:6a:a7:62:96:
                    94:c5:50:f1:ab:03:07:78:6d:71:75:fb:f1:48:4b:
                    eb:0e:c2:96:8d:83:92:c5:58:1b:5c:61:83:4f:08:
                    4c:84:0d:6b:17:55:fe:7b:dc:a2:99:a8:34:53:1b:
                    01:d4:88:4d:c5:de:58:08:95:51:c9:a5:53:9f:13:
                    3e:2a:65:1e:d0:e5:18:01:7b:8a:30:61:46:79:3d:
                    16:f7:d3:3b:60:0d:ef:ea:8d:99:6c:fc:b7:2d:9d:
                    3b:97:0b:8f:f3:0e:9e:82:4e:69:8c:3a:3c:bf:cd:
                    45:09:46:67:56:1b:ff:c4:75:6b:ff:52:47:f7:c5:
                    fe:85:e1:3a:78:2a:b8:c8:2f:8d:5e:b7:4b:88:b1:
                    b3:cb
                Exponent: 65537 (0x10001)
        X509v3 extensions:
            X509v3 Basic Constraints: critical
                CA:FALSE
            X509v3 Extended Key Usage: 
                TLS Web Server Authentication, TLS Web Client Authentication
    Signature Algorithm: sha256WithRSAEncryption
         19:9b:41:39:61:cf:f8:0f:62:98:43:1a:a4:fb:0b:71:f2:f0:
         c4:b5:39:bb:dc:d1:d7:33:44:89:66:13:ff:0a:5a:66:02:74:
         6a:8d:8a:dc:a0:e0:d0:cc:8d:5f:1c:c0:34:c6:58:02:76:3b:
         b5:1a:81:a5:a7:a1:c5:81:14:52:0f:21:37:06:2d:dc:dc:9c:
         d0:d1:98:03:ac:d3:b5:12:0b:f8:b4:84:d8:bc:be:4d:27:fa:
         df:16:6e:dd:0a:33:b7:87:50:7e:fe:c6:8d:84:b2:2d:7f:58:
         88:21:af:09:64:5e:4a:2d:f0:56:d4:3e:a3:dc:4c:aa:92:41:
         04:c1:6e:56:46:d5:36:69:0d:2a:f6:f0:29:d3:7c:ac:b7:cf:
         7f:18:bc:76:fa:8c:5a:76:81:67:db:b2:91:97:05:7d:14:da:
         26:d5:67:fe:c5:d2:6a:2c:5f:f4:96:3a:e4:0e:f5:15:95:05:
         57:de:b5:e5:96:b2:10:99:4a:b2:3a:ac:d2:ae:64:30:31:54:
         f0:b9:9f:1d:56:e8:da:e9:4e:42:e3:26:3d:f7:8c:3e:9c:dd:
         42:77:9d:0c:67:52:73:94:c4:73:42:c2:b7:96:a4:44:4a:d5:
         e9:3d:b1:46:aa:38:0b:1f:7f:ae:01:c6:07:da:40:3b:c0:22:
         61:c4:cb:80
-----BEGIN CERTIFICATE-----
MIIC0jCCAbqgAwIBAgICEAAwDQYJKoZIhvcNAQELBQAwDzENMAsGA1UEAwwEQiBD
QTAeFw0xNjEwMDQxODUzMjRaFw0yNjEwMDIxODUzMjRaMBgxFjAUBgNVBAMMDUNs
aWVudCBDZXJ0IEEwggEiMA0GCSqGSIb3DQEBAQUAA4IBDwAwggEKAoIBAQCbpheC
fsTOyQIlrA2zJ98fPk//CDIv0uSRgPPIVepIaXZGzrpiU+R8FBUcAlddxExkvoYn
SqLfZylaASxtdKTXMCLJJUNrI16P6Nc2xBGhr0cTWUbpK8fmiOUaGJFX2v1zZrnk
vod4+cbcH0FNTWc9PTV8aqdilpTFUPGrAwd4bXF1+/FIS+sOwpaNg5LFWBtcYYNP
CEyEDWsXVf573KKZqDRTGwHUiE3F3lgIlVHJpVOfEz4qZR7Q5RgBe4owYUZ5PRb3
0ztgDe/qjZls/LctnTuXC4/zDp6CTmmMOjy/zUUJRmdWG//EdWv/Ukf3xf6F4Tp4
KrjIL41et0uIsbPLAgMBAAGjLzAtMAwGA1UdEwEB/wQCMAAwHQYDVR0lBBYwFAYI
KwYBBQUHAwEGCCsGAQUFBwMCMA0GCSqGSIb3DQEBCwUAA4IBAQAZm0E5Yc/4D2KY
Qxqk+wtx8vDEtTm73NHXM0SJZhP/ClpmAnRqjYrcoODQzI1fHMA0xlgCdju1GoGl
p6HFgRRSDyE3Bi3c3JzQ0ZgDrNO1Egv4tITYvL5NJ/rfFm7dCjO3h1B+/saNhLIt
f1iIIa8JZF5KLfBW1D6j3EyqkkEEwW5WRtU2aQ0q9vAp03yst89/GLx2+oxadoFn
27KRlwV9FNom1Wf+xdJqLF/0ljrkDvUVlQVX3rXllrIQmUqyOqzSrmQwMVTwuZ8d
Vuja6U5C4yY994w+nN1Cd50MZ1JzlMRzQsK3lqREStXpPbFGqjgLH3+uAcYH2kA7
wCJhxMuA
-----END CERTIFICATE-----
