Certificate:
    Data:
        Version: 3 (0x2)
        Serial Number: 4098 (0x1002)
    Signature Algorithm: sha256WithRSAEncryption
        Issuer: CN=E CA
        Validity
            Not Before: Feb 28 20:27:03 2016 GMT
            Not After : Feb 25 20:27:03 2026 GMT
        Subject: CN=Client Cert D
        Subject Public Key Info:
            Public Key Algorithm: rsaEncryption
                Public-Key: (2048 bit)
                Modulus:
                    00:cc:2c:24:e6:fc:e4:55:ef:24:fa:62:40:36:8b:
                    7b:c6:7a:0f:b0:39:7a:2e:b0:ae:6b:fe:b2:5b:76:
                    6e:6f:88:0e:47:35:60:f3:92:55:e6:19:e2:34:68:
                    b1:5b:ea:d1:2a:97:78:15:81:b4:ad:40:e6:64:0f:
                    e5:5d:ad:8f:6b:0f:78:3e:a5:88:53:df:b1:83:b0:
                    ba:8b:68:92:47:ab:84:1c:ca:3b:13:f1:5a:d3:06:
                    ac:ba:9f:09:6b:5d:cb:95:3f:c2:3c:f5:58:84:69:
                    5b:ff:a7:db:89:97:d6:58:10:0c:02:89:e7:54:81:
                    ad:57:a4:ba:47:f4:13:35:bf:4d:97:f6:7c:bb:8e:
                    49:5a:31:9e:a2:95:b2:1c:7b:7a:14:1d:9f:64:59:
                    99:00:02:e5:d8:21:d8:33:90:ac:6d:95:18:f8:d2:
                    24:ae:6e:45:d1:e4:e2:9f:4c:5c:e2:dd:8b:ff:3b:
                    81:89:84:68:9b:eb:cf:03:cb:e5:7d:50:00:3a:dc:
                    95:a6:50:b7:f8:f4:a4:54:9a:97:9f:c6:10:df:54:
                    24:62:b7:e9:69:e7:e6:ea:2d:e1:7c:99:d5:90:26:
                    25:a5:b0:66:f4:0b:b1:e3:e5:9c:2d:38:79:30:cb:
                    18:5c:28:78:da:9b:f6:94:10:3a:86:8f:93:1b:be:
                    6e:33
                Exponent: 65537 (0x10001)
        X509v3 extensions:
            X509v3 Basic Constraints: critical
                CA:FALSE
            X509v3 Extended Key Usage: 
                TLS Web Server Authentication, TLS Web Client Authentication
    Signature Algorithm: sha256WithRSAEncryption
         a0:17:a0:22:a1:59:44:4f:64:6f:0a:1a:f3:a9:69:82:50:60:
         24:94:46:56:88:88:72:82:5f:d9:aa:bc:78:36:85:a2:90:d9:
         38:d3:32:26:93:f3:82:ca:9b:b6:f9:2d:1b:ef:8d:d2:5b:84:
         68:73:9e:ef:d2:03:71:ff:90:ac:47:e5:9b:e2:a4:12:20:f5:
         69:29:7d:90:4a:80:93:b6:38:66:dd:93:51:ac:29:13:96:3c:
         5d:3d:84:70:46:81:2f:ab:90:ec:e1:1c:23:a3:45:dc:95:71:
         73:6e:33:08:fb:02:05:a3:7e:d4:bd:a1:b7:06:07:a3:19:0a:
         35:b7:a2:a9:e1:45:56:9f:e0:23:35:34:f4:bb:e7:78:f7:be:
         1b:07:cb:58:c7:8d:f5:16:41:d9:66:07:a2:16:29:a1:e7:ed:
         7b:dd:38:9b:74:2f:3a:44:d4:df:46:ef:59:ef:1f:15:43:78:
         6f:36:fb:a4:3d:88:0b:e4:db:af:f7:ec:3a:66:4c:72:9e:f3:
         d1:e4:27:a5:a9:ba:19:69:26:d6:2f:97:f0:35:0b:75:14:70:
         19:53:a4:c3:19:31:0b:19:ad:36:59:d0:51:26:2c:f9:88:a2:
         82:9b:ad:67:bd:94:f8:af:50:f1:56:47:df:c9:27:dc:bf:af:
         77:b8:de:75
-----BEGIN CERTIFICATE-----
MIIC0jCCAbqgAwIBAgICEAIwDQYJKoZIhvcNAQELBQAwDzENMAsGA1UEAwwERSBD
QTAeFw0xNjAyMjgyMDI3MDNaFw0yNjAyMjUyMDI3MDNaMBgxFjAUBgNVBAMMDUNs
aWVudCBDZXJ0IEQwggEiMA0GCSqGSIb3DQEBAQUAA4IBDwAwggEKAoIBAQDMLCTm
/ORV7yT6YkA2i3vGeg+wOXousK5r/rJbdm5viA5HNWDzklXmGeI0aLFb6tEql3gV
gbStQOZkD+VdrY9rD3g+pYhT37GDsLqLaJJHq4QcyjsT8VrTBqy6nwlrXcuVP8I8
9ViEaVv/p9uJl9ZYEAwCiedUga1XpLpH9BM1v02X9ny7jklaMZ6ilbIce3oUHZ9k
WZkAAuXYIdgzkKxtlRj40iSubkXR5OKfTFzi3Yv/O4GJhGib688Dy+V9UAA63JWm
ULf49KRUmpefxhDfVCRit+lp5+bqLeF8mdWQJiWlsGb0C7Hj5ZwtOHkwyxhcKHja
m/aUEDqGj5Mbvm4zAgMBAAGjLzAtMAwGA1UdEwEB/wQCMAAwHQYDVR0lBBYwFAYI
KwYBBQUHAwEGCCsGAQUFBwMCMA0GCSqGSIb3DQEBCwUAA4IBAQCgF6AioVlET2Rv
ChrzqWmCUGAklEZWiIhygl/Zqrx4NoWikNk40zImk/OCypu2+S0b743SW4Roc57v
0gNx/5CsR+Wb4qQSIPVpKX2QSoCTtjhm3ZNRrCkTljxdPYRwRoEvq5Ds4Rwjo0Xc
lXFzbjMI+wIFo37UvaG3BgejGQo1t6Kp4UVWn+AjNTT0u+d4974bB8tYx431FkHZ
ZgeiFimh5+173TibdC86RNTfRu9Z7x8VQ3hvNvukPYgL5Nuv9+w6ZkxynvPR5Cel
qboZaSbWL5fwNQt1FHAZU6TDGTELGa02WdBRJiz5iKKCm61nvZT4r1DxVkffySfc
v693uN51
-----END CERTIFICATE-----
