Certificate:
    Data:
        Version: 3 (0x2)
        Serial Number: 4096 (0x1000)
    Signature Algorithm: sha256WithRSAEncryption
        Issuer: CN=B CA
        Validity
            Not Before: Feb 28 20:27:03 2016 GMT
            Not After : Feb 25 20:27:03 2026 GMT
        Subject: CN=Client Cert A
        Subject Public Key Info:
            Public Key Algorithm: rsaEncryption
                Public-Key: (2048 bit)
                Modulus:
                    00:d1:bd:ac:fc:08:2f:dc:b2:1a:42:69:f2:68:e2:
                    32:e4:1c:4a:01:a8:32:e1:76:01:5e:94:9a:00:89:
                    05:32:22:ac:96:97:63:bb:60:73:e7:a4:91:fe:4e:
                    04:7b:a1:e9:73:37:3b:7f:90:b4:5c:1f:cf:4c:fd:
                    3b:33:07:ac:ea:c8:b4:c2:e1:aa:a6:bf:32:8b:d2:
                    97:83:fe:32:f6:2d:60:6e:71:1d:16:5c:8b:e3:03:
                    7c:e8:46:e1:7f:c7:ce:be:ad:81:f7:b4:76:fe:c6:
                    cd:8f:4a:cf:04:18:bf:c4:bf:eb:2c:fa:a4:f3:4c:
                    61:27:db:a7:ee:18:d1:e4:37:0e:ad:3b:03:e9:73:
                    ea:3c:fb:05:2d:cd:ff:e4:02:d8:5a:9a:8f:9c:20:
                    3b:36:ad:0f:a5:3f:bf:9a:2d:94:cb:79:4f:ea:e2:
                    07:0b:ba:d9:73:70:ae:62:99:ec:79:c7:2d:a3:3e:
                    4c:1e:ab:8f:24:8a:32:b4:90:8c:e5:d5:c3:e5:03:
                    97:75:cf:b0:bc:8d:4e:74:3e:3f:57:f6:c4:03:25:
                    33:77:da:3e:d4:61:18:ac:25:e7:98:40:5f:06:69:
                    a3:7c:49:ba:c3:23:ac:c7:80:ac:eb:44:bc:b1:0e:
                    df:ca:41:af:55:88:b7:97:00:d8:19:8b:e5:f1:f4:
                    a8:1f
                Exponent: 65537 (0x10001)
        X509v3 extensions:
            X509v3 Basic Constraints: critical
                CA:FALSE
            X509v3 Extended Key Usage: 
                TLS Web Server Authentication, TLS Web Client Authentication
    Signature Algorithm: sha256WithRSAEncryption
         45:11:56:e6:62:5f:b6:46:d3:70:ac:37:ed:44:31:75:bf:64:
         14:6d:c3:76:a2:e4:a7:40:31:f1:78:34:1d:4a:06:ac:2f:34:
         f7:ba:2f:22:62:ed:11:c3:65:96:71:9d:03:57:97:b4:ce:d1:
         8f:85:6a:bb:00:ed:01:d7:6d:1a:15:13:0e:63:ee:3e:6f:3b:
         bd:43:61:45:91:0a:9c:ef:f7:ca:4e:f4:c3:cc:82:48:e7:0a:
         cc:9c:5b:d4:7f:3c:ef:c6:1d:ce:1d:63:18:4a:cf:f0:82:2a:
         b7:de:14:ca:78:71:2a:e8:9c:a4:dd:bb:42:9f:2d:18:71:e7:
         32:73:7c:86:5c:7d:74:b2:2c:d4:7e:21:e5:86:f8:82:90:3b:
         84:4a:4f:26:14:3c:03:0f:3a:96:64:5d:08:8a:9c:c5:6c:40:
         c7:a0:8c:4b:96:6d:c6:43:1a:62:2e:81:15:e2:4f:0a:60:9a:
         77:47:92:81:2c:5c:b1:33:a5:06:3f:3f:21:ef:69:88:3c:22:
         69:d9:1b:8a:31:88:05:f7:55:03:bd:5c:ef:9d:89:ba:4d:fb:
         1e:33:6f:9e:c0:a8:ab:0b:4d:06:3a:b6:7b:ac:47:05:be:dc:
         67:29:2a:98:7f:87:24:a9:f3:5d:49:4d:58:f9:14:42:d6:78:
         16:67:b2:21
-----BEGIN CERTIFICATE-----
MIIC0jCCAbqgAwIBAgICEAAwDQYJKoZIhvcNAQELBQAwDzENMAsGA1UEAwwEQiBD
QTAeFw0xNjAyMjgyMDI3MDNaFw0yNjAyMjUyMDI3MDNaMBgxFjAUBgNVBAMMDUNs
aWVudCBDZXJ0IEEwggEiMA0GCSqGSIb3DQEBAQUAA4IBDwAwggEKAoIBAQDRvaz8
CC/cshpCafJo4jLkHEoBqDLhdgFelJoAiQUyIqyWl2O7YHPnpJH+TgR7oelzNzt/
kLRcH89M/TszB6zqyLTC4aqmvzKL0peD/jL2LWBucR0WXIvjA3zoRuF/x86+rYH3
tHb+xs2PSs8EGL/Ev+ss+qTzTGEn26fuGNHkNw6tOwPpc+o8+wUtzf/kAthamo+c
IDs2rQ+lP7+aLZTLeU/q4gcLutlzcK5imex5xy2jPkweq48kijK0kIzl1cPlA5d1
z7C8jU50Pj9X9sQDJTN32j7UYRisJeeYQF8GaaN8SbrDI6zHgKzrRLyxDt/KQa9V
iLeXANgZi+Xx9KgfAgMBAAGjLzAtMAwGA1UdEwEB/wQCMAAwHQYDVR0lBBYwFAYI
KwYBBQUHAwEGCCsGAQUFBwMCMA0GCSqGSIb3DQEBCwUAA4IBAQBFEVbmYl+2RtNw
rDftRDF1v2QUbcN2ouSnQDHxeDQdSgasLzT3ui8iYu0Rw2WWcZ0DV5e0ztGPhWq7
AO0B120aFRMOY+4+bzu9Q2FFkQqc7/fKTvTDzIJI5wrMnFvUfzzvxh3OHWMYSs/w
giq33hTKeHEq6Jyk3btCny0Ycecyc3yGXH10sizUfiHlhviCkDuESk8mFDwDDzqW
ZF0IipzFbEDHoIxLlm3GQxpiLoEV4k8KYJp3R5KBLFyxM6UGPz8h72mIPCJp2RuK
MYgF91UDvVzvnYm6TfseM2+ewKirC00GOrZ7rEcFvtxnKSqYf4ckqfNdSU1Y+RRC
1ngWZ7Ih
-----END CERTIFICATE-----
