Certificate:
    Data:
        Version: 3 (0x2)
        Serial Number: 4099 (0x1003)
    Signature Algorithm: sha256WithRSAEncryption
        Issuer: CN=E CA
        Validity
            Not Before: Oct  4 18:53:24 2016 GMT
            Not After : Oct  2 18:53:24 2026 GMT
        Subject: CN=Client Cert F
        Subject Public Key Info:
            Public Key Algorithm: rsaEncryption
                Public-Key: (2048 bit)
                Modulus:
                    00:a9:b9:61:4f:52:fe:64:34:53:67:47:d8:58:22:
                    23:82:97:6f:d0:82:e7:f7:0b:3d:db:4e:15:15:38:
                    df:de:35:3e:eb:ac:19:9b:d8:8d:db:e8:fa:db:2f:
                    fa:f2:20:45:92:df:f5:d3:b6:2a:03:6b:28:de:8d:
                    24:4b:aa:3b:23:3b:7e:11:08:3e:a3:96:6f:bc:73:
                    37:7d:54:91:fc:81:9e:8c:76:ed:d5:f6:e4:f6:8e:
                    e8:6e:56:e2:90:eb:51:a5:f3:90:d8:45:d9:fa:1d:
                    91:01:21:3a:61:31:3a:ea:5a:c4:e9:1a:ee:00:e6:
                    96:62:ca:0b:a7:37:a9:1c:39:4e:12:3e:ad:ab:ed:
                    b8:2c:86:a5:72:4c:ca:39:03:4d:61:fc:29:b8:bc:
                    db:32:89:95:0a:62:1a:28:d6:8e:6d:eb:06:33:9a:
                    5b:8f:e8:73:e1:2f:1e:84:21:fb:0b:38:27:b1:83:
                    a0:c7:fe:ed:79:cc:ab:57:a5:cf:5b:b3:84:0c:b9:
                    b8:1a:8c:90:22:59:f1:be:4d:46:0c:85:63:7b:a7:
                    1a:49:6f:8e:ce:a2:fa:e5:29:64:03:02:dc:68:df:
                    79:b6:6b:9b:22:07:59:af:a1:ff:ba:9c:e6:5d:d4:
                    61:de:40:81:2e:02:96:02:aa:54:24:d4:b3:c4:18:
                    e3:ff
                Exponent: 65537 (0x10001)
        X509v3 extensions:
            X509v3 Subject Alternative Name: 
                email:santest@example.com, othername:<unsupported>
    Signature Algorithm: sha256WithRSAEncryption
         5f:d8:99:71:11:d1:1f:ae:7e:4a:fa:85:ff:f6:18:60:e0:c3:
         e8:8c:8d:7b:51:b9:ed:ea:26:e8:2b:ff:d8:5c:1e:98:cb:c6:
         a5:e8:ef:21:af:e5:a8:f2:47:93:5e:36:66:21:7d:84:c7:b2:
         2c:70:31:71:67:88:c4:a9:45:c1:20:1b:e1:47:df:75:d6:83:
         a2:db:45:27:ca:fa:b1:11:b0:c2:33:bc:a7:2c:fb:bd:2b:06:
         68:0d:95:4c:d4:2f:ab:2a:5b:f8:92:4e:9b:74:30:f2:8d:7c:
         26:c7:f1:0f:0e:f7:f1:28:b6:84:90:db:ac:a0:1a:84:4c:3e:
         0b:14:39:de:90:ca:58:2c:f8:16:a4:0e:4d:cd:ba:c5:1d:bb:
         91:69:a6:55:83:96:20:ee:1f:33:58:8f:da:44:32:9b:84:1e:
         99:d3:74:60:c9:10:67:5c:a9:03:11:74:e3:82:85:99:4c:aa:
         4e:3d:ee:ac:91:7c:e8:b9:b1:64:08:45:48:6f:34:f4:52:8a:
         68:f9:80:6b:5b:b2:af:83:cb:fc:77:fd:9f:d0:aa:69:3e:bd:
         f7:ca:05:17:f8:f4:39:d3:58:9a:04:81:43:a8:b3:66:90:9e:
         b6:27:b3:1c:25:ad:8f:8c:c6:45:a4:f6:02:60:3a:0b:5e:6f:
         6b:e6:1b:3f
-----BEGIN CERTIFICATE-----
MIIC8jCCAdqgAwIBAgICEAMwDQYJKoZIhvcNAQELBQAwDzENMAsGA1UEAwwERSBD
QTAeFw0xNjEwMDQxODUzMjRaFw0yNjEwMDIxODUzMjRaMBgxFjAUBgNVBAMMDUNs
aWVudCBDZXJ0IEYwggEiMA0GCSqGSIb3DQEBAQUAA4IBDwAwggEKAoIBAQCpuWFP
Uv5kNFNnR9hYIiOCl2/Qguf3Cz3bThUVON/eNT7rrBmb2I3b6PrbL/ryIEWS3/XT
tioDayjejSRLqjsjO34RCD6jlm+8czd9VJH8gZ6Mdu3V9uT2juhuVuKQ61Gl85DY
Rdn6HZEBITphMTrqWsTpGu4A5pZiygunN6kcOU4SPq2r7bgshqVyTMo5A01h/Cm4
vNsyiZUKYhoo1o5t6wYzmluP6HPhLx6EIfsLOCexg6DH/u15zKtXpc9bs4QMubga
jJAiWfG+TUYMhWN7pxpJb47OovrlKWQDAtxo33m2a5siB1mvof+6nOZd1GHeQIEu
ApYCqlQk1LPEGOP/AgMBAAGjTzBNMEsGA1UdEQREMEKBE3NhbnRlc3RAZXhhbXBs
ZS5jb22gKwYKKwYBBAGCNxQCA6AdDBtzYW50ZXN0QGFkLmNvcnAuZXhhbXBsZS5j
b20wDQYJKoZIhvcNAQELBQADggEBAF/YmXER0R+ufkr6hf/2GGDgw+iMjXtRue3q
Jugr/9hcHpjLxqXo7yGv5ajyR5NeNmYhfYTHsixwMXFniMSpRcEgG+FH33XWg6Lb
RSfK+rERsMIzvKcs+70rBmgNlUzUL6sqW/iSTpt0MPKNfCbH8Q8O9/EotoSQ26yg
GoRMPgsUOd6Qylgs+BakDk3NusUdu5FpplWDliDuHzNYj9pEMpuEHpnTdGDJEGdc
qQMRdOOChZlMqk497qyRfOi5sWQIRUhvNPRSimj5gGtbsq+Dy/x3/Z/Qqmk+vffK
BRf49DnTWJoEgUOos2aQnrYnsxwlrY+MxkWk9gJgOgteb2vmGz8=
-----END CERTIFICATE-----
