Certificate:
    Data:
        Version: 3 (0x2)
        Serial Number: 4097 (0x1001)
    Signature Algorithm: sha256WithRSAEncryption
        Issuer: CN=C Root CA
        Validity
            Not Before: Oct  4 18:53:24 2016 GMT
            Not After : Oct  2 18:53:24 2026 GMT
        Subject: CN=B CA
        Subject Public Key Info:
            Public Key Algorithm: rsaEncryption
                Public-Key: (2048 bit)
                Modulus:
                    00:a5:56:c7:9d:32:e7:3d:17:ac:59:ca:f4:07:65:
                    25:3e:65:7c:d9:3d:f4:0e:73:eb:b9:0b:a1:7b:4b:
                    69:ab:ee:a3:50:49:2f:25:33:4d:2d:ac:00:32:17:
                    34:0d:c9:bf:83:7d:b4:e5:d5:82:89:6f:ad:41:78:
                    56:1d:05:bc:48:cc:0c:43:95:81:e3:e8:12:2d:67:
                    74:68:12:61:8e:03:24:88:2c:57:28:8e:3d:10:77:
                    da:dc:78:b6:b4:72:92:56:0e:4a:0c:c6:f7:0a:44:
                    f5:56:5d:72:7a:a8:1d:bc:16:e8:95:25:4d:50:b6:
                    2e:22:05:fd:d5:20:47:a4:32:37:52:38:61:90:9a:
                    aa:40:a8:db:91:80:00:89:e6:2c:17:5d:7c:5f:6f:
                    2d:b2:b7:cf:71:a1:55:11:d8:fd:3b:9b:61:8f:1c:
                    80:dd:da:90:8c:82:04:63:36:7c:b1:28:38:56:bc:
                    6e:c0:b3:b9:4e:96:2b:3f:62:2a:e5:5f:f1:73:3c:
                    53:a8:5f:03:d0:63:31:36:ac:00:61:30:ab:ad:d9:
                    aa:ab:5d:22:83:28:cc:f1:f7:88:f5:9a:be:57:c5:
                    e1:46:da:a3:88:55:a7:3c:f9:1c:17:bb:72:01:1d:
                    dd:8e:a0:b0:a3:d1:91:74:ae:94:58:c0:f5:30:63:
                    5c:91
                Exponent: 65537 (0x10001)
        X509v3 extensions:
            X509v3 Basic Constraints: critical
                CA:TRUE
            X509v3 Key Usage: critical
                Certificate Sign, CRL Sign
    Signature Algorithm: sha256WithRSAEncryption
         41:1f:59:af:b3:83:87:87:bc:b3:2d:62:66:35:76:21:f2:bb:
         e5:d4:87:23:a3:ab:4f:2b:ef:d0:ee:53:6f:17:b0:d4:6a:93:
         8e:74:71:7b:c5:36:f4:7b:87:3a:ab:84:b0:40:c5:3b:a0:e7:
         a1:18:e6:3f:8d:8d:a8:49:b5:da:c7:4b:26:e4:ea:b9:2d:85:
         b2:1d:01:70:bb:78:08:a6:c7:11:6b:0a:6f:5d:b0:d7:b5:72:
         ec:51:46:26:bc:7e:e1:bd:1e:5e:d6:44:cf:d0:1b:55:ef:a9:
         5e:16:73:05:59:9f:ff:00:2e:5b:4e:29:7b:c4:2e:5c:46:9c:
         56:0a:78:d9:0b:10:83:9e:ff:8a:e3:57:ec:f1:d1:a3:85:26:
         2f:97:e6:d0:6f:5e:c8:cb:53:e7:28:64:ab:27:14:f4:b2:4b:
         52:80:e2:d1:ef:50:ba:db:34:5c:95:a4:3f:ac:5b:eb:15:c5:
         d6:cb:4b:76:fb:f6:cd:2f:d9:ef:d4:cb:1c:85:52:8b:f2:2b:
         1b:ce:e3:0f:ed:07:44:11:8b:d8:b8:5c:41:ab:e1:36:0d:7e:
         3f:86:ff:0c:0f:f5:5e:ff:f6:b8:0a:ac:f0:3b:5d:c5:b7:ef:
         f1:80:7c:26:b9:a2:ee:17:a8:e7:cb:c4:f4:5c:51:ff:57:53:
         ee:a2:d3:66
-----BEGIN CERTIFICATE-----
MIICwjCCAaqgAwIBAgICEAEwDQYJKoZIhvcNAQELBQAwFDESMBAGA1UEAwwJQyBS
b290IENBMB4XDTE2MTAwNDE4NTMyNFoXDTI2MTAwMjE4NTMyNFowDzENMAsGA1UE
AwwEQiBDQTCCASIwDQYJKoZIhvcNAQEBBQADggEPADCCAQoCggEBAKVWx50y5z0X
rFnK9AdlJT5lfNk99A5z67kLoXtLaavuo1BJLyUzTS2sADIXNA3Jv4N9tOXVgolv
rUF4Vh0FvEjMDEOVgePoEi1ndGgSYY4DJIgsVyiOPRB32tx4trRyklYOSgzG9wpE
9VZdcnqoHbwW6JUlTVC2LiIF/dUgR6QyN1I4YZCaqkCo25GAAInmLBddfF9vLbK3
z3GhVRHY/TubYY8cgN3akIyCBGM2fLEoOFa8bsCzuU6WKz9iKuVf8XM8U6hfA9Bj
MTasAGEwq63ZqqtdIoMozPH3iPWavlfF4Ubao4hVpzz5HBe7cgEd3Y6gsKPRkXSu
lFjA9TBjXJECAwEAAaMjMCEwDwYDVR0TAQH/BAUwAwEB/zAOBgNVHQ8BAf8EBAMC
AQYwDQYJKoZIhvcNAQELBQADggEBAEEfWa+zg4eHvLMtYmY1diHyu+XUhyOjq08r
79DuU28XsNRqk450cXvFNvR7hzqrhLBAxTug56EY5j+NjahJtdrHSybk6rkthbId
AXC7eAimxxFrCm9dsNe1cuxRRia8fuG9Hl7WRM/QG1XvqV4WcwVZn/8ALltOKXvE
LlxGnFYKeNkLEIOe/4rjV+zx0aOFJi+X5tBvXsjLU+coZKsnFPSyS1KA4tHvULrb
NFyVpD+sW+sVxdbLS3b79s0v2e/UyxyFUovyKxvO4w/tB0QRi9i4XEGr4TYNfj+G
/wwP9V7/9rgKrPA7XcW37/GAfCa5ou4XqOfLxPRcUf9XU+6i02Y=
-----END CERTIFICATE-----
