Certificate:
    Data:
        Version: 3 (0x2)
        Serial Number:
            f7:8b:13:b9:46:fc:96:35:d8:ab:49:de:9d:21:48:21
    Signature Algorithm: sha1WithRSAEncryption
        Issuer: C=GB, ST=Greater Manchester, L=Salford, O=COMODO CA Limited, CN=COMODO Extended Validation Secure Server CA
        Validity
            Not Before: May 29 00:00:00 2013 GMT
            Not After : Jun 20 23:59:59 2015 GMT
        Subject: serialNumber=-na/1.3.6.1.4.1.311.60.2.1.3=GB/businessCategory=Private Organization, C=GB/postalCode=M5 3EQ, ST=Greater Manchester, L=Salford,/street=Exchange Quay,  Trafford Road/street=26 Office Village,/street=3rd Floor,, O=Comodo CA Ltd, OU=Comodo EV SGC SSL, OU=COMODO EV SGC SSL, CN=www.comodo.com
        Subject Public Key Info:
            Public Key Algorithm: rsaEncryption
                Public-Key: (2048 bit)
                Modulus:
                    00:a7:ad:ff:5f:d0:7d:1d:97:78:f7:da:f8:77:da:
                    86:d2:11:ec:83:b1:4b:fd:8d:75:f2:44:9c:18:db:
                    d5:fa:ca:3e:17:8c:a3:23:36:e9:03:7d:04:6f:2f:
                    e2:c0:f8:74:23:b6:f6:47:a5:b0:91:b4:78:49:64:
                    91:10:71:19:63:4c:9d:19:90:1d:1e:b8:92:cf:93:
                    9f:5f:f6:53:db:68:b5:07:29:a2:82:92:3a:cd:c0:
                    a4:02:2a:87:c3:38:36:e5:86:6d:e6:d7:bd:73:97:
                    64:b8:a7:1e:9d:a0:58:11:42:73:5e:7e:1e:5e:96:
                    a2:0d:1b:b9:56:56:bd:2a:ce:52:b7:b2:a2:e8:1b:
                    d7:75:f7:32:80:58:b4:04:96:ae:b7:be:f5:b5:7b:
                    df:46:94:28:f1:36:80:d1:f2:78:65:55:d8:6d:fa:
                    8b:f6:1d:69:5a:a3:ba:40:41:f2:17:a0:5c:9b:81:
                    6a:56:e4:02:7f:0c:63:40:8c:b2:26:d8:16:f3:55:
                    f8:a1:00:db:71:60:95:b3:7d:f6:b1:1c:a9:1d:76:
                    90:41:72:1e:11:2a:83:16:98:e0:a3:61:69:a8:39:
                    4a:a7:1e:14:de:b4:07:9f:59:53:e3:6f:88:61:2b:
                    1d:22:c4:92:bf:ba:65:23:ee:e8:76:f3:32:40:b0:
                    f0:c7
                Exponent: 65537 (0x10001)
        X509v3 extensions:
            X509v3 Authority Key Identifier: 
                keyid:88:44:51:FF:50:2A:69:5E:2D:88:F4:21:BA:D9:0C:F2:CE:CB:EA:7C

            X509v3 Subject Key Identifier: 
                B2:E0:EB:4A:E7:C6:1C:27:0A:54:4F:C4:00:AA:E1:6A:2C:14:91:C3
            X509v3 Key Usage: critical
                Digital Signature, Key Encipherment
            X509v3 Basic Constraints: critical
                CA:FALSE
            X509v3 Extended Key Usage: 
                TLS Web Server Authentication, TLS Web Client Authentication, Microsoft Server Gated Crypto, Netscape Server Gated Crypto
            X509v3 Certificate Policies: 
                Policy: 1.3.6.1.4.1.6449.1.2.1.5.1
                  CPS: https://secure.comodo.com/CPS

            X509v3 CRL Distribution Points: 

                Full Name:
                  URI:http://crl.comodoca.com/COMODOExtendedValidationSecureServerCA.crl

            Authority Information Access: 
                CA Issuers - URI:http://crt.comodoca.com/COMODOExtendedValidationSecureServerCA.crt
                OCSP - URI:http://ocsp.comodoca.com

            X509v3 Subject Alternative Name: 
                DNS:www.comodo.com, DNS:comodo.com
    Signature Algorithm: sha1WithRSAEncryption
         a4:c4:55:e9:b6:8f:09:b4:34:ea:22:6c:32:71:97:fb:c4:93:
         ce:d3:f3:28:f0:16:f6:3f:6e:6f:ff:3f:03:f6:d4:51:d5:a5:
         1a:4f:b1:91:e4:49:7e:e1:d0:5b:30:1c:e9:3b:36:5e:48:97:
         1a:5c:f5:2f:3a:b3:51:cb:b7:db:fa:f2:a2:e7:45:ab:1a:23:
         70:ce:15:8e:9c:2c:6e:21:c9:03:ad:94:92:f3:20:d3:dd:43:
         13:91:58:20:b9:a1:e1:83:86:bd:e8:46:e3:74:2a:c8:26:c2:
         3a:16:98:cd:d4:b1:82:75:4f:3e:02:87:56:5f:af:5e:b4:e1:
         2d:05:c2:f0:2b:bc:5a:1f:dc:3c:05:03:0a:c5:29:b5:1d:94:
         69:dd:af:d5:46:c3:69:bc:b8:1c:40:08:39:8f:76:29:5d:a2:
         4b:fa:1f:2f:68:a3:88:64:80:e8:7a:1d:74:2e:29:02:e2:57:
         94:57:dd:c8:1d:03:67:46:84:c1:2a:be:ef:05:f7:47:da:02:
         01:1e:10:f2:14:02:7f:66:d2:a9:a6:e4:28:59:fd:fc:ea:25:
         f5:7f:eb:f6:7a:4e:ed:74:66:54:62:db:db:30:9b:cd:c4:c6:
         74:89:69:13:ed:32:8d:92:c7:a2:48:e4:2b:42:89:1f:31:6e:
         f3:44:9f:f8
-----BEGIN CERTIFICATE-----
MIIGVDCCBTygAwIBAgIRAPeLE7lG/JY12KtJ3p0hSCEwDQYJKoZIhvcNAQEFBQAw
gY4xCzAJBgNVBAYTAkdCMRswGQYDVQQIExJHcmVhdGVyIE1hbmNoZXN0ZXIxEDAO
BgNVBAcTB1NhbGZvcmQxGjAYBgNVBAoTEUNPTU9ETyBDQSBMaW1pdGVkMTQwMgYD
VQQDEytDT01PRE8gRXh0ZW5kZWQgVmFsaWRhdGlvbiBTZWN1cmUgU2VydmVyIENB
MB4XDTEzMDUyOTAwMDAwMFoXDTE1MDYyMDIzNTk1OVowggFTMQwwCgYDVQQFEwMt
bmExEzARBgsrBgEEAYI3PAIBAxMCR0IxHTAbBgNVBA8TFFByaXZhdGUgT3JnYW5p
emF0aW9uMQswCQYDVQQGEwJHQjEPMA0GA1UEERMGTTUgM0VRMRswGQYDVQQIExJH
cmVhdGVyIE1hbmNoZXN0ZXIxETAPBgNVBAcTCFNhbGZvcmQsMSYwJAYDVQQJEx1F
eGNoYW5nZSBRdWF5LCAgVHJhZmZvcmQgUm9hZDEbMBkGA1UECRMSMjYgT2ZmaWNl
IFZpbGxhZ2UsMRMwEQYDVQQJEwozcmQgRmxvb3IsMRYwFAYDVQQKEw1Db21vZG8g
Q0EgTHRkMRowGAYDVQQLExFDb21vZG8gRVYgU0dDIFNTTDEaMBgGA1UECxMRQ09N
T0RPIEVWIFNHQyBTU0wxFzAVBgNVBAMTDnd3dy5jb21vZG8uY29tMIIBIjANBgkq
hkiG9w0BAQEFAAOCAQ8AMIIBCgKCAQEAp63/X9B9HZd499r4d9qG0hHsg7FL/Y11
8kScGNvV+so+F4yjIzbpA30Eby/iwPh0I7b2R6WwkbR4SWSREHEZY0ydGZAdHriS
z5OfX/ZT22i1BymigpI6zcCkAiqHwzg25YZt5te9c5dkuKcenaBYEUJzXn4eXpai
DRu5Vla9Ks5St7Ki6BvXdfcygFi0BJaut771tXvfRpQo8TaA0fJ4ZVXYbfqL9h1p
WqO6QEHyF6Bcm4FqVuQCfwxjQIyyJtgW81X4oQDbcWCVs332sRypHXaQQXIeESqD
Fpjgo2FpqDlKpx4U3rQHn1lT42+IYSsdIsSSv7plI+7odvMyQLDwxwIDAQABo4IB
4zCCAd8wHwYDVR0jBBgwFoAUiERR/1AqaV4tiPQhutkM8s7L6nwwHQYDVR0OBBYE
FLLg60rnxhwnClRPxACq4WosFJHDMA4GA1UdDwEB/wQEAwIFoDAMBgNVHRMBAf8E
AjAAMDQGA1UdJQQtMCsGCCsGAQUFBwMBBggrBgEFBQcDAgYKKwYBBAGCNwoDAwYJ
YIZIAYb4QgQBMEYGA1UdIAQ/MD0wOwYMKwYBBAGyMQECAQUBMCswKQYIKwYBBQUH
AgEWHWh0dHBzOi8vc2VjdXJlLmNvbW9kby5jb20vQ1BTMFMGA1UdHwRMMEowSKBG
oESGQmh0dHA6Ly9jcmwuY29tb2RvY2EuY29tL0NPTU9ET0V4dGVuZGVkVmFsaWRh
dGlvblNlY3VyZVNlcnZlckNBLmNybDCBhAYIKwYBBQUHAQEEeDB2ME4GCCsGAQUF
BzAChkJodHRwOi8vY3J0LmNvbW9kb2NhLmNvbS9DT01PRE9FeHRlbmRlZFZhbGlk
YXRpb25TZWN1cmVTZXJ2ZXJDQS5jcnQwJAYIKwYBBQUHMAGGGGh0dHA6Ly9vY3Nw
LmNvbW9kb2NhLmNvbTAlBgNVHREEHjAcgg53d3cuY29tb2RvLmNvbYIKY29tb2Rv
LmNvbTANBgkqhkiG9w0BAQUFAAOCAQEApMRV6baPCbQ06iJsMnGX+8STztPzKPAW
9j9ub/8/A/bUUdWlGk+xkeRJfuHQWzAc6Ts2XkiXGlz1LzqzUcu32/ryoudFqxoj
cM4VjpwsbiHJA62UkvMg091DE5FYILmh4YOGvehG43QqyCbCOhaYzdSxgnVPPgKH
Vl+vXrThLQXC8Cu8Wh/cPAUDCsUptR2Uad2v1UbDaby4HEAIOY92KV2iS/ofL2ij
iGSA6HoddC4pAuJXlFfdyB0DZ0aEwSq+7wX3R9oCAR4Q8hQCf2bSqabkKFn9/Ool
9X/r9npO7XRmVGLb2zCbzcTGdIlpE+0yjZLHokjkK0KJHzFu80Sf+A==
-----END CERTIFICATE-----
Certificate:
    Data:
        Version: 3 (0x2)
        Serial Number:
            11:a3:b4:d0:ec:8d:b7:7f:9d:a0:cd:5d:2d:51:2f:42
    Signature Algorithm: sha1WithRSAEncryption
        Issuer: C=GB, ST=Greater Manchester, L=Salford, O=COMODO CA Limited, CN=COMODO Certification Authority
        Validity
            Not Before: May 24 00:00:00 2010 GMT
            Not After : May 30 10:48:38 2020 GMT
        Subject: C=GB, ST=Greater Manchester, L=Salford, O=COMODO CA Limited, CN=COMODO Extended Validation Secure Server CA
        Subject Public Key Info:
            Public Key Algorithm: rsaEncryption
                Public-Key: (2048 bit)
                Modulus:
                    00:cc:4a:96:33:cd:25:8d:67:ee:28:96:37:87:46:
                    f0:f6:04:a2:84:7f:53:aa:96:e6:1f:b1:02:1c:6e:
                    ed:7d:21:d4:d7:3c:1e:a2:d8:69:2f:a8:b7:f5:a2:
                    ed:64:58:64:e1:44:65:36:49:41:20:01:8d:3b:13:
                    e2:08:f3:0c:f2:57:39:93:37:b7:1c:93:44:83:8e:
                    bf:2d:f1:a1:05:75:da:6e:ee:7b:6f:1b:ea:76:83:
                    28:74:4a:1c:2b:d3:f5:c4:03:72:93:af:86:ce:09:
                    8c:3c:75:d4:c9:0a:2f:72:f3:ad:bd:0e:30:3c:84:
                    a1:73:1f:03:25:14:a5:8f:c3:d6:f4:b5:e4:dd:86:
                    7a:f5:19:ba:68:f2:85:54:a2:30:11:ca:d1:92:cb:
                    3b:74:06:12:a0:37:ab:6a:d8:54:11:df:6c:9a:16:
                    94:b9:b4:a7:65:c6:74:2d:31:f3:4d:52:e9:55:51:
                    9f:cb:3e:a2:8d:76:98:70:d2:6f:a6:65:45:2f:1b:
                    85:bb:5b:6d:f9:f2:c0:04:66:13:84:7a:9d:ce:27:
                    d8:f4:44:9e:bf:ac:be:99:db:6b:4f:db:58:21:b0:
                    89:27:b4:8f:32:d6:4b:5e:72:91:5e:df:05:9d:d9:
                    49:2f:f4:b6:6f:50:1f:75:cb:80:9d:e6:d3:e4:d1:
                    f2:d3
                Exponent: 65537 (0x10001)
        X509v3 extensions:
            X509v3 Authority Key Identifier: 
                keyid:0B:58:E5:8B:C6:4C:15:37:A4:40:A9:30:A9:21:BE:47:36:5A:56:FF

            X509v3 Subject Key Identifier: 
                88:44:51:FF:50:2A:69:5E:2D:88:F4:21:BA:D9:0C:F2:CE:CB:EA:7C
            X509v3 Key Usage: critical
                Certificate Sign, CRL Sign
            X509v3 Basic Constraints: critical
                CA:TRUE, pathlen:0
            X509v3 Certificate Policies: 
                Policy: X509v3 Any Policy
                  CPS: https://secure.comodo.com/CPS

            X509v3 CRL Distribution Points: 

                Full Name:
                  URI:http://crl.comodoca.com/COMODOCertificationAuthority.crl

            Authority Information Access: 
                CA Issuers - URI:http://crt.comodoca.com/COMODOAddTrustServerCA.crt
                OCSP - URI:http://ocsp.comodoca.com

    Signature Algorithm: sha1WithRSAEncryption
         9a:43:bf:af:a4:72:5e:cd:7d:6f:7f:f4:fc:3d:8c:bb:70:e6:
         1e:dd:04:fd:3f:dc:9d:9f:bf:89:76:9b:f2:86:31:fc:7f:b3:
         ed:2a:91:53:2c:e2:aa:b0:e3:c8:2c:71:f7:15:8a:23:1c:f1:
         69:2e:81:fb:b1:bc:62:0b:ab:1a:54:1c:d9:22:5e:34:4c:a5:
         f6:23:0f:5d:7a:3d:db:43:cd:69:7e:17:37:52:cd:53:a1:c2:
         11:d4:53:78:27:64:d5:89:41:4d:16:55:bb:90:cb:f0:d8:e4:
         dd:dd:d3:09:64:48:28:ff:32:23:84:2f:8c:7b:55:2f:cf:29:
         88:37:34:78:0f:33:aa:ff:b7:f2:96:a4:9b:44:80:b5:be:6c:
         56:54:ab:a4:81:9e:25:18:28:54:3a:7f:2c:63:cf:59:20:8c:
         18:6b:38:2c:b4:dd:ed:e3:40:de:0c:36:25:57:9a:c0:d1:60:
         9e:5e:03:68:97:ae:1a:3b:ea:45:d7:51:99:49:ee:44:59:56:
         0b:5e:b1:8f:68:ea:8a:9e:ca:d2:c9:a0:03:7e:70:25:f4:32:
         c9:4e:50:83:87:a2:34:48:3d:4f:35:77:fc:d8:88:ea:f6:7d:
         1e:ce:43:b6:d5:c2:6a:7e:38:66:63:4d:e7:ee:32:ef:0f:24:
         e8:2a:67:fa
-----BEGIN CERTIFICATE-----
MIIFBjCCA+6gAwIBAgIQEaO00OyNt3+doM1dLVEvQjANBgkqhkiG9w0BAQUFADCB
gTELMAkGA1UEBhMCR0IxGzAZBgNVBAgTEkdyZWF0ZXIgTWFuY2hlc3RlcjEQMA4G
A1UEBxMHU2FsZm9yZDEaMBgGA1UEChMRQ09NT0RPIENBIExpbWl0ZWQxJzAlBgNV
BAMTHkNPTU9ETyBDZXJ0aWZpY2F0aW9uIEF1dGhvcml0eTAeFw0xMDA1MjQwMDAw
MDBaFw0yMDA1MzAxMDQ4MzhaMIGOMQswCQYDVQQGEwJHQjEbMBkGA1UECBMSR3Jl
YXRlciBNYW5jaGVzdGVyMRAwDgYDVQQHEwdTYWxmb3JkMRowGAYDVQQKExFDT01P
RE8gQ0EgTGltaXRlZDE0MDIGA1UEAxMrQ09NT0RPIEV4dGVuZGVkIFZhbGlkYXRp
b24gU2VjdXJlIFNlcnZlciBDQTCCASIwDQYJKoZIhvcNAQEBBQADggEPADCCAQoC
ggEBAMxKljPNJY1n7iiWN4dG8PYEooR/U6qW5h+xAhxu7X0h1Nc8HqLYaS+ot/Wi
7WRYZOFEZTZJQSABjTsT4gjzDPJXOZM3txyTRIOOvy3xoQV12m7ue28b6naDKHRK
HCvT9cQDcpOvhs4JjDx11MkKL3Lzrb0OMDyEoXMfAyUUpY/D1vS15N2GevUZumjy
hVSiMBHK0ZLLO3QGEqA3q2rYVBHfbJoWlLm0p2XGdC0x801S6VVRn8s+oo12mHDS
b6ZlRS8bhbtbbfnywARmE4R6nc4n2PREnr+svpnba0/bWCGwiSe0jzLWS15ykV7f
BZ3ZSS/0tm9QH3XLgJ3m0+TR8tMCAwEAAaOCAWkwggFlMB8GA1UdIwQYMBaAFAtY
5YvGTBU3pECpMKkhvkc2Wlb/MB0GA1UdDgQWBBSIRFH/UCppXi2I9CG62Qzyzsvq
fDAOBgNVHQ8BAf8EBAMCAQYwEgYDVR0TAQH/BAgwBgEB/wIBADA+BgNVHSAENzA1
MDMGBFUdIAAwKzApBggrBgEFBQcCARYdaHR0cHM6Ly9zZWN1cmUuY29tb2RvLmNv
bS9DUFMwSQYDVR0fBEIwQDA+oDygOoY4aHR0cDovL2NybC5jb21vZG9jYS5jb20v
Q09NT0RPQ2VydGlmaWNhdGlvbkF1dGhvcml0eS5jcmwwdAYIKwYBBQUHAQEEaDBm
MD4GCCsGAQUFBzAChjJodHRwOi8vY3J0LmNvbW9kb2NhLmNvbS9DT01PRE9BZGRU
cnVzdFNlcnZlckNBLmNydDAkBggrBgEFBQcwAYYYaHR0cDovL29jc3AuY29tb2Rv
Y2EuY29tMA0GCSqGSIb3DQEBBQUAA4IBAQCaQ7+vpHJezX1vf/T8PYy7cOYe3QT9
P9ydn7+JdpvyhjH8f7PtKpFTLOKqsOPILHH3FYojHPFpLoH7sbxiC6saVBzZIl40
TKX2Iw9dej3bQ81pfhc3Us1TocIR1FN4J2TViUFNFlW7kMvw2OTd3dMJZEgo/zIj
hC+Me1UvzymINzR4DzOq/7fylqSbRIC1vmxWVKukgZ4lGChUOn8sY89ZIIwYazgs
tN3t40DeDDYlV5rA0WCeXgNol64aO+pF11GZSe5EWVYLXrGPaOqKnsrSyaADfnAl
9DLJTlCDh6I0SD1PNXf82Ijq9n0ezkO21cJqfjhmY03n7jLvDyToKmf6
-----END CERTIFICATE-----
Certificate:
    Data:
        Version: 3 (0x2)
        Serial Number:
            6f:25:dc:15:af:df:5e:a3:08:56:0c:3b:7a:4f:c7:f8
    Signature Algorithm: sha1WithRSAEncryption
        Issuer: C=SE, O=AddTrust AB, OU=AddTrust External TTP Network, CN=AddTrust External CA Root
        Validity
            Not Before: May 30 10:48:38 2000 GMT
            Not After : May 30 10:48:38 2020 GMT
        Subject: C=GB, ST=Greater Manchester, L=Salford, O=COMODO CA Limited, CN=COMODO Certification Authority
        Subject Public Key Info:
            Public Key Algorithm: rsaEncryption
                Public-Key: (2048 bit)
                Modulus:
                    00:d0:40:8b:8b:72:e3:91:1b:f7:51:c1:1b:54:04:
                    98:d3:a9:bf:c1:e6:8a:5d:3b:87:fb:bb:88:ce:0d:
                    e3:2f:3f:06:96:f0:a2:29:50:99:ae:db:3b:a1:57:
                    b0:74:51:71:cd:ed:42:91:4d:41:fe:a9:c8:d8:6a:
                    86:77:44:bb:59:66:97:50:5e:b4:d4:2c:70:44:cf:
                    da:37:95:42:69:3c:30:c4:71:b3:52:f0:21:4d:a1:
                    d8:ba:39:7c:1c:9e:a3:24:9d:f2:83:16:98:aa:16:
                    7c:43:9b:15:5b:b7:ae:34:91:fe:d4:62:26:18:46:
                    9a:3f:eb:c1:f9:f1:90:57:eb:ac:7a:0d:8b:db:72:
                    30:6a:66:d5:e0:46:a3:70:dc:68:d9:ff:04:48:89:
                    77:de:b5:e9:fb:67:6d:41:e9:bc:39:bd:32:d9:62:
                    02:f1:b1:a8:3d:6e:37:9c:e2:2f:e2:d3:a2:26:8b:
                    c6:b8:55:43:88:e1:23:3e:a5:d2:24:39:6a:47:ab:
                    00:d4:a1:b3:a9:25:fe:0d:3f:a7:1d:ba:d3:51:c1:
                    0b:a4:da:ac:38:ef:55:50:24:05:65:46:93:34:4f:
                    2d:8d:ad:c6:d4:21:19:d2:8e:ca:05:61:71:07:73:
                    47:e5:8a:19:12:bd:04:4d:ce:4e:9c:a5:48:ac:bb:
                    26:f7
                Exponent: 65537 (0x10001)
        X509v3 extensions:
            X509v3 Authority Key Identifier: 
                keyid:AD:BD:98:7A:34:B4:26:F7:FA:C4:26:54:EF:03:BD:E0:24:CB:54:1A

            X509v3 Subject Key Identifier: 
                0B:58:E5:8B:C6:4C:15:37:A4:40:A9:30:A9:21:BE:47:36:5A:56:FF
            X509v3 Key Usage: critical
                Certificate Sign, CRL Sign
            X509v3 Basic Constraints: critical
                CA:TRUE
            X509v3 Certificate Policies: 
                Policy: X509v3 Any Policy

            X509v3 CRL Distribution Points: 

                Full Name:
                  URI:http://crl.usertrust.com/AddTrustExternalCARoot.crl

            Authority Information Access: 
                CA Issuers - URI:http://crt.usertrust.com/AddTrustExternalCARoot.p7c
                CA Issuers - URI:http://crt.usertrust.com/AddTrustUTNSGCCA.crt
                OCSP - URI:http://ocsp.usertrust.com

    Signature Algorithm: sha1WithRSAEncryption
         07:60:93:99:aa:ce:d0:d3:47:d0:37:33:de:3f:64:b7:e5:2e:
         a3:25:0c:d5:33:1d:0d:8d:ab:f6:7e:46:7b:59:06:92:e3:82:
         c4:e7:f5:f6:f3:d9:05:cf:49:34:2d:37:5f:f4:25:c7:f0:fb:
         6b:23:77:f1:f1:40:d7:4c:bb:49:45:31:dd:00:28:67:b7:29:
         4c:75:a8:1f:79:31:c9:36:37:0f:ca:35:4f:8c:f1:7e:de:fc:
         46:ab:bf:68:9b:70:23:30:2e:b7:c5:5c:7b:8a:fb:18:13:79:
         4b:92:42:8c:dc:2c:ab:6c:22:b7:28:53:b3:1a:4a:ce:1b:fb:
         28:0e:b7:3a:a4:da:0d:f7:40:32:4f:df:6f:bb:01:50:fc:87:
         d3:76:d9:fc:fb:b6:84:03:ca:c9:36:18:f7:dd:6c:db:bb:ba:
         81:1c:a6:ad:fe:28:f9:cf:b9:a2:71:5d:19:05:ea:4a:46:dc:
         73:41:ef:89:94:42:b1:43:88:6f:35:17:af:1e:60:83:ac:7a:
         8c:10:7b:9f:c9:f6:83:6d:9e:fa:88:ee:3e:dd:ee:9e:b0:bf:
         e0:6a:b9:d0:9f:07:b2:09:13:9a:f5:a4:e5:c8:5b:79:a7:47:
         35:33:68:e5:55:9e:aa:5b:cb:30:0b:9d:c7:0f:bf:68:44:81:
         97:8b:51:4a
-----BEGIN CERTIFICATE-----
MIIE8TCCA9mgAwIBAgIQbyXcFa/fXqMIVgw7ek/H+DANBgkqhkiG9w0BAQUFADBv
MQswCQYDVQQGEwJTRTEUMBIGA1UEChMLQWRkVHJ1c3QgQUIxJjAkBgNVBAsTHUFk
ZFRydXN0IEV4dGVybmFsIFRUUCBOZXR3b3JrMSIwIAYDVQQDExlBZGRUcnVzdCBF
eHRlcm5hbCBDQSBSb290MB4XDTAwMDUzMDEwNDgzOFoXDTIwMDUzMDEwNDgzOFow
gYExCzAJBgNVBAYTAkdCMRswGQYDVQQIExJHcmVhdGVyIE1hbmNoZXN0ZXIxEDAO
BgNVBAcTB1NhbGZvcmQxGjAYBgNVBAoTEUNPTU9ETyBDQSBMaW1pdGVkMScwJQYD
VQQDEx5DT01PRE8gQ2VydGlmaWNhdGlvbiBBdXRob3JpdHkwggEiMA0GCSqGSIb3
DQEBAQUAA4IBDwAwggEKAoIBAQDQQIuLcuORG/dRwRtUBJjTqb/B5opdO4f7u4jO
DeMvPwaW8KIpUJmu2zuhV7B0UXHN7UKRTUH+qcjYaoZ3RLtZZpdQXrTULHBEz9o3
lUJpPDDEcbNS8CFNodi6OXwcnqMknfKDFpiqFnxDmxVbt640kf7UYiYYRpo/68H5
8ZBX66x6DYvbcjBqZtXgRqNw3GjZ/wRIiXfeten7Z21B6bw5vTLZYgLxsag9bjec
4i/i06Imi8a4VUOI4SM+pdIkOWpHqwDUobOpJf4NP6cdutNRwQuk2qw471VQJAVl
RpM0Ty2NrcbUIRnSjsoFYXEHc0flihkSvQRNzk6cpUisuyb3AgMBAAGjggF0MIIB
cDAfBgNVHSMEGDAWgBStvZh6NLQm9/rEJlTvA73gJMtUGjAdBgNVHQ4EFgQUC1jl
i8ZMFTekQKkwqSG+RzZaVv8wDgYDVR0PAQH/BAQDAgEGMA8GA1UdEwEB/wQFMAMB
Af8wEQYDVR0gBAowCDAGBgRVHSAAMEQGA1UdHwQ9MDswOaA3oDWGM2h0dHA6Ly9j
cmwudXNlcnRydXN0LmNvbS9BZGRUcnVzdEV4dGVybmFsQ0FSb290LmNybDCBswYI
KwYBBQUHAQEEgaYwgaMwPwYIKwYBBQUHMAKGM2h0dHA6Ly9jcnQudXNlcnRydXN0
LmNvbS9BZGRUcnVzdEV4dGVybmFsQ0FSb290LnA3YzA5BggrBgEFBQcwAoYtaHR0
cDovL2NydC51c2VydHJ1c3QuY29tL0FkZFRydXN0VVROU0dDQ0EuY3J0MCUGCCsG
AQUFBzABhhlodHRwOi8vb2NzcC51c2VydHJ1c3QuY29tMA0GCSqGSIb3DQEBBQUA
A4IBAQAHYJOZqs7Q00fQNzPeP2S35S6jJQzVMx0Njav2fkZ7WQaS44LE5/X289kF
z0k0LTdf9CXH8PtrI3fx8UDXTLtJRTHdAChntylMdagfeTHJNjcPyjVPjPF+3vxG
q79om3AjMC63xVx7ivsYE3lLkkKM3CyrbCK3KFOzGkrOG/soDrc6pNoN90AyT99v
uwFQ/IfTdtn8+7aEA8rJNhj33Wzbu7qBHKat/ij5z7micV0ZBepKRtxzQe+JlEKx
Q4hvNRevHmCDrHqMEHufyfaDbZ76iO4+3e6esL/garnQnweyCROa9aTlyFt5p0c1
M2jlVZ6qW8swC53HD79oRIGXi1FK
-----END CERTIFICATE-----
