-----BEGIN PRIVATE KEY-----
MIIEvgIBADANBgkqhkiG9w0BAQEFAASCBKgwggSkAgEAAoIBAQC5dX3Q/ESHxMTt
IN+IZ4u5ff7fqH6N6zSBxNjWaLPZp81HGjSQHIkDO1WKOitR2to7uC50i7qeavIW
gpQdWyP4dmjuoSvCXtsHGRfq8Csu7SIwmqgTUh10TiU5BIThhm+EvtqlFZOvjWls
bzRnqH6DksXEYZxxiLs7geLd2GXm6QkPJ6dyi9RjxXU8v1aK5/oOttOVPvHRNoqA
Ew78BukQTnK5bDGfloq+/tzsKtYnHwoZyQPfxRXmYvnhrpB2X2AINo68VxflajDB
kDGgZ7oMrEcWr201II93IHr27chdkHlY7A9yCYYWhwoUvlvFYQAqxZ112EBthRhe
ZkrTiYgrAgMBAAECggEBALeWo1H6KCzukLLc0+tH9X1OSLxHI+CBcZz0rGKzizZv
cjpsqpPua4OTfP40zyVcrKRpkzM0Dy07WSMHaHAXBOi07vMrARKMq+2+3Xpo/Zaa
kDnlH3Tg2N+FbDuhSZmnZ0XVWMQLNAOYzT/WZd4nYfYFmVjp9+A8Jnyl+1r5GQcX
Acbs2eQ54AWmrxpG7oXS/Ybn5DNWfxj0H4JTr9mtqatgl0kqCVaav0MCva6oe0xV
U54cDwCrlTgM5YIuMynF/q17dS6YpmICWJEzG18M5+k1XsWzvlLQza5l39i+Z8SH
/mkWOIlXxjTnlG82ni2ivGB7ts6cK9v8mCx9okBqKwECgYEA2fo+FUAgKbsRJ3jD
1P/Fc53GsxD5dbqCon5gDqxQy6RrJmWbyHFRvnPBWFYOVTvG85hHtrwtxcfPJ6f3
ZZlVKSdg4P0RN8iNiI+yfZdueW0DPbt5bwUZ2q7wY34h4W28bJoDyhxyqC3CZabg
nbhnyKz7yvq4UhYg0EgxgAYOAEsCgYEA2c8jDZNuAG5PC/Vcx4bN2MdRaDXgrcNR
tmNTf+tV0c/q7VUmiLbtCCfQLgF/MWWCa7Gx3TpXYWeBugQ5javOH4EYt+tx7LKm
GPUJM5u3S53jL0nu7vY2h5RzJhvqMIKSnRn+ePMYoObNyq2vOLj7xAzy0OCqvb3w
NKsOvfZUa6ECgYEAruwSRhtftB1adsKC5LscSNukSK6mgcNacevYSe4eKE2Zbwa7
LO9DGgLqdWkZt2xxC6p4YjxAvybJJpmz/uQ9Yvkm1WZAGvPmIGCwa/jJvsesgi2g
FWeSh9s7LZxas/zL6Jrvz5FksXGHPuvb9LW3E2M97HWm1LjNPFey4Xn6YmECgYAk
OcNGusKM58vV3VU1CkKqT1xGzM81l0q73wFAQU/guYgFOShTjLkXpieFv1H8UTnD
16YReWaXGLQG0DUSTwTVUI9f55TnHT9q3zZMkxWFShlDADTxIZooKpSMPhBRSSZB
YtVkIGp0OG75yrFd6cZV8SFhhDxhmnmdCOZGyfV4gQKBgFVaCbgC+TmsxOZJ9idK
k5QMolUGcjB8H5Mtb6wmU8XnT7AAv1VtBIWVu9SU0AeiQDHPNGux5z8fr1QLAxIB
NrevWo6XsKlSUHruFakIny0XadpKs0eFmyUh0v4H6bcOPifRubSx78seg3fx3Sji
8TvKB3jMM3QnimiLlaOzI4uR
-----END PRIVATE KEY-----
Certificate:
    Data:
        Version: 3 (0x2)
        Serial Number: 1 (0x1)
    Signature Algorithm: sha256WithRSAEncryption
        Issuer: CN=Test Root CA
        Validity
            Not Before: Jan  1 00:00:00 2006 GMT
            Not After : Jan  1 00:00:00 2007 GMT
        Subject: C=US, ST=California, L=Mountain View, O=Test CA, CN=127.0.0.1
        Subject Public Key Info:
            Public Key Algorithm: rsaEncryption
                Public-Key: (2048 bit)
                Modulus:
                    00:b9:75:7d:d0:fc:44:87:c4:c4:ed:20:df:88:67:
                    8b:b9:7d:fe:df:a8:7e:8d:eb:34:81:c4:d8:d6:68:
                    b3:d9:a7:cd:47:1a:34:90:1c:89:03:3b:55:8a:3a:
                    2b:51:da:da:3b:b8:2e:74:8b:ba:9e:6a:f2:16:82:
                    94:1d:5b:23:f8:76:68:ee:a1:2b:c2:5e:db:07:19:
                    17:ea:f0:2b:2e:ed:22:30:9a:a8:13:52:1d:74:4e:
                    25:39:04:84:e1:86:6f:84:be:da:a5:15:93:af:8d:
                    69:6c:6f:34:67:a8:7e:83:92:c5:c4:61:9c:71:88:
                    bb:3b:81:e2:dd:d8:65:e6:e9:09:0f:27:a7:72:8b:
                    d4:63:c5:75:3c:bf:56:8a:e7:fa:0e:b6:d3:95:3e:
                    f1:d1:36:8a:80:13:0e:fc:06:e9:10:4e:72:b9:6c:
                    31:9f:96:8a:be:fe:dc:ec:2a:d6:27:1f:0a:19:c9:
                    03:df:c5:15:e6:62:f9:e1:ae:90:76:5f:60:08:36:
                    8e:bc:57:17:e5:6a:30:c1:90:31:a0:67:ba:0c:ac:
                    47:16:af:6d:35:20:8f:77:20:7a:f6:ed:c8:5d:90:
                    79:58:ec:0f:72:09:86:16:87:0a:14:be:5b:c5:61:
                    00:2a:c5:9d:75:d8:40:6d:85:18:5e:66:4a:d3:89:
                    88:2b
                Exponent: 65537 (0x10001)
        X509v3 extensions:
            X509v3 Basic Constraints: critical
                CA:FALSE
            X509v3 Subject Key Identifier: 
                F6:5D:86:15:33:43:5B:6B:25:21:92:16:41:CC:8A:7F:D1:C7:9D:9F
            X509v3 Authority Key Identifier: 
                keyid:BC:F7:30:D1:3C:C0:F2:79:FA:EF:9F:C9:6C:5C:93:F3:8A:68:AB:83

            X509v3 Extended Key Usage: 
                TLS Web Server Authentication, TLS Web Client Authentication
            X509v3 Subject Alternative Name: 
                IP Address:127.0.0.1
    Signature Algorithm: sha256WithRSAEncryption
         8f:22:f8:a0:2d:23:83:e7:62:1f:1f:cb:e3:c8:96:6f:6a:b8:
         94:29:7d:d5:46:f1:78:02:e2:b6:4e:b0:57:a6:c1:e2:6c:ec:
         f6:25:5b:7e:85:d8:32:1a:6c:a9:38:39:6f:f1:95:cb:56:94:
         ab:d8:74:aa:67:cc:7f:8f:25:7c:e6:ff:d9:a0:f1:5e:44:1c:
         d7:43:50:57:b9:88:02:0e:f5:38:23:44:c3:1c:5a:05:ef:2c:
         9f:09:8a:dc:8a:fe:60:85:a7:ba:6e:0a:c6:bb:ad:c0:18:01:
         4d:e8:85:13:50:5b:c4:0e:47:f5:9c:e4:85:cf:7c:d8:c2:9b:
         34:c1:1b:ce:4b:25:52:1b:07:89:9f:0d:d9:f2:b2:6a:e2:40:
         ce:18:6d:3e:57:ed:eb:ec:66:5c:52:49:a3:d3:cb:90:81:ee:
         0b:6e:6f:23:54:d7:78:5b:31:5f:76:28:06:04:db:24:a0:17:
         f2:f5:33:cd:c6:b1:e0:39:f9:14:36:8b:f4:a0:be:6a:a1:c8:
         09:45:8c:4c:4e:45:05:50:d4:da:53:63:34:2f:c8:7d:e5:39:
         e9:9f:e7:96:28:f1:d0:49:bc:94:25:14:4f:7b:1f:44:f2:6d:
         76:0d:d0:7e:de:8b:b8:b5:7f:6b:a4:7e:d5:7f:e4:32:55:dd:
         fb:ef:65:d2
-----BEGIN CERTIFICATE-----
MIIDczCCAlugAwIBAgIBATANBgkqhkiG9w0BAQsFADAXMRUwEwYDVQQDDAxUZXN0
IFJvb3QgQ0EwHhcNMDYwMTAxMDAwMDAwWhcNMDcwMTAxMDAwMDAwWjBgMQswCQYD
VQQGEwJVUzETMBEGA1UECAwKQ2FsaWZvcm5pYTEWMBQGA1UEBwwNTW91bnRhaW4g
VmlldzEQMA4GA1UECgwHVGVzdCBDQTESMBAGA1UEAwwJMTI3LjAuMC4xMIIBIjAN
BgkqhkiG9w0BAQEFAAOCAQ8AMIIBCgKCAQEAuXV90PxEh8TE7SDfiGeLuX3+36h+
jes0gcTY1miz2afNRxo0kByJAztVijorUdraO7gudIu6nmryFoKUHVsj+HZo7qEr
wl7bBxkX6vArLu0iMJqoE1IddE4lOQSE4YZvhL7apRWTr41pbG80Z6h+g5LFxGGc
cYi7O4Hi3dhl5ukJDyencovUY8V1PL9Wiuf6DrbTlT7x0TaKgBMO/AbpEE5yuWwx
n5aKvv7c7CrWJx8KGckD38UV5mL54a6Qdl9gCDaOvFcX5WowwZAxoGe6DKxHFq9t
NSCPdyB69u3IXZB5WOwPcgmGFocKFL5bxWEAKsWdddhAbYUYXmZK04mIKwIDAQAB
o4GAMH4wDAYDVR0TAQH/BAIwADAdBgNVHQ4EFgQU9l2GFTNDW2slIZIWQcyKf9HH
nZ8wHwYDVR0jBBgwFoAUvPcw0TzA8nn675/JbFyT84poq4MwHQYDVR0lBBYwFAYI
KwYBBQUHAwEGCCsGAQUFBwMCMA8GA1UdEQQIMAaHBH8AAAEwDQYJKoZIhvcNAQEL
BQADggEBAI8i+KAtI4PnYh8fy+PIlm9quJQpfdVG8XgC4rZOsFemweJs7PYlW36F
2DIabKk4OW/xlctWlKvYdKpnzH+PJXzm/9mg8V5EHNdDUFe5iAIO9TgjRMMcWgXv
LJ8JityK/mCFp7puCsa7rcAYAU3ohRNQW8QOR/Wc5IXPfNjCmzTBG85LJVIbB4mf
DdnysmriQM4YbT5X7evsZlxSSaPTy5CB7gtubyNU13hbMV92KAYE2ySgF/L1M83G
seA5+RQ2i/SgvmqhyAlFjExORQVQ1NpTYzQvyH3lOemf55Yo8dBJvJQlFE97H0Ty
bXYN0H7ei7i1f2ukftV/5DJV3fvvZdI=
-----END CERTIFICATE-----
