Certificate:
    Data:
        Version: 3 (0x2)
        Serial Number: 1 (0x1)
    Signature Algorithm: sha256WithRSAEncryption
        Issuer: CN=Policy Test Intermediate CA
        Validity
            Not Before: Aug 14 02:47:04 2014 GMT
            Not After : Aug 11 02:47:04 2024 GMT
        Subject: CN=policy_test.example
        Subject Public Key Info:
            Public Key Algorithm: rsaEncryption
                Public-Key: (2048 bit)
                Modulus:
                    00:d0:68:ed:42:48:45:60:62:ba:1a:cd:d1:9a:a0:
                    fc:4d:3a:a9:d3:dd:29:84:0b:4b:7f:c6:81:d1:a6:
                    7c:27:4c:35:ab:81:4d:60:2c:98:94:82:2c:50:50:
                    27:a5:53:c9:c4:82:99:30:60:5e:87:73:03:d8:b0:
                    f0:7b:a4:45:28:8f:82:b4:d8:4d:8d:e0:1b:b7:38:
                    1c:50:54:2a:fe:59:2e:b7:ca:14:5b:0b:5c:5c:40:
                    fc:87:08:87:37:b7:a4:6c:56:fa:fe:26:98:30:92:
                    f9:c1:ca:aa:32:b2:61:9e:2c:50:62:4d:b1:78:fe:
                    0e:a9:fb:91:e6:6b:f7:d0:ac:12:4a:e9:f4:9e:00:
                    37:9f:6a:9c:d4:b1:05:8e:07:b2:e2:6d:ac:4e:b9:
                    7a:5a:26:c2:f5:5b:8a:29:52:bd:1d:04:fc:07:38:
                    e8:f4:d1:18:c5:97:1e:cc:46:35:d7:0f:9d:0d:3e:
                    98:c4:d9:18:15:46:82:79:78:21:1b:73:17:35:dd:
                    b9:fb:8c:b7:d4:f7:08:2f:cb:43:c6:2f:25:c7:fc:
                    22:1e:49:cd:59:dd:a1:0f:53:bf:8e:92:f4:25:5e:
                    fd:de:f4:98:de:c2:c1:8b:ce:a3:3a:0e:48:94:2a:
                    b3:c3:b0:48:cf:5f:16:14:83:b1:7b:0f:30:68:83:
                    d1:37
                Exponent: 65537 (0x10001)
        X509v3 extensions:
            X509v3 Basic Constraints: critical
                CA:FALSE
            X509v3 Extended Key Usage: 
                TLS Web Server Authentication, TLS Web Client Authentication
            X509v3 Certificate Policies: 
                Policy: 1.2.3.4

    Signature Algorithm: sha256WithRSAEncryption
         55:fc:fd:62:cd:93:0f:09:1e:6c:d8:ef:95:8c:d9:0c:a9:de:
         3e:d2:2b:70:83:33:e1:da:b1:72:c0:13:b5:4a:ef:bf:94:38:
         c3:b3:df:40:52:74:5a:1b:ae:4b:d3:c9:1f:c2:6c:c6:3d:43:
         fd:03:31:9d:45:a6:26:c2:56:b1:79:36:26:11:c5:dd:23:e1:
         1b:62:a4:c3:0f:9a:d9:ab:f5:94:53:e2:7a:53:ea:96:48:55:
         8c:da:e0:11:2a:cc:46:7f:05:e6:90:cb:c8:54:50:38:d2:c8:
         f9:96:40:65:02:96:7b:2e:6a:46:c2:79:6d:d6:3e:63:2e:77:
         e8:19:72:94:8a:a2:f4:cd:2a:9f:3d:63:1b:00:c7:57:89:3f:
         e5:06:a5:ae:b7:f4:5f:3a:20:96:11:5f:2e:fc:7a:61:23:c1:
         15:b2:8f:07:74:69:4f:74:23:1d:7a:77:02:33:79:47:8c:c4:
         46:f7:4f:57:16:33:44:13:1d:b5:6d:4f:77:a1:97:41:e9:29:
         8b:49:f4:38:e3:42:21:10:c5:9c:a2:84:fa:0b:04:5c:2d:30:
         ab:4e:0a:9c:30:50:a7:62:9b:c1:5c:6d:06:38:34:1a:cc:2b:
         7f:20:9d:8f:ad:59:8e:4a:da:b8:88:e2:0d:de:cb:65:37:0c:
         cc:8f:c4:c1
-----BEGIN CERTIFICATE-----
MIIDADCCAeigAwIBAgIBATANBgkqhkiG9w0BAQsFADAmMSQwIgYDVQQDDBtQb2xp
Y3kgVGVzdCBJbnRlcm1lZGlhdGUgQ0EwHhcNMTQwODE0MDI0NzA0WhcNMjQwODEx
MDI0NzA0WjAeMRwwGgYDVQQDDBNwb2xpY3lfdGVzdC5leGFtcGxlMIIBIjANBgkq
hkiG9w0BAQEFAAOCAQ8AMIIBCgKCAQEA0GjtQkhFYGK6Gs3RmqD8TTqp090phAtL
f8aB0aZ8J0w1q4FNYCyYlIIsUFAnpVPJxIKZMGBeh3MD2LDwe6RFKI+CtNhNjeAb
tzgcUFQq/lkut8oUWwtcXED8hwiHN7ekbFb6/iaYMJL5wcqqMrJhnixQYk2xeP4O
qfuR5mv30KwSSun0ngA3n2qc1LEFjgey4m2sTrl6WibC9VuKKVK9HQT8Bzjo9NEY
xZcezEY11w+dDT6YxNkYFUaCeXghG3MXNd25+4y31PcIL8tDxi8lx/wiHknNWd2h
D1O/jpL0JV793vSY3sLBi86jOg5IlCqzw7BIz18WFIOxew8waIPRNwIDAQABo0Ew
PzAMBgNVHRMBAf8EAjAAMB0GA1UdJQQWMBQGCCsGAQUFBwMBBggrBgEFBQcDAjAQ
BgNVHSAECTAHMAUGAyoDBDANBgkqhkiG9w0BAQsFAAOCAQEAVfz9Ys2TDwkebNjv
lYzZDKnePtIrcIMz4dqxcsATtUrvv5Q4w7PfQFJ0WhuuS9PJH8Jsxj1D/QMxnUWm
JsJWsXk2JhHF3SPhG2Kkww+a2av1lFPielPqlkhVjNrgESrMRn8F5pDLyFRQONLI
+ZZAZQKWey5qRsJ5bdY+Yy536BlylIqi9M0qnz1jGwDHV4k/5Qalrrf0XzoglhFf
Lvx6YSPBFbKPB3RpT3QjHXp3AjN5R4zERvdPVxYzRBMdtW1Pd6GXQekpi0n0OONC
IRDFnKKE+gsEXC0wq04KnDBQp2KbwVxtBjg0GswrfyCdj61ZjkrauIjiDd7LZTcM
zI/EwQ==
-----END CERTIFICATE-----
Certificate:
    Data:
        Version: 3 (0x2)
        Serial Number: 1 (0x1)
    Signature Algorithm: sha256WithRSAEncryption
        Issuer: CN=Policy Test Root CA
        Validity
            Not Before: Aug 14 02:47:04 2014 GMT
            Not After : Aug 11 02:47:04 2024 GMT
        Subject: CN=Policy Test Intermediate CA
        Subject Public Key Info:
            Public Key Algorithm: rsaEncryption
                Public-Key: (2048 bit)
                Modulus:
                    00:ce:aa:c0:cb:1f:fa:f0:d9:e0:a3:69:f6:94:02:
                    86:7b:89:ce:37:85:c4:df:35:36:cf:24:57:d2:b6:
                    7a:f5:0b:a6:37:ab:6c:4a:2e:6a:87:c2:d4:64:53:
                    74:fa:01:42:4c:ee:a5:79:eb:61:fe:9d:47:1f:65:
                    27:9f:b8:ca:4a:06:92:fa:a7:49:47:51:32:48:7d:
                    5d:1e:ac:b4:03:33:87:6b:d4:5a:ae:05:45:3e:cc:
                    10:2d:e5:dc:31:56:cd:1f:22:3b:b8:84:ff:6d:e2:
                    26:ec:6f:ef:18:7f:8b:a3:fe:d7:7c:81:8a:bf:bb:
                    0e:63:09:1a:0b:89:02:be:e9:c6:59:c7:28:d8:6d:
                    41:c2:2a:d2:c2:d5:03:6d:cd:3d:62:47:78:95:36:
                    67:a2:5e:ae:0a:0c:da:75:df:dc:6d:04:42:0a:f2:
                    88:70:a9:29:d1:c3:db:17:b7:62:f1:e7:a4:29:a7:
                    78:de:8a:c1:51:64:5e:39:21:e6:75:40:bf:7c:2e:
                    bf:c8:8e:c2:86:23:b9:f4:67:80:7e:59:d1:a1:77:
                    7c:da:ec:ed:37:e9:e8:b9:98:7f:c1:5d:29:9f:c7:
                    c2:c5:68:89:b7:0f:f1:ec:30:96:72:bf:b0:a0:fd:
                    0e:ce:92:d2:54:2d:ca:d6:6b:4c:c6:95:60:4e:bd:
                    25:f9
                Exponent: 65537 (0x10001)
        X509v3 extensions:
            X509v3 Basic Constraints: critical
                CA:TRUE
            X509v3 Key Usage: critical
                Digital Signature, Certificate Sign, CRL Sign
            X509v3 Policy Constraints: 
                Require Explicit Policy:0
            X509v3 Certificate Policies: 
                Policy: 1.2.3.4
                Policy: 1.2.3.4.5
                Policy: 1.2.3.5

    Signature Algorithm: sha256WithRSAEncryption
         97:3a:32:09:ae:fd:00:bc:17:22:f5:d0:17:e9:c0:0f:60:af:
         3c:3d:8e:53:6b:92:80:4d:0f:bc:9c:7e:96:6f:63:c8:7e:d6:
         f7:68:6d:b6:5f:64:09:fd:03:27:37:1e:0b:b1:ad:e6:7b:14:
         a6:d5:8c:0b:a2:83:3b:82:1c:db:8d:d8:53:f7:17:22:ef:d8:
         fd:89:bc:19:b3:f0:fa:cc:bc:9f:47:e8:5d:27:4f:a3:c5:fc:
         bc:28:6c:ff:12:81:10:0d:10:9b:3b:29:ee:9b:8f:78:01:29:
         25:0e:97:61:93:1b:68:d2:be:b2:9a:45:c8:e6:34:f2:de:c1:
         74:c2:21:b8:44:57:41:f6:5c:c1:87:0b:f3:2c:fe:6d:28:8d:
         fe:e2:6b:95:19:89:27:9a:6e:b9:de:d3:65:7f:85:7c:18:80:
         d3:ad:48:cc:ed:5f:a2:b4:ee:ef:54:6b:e2:32:b9:b8:1e:34:
         e4:38:f2:1d:79:fa:2c:d8:cc:6b:3f:bb:65:e1:c1:46:54:86:
         9f:99:08:6f:65:bd:dc:e3:20:f4:b2:01:80:ee:66:85:d4:4e:
         66:46:db:45:00:26:e5:16:3f:69:88:04:48:cf:9b:4e:f8:49:
         e7:ed:26:47:3d:28:72:6c:ae:bc:70:e9:8a:d9:1e:67:84:f6:
         2c:20:73:0e
-----BEGIN CERTIFICATE-----
MIIDETCCAfmgAwIBAgIBATANBgkqhkiG9w0BAQsFADAeMRwwGgYDVQQDDBNQb2xp
Y3kgVGVzdCBSb290IENBMB4XDTE0MDgxNDAyNDcwNFoXDTI0MDgxMTAyNDcwNFow
JjEkMCIGA1UEAwwbUG9saWN5IFRlc3QgSW50ZXJtZWRpYXRlIENBMIIBIjANBgkq
hkiG9w0BAQEFAAOCAQ8AMIIBCgKCAQEAzqrAyx/68Nngo2n2lAKGe4nON4XE3zU2
zyRX0rZ69QumN6tsSi5qh8LUZFN0+gFCTO6leeth/p1HH2Unn7jKSgaS+qdJR1Ey
SH1dHqy0AzOHa9RargVFPswQLeXcMVbNHyI7uIT/beIm7G/vGH+Lo/7XfIGKv7sO
YwkaC4kCvunGWcco2G1BwirSwtUDbc09Ykd4lTZnol6uCgzadd/cbQRCCvKIcKkp
0cPbF7di8eekKad43orBUWReOSHmdUC/fC6/yI7ChiO59GeAflnRoXd82uztN+no
uZh/wV0pn8fCxWiJtw/x7DCWcr+woP0OzpLSVC3K1mtMxpVgTr0l+QIDAQABo1Iw
UDAPBgNVHRMBAf8EBTADAQH/MA4GA1UdDwEB/wQEAwIBhjAMBgNVHSQEBTADgAEA
MB8GA1UdIAQYMBYwBQYDKgMEMAYGBCoDBAUwBQYDKgMFMA0GCSqGSIb3DQEBCwUA
A4IBAQCXOjIJrv0AvBci9dAX6cAPYK88PY5Ta5KATQ+8nH6Wb2PIftb3aG22X2QJ
/QMnNx4Lsa3mexSm1YwLooM7ghzbjdhT9xci79j9ibwZs/D6zLyfR+hdJ0+jxfy8
KGz/EoEQDRCbOynum494ASklDpdhkxto0r6ymkXI5jTy3sF0wiG4RFdB9lzBhwvz
LP5tKI3+4muVGYknmm653tNlf4V8GIDTrUjM7V+itO7vVGviMrm4HjTkOPIdefos
2MxrP7tl4cFGVIafmQhvZb3c4yD0sgGA7maF1E5mRttFACblFj9piARIz5tO+Enn
7SZHPShybK68cOmK2R5nhPYsIHMO
-----END CERTIFICATE-----
Certificate:
    Data:
        Version: 3 (0x2)
        Serial Number: 14176371491008760447 (0xc4bc96c2ed8d4a7f)
    Signature Algorithm: sha1WithRSAEncryption
        Issuer: CN=Policy Test Root CA
        Validity
            Not Before: Aug 14 02:47:04 2014 GMT
            Not After : Aug 11 02:47:04 2024 GMT
        Subject: CN=Policy Test Root CA
        Subject Public Key Info:
            Public Key Algorithm: rsaEncryption
                Public-Key: (2048 bit)
                Modulus:
                    00:be:69:b6:16:0b:d4:be:8d:b3:98:4f:b8:64:64:
                    5c:2f:37:5a:e7:a8:56:01:19:b0:46:91:b7:1d:05:
                    51:57:73:c7:cb:68:24:98:26:e6:b6:39:db:bb:4d:
                    d0:06:6b:03:bc:06:e4:7b:43:2d:48:6a:28:3e:75:
                    c8:82:f8:27:86:fb:84:a8:b1:90:fe:b9:2a:07:d1:
                    15:ca:be:0a:a4:e1:88:6a:01:0c:57:27:a3:d1:ad:
                    f6:00:3b:15:98:e9:80:04:08:ac:26:be:0c:38:28:
                    44:b5:2c:f1:75:c5:03:de:81:ec:d9:da:60:38:fb:
                    04:7f:36:df:72:bd:2b:c4:bb:37:88:d5:88:14:73:
                    51:f8:7f:d6:f4:40:a4:05:0b:26:9a:c9:23:3e:ba:
                    e0:fc:76:6e:81:69:65:33:c0:d4:8d:78:d4:45:c9:
                    90:14:60:cb:71:88:21:0c:a9:94:09:45:48:4a:29:
                    f2:f2:5e:37:34:85:38:35:75:a9:52:06:d3:58:ed:
                    b8:09:ab:5c:4d:1a:e9:61:79:a0:97:64:99:58:97:
                    79:70:25:4d:ca:bf:01:6d:e0:6c:29:51:17:79:46:
                    fd:31:44:be:e6:6a:47:be:1d:4e:75:72:08:5f:b2:
                    e0:49:e2:54:57:d5:e9:f7:72:b1:ee:aa:ee:41:4b:
                    e9:f5
                Exponent: 65537 (0x10001)
        X509v3 extensions:
            X509v3 Basic Constraints: critical
                CA:TRUE
            X509v3 Key Usage: critical
                Digital Signature, Certificate Sign, CRL Sign
    Signature Algorithm: sha1WithRSAEncryption
         12:68:0b:48:46:69:a0:cc:08:f0:16:c0:b8:2a:66:7a:a8:9d:
         98:c4:9a:c5:07:02:5c:14:4a:75:3a:36:1f:47:6e:21:c4:6a:
         cd:05:e6:76:b8:f2:f6:37:34:42:14:88:02:35:f9:69:a5:1e:
         05:ad:8f:98:8e:32:fb:6d:6b:bf:c4:a3:a0:96:d5:b3:92:ec:
         48:54:34:fe:92:2f:6a:e7:7c:ad:85:66:3e:bc:4c:07:c1:23:
         08:a8:7d:b1:7e:3c:b0:e1:f1:9a:00:7b:e8:11:b8:c3:46:55:
         6a:37:b5:be:25:be:02:79:ed:03:59:3f:25:2d:a5:e1:36:a9:
         10:d7:7e:53:f9:ea:9d:bf:1e:b8:cb:b1:78:54:1f:34:a8:df:
         af:75:0b:39:d0:96:c9:65:0c:05:df:7f:78:35:19:51:f5:15:
         13:35:58:fb:2c:78:53:5a:c9:4d:e2:3b:1b:6e:68:57:59:1b:
         4d:f4:c0:d7:b4:dc:6c:a3:cd:1f:b4:b8:ce:d1:70:f7:cf:15:
         e7:9b:c9:35:db:30:8e:ce:4b:f6:58:4e:8c:1f:cb:7f:90:fa:
         5a:40:70:b7:fb:a0:9c:13:d7:7b:45:f4:7f:3f:ea:79:29:da:
         15:bb:94:dd:d3:a3:11:95:00:8b:2c:32:a9:33:66:59:50:5a:
         e9:68:32:b4
-----BEGIN CERTIFICATE-----
MIIC4jCCAcqgAwIBAgIJAMS8lsLtjUp/MA0GCSqGSIb3DQEBBQUAMB4xHDAaBgNV
BAMME1BvbGljeSBUZXN0IFJvb3QgQ0EwHhcNMTQwODE0MDI0NzA0WhcNMjQwODEx
MDI0NzA0WjAeMRwwGgYDVQQDDBNQb2xpY3kgVGVzdCBSb290IENBMIIBIjANBgkq
hkiG9w0BAQEFAAOCAQ8AMIIBCgKCAQEAvmm2FgvUvo2zmE+4ZGRcLzda56hWARmw
RpG3HQVRV3PHy2gkmCbmtjnbu03QBmsDvAbke0MtSGooPnXIgvgnhvuEqLGQ/rkq
B9EVyr4KpOGIagEMVyej0a32ADsVmOmABAisJr4MOChEtSzxdcUD3oHs2dpgOPsE
fzbfcr0rxLs3iNWIFHNR+H/W9ECkBQsmmskjPrrg/HZugWllM8DUjXjURcmQFGDL
cYghDKmUCUVISiny8l43NIU4NXWpUgbTWO24CatcTRrpYXmgl2SZWJd5cCVNyr8B
beBsKVEXeUb9MUS+5mpHvh1OdXIIX7LgSeJUV9Xp93Kx7qruQUvp9QIDAQABoyMw
ITAPBgNVHRMBAf8EBTADAQH/MA4GA1UdDwEB/wQEAwIBhjANBgkqhkiG9w0BAQUF
AAOCAQEAEmgLSEZpoMwI8BbAuCpmeqidmMSaxQcCXBRKdTo2H0duIcRqzQXmdrjy
9jc0QhSIAjX5aaUeBa2PmI4y+21rv8SjoJbVs5LsSFQ0/pIvaud8rYVmPrxMB8Ej
CKh9sX48sOHxmgB76BG4w0ZVaje1viW+AnntA1k/JS2l4TapENd+U/nqnb8euMux
eFQfNKjfr3ULOdCWyWUMBd9/eDUZUfUVEzVY+yx4U1rJTeI7G25oV1kbTfTA17Tc
bKPNH7S4ztFw988V55vJNdswjs5L9lhOjB/Lf5D6WkBwt/ugnBPXe0X0fz/qeSna
FbuU3dOjEZUAiywyqTNmWVBa6WgytA==
-----END CERTIFICATE-----
