-----BEGIN PRIVATE KEY-----
MIIEvQIBADANBgkqhkiG9w0BAQEFAASCBKcwggSjAgEAAoIBAQCnUEvP8sppMxqR
73F9aDqvHusU7mSoK0HG7CtS6WasXU/9LrAxOWwugR6DXVmV0iqZ+/E4Lvk2UlN8
6rrf+9aY9Mk50TRGZ4NBibzLlPkmPbC2aPeTa9RAJ1JhDyAekVg9YN1KHP5UPwxK
xFjXEf+oPPHNOfZIm6Ug28yQK/sfYutGTdPvA/j24IIFrypPAO3aYwRwQeYKk+lN
hdT3K4bzNeFptYH82k/LQpTJ13a6m1ef++/tJu8tU3MvkjFLOHuGZusNLvKTj8W7
/swTUOkYHRhkmZHa3pYrCHIhI0JnmYaY/m/1jg5hsQp+9bjVpwagU+9/BNsRxAcK
R5bwk4LVAgMBAAECggEAfI59cfjIkRqXXC9KaNbwYTB+R93Vl5BkboehFR9m7Uim
ZNCeIHckP1amdZtINw334xy5jl8B7lvJhYRlzJt6PfJ135IL/aHQCDlXEKP9+2cP
qCxqqxgqMfxUCqes/LStYTw8YZFGEUfCieK0VKA0mHWOeX7+Bz2/579aAbaMQ+c2
rlLIK9PelGPgRMSNHdNzusBG4qr4OBYeeAJ16gHBg4xVZPdp9ApM0UKN410M+gjx
509D/HiBhiswMOJBPpxypfbnjMaTUklt0KLGSCkwocrf9K+TnrwfQ1ZWfq2Hmlu3
B99i6rtsOEMREq8kvV4yqTV0qBFXOmMZbmNFUiBwoQKBgQDal+ILQEywfpAEHAIw
p/F8WipX1K6XhsSumBRXg12yzE/oik7TOr6a5xML38d3Iml4S5IAhwFSVWZe/spU
fu2ZUhQOISWOZ+pIw/OJx1KIo1iiHDMOQZ7HC+QVk8zoXkZDRPdxP8UDEORGA7UV
TqmsNBnSbddCfbX7GAPs28AJvQKBgQDD8fWFxLotZh7RyhAdPdfCJcGhW7bDCAYU
Vg6T4ZXS6COFUIYlA794BwjtDisCNQUkLOcCI0J/diSXVJ8HbRCWTvMh6ZCM6No0
gEgMABeUYaDvc2ca+bJ/9jN9YLXyZYfU3RAwX4V/rTcbwJTB/+tnHQLbcb7WyLEg
gyoDTlHS+QKBgDtv6QreJPworcgwRXgtckA51CGltwOEpZ5Dw+Q32BZx75hvYxeU
dZdxFYC5DGecd8k54y05iGZ2yisyZJmtGbYC12kwIiIip1W50lK4W/zDTapmuIs7
1IyS8yXa1nCokbpg2ld024EF6swO3gI5LXGhiRPqwglWXVE1KnwRFJqRAoGAbiMB
c1gZoc0Fw7vFBPqu3MTmKnFnsAZBjIq2lO62jR7IYHXbgNCzfZ7OqJhPGmV851GJ
40y4YvagKKN64+ys5x+nT8d95YY4qEv2szAWEOQzVoRSTvpNF9nmJTIH8yCYkdBT
+iym2BYfpKzBsK3Nvl6zLW+o6gdScEjpg4QxP9kCgYEAt0k4F/1bbnWOA9NFoIEA
n8d9w4hyFpn4tYNcB/9PvXURDuPurOPEutydd/hFzgdewVu61dsb16rFNoAZOwPp
+BacwdewsPjrpA5Rr2sH7KsDwjOi+2TUACmt8ZZnAxCr96EeQje/ggUW2ukL7wza
bm82NyldWSM4JidPhoDyWjA=
-----END PRIVATE KEY-----
Certificate:
    Data:
        Version: 3 (0x2)
        Serial Number: 1 (0x1)
    Signature Algorithm: sha256WithRSAEncryption
        Issuer: CN=Test Root CA
        Validity
            Not Before: Dec  9 22:40:07 2016 GMT
            Not After : Dec  7 22:40:07 2026 GMT
        Subject: C=US, ST=California, L=Mountain View, O=Test CA, CN=Test Intermediate CA
        Subject Public Key Info:
            Public Key Algorithm: rsaEncryption
                Public-Key: (2048 bit)
                Modulus:
                    00:a7:50:4b:cf:f2:ca:69:33:1a:91:ef:71:7d:68:
                    3a:af:1e:eb:14:ee:64:a8:2b:41:c6:ec:2b:52:e9:
                    66:ac:5d:4f:fd:2e:b0:31:39:6c:2e:81:1e:83:5d:
                    59:95:d2:2a:99:fb:f1:38:2e:f9:36:52:53:7c:ea:
                    ba:df:fb:d6:98:f4:c9:39:d1:34:46:67:83:41:89:
                    bc:cb:94:f9:26:3d:b0:b6:68:f7:93:6b:d4:40:27:
                    52:61:0f:20:1e:91:58:3d:60:dd:4a:1c:fe:54:3f:
                    0c:4a:c4:58:d7:11:ff:a8:3c:f1:cd:39:f6:48:9b:
                    a5:20:db:cc:90:2b:fb:1f:62:eb:46:4d:d3:ef:03:
                    f8:f6:e0:82:05:af:2a:4f:00:ed:da:63:04:70:41:
                    e6:0a:93:e9:4d:85:d4:f7:2b:86:f3:35:e1:69:b5:
                    81:fc:da:4f:cb:42:94:c9:d7:76:ba:9b:57:9f:fb:
                    ef:ed:26:ef:2d:53:73:2f:92:31:4b:38:7b:86:66:
                    eb:0d:2e:f2:93:8f:c5:bb:fe:cc:13:50:e9:18:1d:
                    18:64:99:91:da:de:96:2b:08:72:21:23:42:67:99:
                    86:98:fe:6f:f5:8e:0e:61:b1:0a:7e:f5:b8:d5:a7:
                    06:a0:53:ef:7f:04:db:11:c4:07:0a:47:96:f0:93:
                    82:d5
                Exponent: 65537 (0x10001)
        X509v3 extensions:
            X509v3 Basic Constraints: critical
                CA:TRUE
            X509v3 Subject Key Identifier: 
                F9:98:21:49:71:FA:8D:B9:20:F7:FE:5D:4D:41:E8:8B:6C:E0:62:C3
            X509v3 Key Usage: critical
                Certificate Sign, CRL Sign
    Signature Algorithm: sha256WithRSAEncryption
         50:c7:37:47:87:1a:8a:b2:cc:37:d0:f6:4a:46:ee:b5:85:90:
         35:a5:a0:c8:c7:c7:38:7d:5d:bb:e0:fc:0f:15:d3:75:50:e5:
         06:08:b5:ec:d7:e8:65:63:03:5a:38:3e:2c:5a:eb:28:a0:3c:
         70:3f:d4:30:25:20:dd:22:63:08:f0:9b:a9:c8:34:8f:f6:7c:
         5a:ce:10:72:5c:37:a0:01:a6:5e:1b:a4:60:e7:93:f6:42:61:
         2c:d1:57:67:16:d9:19:21:52:03:8c:9a:aa:75:10:ca:a1:bc:
         53:07:f1:6f:52:54:88:50:7d:11:ef:96:82:0d:e9:7d:c1:42:
         42:42:13:1f:48:ef:49:70:df:e1:30:f9:6f:2f:3d:cd:51:1c:
         14:9c:bd:12:0c:f2:d7:16:32:4a:d5:6b:4b:21:01:6c:4a:b1:
         ee:7b:8c:d0:99:7e:5e:1e:ef:10:24:6e:e3:6f:e2:e0:4b:0b:
         42:79:78:ab:2b:af:54:82:c4:b1:57:a3:f0:6f:16:42:ed:61:
         fc:69:5e:2b:09:14:4a:61:cc:6a:19:52:66:89:06:48:f1:b5:
         76:39:68:21:dc:68:9d:11:07:37:80:ae:37:77:b4:69:69:29:
         ff:f6:fc:f1:50:bc:ee:9a:f9:ab:c8:bf:a6:65:51:cc:89:1e:
         2f:2c:95:e9
-----BEGIN CERTIFICATE-----
MIIDPzCCAiegAwIBAgIBATANBgkqhkiG9w0BAQsFADAXMRUwEwYDVQQDDAxUZXN0
IFJvb3QgQ0EwHhcNMTYxMjA5MjI0MDA3WhcNMjYxMjA3MjI0MDA3WjBrMQswCQYD
VQQGEwJVUzETMBEGA1UECAwKQ2FsaWZvcm5pYTEWMBQGA1UEBwwNTW91bnRhaW4g
VmlldzEQMA4GA1UECgwHVGVzdCBDQTEdMBsGA1UEAwwUVGVzdCBJbnRlcm1lZGlh
dGUgQ0EwggEiMA0GCSqGSIb3DQEBAQUAA4IBDwAwggEKAoIBAQCnUEvP8sppMxqR
73F9aDqvHusU7mSoK0HG7CtS6WasXU/9LrAxOWwugR6DXVmV0iqZ+/E4Lvk2UlN8
6rrf+9aY9Mk50TRGZ4NBibzLlPkmPbC2aPeTa9RAJ1JhDyAekVg9YN1KHP5UPwxK
xFjXEf+oPPHNOfZIm6Ug28yQK/sfYutGTdPvA/j24IIFrypPAO3aYwRwQeYKk+lN
hdT3K4bzNeFptYH82k/LQpTJ13a6m1ef++/tJu8tU3MvkjFLOHuGZusNLvKTj8W7
/swTUOkYHRhkmZHa3pYrCHIhI0JnmYaY/m/1jg5hsQp+9bjVpwagU+9/BNsRxAcK
R5bwk4LVAgMBAAGjQjBAMA8GA1UdEwEB/wQFMAMBAf8wHQYDVR0OBBYEFPmYIUlx
+o25IPf+XU1B6Its4GLDMA4GA1UdDwEB/wQEAwIBBjANBgkqhkiG9w0BAQsFAAOC
AQEAUMc3R4cairLMN9D2SkbutYWQNaWgyMfHOH1du+D8DxXTdVDlBgi17NfoZWMD
Wjg+LFrrKKA8cD/UMCUg3SJjCPCbqcg0j/Z8Ws4Qclw3oAGmXhukYOeT9kJhLNFX
ZxbZGSFSA4yaqnUQyqG8Uwfxb1JUiFB9Ee+Wgg3pfcFCQkITH0jvSXDf4TD5by89
zVEcFJy9Egzy1xYyStVrSyEBbEqx7nuM0Jl+Xh7vECRu42/i4EsLQnl4qyuvVILE
sVej8G8WQu1h/GleKwkUSmHMahlSZokGSPG1djloIdxonREHN4CuN3e0aWkp//b8
8VC87pr5q8i/pmVRzIkeLyyV6Q==
-----END CERTIFICATE-----
