-----BEGIN PRIVATE KEY-----
MIIEwAIBADANBgkqhkiG9w0BAQEFAASCBKowggSmAgEAAoIBAQCvaqKl55EBl974
UxivDfhGARaIX5OUIO9RVi98YYXMEoIGC9IcUtfFyMNzqyaR30HzslhsQrunl3J9
voeZAU9zh/jr5kW/PKFL0DMeoKUEToDFCvZaLZoJljRZ8gZxPZ7+qBm/RancIMjm
mwce/v+rwh7k/gt1SbyhG7wD+8SzxC9ABYRwi9RbuKdfZ+KfpovU2uRPi8JYxSm2
drgZCs4AEVFiIjvgkNv2rn93wx/blT0f4nse7oFboecSFT3U1Hu1P8MZP/tLEfhj
PWc/eitEiIKdBVVMMQcO1hQXpbLCTndVhmYOOd18+G/hkkuwynigtDKI8kQQGz64
em09uCsDAgMBAAECggEBAJyRYjEQWfYBFuuwR4TfxCy/hdwc6r05FEIV2fZ7mQ+H
qXQ6EsRjEOIhCorwRVHH4rbgBVpDyfiRDYi8iY0AhWjKAVyUwMYrGJBxeV8p5X/N
jdPRsAbXUvihj4KEqklixcnoQmrdg/nNbWOfFaEN2yfz8N1U/ucl9G4cMhmgG3aS
94lppp5bqse61wVLKZUJVzBR7V0L8pgei7ZIJsI30k/gB+hqAiDlzL0veuTyhbP3
wsr32bOCi8cBKro6wQkVIGWtkC7Rghz8VwfsR67Rxg+hsTPEJ34CFCl6TXctEItY
gEVwRgHdw3Oe/83xlzNfSkkkQ9CQDeL3kvhW0POjbbkCgYEA1Uish6WiLRVQpwnN
rSZNaLrH06Py20wpd2MKAp3p7JhsY1TO1IP1XPrq3899u8vNL6RjZ6fydspRLOOt
d9ZkzmOSz4R9J6HQSz3NAQrK2yHw/1RJ0W8IjVHI2R1tYjxvIC+NZiNdLd7vjsRL
Atz2R9B8hkvDEGB+aj4OqHuFCh8CgYEA0ox04N7yYkG8/i9Z+fQadgqSllgvb6w4
hvKEhnwweu1q33n/YwZtQ89ElX0speK02ZH60AkNNXRRORVPCV60QhabXzax9Lba
J+m+NtAYPABwbXPRJq4S5z9toWoqxCxKc36sCJqjdDE637xtEe8ULh2WEGmCctjC
BpEk9xlMSp0CgYEArsLxu+RYUqCYiYZa5XnxC9OgUSaRpGdvwseAOEy0lI0AoxOm
tjO6JQnk0qbt26dO5a7JVPIklnmIskOMrBkcWJD2htuEwaixSDXHeQci2ROiqVSj
d9yHIWTWMjEOo+PpGnJcZkir3R5DJLRq0lnD42xN3KzPlOe8LcnTsPIlPPkCgYEA
qFZgREI8bM6+ekQFnlDKr0H4vXe4RYLelxZjWtsEL+SOpCp4RAYpaiPXY+X2wpKl
oaaTb60tAGYFYqxkyssLOCO3CcNDOLLRbUP3Lv/lwGNhgEEvIcvflUAjOQEXPE1l
IT5P8Xkh4o5R0fxnAAW0jsJc7rZM8+HWD0YQ1fdGBgkCgYEAvsEfq+E0t52Vvn+d
gxJE+N7Ny6Iu8cy47B0xKkyML//0vOquBun2cUYEqncloLI1a3wp1FykyJMJUX/d
ZTJl7u5hhLHkhxSDVmyccw4v3Zhsn5/qb18jseE42Nbhtf8VhkZLOSbiHmxjrNdH
V135E6sqWD6wkvGVbxn3haPe9+o=
-----END PRIVATE KEY-----
Certificate:
    Data:
        Version: 3 (0x2)
        Serial Number:
            12:78:95:65:51:49:92:01:32:10
    Signature Algorithm: sha256WithRSAEncryption
        Issuer: CN=Test Root CA
        Validity
            Not Before: Apr  6 16:18:41 2015 GMT
            Not After : Apr  3 16:18:41 2025 GMT
        Subject: C=US, ST=California, L=Mountain View, O=Test CA, CN=localhost
        Subject Public Key Info:
            Public Key Algorithm: rsaEncryption
                Public-Key: (2048 bit)
                Modulus:
                    00:af:6a:a2:a5:e7:91:01:97:de:f8:53:18:af:0d:
                    f8:46:01:16:88:5f:93:94:20:ef:51:56:2f:7c:61:
                    85:cc:12:82:06:0b:d2:1c:52:d7:c5:c8:c3:73:ab:
                    26:91:df:41:f3:b2:58:6c:42:bb:a7:97:72:7d:be:
                    87:99:01:4f:73:87:f8:eb:e6:45:bf:3c:a1:4b:d0:
                    33:1e:a0:a5:04:4e:80:c5:0a:f6:5a:2d:9a:09:96:
                    34:59:f2:06:71:3d:9e:fe:a8:19:bf:45:a9:dc:20:
                    c8:e6:9b:07:1e:fe:ff:ab:c2:1e:e4:fe:0b:75:49:
                    bc:a1:1b:bc:03:fb:c4:b3:c4:2f:40:05:84:70:8b:
                    d4:5b:b8:a7:5f:67:e2:9f:a6:8b:d4:da:e4:4f:8b:
                    c2:58:c5:29:b6:76:b8:19:0a:ce:00:11:51:62:22:
                    3b:e0:90:db:f6:ae:7f:77:c3:1f:db:95:3d:1f:e2:
                    7b:1e:ee:81:5b:a1:e7:12:15:3d:d4:d4:7b:b5:3f:
                    c3:19:3f:fb:4b:11:f8:63:3d:67:3f:7a:2b:44:88:
                    82:9d:05:55:4c:31:07:0e:d6:14:17:a5:b2:c2:4e:
                    77:55:86:66:0e:39:dd:7c:f8:6f:e1:92:4b:b0:ca:
                    78:a0:b4:32:88:f2:44:10:1b:3e:b8:7a:6d:3d:b8:
                    2b:03
                Exponent: 65537 (0x10001)
        X509v3 extensions:
            X509v3 Basic Constraints: critical
                CA:FALSE
            X509v3 Subject Key Identifier: 
                87:A2:09:4C:8C:84:57:D1:4A:30:35:53:8C:1D:04:01:18:21:15:CA
            X509v3 Authority Key Identifier: 
                keyid:BC:F7:30:D1:3C:C0:F2:79:FA:EF:9F:C9:6C:5C:93:F3:8A:68:AB:83

            X509v3 Extended Key Usage: 
                TLS Web Server Authentication, TLS Web Client Authentication
            X509v3 Subject Alternative Name: 
                DNS:localhost
    Signature Algorithm: sha256WithRSAEncryption
         9f:37:2e:c1:f9:7d:09:d6:94:52:09:bd:f1:b2:f7:3e:67:6e:
         10:0b:65:cb:0e:c4:e7:cc:f7:25:9f:01:c0:e1:41:65:eb:bd:
         61:f8:89:be:73:29:ad:07:15:98:89:ea:f0:77:d6:8e:20:35:
         2b:0e:f3:64:05:f2:f0:20:73:56:23:0d:51:d9:19:b5:a8:cc:
         a4:87:bb:63:2f:d1:e0:52:d0:5e:ae:93:c7:90:81:78:36:d4:
         e6:a5:cc:db:c6:be:af:17:5b:80:83:34:2b:2d:dc:1e:f3:4c:
         a0:04:70:f4:aa:90:1d:08:65:20:54:e1:32:5f:80:12:3e:76:
         aa:1b:b9:2f:a7:36:54:99:a3:45:e4:43:1b:08:17:11:81:d0:
         32:1d:68:c2:d1:b1:33:04:92:95:63:b8:26:18:79:12:ab:77:
         14:80:58:4a:8a:a4:4e:ec:2e:07:02:22:de:67:92:03:54:0f:
         31:6e:15:aa:53:6a:40:5b:d0:04:4e:c9:dc:a3:2a:0b:52:c9:
         8b:92:9b:f4:4a:11:1b:e8:c1:da:54:9b:5c:ac:62:85:ce:ac:
         9a:3d:0e:f5:4c:be:9d:53:5b:3e:bb:c0:a2:fe:a7:b2:10:eb:
         02:d5:ce:ea:86:05:6e:77:c3:23:2d:45:c1:37:98:7b:6c:89:
         13:92:95:8b
-----BEGIN CERTIFICATE-----
MIIDgjCCAmqgAwIBAgIKEniVZVFJkgEyEDANBgkqhkiG9w0BAQsFADAXMRUwEwYD
VQQDDAxUZXN0IFJvb3QgQ0EwHhcNMTUwNDA2MTYxODQxWhcNMjUwNDAzMTYxODQx
WjBgMQswCQYDVQQGEwJVUzETMBEGA1UECAwKQ2FsaWZvcm5pYTEWMBQGA1UEBwwN
TW91bnRhaW4gVmlldzEQMA4GA1UECgwHVGVzdCBDQTESMBAGA1UEAwwJbG9jYWxo
b3N0MIIBIjANBgkqhkiG9w0BAQEFAAOCAQ8AMIIBCgKCAQEAr2qipeeRAZfe+FMY
rw34RgEWiF+TlCDvUVYvfGGFzBKCBgvSHFLXxcjDc6smkd9B87JYbEK7p5dyfb6H
mQFPc4f46+ZFvzyhS9AzHqClBE6AxQr2Wi2aCZY0WfIGcT2e/qgZv0Wp3CDI5psH
Hv7/q8Ie5P4LdUm8oRu8A/vEs8QvQAWEcIvUW7inX2fin6aL1NrkT4vCWMUptna4
GQrOABFRYiI74JDb9q5/d8Mf25U9H+J7Hu6BW6HnEhU91NR7tT/DGT/7SxH4Yz1n
P3orRIiCnQVVTDEHDtYUF6Wywk53VYZmDjndfPhv4ZJLsMp4oLQyiPJEEBs+uHpt
PbgrAwIDAQABo4GGMIGDMAwGA1UdEwEB/wQCMAAwHQYDVR0OBBYEFIeiCUyMhFfR
SjA1U4wdBAEYIRXKMB8GA1UdIwQYMBaAFLz3MNE8wPJ5+u+fyWxck/OKaKuDMB0G
A1UdJQQWMBQGCCsGAQUFBwMBBggrBgEFBQcDAjAUBgNVHREEDTALgglsb2NhbGhv
c3QwDQYJKoZIhvcNAQELBQADggEBAJ83LsH5fQnWlFIJvfGy9z5nbhALZcsOxOfM
9yWfAcDhQWXrvWH4ib5zKa0HFZiJ6vB31o4gNSsO82QF8vAgc1YjDVHZGbWozKSH
u2Mv0eBS0F6uk8eQgXg21OalzNvGvq8XW4CDNCst3B7zTKAEcPSqkB0IZSBU4TJf
gBI+dqobuS+nNlSZo0XkQxsIFxGB0DIdaMLRsTMEkpVjuCYYeRKrdxSAWEqKpE7s
LgcCIt5nkgNUDzFuFapTakBb0AROydyjKgtSyYuSm/RKERvowdpUm1ysYoXOrJo9
DvVMvp1TWz67wKL+p7IQ6wLVzuqGBW53wyMtRcE3mHtsiROSlYs=
-----END CERTIFICATE-----
