Certificate:
    Data:
        Version: 3 (0x2)
        Serial Number: 4098 (0x1002)
    Signature Algorithm: sha256WithRSAEncryption
        Issuer: CN=E Root CA - Multi-root
        Validity
            Not Before: Jan  2 00:00:00 2016 GMT
            Not After : Jan  2 00:00:00 2026 GMT
        Subject: CN=F CA - Multi-root
        Subject Public Key Info:
            Public Key Algorithm: rsaEncryption
                Public-Key: (2048 bit)
                Modulus:
                    00:9d:41:79:88:93:ab:fe:e6:52:28:84:91:9d:c2:
                    85:a0:2c:97:39:69:25:20:43:85:8c:db:64:8f:41:
                    f4:b5:25:e6:3e:16:41:fa:40:b7:6c:2c:fc:11:76:
                    7d:86:b7:47:73:68:ae:e9:2c:7e:5d:8b:21:68:86:
                    71:11:cd:21:f9:16:a0:20:67:ac:79:40:d0:94:e6:
                    bf:a2:dd:65:af:da:d3:c5:23:82:0a:a2:1c:a7:bc:
                    7d:f0:c2:a8:0b:30:ca:20:d6:31:5f:28:c8:74:4b:
                    09:1e:50:de:d4:51:d9:9c:f5:3d:fe:b0:8d:ee:11:
                    f2:22:3e:11:09:53:23:77:52:5c:cf:8d:dd:6c:3b:
                    c4:39:1b:33:c2:00:bc:34:2d:e6:dc:9d:af:e8:36:
                    ec:ac:c7:e4:73:09:44:ad:59:8d:51:c1:ee:11:60:
                    5b:b5:c9:d8:cb:48:b0:f9:0a:57:38:d8:e3:be:c5:
                    4e:38:7e:47:3f:24:66:a1:11:3d:2d:9f:ca:4a:dc:
                    59:58:fd:cc:56:22:c7:d5:c9:70:2f:ec:66:81:4d:
                    ee:48:39:97:ef:dd:b6:02:34:b2:90:db:16:a4:60:
                    9d:18:de:95:87:a1:14:6e:19:ab:88:42:37:57:cf:
                    20:c4:d8:e3:c6:24:8d:bc:fd:4d:d2:4e:74:06:4a:
                    c4:3b
                Exponent: 65537 (0x10001)
        X509v3 extensions:
            X509v3 Basic Constraints: critical
                CA:TRUE
            X509v3 Subject Key Identifier: 
                CA:CF:14:CE:08:5C:4B:71:AD:DE:DA:70:78:A9:D1:D6:7F:25:76:E4
            X509v3 Key Usage: critical
                Certificate Sign, CRL Sign
    Signature Algorithm: sha256WithRSAEncryption
         31:f4:da:87:3f:e3:55:1a:c6:e4:fc:71:23:9e:51:de:88:89:
         f2:c7:b3:7c:8b:f7:c1:71:3a:bc:bd:ff:61:43:2a:3b:4c:6c:
         2c:eb:7c:f6:00:37:e1:0a:fc:2f:01:73:73:d7:b9:b8:dc:fa:
         6e:10:fc:55:2b:d6:d3:95:09:27:de:97:28:d5:b6:48:19:a5:
         0b:13:d3:29:cf:80:86:36:39:41:c1:15:17:74:8c:d7:2f:f6:
         00:63:06:cb:cb:74:9b:2e:35:1c:b7:d8:38:db:a4:d2:63:c0:
         f1:97:db:be:1d:10:bc:3b:67:59:99:0d:3e:5f:2d:52:38:ca:
         80:49:6f:b4:f3:e5:0a:d4:b3:96:ef:45:9c:a4:15:35:af:9c:
         04:fd:5a:22:0f:44:67:32:0e:79:47:37:87:fb:3c:fb:2f:0a:
         1d:b3:20:cd:f5:fe:71:f6:c8:f1:0e:f2:ed:8d:a4:8c:c3:af:
         a0:ce:8e:49:a8:af:ec:55:2c:17:4f:03:7e:6a:a9:ff:ae:46:
         25:89:0c:54:d7:32:7b:9b:8f:a2:df:ac:44:a8:03:cc:56:9e:
         d6:cb:f6:af:c9:e4:f8:de:68:4d:0c:11:20:ac:5b:d2:e8:07:
         b2:29:6f:27:b5:29:a8:fa:09:9d:f1:a1:f7:2c:72:05:07:7d:
         31:1e:98:d4
-----BEGIN CERTIFICATE-----
MIIC+zCCAeOgAwIBAgICEAIwDQYJKoZIhvcNAQELBQAwITEfMB0GA1UEAwwWRSBS
b290IENBIC0gTXVsdGktcm9vdDAeFw0xNjAxMDIwMDAwMDBaFw0yNjAxMDIwMDAw
MDBaMBwxGjAYBgNVBAMMEUYgQ0EgLSBNdWx0aS1yb290MIIBIjANBgkqhkiG9w0B
AQEFAAOCAQ8AMIIBCgKCAQEAnUF5iJOr/uZSKISRncKFoCyXOWklIEOFjNtkj0H0
tSXmPhZB+kC3bCz8EXZ9hrdHc2iu6Sx+XYshaIZxEc0h+RagIGeseUDQlOa/ot1l
r9rTxSOCCqIcp7x98MKoCzDKINYxXyjIdEsJHlDe1FHZnPU9/rCN7hHyIj4RCVMj
d1Jcz43dbDvEORszwgC8NC3m3J2v6DbsrMfkcwlErVmNUcHuEWBbtcnYy0iw+QpX
ONjjvsVOOH5HPyRmoRE9LZ/KStxZWP3MViLH1clwL+xmgU3uSDmX7922AjSykNsW
pGCdGN6Vh6EUbhmriEI3V88gxNjjxiSNvP1N0k50BkrEOwIDAQABo0IwQDAPBgNV
HRMBAf8EBTADAQH/MB0GA1UdDgQWBBTKzxTOCFxLca3e2nB4qdHWfyV25DAOBgNV
HQ8BAf8EBAMCAQYwDQYJKoZIhvcNAQELBQADggEBADH02oc/41UaxuT8cSOeUd6I
ifLHs3yL98FxOry9/2FDKjtMbCzrfPYAN+EK/C8Bc3PXubjc+m4Q/FUr1tOVCSfe
lyjVtkgZpQsT0ynPgIY2OUHBFRd0jNcv9gBjBsvLdJsuNRy32DjbpNJjwPGX274d
ELw7Z1mZDT5fLVI4yoBJb7Tz5QrUs5bvRZykFTWvnAT9WiIPRGcyDnlHN4f7PPsv
Ch2zIM31/nH2yPEO8u2NpIzDr6DOjkmor+xVLBdPA35qqf+uRiWJDFTXMnubj6Lf
rESoA8xWntbL9q/J5PjeaE0MESCsW9LoB7Ipbye1Kaj6CZ3xofcscgUHfTEemNQ=
-----END CERTIFICATE-----
