Certificate:
    Data:
        Version: 3 (0x2)
        Serial Number: 4096 (0x1000)
    Signature Algorithm: sha256WithRSAEncryption
        Issuer: CN=F CA - Multi-root
        Validity
            Not Before: Jan  5 00:00:00 2016 GMT
            Not After : Jan  2 00:00:00 2026 GMT
        Subject: CN=B CA - Multi-root
        Subject Public Key Info:
            Public Key Algorithm: rsaEncryption
                Public-Key: (2048 bit)
                Modulus:
                    00:ca:e9:f3:21:f4:a0:e7:ba:82:8c:7f:b3:98:44:
                    20:4a:9a:8b:f9:e5:0c:99:c4:22:72:f7:57:7c:1e:
                    cc:56:4c:c3:f5:fd:1e:90:a5:1c:bf:2c:c4:c4:29:
                    29:38:cc:26:9e:1a:1d:e3:e4:db:97:58:35:14:e8:
                    e2:db:37:05:1c:32:f7:bb:19:22:c2:37:3f:01:76:
                    8c:17:23:ca:fc:10:69:b4:d1:74:27:b6:10:7e:b7:
                    c1:07:a2:a1:af:18:4d:5c:2e:13:72:a9:fb:64:b1:
                    e7:9f:49:41:3c:dc:b8:5f:94:e6:68:05:a5:1f:c8:
                    56:84:e2:e5:6a:84:71:9c:b8:ac:3e:ec:8e:0c:d2:
                    f2:5f:11:fd:f4:7f:40:a7:3b:08:01:bb:fd:6f:d0:
                    a9:16:1d:14:a1:28:20:30:98:ba:1e:22:4e:5b:09:
                    b9:c1:df:17:60:1b:80:43:97:49:69:cd:6a:4e:58:
                    08:9c:dc:29:57:3f:1b:bf:d8:5f:32:94:ae:97:b2:
                    d4:8d:50:1a:d1:8b:03:84:00:fd:87:d9:2e:ed:91:
                    3d:3f:b7:89:54:46:0a:cd:db:10:62:80:47:60:21:
                    b3:1d:0e:bc:41:4d:86:d4:9d:52:1b:53:82:1a:9f:
                    46:91:98:1e:ed:9f:da:69:16:64:24:1c:de:f8:b3:
                    34:69
                Exponent: 65537 (0x10001)
        X509v3 extensions:
            X509v3 Basic Constraints: critical
                CA:TRUE
            X509v3 Subject Key Identifier: 
                90:CB:53:EE:36:0A:5A:B0:93:38:C9:11:B7:AC:FD:27:71:99:DC:81
            X509v3 Key Usage: critical
                Certificate Sign, CRL Sign
    Signature Algorithm: sha256WithRSAEncryption
         64:09:43:15:ae:ac:dc:ad:23:99:24:cb:3a:39:4b:ad:2b:83:
         f2:69:c3:f8:7e:e8:79:1e:8f:b1:09:0c:17:e6:44:5f:47:33:
         14:fa:d4:f2:d8:d2:94:a9:75:58:4e:a8:44:8f:71:d0:53:c0:
         76:5d:8e:39:1c:23:95:3d:89:c7:18:0a:0e:80:37:3d:8d:a6:
         6d:60:c9:ad:08:a3:7a:8a:e8:00:3e:bf:67:e0:b6:09:b2:3b:
         55:a6:b8:36:24:00:5e:8d:89:89:53:df:ea:2d:a9:f8:d2:60:
         5a:e1:7b:f6:6c:a1:29:95:13:75:fe:62:57:cd:b4:0e:50:dc:
         b5:41:3d:e9:19:0b:33:62:43:af:14:4d:40:c2:48:eb:72:88:
         65:d3:89:11:f4:98:e8:f7:13:b4:7a:11:8e:39:01:80:a5:2e:
         27:4a:98:3c:c8:d4:4f:31:70:3f:c2:de:e0:69:6b:59:54:d7:
         66:07:68:74:72:9c:c2:1c:1c:0c:0d:b9:65:90:47:41:93:2c:
         ec:d1:f0:51:b7:69:7b:e6:88:d8:f7:f7:0f:f1:4e:8c:e1:e9:
         50:5d:7a:c3:62:1d:32:76:8e:df:7f:87:34:e4:57:bf:9c:1d:
         45:4b:3b:07:f2:d1:8b:d6:d0:e6:72:de:7b:4b:23:bf:ee:1b:
         c7:40:d0:a7
-----BEGIN CERTIFICATE-----
MIIC9jCCAd6gAwIBAgICEAAwDQYJKoZIhvcNAQELBQAwHDEaMBgGA1UEAwwRRiBD
QSAtIE11bHRpLXJvb3QwHhcNMTYwMTA1MDAwMDAwWhcNMjYwMTAyMDAwMDAwWjAc
MRowGAYDVQQDDBFCIENBIC0gTXVsdGktcm9vdDCCASIwDQYJKoZIhvcNAQEBBQAD
ggEPADCCAQoCggEBAMrp8yH0oOe6gox/s5hEIEqai/nlDJnEInL3V3wezFZMw/X9
HpClHL8sxMQpKTjMJp4aHePk25dYNRTo4ts3BRwy97sZIsI3PwF2jBcjyvwQabTR
dCe2EH63wQeioa8YTVwuE3Kp+2Sx559JQTzcuF+U5mgFpR/IVoTi5WqEcZy4rD7s
jgzS8l8R/fR/QKc7CAG7/W/QqRYdFKEoIDCYuh4iTlsJucHfF2AbgEOXSWnNak5Y
CJzcKVc/G7/YXzKUrpey1I1QGtGLA4QA/YfZLu2RPT+3iVRGCs3bEGKAR2Ahsx0O
vEFNhtSdUhtTghqfRpGYHu2f2mkWZCQc3vizNGkCAwEAAaNCMEAwDwYDVR0TAQH/
BAUwAwEB/zAdBgNVHQ4EFgQUkMtT7jYKWrCTOMkRt6z9J3GZ3IEwDgYDVR0PAQH/
BAQDAgEGMA0GCSqGSIb3DQEBCwUAA4IBAQBkCUMVrqzcrSOZJMs6OUutK4PyacP4
fuh5Ho+xCQwX5kRfRzMU+tTy2NKUqXVYTqhEj3HQU8B2XY45HCOVPYnHGAoOgDc9
jaZtYMmtCKN6iugAPr9n4LYJsjtVprg2JABejYmJU9/qLan40mBa4Xv2bKEplRN1
/mJXzbQOUNy1QT3pGQszYkOvFE1Awkjrcohl04kR9Jjo9xO0ehGOOQGApS4nSpg8
yNRPMXA/wt7gaWtZVNdmB2h0cpzCHBwMDbllkEdBkyzs0fBRt2l75ojY9/cP8U6M
4elQXXrDYh0ydo7ff4c05Fe/nB1FSzsH8tGL1tDmct57SyO/7hvHQNCn
-----END CERTIFICATE-----
