Certificate:
    Data:
        Version: 3 (0x2)
        Serial Number: 4096 (0x1000)
    Signature Algorithm: sha256WithRSAEncryption
        Issuer: CN=B CA - Multi-root
        Validity
            Not Before: Mar 11 01:37:16 2016 GMT
            Not After : Mar  9 01:37:16 2026 GMT
        Subject: C=US, ST=California, L=Mountain View, O=Test CA, CN=127.0.0.1
        Subject Public Key Info:
            Public Key Algorithm: rsaEncryption
                Public-Key: (2048 bit)
                Modulus:
                    00:c8:27:1c:19:81:c0:a7:30:93:03:1c:f8:21:b8:
                    2f:8a:22:b4:89:0f:da:b1:40:95:df:dc:46:53:fc:
                    6f:36:26:66:5a:53:6d:45:78:c2:39:16:9a:3f:82:
                    8b:ba:c5:b0:78:a8:18:bc:d5:a7:92:a5:e6:ac:e2:
                    0c:81:d0:94:e5:0c:ec:5e:03:0c:17:c5:35:2a:7b:
                    ab:86:eb:bf:e8:62:0a:8f:b0:25:b2:70:f5:11:8c:
                    16:4f:c1:76:44:e5:75:e8:93:4f:e9:e7:c4:e4:42:
                    0a:08:be:73:2c:cb:8f:73:6a:40:77:eb:33:60:ac:
                    be:c5:27:fd:b1:4f:88:4b:15:af:98:fd:32:53:ae:
                    b0:2a:0c:b2:f5:05:f3:3a:06:0d:6e:5c:fe:83:fc:
                    e3:60:ae:99:8e:a1:21:c2:72:02:e6:f4:49:57:e6:
                    91:31:2e:be:92:a1:ad:f8:71:31:64:74:10:33:d0:
                    a7:0c:ed:18:c7:b2:50:71:fc:b9:b6:ae:95:a0:8d:
                    ac:1f:3c:d5:79:a7:a9:88:50:b6:02:cd:68:60:24:
                    45:9b:b6:e9:82:08:d9:9c:d4:7e:29:7d:2b:d9:ae:
                    57:7f:62:6a:56:96:8b:4a:33:9e:5f:93:82:b0:d1:
                    05:03:26:cd:15:f4:87:7f:6a:9a:df:e9:01:b5:d4:
                    c9:11
                Exponent: 65537 (0x10001)
        X509v3 extensions:
            X509v3 Basic Constraints: critical
                CA:FALSE
            X509v3 Subject Key Identifier: 
                FB:91:A9:5F:BC:27:81:98:55:30:BF:57:32:4D:B9:DA:56:DD:52:2C
            X509v3 Authority Key Identifier: 
                keyid:90:CB:53:EE:36:0A:5A:B0:93:38:C9:11:B7:AC:FD:27:71:99:DC:81

            X509v3 Extended Key Usage: 
                TLS Web Server Authentication, TLS Web Client Authentication
    Signature Algorithm: sha256WithRSAEncryption
         b9:31:7a:95:b2:ba:3a:b4:f1:16:76:df:eb:d5:b9:af:67:b1:
         9d:8a:27:04:9b:61:6f:42:3f:c2:b3:cd:65:c4:86:cb:90:fb:
         9d:3a:ed:fc:b8:74:da:d7:6a:6c:2f:17:68:d1:73:58:f1:a2:
         bb:8f:d6:b0:a8:7f:b6:a8:b0:74:d1:ea:c4:62:ed:bc:1e:ef:
         02:6b:d5:e8:2d:15:78:16:1e:90:fa:f4:29:5a:a8:43:ad:d2:
         58:40:b4:1c:60:4e:cd:bc:6f:1a:39:e4:46:b2:58:93:96:5a:
         a8:a4:c4:31:73:ed:89:c4:81:27:e1:4c:66:20:7c:27:c4:f9:
         61:ff:d1:d5:a5:02:93:4c:06:fa:15:33:7a:1f:5f:eb:29:b2:
         b5:6a:cd:7e:d6:d7:b7:51:a7:01:2f:22:9f:9e:7e:81:98:c4:
         72:11:36:2c:e7:c6:d0:f0:7d:98:36:ea:b7:a0:aa:13:8f:6e:
         ae:41:59:9b:e6:c9:bc:9c:e8:93:f5:0c:4e:ca:b4:dd:e3:01:
         fe:23:6e:fb:fa:b3:61:66:58:f5:fc:07:16:1d:a9:52:ec:a0:
         29:61:a4:39:ed:41:50:a3:a2:33:72:0e:3c:03:e1:0a:1a:1a:
         cf:22:73:09:d7:ea:e8:15:fc:73:3c:d4:4e:34:6c:b4:18:94:
         c4:d3:6e:12
-----BEGIN CERTIFICATE-----
MIIDZzCCAk+gAwIBAgICEAAwDQYJKoZIhvcNAQELBQAwHDEaMBgGA1UEAwwRQiBD
QSAtIE11bHRpLXJvb3QwHhcNMTYwMzExMDEzNzE2WhcNMjYwMzA5MDEzNzE2WjBg
MQswCQYDVQQGEwJVUzETMBEGA1UECAwKQ2FsaWZvcm5pYTEWMBQGA1UEBwwNTW91
bnRhaW4gVmlldzEQMA4GA1UECgwHVGVzdCBDQTESMBAGA1UEAwwJMTI3LjAuMC4x
MIIBIjANBgkqhkiG9w0BAQEFAAOCAQ8AMIIBCgKCAQEAyCccGYHApzCTAxz4Ibgv
iiK0iQ/asUCV39xGU/xvNiZmWlNtRXjCORaaP4KLusWweKgYvNWnkqXmrOIMgdCU
5QzsXgMMF8U1Knurhuu/6GIKj7AlsnD1EYwWT8F2ROV16JNP6efE5EIKCL5zLMuP
c2pAd+szYKy+xSf9sU+ISxWvmP0yU66wKgyy9QXzOgYNblz+g/zjYK6ZjqEhwnIC
5vRJV+aRMS6+kqGt+HExZHQQM9CnDO0Yx7JQcfy5tq6VoI2sHzzVeaepiFC2As1o
YCRFm7bpggjZnNR+KX0r2a5Xf2JqVpaLSjOeX5OCsNEFAybNFfSHf2qa3+kBtdTJ
EQIDAQABo28wbTAMBgNVHRMBAf8EAjAAMB0GA1UdDgQWBBT7kalfvCeBmFUwv1cy
TbnaVt1SLDAfBgNVHSMEGDAWgBSQy1PuNgpasJM4yRG3rP0ncZncgTAdBgNVHSUE
FjAUBggrBgEFBQcDAQYIKwYBBQUHAwIwDQYJKoZIhvcNAQELBQADggEBALkxepWy
ujq08RZ23+vVua9nsZ2KJwSbYW9CP8KzzWXEhsuQ+5067fy4dNrXamwvF2jRc1jx
oruP1rCof7aosHTR6sRi7bwe7wJr1egtFXgWHpD69ClaqEOt0lhAtBxgTs28bxo5
5EayWJOWWqikxDFz7YnEgSfhTGYgfCfE+WH/0dWlApNMBvoVM3ofX+spsrVqzX7W
17dRpwEvIp+efoGYxHIRNiznxtDwfZg26regqhOPbq5BWZvmybyc6JP1DE7KtN3j
Af4jbvv6s2FmWPX8BxYdqVLsoClhpDntQVCjojNyDjwD4QoaGs8icwnX6ugV/HM8
1E40bLQYlMTTbhI=
-----END CERTIFICATE-----
Certificate:
    Data:
        Version: 3 (0x2)
        Serial Number: 4096 (0x1000)
    Signature Algorithm: sha256WithRSAEncryption
        Issuer: CN=C CA - Multi-root
        Validity
            Not Before: Jan  4 00:00:00 2016 GMT
            Not After : Jan  2 00:00:00 2026 GMT
        Subject: CN=B CA - Multi-root
        Subject Public Key Info:
            Public Key Algorithm: rsaEncryption
                Public-Key: (2048 bit)
                Modulus:
                    00:ca:e9:f3:21:f4:a0:e7:ba:82:8c:7f:b3:98:44:
                    20:4a:9a:8b:f9:e5:0c:99:c4:22:72:f7:57:7c:1e:
                    cc:56:4c:c3:f5:fd:1e:90:a5:1c:bf:2c:c4:c4:29:
                    29:38:cc:26:9e:1a:1d:e3:e4:db:97:58:35:14:e8:
                    e2:db:37:05:1c:32:f7:bb:19:22:c2:37:3f:01:76:
                    8c:17:23:ca:fc:10:69:b4:d1:74:27:b6:10:7e:b7:
                    c1:07:a2:a1:af:18:4d:5c:2e:13:72:a9:fb:64:b1:
                    e7:9f:49:41:3c:dc:b8:5f:94:e6:68:05:a5:1f:c8:
                    56:84:e2:e5:6a:84:71:9c:b8:ac:3e:ec:8e:0c:d2:
                    f2:5f:11:fd:f4:7f:40:a7:3b:08:01:bb:fd:6f:d0:
                    a9:16:1d:14:a1:28:20:30:98:ba:1e:22:4e:5b:09:
                    b9:c1:df:17:60:1b:80:43:97:49:69:cd:6a:4e:58:
                    08:9c:dc:29:57:3f:1b:bf:d8:5f:32:94:ae:97:b2:
                    d4:8d:50:1a:d1:8b:03:84:00:fd:87:d9:2e:ed:91:
                    3d:3f:b7:89:54:46:0a:cd:db:10:62:80:47:60:21:
                    b3:1d:0e:bc:41:4d:86:d4:9d:52:1b:53:82:1a:9f:
                    46:91:98:1e:ed:9f:da:69:16:64:24:1c:de:f8:b3:
                    34:69
                Exponent: 65537 (0x10001)
        X509v3 extensions:
            X509v3 Basic Constraints: critical
                CA:TRUE
            X509v3 Subject Key Identifier: 
                90:CB:53:EE:36:0A:5A:B0:93:38:C9:11:B7:AC:FD:27:71:99:DC:81
            X509v3 Key Usage: critical
                Certificate Sign, CRL Sign
    Signature Algorithm: sha256WithRSAEncryption
         97:cd:ae:5a:26:f4:25:f6:c0:8b:08:d8:df:82:35:d8:76:f3:
         5d:cc:99:bd:ac:70:c9:41:e0:24:c8:fd:e6:4e:41:2c:d4:69:
         8d:08:25:fd:f3:32:3a:58:0b:d3:58:9c:81:51:bf:97:a4:bc:
         00:18:1c:4f:1c:54:04:63:e3:72:87:f4:dc:9e:7b:dc:da:5d:
         e1:ef:59:6b:f0:1f:3d:0c:11:55:1e:9a:1a:d8:8d:bc:7b:18:
         b7:4f:92:1c:68:73:82:ec:f3:69:48:0a:86:40:4a:a5:6f:ae:
         8f:10:2e:12:0b:e8:7e:b9:bc:d7:26:f0:cf:f4:0f:5b:77:f2:
         ff:77:28:b4:5f:5e:ef:65:08:21:b8:f9:1e:56:b9:69:3b:c4:
         7f:01:88:c9:7c:ca:d0:e2:df:e5:5e:8d:e9:2e:7d:4a:78:04:
         8b:c1:dc:d4:58:ac:90:fc:5c:8e:48:2b:60:99:63:37:3f:e5:
         61:da:8f:58:9f:4d:0a:ee:6c:8d:bc:1f:7e:c4:be:0f:32:4b:
         11:7a:28:bf:dd:d0:a0:40:42:a8:43:4d:0b:2f:01:0e:73:de:
         1b:a6:df:49:57:58:89:57:c0:23:76:83:f0:9a:0e:83:d9:9b:
         cb:eb:ac:3f:89:d1:e8:3c:3e:f1:d5:80:0c:38:18:02:5c:5f:
         e5:68:5e:cf
-----BEGIN CERTIFICATE-----
MIIC9jCCAd6gAwIBAgICEAAwDQYJKoZIhvcNAQELBQAwHDEaMBgGA1UEAwwRQyBD
QSAtIE11bHRpLXJvb3QwHhcNMTYwMTA0MDAwMDAwWhcNMjYwMTAyMDAwMDAwWjAc
MRowGAYDVQQDDBFCIENBIC0gTXVsdGktcm9vdDCCASIwDQYJKoZIhvcNAQEBBQAD
ggEPADCCAQoCggEBAMrp8yH0oOe6gox/s5hEIEqai/nlDJnEInL3V3wezFZMw/X9
HpClHL8sxMQpKTjMJp4aHePk25dYNRTo4ts3BRwy97sZIsI3PwF2jBcjyvwQabTR
dCe2EH63wQeioa8YTVwuE3Kp+2Sx559JQTzcuF+U5mgFpR/IVoTi5WqEcZy4rD7s
jgzS8l8R/fR/QKc7CAG7/W/QqRYdFKEoIDCYuh4iTlsJucHfF2AbgEOXSWnNak5Y
CJzcKVc/G7/YXzKUrpey1I1QGtGLA4QA/YfZLu2RPT+3iVRGCs3bEGKAR2Ahsx0O
vEFNhtSdUhtTghqfRpGYHu2f2mkWZCQc3vizNGkCAwEAAaNCMEAwDwYDVR0TAQH/
BAUwAwEB/zAdBgNVHQ4EFgQUkMtT7jYKWrCTOMkRt6z9J3GZ3IEwDgYDVR0PAQH/
BAQDAgEGMA0GCSqGSIb3DQEBCwUAA4IBAQCXza5aJvQl9sCLCNjfgjXYdvNdzJm9
rHDJQeAkyP3mTkEs1GmNCCX98zI6WAvTWJyBUb+XpLwAGBxPHFQEY+Nyh/Tcnnvc
2l3h71lr8B89DBFVHpoa2I28exi3T5IcaHOC7PNpSAqGQEqlb66PEC4SC+h+ubzX
JvDP9A9bd/L/dyi0X17vZQghuPkeVrlpO8R/AYjJfMrQ4t/lXo3pLn1KeASLwdzU
WKyQ/FyOSCtgmWM3P+Vh2o9Yn00K7myNvB9+xL4PMksReii/3dCgQEKoQ00LLwEO
c94bpt9JV1iJV8AjdoPwmg6D2ZvL66w/idHoPD7x1YAMOBgCXF/laF7P
-----END CERTIFICATE-----
Certificate:
    Data:
        Version: 3 (0x2)
        Serial Number: 4097 (0x1001)
    Signature Algorithm: sha256WithRSAEncryption
        Issuer: CN=D Root CA - Multi-root
        Validity
            Not Before: Jan  3 00:00:00 2016 GMT
            Not After : Jan  2 00:00:00 2026 GMT
        Subject: CN=C CA - Multi-root
        Subject Public Key Info:
            Public Key Algorithm: rsaEncryption
                Public-Key: (2048 bit)
                Modulus:
                    00:b6:1f:67:e4:9e:db:e0:ff:eb:29:75:ee:68:a2:
                    4e:95:6e:d2:f6:9d:c9:b6:dc:08:18:70:b5:76:bf:
                    b7:14:8b:cb:46:c6:6a:2c:fa:43:f9:54:93:fa:bd:
                    aa:f0:ee:a3:20:5b:2a:cd:08:f7:be:95:36:e4:88:
                    f8:fd:43:7d:b8:f9:38:b4:d2:4e:22:0b:8b:85:de:
                    6a:fe:6f:da:3b:4b:0f:26:c1:f8:31:22:36:19:96:
                    0c:ef:85:7c:72:67:ac:4c:5c:f9:23:a4:29:d8:a5:
                    1c:b6:ec:95:eb:d3:c2:8d:cb:ae:9a:d7:08:c8:b7:
                    f7:a0:c6:28:44:5f:24:97:bd:ca:d9:6d:99:9b:17:
                    47:1f:38:b3:e3:67:6a:b4:75:d6:92:cd:67:62:20:
                    58:f0:a7:46:85:94:72:76:98:c5:ec:4c:75:1b:a1:
                    76:67:4b:1f:c8:23:6c:2a:78:66:c2:a7:6b:af:ef:
                    97:30:34:60:0a:db:98:94:3b:9f:95:3c:34:b6:35:
                    40:12:fa:1d:bf:66:f4:7b:fd:66:1a:2a:49:8c:24:
                    60:91:08:f9:61:39:f9:3b:29:98:64:7b:35:04:a9:
                    f5:af:8d:0f:1e:e7:28:b6:30:32:b4:5f:d4:29:16:
                    7a:70:8d:db:b9:ba:bf:eb:22:98:5d:94:c8:47:e3:
                    4b:11
                Exponent: 65537 (0x10001)
        X509v3 extensions:
            X509v3 Basic Constraints: critical
                CA:TRUE
            X509v3 Subject Key Identifier: 
                90:53:F5:80:11:F6:3F:1B:A8:9D:8D:75:0D:56:3B:F2:2B:C5:9C:44
            X509v3 Key Usage: critical
                Certificate Sign, CRL Sign
    Signature Algorithm: sha256WithRSAEncryption
         67:11:95:f4:b9:cb:47:e6:50:da:fd:a0:13:78:d7:e1:be:59:
         ec:86:32:e5:56:3e:9b:8f:db:b0:3b:93:fb:d0:6e:b3:de:7e:
         10:5b:b4:30:f7:02:e8:3f:ff:4e:91:3a:e8:b8:4a:94:5e:14:
         7b:f8:84:e5:1f:63:2c:b4:7f:4f:ee:b1:d5:ee:92:79:7d:63:
         87:a0:e9:57:14:57:11:59:18:54:8b:e3:d1:51:80:a7:2f:51:
         f2:6f:43:d2:87:e1:59:23:2c:fe:83:38:e1:25:da:b5:34:af:
         33:17:64:80:08:b6:bd:5f:92:05:2c:81:b0:c3:d3:80:cd:e1:
         5c:95:d2:ea:1e:d3:af:d9:93:c2:f4:23:ae:51:b0:a4:82:49:
         2d:ec:fe:d1:18:e3:a3:53:9f:63:4b:38:dc:54:25:ce:4c:90:
         37:02:e4:67:41:31:ba:7a:13:1a:68:1e:ed:34:0c:3d:66:ba:
         a3:3a:71:76:5f:5f:89:a1:cd:95:50:f6:5d:1f:c0:91:31:93:
         5b:58:af:e7:9b:21:e6:57:b1:f4:d7:dd:c1:84:25:5b:83:f7:
         5f:c9:89:17:5b:6f:54:f2:8b:ed:47:de:27:57:9e:e9:8c:b3:
         58:2c:c2:77:25:e1:eb:22:06:d1:f6:c5:f4:d7:1a:3d:00:1c:
         2e:85:e9:70
-----BEGIN CERTIFICATE-----
MIIC+zCCAeOgAwIBAgICEAEwDQYJKoZIhvcNAQELBQAwITEfMB0GA1UEAwwWRCBS
b290IENBIC0gTXVsdGktcm9vdDAeFw0xNjAxMDMwMDAwMDBaFw0yNjAxMDIwMDAw
MDBaMBwxGjAYBgNVBAMMEUMgQ0EgLSBNdWx0aS1yb290MIIBIjANBgkqhkiG9w0B
AQEFAAOCAQ8AMIIBCgKCAQEAth9n5J7b4P/rKXXuaKJOlW7S9p3JttwIGHC1dr+3
FIvLRsZqLPpD+VST+r2q8O6jIFsqzQj3vpU25Ij4/UN9uPk4tNJOIguLhd5q/m/a
O0sPJsH4MSI2GZYM74V8cmesTFz5I6Qp2KUctuyV69PCjcuumtcIyLf3oMYoRF8k
l73K2W2ZmxdHHziz42dqtHXWks1nYiBY8KdGhZRydpjF7Ex1G6F2Z0sfyCNsKnhm
wqdrr++XMDRgCtuYlDuflTw0tjVAEvodv2b0e/1mGipJjCRgkQj5YTn5OymYZHs1
BKn1r40PHucotjAytF/UKRZ6cI3bubq/6yKYXZTIR+NLEQIDAQABo0IwQDAPBgNV
HRMBAf8EBTADAQH/MB0GA1UdDgQWBBSQU/WAEfY/G6idjXUNVjvyK8WcRDAOBgNV
HQ8BAf8EBAMCAQYwDQYJKoZIhvcNAQELBQADggEBAGcRlfS5y0fmUNr9oBN41+G+
WeyGMuVWPpuP27A7k/vQbrPefhBbtDD3Aug//06ROui4SpReFHv4hOUfYyy0f0/u
sdXuknl9Y4eg6VcUVxFZGFSL49FRgKcvUfJvQ9KH4VkjLP6DOOEl2rU0rzMXZIAI
tr1fkgUsgbDD04DN4VyV0uoe06/Zk8L0I65RsKSCSS3s/tEY46NTn2NLONxUJc5M
kDcC5GdBMbp6ExpoHu00DD1muqM6cXZfX4mhzZVQ9l0fwJExk1tYr+ebIeZXsfTX
3cGEJVuD91/JiRdbb1Tyi+1H3idXnumMs1gswncl4esiBtH2xfTXGj0AHC6F6XA=
-----END CERTIFICATE-----
Certificate:
    Data:
        Version: 3 (0x2)
        Serial Number: 4096 (0x1000)
    Signature Algorithm: sha256WithRSAEncryption
        Issuer: CN=D Root CA - Multi-root
        Validity
            Not Before: Jan  2 00:00:00 2016 GMT
            Not After : Jan  2 00:00:00 2026 GMT
        Subject: CN=D Root CA - Multi-root
        Subject Public Key Info:
            Public Key Algorithm: rsaEncryption
                Public-Key: (2048 bit)
                Modulus:
                    00:cd:cf:d9:70:03:4f:4f:f1:9f:93:a1:2c:6e:cb:
                    2f:20:d7:67:29:ce:99:02:4e:db:7d:6b:5e:6a:3a:
                    a1:d2:7f:cd:f9:58:bd:34:fe:af:8d:8a:05:34:a2:
                    67:16:ae:94:88:3b:77:3f:f2:a0:a5:46:2e:05:2e:
                    b8:a7:2f:ff:e0:df:1d:b8:1e:31:6f:57:f9:aa:55:
                    9c:83:aa:04:94:cd:e4:0f:99:f4:74:c1:38:8d:4c:
                    90:67:ba:7e:92:42:59:ff:14:d6:4e:22:31:78:04:
                    89:63:7d:84:fa:60:e7:d2:0d:61:0b:d8:a5:20:b3:
                    8a:ce:f1:ef:b7:b0:b5:a6:81:d0:47:50:fb:5a:09:
                    34:e1:a0:e3:6b:cf:e8:26:38:4d:cb:70:ae:4c:96:
                    2c:9e:46:18:0c:e3:11:9f:8d:8a:65:c5:b1:03:5c:
                    61:d9:35:a8:5d:29:08:7c:45:2e:38:13:dc:b0:72:
                    a6:e6:29:04:85:6a:6d:fd:74:af:60:6c:24:51:e2:
                    3a:58:38:c1:0f:b2:4e:ac:8e:63:81:36:01:9f:02:
                    04:de:54:53:4c:fa:5f:67:44:db:f0:ed:ce:3f:f0:
                    5b:e7:75:b3:72:d5:e8:76:9c:24:73:2b:0c:d9:7c:
                    dd:85:a8:61:b9:42:d1:69:35:04:88:03:8a:c2:aa:
                    10:cb
                Exponent: 65537 (0x10001)
        X509v3 extensions:
            X509v3 Basic Constraints: critical
                CA:TRUE
            X509v3 Subject Key Identifier: 
                FA:45:82:63:D1:67:F2:93:F4:6A:6B:44:44:74:1A:D2:B0:CD:12:F6
            X509v3 Key Usage: critical
                Certificate Sign, CRL Sign
    Signature Algorithm: sha256WithRSAEncryption
         ac:1c:7c:de:1a:4a:31:54:77:c5:94:7d:6a:0b:9d:c2:c9:d4:
         3b:2d:71:e4:99:df:ca:02:5c:a0:1c:1c:22:7d:f2:a5:0e:97:
         7c:91:20:12:c5:b7:f5:56:15:8c:1b:44:b2:32:94:8b:e5:b1:
         c0:0b:f6:c0:b8:b4:cf:b9:27:d8:49:52:fc:81:9f:48:2a:08:
         b8:94:a1:3f:78:fe:20:66:f5:ed:3f:61:f6:f7:23:5c:4c:36:
         49:48:10:07:de:40:62:eb:3b:bb:6b:4b:8e:e4:a7:b3:75:33:
         2f:4d:11:58:76:1e:1c:d9:b9:dc:1c:33:da:82:2b:5f:fc:51:
         f1:26:35:7d:5e:eb:67:ba:da:2c:f2:d7:6e:88:b6:a1:34:ed:
         07:d2:a5:e4:ac:d6:9b:7c:6c:6e:77:aa:11:4e:d0:60:fa:86:
         94:a0:74:00:60:8b:1c:0b:3e:5d:05:c9:b9:8c:b4:6f:a5:e7:
         82:c0:6a:ef:60:73:de:1f:74:20:aa:67:c7:d9:c2:81:c7:4c:
         d7:c9:57:e4:7d:db:80:bd:7d:4f:39:a4:77:d3:2e:65:79:87:
         ae:05:f7:9c:28:ed:e8:4e:f6:ac:38:3f:8f:36:bb:ae:5e:42:
         71:d5:a9:5b:a7:df:42:9f:6b:e0:ec:3e:3b:6e:36:11:9b:34:
         a8:66:ff:d5
-----BEGIN CERTIFICATE-----
MIIDADCCAeigAwIBAgICEAAwDQYJKoZIhvcNAQELBQAwITEfMB0GA1UEAwwWRCBS
b290IENBIC0gTXVsdGktcm9vdDAeFw0xNjAxMDIwMDAwMDBaFw0yNjAxMDIwMDAw
MDBaMCExHzAdBgNVBAMMFkQgUm9vdCBDQSAtIE11bHRpLXJvb3QwggEiMA0GCSqG
SIb3DQEBAQUAA4IBDwAwggEKAoIBAQDNz9lwA09P8Z+ToSxuyy8g12cpzpkCTtt9
a15qOqHSf835WL00/q+NigU0omcWrpSIO3c/8qClRi4FLrinL//g3x24HjFvV/mq
VZyDqgSUzeQPmfR0wTiNTJBnun6SQln/FNZOIjF4BIljfYT6YOfSDWEL2KUgs4rO
8e+3sLWmgdBHUPtaCTThoONrz+gmOE3LcK5MliyeRhgM4xGfjYplxbEDXGHZNahd
KQh8RS44E9ywcqbmKQSFam39dK9gbCRR4jpYOMEPsk6sjmOBNgGfAgTeVFNM+l9n
RNvw7c4/8FvndbNy1eh2nCRzKwzZfN2FqGG5QtFpNQSIA4rCqhDLAgMBAAGjQjBA
MA8GA1UdEwEB/wQFMAMBAf8wHQYDVR0OBBYEFPpFgmPRZ/KT9GprRER0GtKwzRL2
MA4GA1UdDwEB/wQEAwIBBjANBgkqhkiG9w0BAQsFAAOCAQEArBx83hpKMVR3xZR9
agudwsnUOy1x5JnfygJcoBwcIn3ypQ6XfJEgEsW39VYVjBtEsjKUi+WxwAv2wLi0
z7kn2ElS/IGfSCoIuJShP3j+IGb17T9h9vcjXEw2SUgQB95AYus7u2tLjuSns3Uz
L00RWHYeHNm53Bwz2oIrX/xR8SY1fV7rZ7raLPLXboi2oTTtB9Kl5KzWm3xsbneq
EU7QYPqGlKB0AGCLHAs+XQXJuYy0b6XngsBq72Bz3h90IKpnx9nCgcdM18lX5H3b
gL19Tzmkd9MuZXmHrgX3nCjt6E72rDg/jza7rl5CcdWpW6ffQp9r4Ow+O242EZs0
qGb/1Q==
-----END CERTIFICATE-----
