Certificate:
    Data:
        Version: 3 (0x2)
        Serial Number: 4096 (0x1000)
    Signature Algorithm: sha256WithRSAEncryption
        Issuer: CN=B CA - Multi-root
        Validity
            Not Before: Mar 11 01:37:16 2016 GMT
            Not After : Mar  9 01:37:16 2026 GMT
        Subject: C=US, ST=California, L=Mountain View, O=Test CA, CN=127.0.0.1
        Subject Public Key Info:
            Public Key Algorithm: rsaEncryption
                Public-Key: (2048 bit)
                Modulus:
                    00:c8:27:1c:19:81:c0:a7:30:93:03:1c:f8:21:b8:
                    2f:8a:22:b4:89:0f:da:b1:40:95:df:dc:46:53:fc:
                    6f:36:26:66:5a:53:6d:45:78:c2:39:16:9a:3f:82:
                    8b:ba:c5:b0:78:a8:18:bc:d5:a7:92:a5:e6:ac:e2:
                    0c:81:d0:94:e5:0c:ec:5e:03:0c:17:c5:35:2a:7b:
                    ab:86:eb:bf:e8:62:0a:8f:b0:25:b2:70:f5:11:8c:
                    16:4f:c1:76:44:e5:75:e8:93:4f:e9:e7:c4:e4:42:
                    0a:08:be:73:2c:cb:8f:73:6a:40:77:eb:33:60:ac:
                    be:c5:27:fd:b1:4f:88:4b:15:af:98:fd:32:53:ae:
                    b0:2a:0c:b2:f5:05:f3:3a:06:0d:6e:5c:fe:83:fc:
                    e3:60:ae:99:8e:a1:21:c2:72:02:e6:f4:49:57:e6:
                    91:31:2e:be:92:a1:ad:f8:71:31:64:74:10:33:d0:
                    a7:0c:ed:18:c7:b2:50:71:fc:b9:b6:ae:95:a0:8d:
                    ac:1f:3c:d5:79:a7:a9:88:50:b6:02:cd:68:60:24:
                    45:9b:b6:e9:82:08:d9:9c:d4:7e:29:7d:2b:d9:ae:
                    57:7f:62:6a:56:96:8b:4a:33:9e:5f:93:82:b0:d1:
                    05:03:26:cd:15:f4:87:7f:6a:9a:df:e9:01:b5:d4:
                    c9:11
                Exponent: 65537 (0x10001)
        X509v3 extensions:
            X509v3 Basic Constraints: critical
                CA:FALSE
            X509v3 Subject Key Identifier: 
                FB:91:A9:5F:BC:27:81:98:55:30:BF:57:32:4D:B9:DA:56:DD:52:2C
            X509v3 Authority Key Identifier: 
                keyid:90:CB:53:EE:36:0A:5A:B0:93:38:C9:11:B7:AC:FD:27:71:99:DC:81

            X509v3 Extended Key Usage: 
                TLS Web Server Authentication, TLS Web Client Authentication
    Signature Algorithm: sha256WithRSAEncryption
         b9:31:7a:95:b2:ba:3a:b4:f1:16:76:df:eb:d5:b9:af:67:b1:
         9d:8a:27:04:9b:61:6f:42:3f:c2:b3:cd:65:c4:86:cb:90:fb:
         9d:3a:ed:fc:b8:74:da:d7:6a:6c:2f:17:68:d1:73:58:f1:a2:
         bb:8f:d6:b0:a8:7f:b6:a8:b0:74:d1:ea:c4:62:ed:bc:1e:ef:
         02:6b:d5:e8:2d:15:78:16:1e:90:fa:f4:29:5a:a8:43:ad:d2:
         58:40:b4:1c:60:4e:cd:bc:6f:1a:39:e4:46:b2:58:93:96:5a:
         a8:a4:c4:31:73:ed:89:c4:81:27:e1:4c:66:20:7c:27:c4:f9:
         61:ff:d1:d5:a5:02:93:4c:06:fa:15:33:7a:1f:5f:eb:29:b2:
         b5:6a:cd:7e:d6:d7:b7:51:a7:01:2f:22:9f:9e:7e:81:98:c4:
         72:11:36:2c:e7:c6:d0:f0:7d:98:36:ea:b7:a0:aa:13:8f:6e:
         ae:41:59:9b:e6:c9:bc:9c:e8:93:f5:0c:4e:ca:b4:dd:e3:01:
         fe:23:6e:fb:fa:b3:61:66:58:f5:fc:07:16:1d:a9:52:ec:a0:
         29:61:a4:39:ed:41:50:a3:a2:33:72:0e:3c:03:e1:0a:1a:1a:
         cf:22:73:09:d7:ea:e8:15:fc:73:3c:d4:4e:34:6c:b4:18:94:
         c4:d3:6e:12
-----BEGIN CERTIFICATE-----
MIIDZzCCAk+gAwIBAgICEAAwDQYJKoZIhvcNAQELBQAwHDEaMBgGA1UEAwwRQiBD
QSAtIE11bHRpLXJvb3QwHhcNMTYwMzExMDEzNzE2WhcNMjYwMzA5MDEzNzE2WjBg
MQswCQYDVQQGEwJVUzETMBEGA1UECAwKQ2FsaWZvcm5pYTEWMBQGA1UEBwwNTW91
bnRhaW4gVmlldzEQMA4GA1UECgwHVGVzdCBDQTESMBAGA1UEAwwJMTI3LjAuMC4x
MIIBIjANBgkqhkiG9w0BAQEFAAOCAQ8AMIIBCgKCAQEAyCccGYHApzCTAxz4Ibgv
iiK0iQ/asUCV39xGU/xvNiZmWlNtRXjCORaaP4KLusWweKgYvNWnkqXmrOIMgdCU
5QzsXgMMF8U1Knurhuu/6GIKj7AlsnD1EYwWT8F2ROV16JNP6efE5EIKCL5zLMuP
c2pAd+szYKy+xSf9sU+ISxWvmP0yU66wKgyy9QXzOgYNblz+g/zjYK6ZjqEhwnIC
5vRJV+aRMS6+kqGt+HExZHQQM9CnDO0Yx7JQcfy5tq6VoI2sHzzVeaepiFC2As1o
YCRFm7bpggjZnNR+KX0r2a5Xf2JqVpaLSjOeX5OCsNEFAybNFfSHf2qa3+kBtdTJ
EQIDAQABo28wbTAMBgNVHRMBAf8EAjAAMB0GA1UdDgQWBBT7kalfvCeBmFUwv1cy
TbnaVt1SLDAfBgNVHSMEGDAWgBSQy1PuNgpasJM4yRG3rP0ncZncgTAdBgNVHSUE
FjAUBggrBgEFBQcDAQYIKwYBBQUHAwIwDQYJKoZIhvcNAQELBQADggEBALkxepWy
ujq08RZ23+vVua9nsZ2KJwSbYW9CP8KzzWXEhsuQ+5067fy4dNrXamwvF2jRc1jx
oruP1rCof7aosHTR6sRi7bwe7wJr1egtFXgWHpD69ClaqEOt0lhAtBxgTs28bxo5
5EayWJOWWqikxDFz7YnEgSfhTGYgfCfE+WH/0dWlApNMBvoVM3ofX+spsrVqzX7W
17dRpwEvIp+efoGYxHIRNiznxtDwfZg26regqhOPbq5BWZvmybyc6JP1DE7KtN3j
Af4jbvv6s2FmWPX8BxYdqVLsoClhpDntQVCjojNyDjwD4QoaGs8icwnX6ugV/HM8
1E40bLQYlMTTbhI=
-----END CERTIFICATE-----
Certificate:
    Data:
        Version: 3 (0x2)
        Serial Number: 4096 (0x1000)
    Signature Algorithm: sha256WithRSAEncryption
        Issuer: CN=C CA - Multi-root
        Validity
            Not Before: Jan  4 00:00:00 2016 GMT
            Not After : Jan  2 00:00:00 2026 GMT
        Subject: CN=B CA - Multi-root
        Subject Public Key Info:
            Public Key Algorithm: rsaEncryption
                Public-Key: (2048 bit)
                Modulus:
                    00:ca:e9:f3:21:f4:a0:e7:ba:82:8c:7f:b3:98:44:
                    20:4a:9a:8b:f9:e5:0c:99:c4:22:72:f7:57:7c:1e:
                    cc:56:4c:c3:f5:fd:1e:90:a5:1c:bf:2c:c4:c4:29:
                    29:38:cc:26:9e:1a:1d:e3:e4:db:97:58:35:14:e8:
                    e2:db:37:05:1c:32:f7:bb:19:22:c2:37:3f:01:76:
                    8c:17:23:ca:fc:10:69:b4:d1:74:27:b6:10:7e:b7:
                    c1:07:a2:a1:af:18:4d:5c:2e:13:72:a9:fb:64:b1:
                    e7:9f:49:41:3c:dc:b8:5f:94:e6:68:05:a5:1f:c8:
                    56:84:e2:e5:6a:84:71:9c:b8:ac:3e:ec:8e:0c:d2:
                    f2:5f:11:fd:f4:7f:40:a7:3b:08:01:bb:fd:6f:d0:
                    a9:16:1d:14:a1:28:20:30:98:ba:1e:22:4e:5b:09:
                    b9:c1:df:17:60:1b:80:43:97:49:69:cd:6a:4e:58:
                    08:9c:dc:29:57:3f:1b:bf:d8:5f:32:94:ae:97:b2:
                    d4:8d:50:1a:d1:8b:03:84:00:fd:87:d9:2e:ed:91:
                    3d:3f:b7:89:54:46:0a:cd:db:10:62:80:47:60:21:
                    b3:1d:0e:bc:41:4d:86:d4:9d:52:1b:53:82:1a:9f:
                    46:91:98:1e:ed:9f:da:69:16:64:24:1c:de:f8:b3:
                    34:69
                Exponent: 65537 (0x10001)
        X509v3 extensions:
            X509v3 Basic Constraints: critical
                CA:TRUE
            X509v3 Subject Key Identifier: 
                90:CB:53:EE:36:0A:5A:B0:93:38:C9:11:B7:AC:FD:27:71:99:DC:81
            X509v3 Key Usage: critical
                Certificate Sign, CRL Sign
    Signature Algorithm: sha256WithRSAEncryption
         97:cd:ae:5a:26:f4:25:f6:c0:8b:08:d8:df:82:35:d8:76:f3:
         5d:cc:99:bd:ac:70:c9:41:e0:24:c8:fd:e6:4e:41:2c:d4:69:
         8d:08:25:fd:f3:32:3a:58:0b:d3:58:9c:81:51:bf:97:a4:bc:
         00:18:1c:4f:1c:54:04:63:e3:72:87:f4:dc:9e:7b:dc:da:5d:
         e1:ef:59:6b:f0:1f:3d:0c:11:55:1e:9a:1a:d8:8d:bc:7b:18:
         b7:4f:92:1c:68:73:82:ec:f3:69:48:0a:86:40:4a:a5:6f:ae:
         8f:10:2e:12:0b:e8:7e:b9:bc:d7:26:f0:cf:f4:0f:5b:77:f2:
         ff:77:28:b4:5f:5e:ef:65:08:21:b8:f9:1e:56:b9:69:3b:c4:
         7f:01:88:c9:7c:ca:d0:e2:df:e5:5e:8d:e9:2e:7d:4a:78:04:
         8b:c1:dc:d4:58:ac:90:fc:5c:8e:48:2b:60:99:63:37:3f:e5:
         61:da:8f:58:9f:4d:0a:ee:6c:8d:bc:1f:7e:c4:be:0f:32:4b:
         11:7a:28:bf:dd:d0:a0:40:42:a8:43:4d:0b:2f:01:0e:73:de:
         1b:a6:df:49:57:58:89:57:c0:23:76:83:f0:9a:0e:83:d9:9b:
         cb:eb:ac:3f:89:d1:e8:3c:3e:f1:d5:80:0c:38:18:02:5c:5f:
         e5:68:5e:cf
-----BEGIN CERTIFICATE-----
MIIC9jCCAd6gAwIBAgICEAAwDQYJKoZIhvcNAQELBQAwHDEaMBgGA1UEAwwRQyBD
QSAtIE11bHRpLXJvb3QwHhcNMTYwMTA0MDAwMDAwWhcNMjYwMTAyMDAwMDAwWjAc
MRowGAYDVQQDDBFCIENBIC0gTXVsdGktcm9vdDCCASIwDQYJKoZIhvcNAQEBBQAD
ggEPADCCAQoCggEBAMrp8yH0oOe6gox/s5hEIEqai/nlDJnEInL3V3wezFZMw/X9
HpClHL8sxMQpKTjMJp4aHePk25dYNRTo4ts3BRwy97sZIsI3PwF2jBcjyvwQabTR
dCe2EH63wQeioa8YTVwuE3Kp+2Sx559JQTzcuF+U5mgFpR/IVoTi5WqEcZy4rD7s
jgzS8l8R/fR/QKc7CAG7/W/QqRYdFKEoIDCYuh4iTlsJucHfF2AbgEOXSWnNak5Y
CJzcKVc/G7/YXzKUrpey1I1QGtGLA4QA/YfZLu2RPT+3iVRGCs3bEGKAR2Ahsx0O
vEFNhtSdUhtTghqfRpGYHu2f2mkWZCQc3vizNGkCAwEAAaNCMEAwDwYDVR0TAQH/
BAUwAwEB/zAdBgNVHQ4EFgQUkMtT7jYKWrCTOMkRt6z9J3GZ3IEwDgYDVR0PAQH/
BAQDAgEGMA0GCSqGSIb3DQEBCwUAA4IBAQCXza5aJvQl9sCLCNjfgjXYdvNdzJm9
rHDJQeAkyP3mTkEs1GmNCCX98zI6WAvTWJyBUb+XpLwAGBxPHFQEY+Nyh/Tcnnvc
2l3h71lr8B89DBFVHpoa2I28exi3T5IcaHOC7PNpSAqGQEqlb66PEC4SC+h+ubzX
JvDP9A9bd/L/dyi0X17vZQghuPkeVrlpO8R/AYjJfMrQ4t/lXo3pLn1KeASLwdzU
WKyQ/FyOSCtgmWM3P+Vh2o9Yn00K7myNvB9+xL4PMksReii/3dCgQEKoQ00LLwEO
c94bpt9JV1iJV8AjdoPwmg6D2ZvL66w/idHoPD7x1YAMOBgCXF/laF7P
-----END CERTIFICATE-----
Certificate:
    Data:
        Version: 3 (0x2)
        Serial Number: 4097 (0x1001)
    Signature Algorithm: sha256WithRSAEncryption
        Issuer: CN=E Root CA - Multi-root
        Validity
            Not Before: Jan  5 00:00:00 2016 GMT
            Not After : Jan  2 00:00:00 2026 GMT
        Subject: CN=C CA - Multi-root
        Subject Public Key Info:
            Public Key Algorithm: rsaEncryption
                Public-Key: (2048 bit)
                Modulus:
                    00:b6:1f:67:e4:9e:db:e0:ff:eb:29:75:ee:68:a2:
                    4e:95:6e:d2:f6:9d:c9:b6:dc:08:18:70:b5:76:bf:
                    b7:14:8b:cb:46:c6:6a:2c:fa:43:f9:54:93:fa:bd:
                    aa:f0:ee:a3:20:5b:2a:cd:08:f7:be:95:36:e4:88:
                    f8:fd:43:7d:b8:f9:38:b4:d2:4e:22:0b:8b:85:de:
                    6a:fe:6f:da:3b:4b:0f:26:c1:f8:31:22:36:19:96:
                    0c:ef:85:7c:72:67:ac:4c:5c:f9:23:a4:29:d8:a5:
                    1c:b6:ec:95:eb:d3:c2:8d:cb:ae:9a:d7:08:c8:b7:
                    f7:a0:c6:28:44:5f:24:97:bd:ca:d9:6d:99:9b:17:
                    47:1f:38:b3:e3:67:6a:b4:75:d6:92:cd:67:62:20:
                    58:f0:a7:46:85:94:72:76:98:c5:ec:4c:75:1b:a1:
                    76:67:4b:1f:c8:23:6c:2a:78:66:c2:a7:6b:af:ef:
                    97:30:34:60:0a:db:98:94:3b:9f:95:3c:34:b6:35:
                    40:12:fa:1d:bf:66:f4:7b:fd:66:1a:2a:49:8c:24:
                    60:91:08:f9:61:39:f9:3b:29:98:64:7b:35:04:a9:
                    f5:af:8d:0f:1e:e7:28:b6:30:32:b4:5f:d4:29:16:
                    7a:70:8d:db:b9:ba:bf:eb:22:98:5d:94:c8:47:e3:
                    4b:11
                Exponent: 65537 (0x10001)
        X509v3 extensions:
            X509v3 Basic Constraints: critical
                CA:TRUE
            X509v3 Subject Key Identifier: 
                90:53:F5:80:11:F6:3F:1B:A8:9D:8D:75:0D:56:3B:F2:2B:C5:9C:44
            X509v3 Key Usage: critical
                Certificate Sign, CRL Sign
    Signature Algorithm: sha256WithRSAEncryption
         43:35:08:cc:aa:f8:10:9f:9e:fa:ab:24:dc:c6:e6:9a:23:52:
         c9:4c:81:33:ba:64:b2:86:a8:29:f4:1f:5a:fa:5a:c4:91:56:
         16:d1:f9:84:96:89:8c:ac:1f:b6:ea:2f:cb:12:f4:92:ed:3b:
         85:09:eb:f3:7a:2e:09:39:ec:ee:09:4b:fa:86:3e:62:40:0e:
         57:72:07:de:fa:53:45:ac:40:1c:0d:0b:4a:67:9a:f7:39:ce:
         33:5e:d0:17:0b:8a:83:ae:33:6f:96:c0:f0:7a:ac:07:36:c5:
         86:a9:db:93:aa:2e:fa:71:d1:1a:dd:82:2a:f8:1c:30:2a:b9:
         7d:29:fa:75:62:76:7c:15:15:75:af:78:6c:7c:53:ae:2e:80:
         14:0d:0b:eb:0f:b1:6d:fa:df:72:0b:6f:f0:90:96:18:71:df:
         76:1d:8c:f1:d5:c0:4f:ab:38:1a:eb:e6:a1:dd:1d:dc:60:d4:
         da:7f:40:db:17:fc:4a:56:65:3a:86:60:83:87:b3:f6:3b:a8:
         85:ac:2b:14:c2:26:77:8f:ee:a4:6f:11:f2:27:08:3f:bf:86:
         4a:e3:bd:ef:6b:51:ec:72:a7:51:08:47:16:f8:d3:d7:b1:8d:
         a1:b1:ca:d3:cd:fd:56:0a:2c:2f:62:27:8c:e1:ff:88:83:ff:
         83:ab:87:70
-----BEGIN CERTIFICATE-----
MIIC+zCCAeOgAwIBAgICEAEwDQYJKoZIhvcNAQELBQAwITEfMB0GA1UEAwwWRSBS
b290IENBIC0gTXVsdGktcm9vdDAeFw0xNjAxMDUwMDAwMDBaFw0yNjAxMDIwMDAw
MDBaMBwxGjAYBgNVBAMMEUMgQ0EgLSBNdWx0aS1yb290MIIBIjANBgkqhkiG9w0B
AQEFAAOCAQ8AMIIBCgKCAQEAth9n5J7b4P/rKXXuaKJOlW7S9p3JttwIGHC1dr+3
FIvLRsZqLPpD+VST+r2q8O6jIFsqzQj3vpU25Ij4/UN9uPk4tNJOIguLhd5q/m/a
O0sPJsH4MSI2GZYM74V8cmesTFz5I6Qp2KUctuyV69PCjcuumtcIyLf3oMYoRF8k
l73K2W2ZmxdHHziz42dqtHXWks1nYiBY8KdGhZRydpjF7Ex1G6F2Z0sfyCNsKnhm
wqdrr++XMDRgCtuYlDuflTw0tjVAEvodv2b0e/1mGipJjCRgkQj5YTn5OymYZHs1
BKn1r40PHucotjAytF/UKRZ6cI3bubq/6yKYXZTIR+NLEQIDAQABo0IwQDAPBgNV
HRMBAf8EBTADAQH/MB0GA1UdDgQWBBSQU/WAEfY/G6idjXUNVjvyK8WcRDAOBgNV
HQ8BAf8EBAMCAQYwDQYJKoZIhvcNAQELBQADggEBAEM1CMyq+BCfnvqrJNzG5poj
UslMgTO6ZLKGqCn0H1r6WsSRVhbR+YSWiYysH7bqL8sS9JLtO4UJ6/N6Lgk57O4J
S/qGPmJADldyB976U0WsQBwNC0pnmvc5zjNe0BcLioOuM2+WwPB6rAc2xYap25Oq
Lvpx0Rrdgir4HDAquX0p+nVidnwVFXWveGx8U64ugBQNC+sPsW3633ILb/CQlhhx
33YdjPHVwE+rOBrr5qHdHdxg1Np/QNsX/EpWZTqGYIOHs/Y7qIWsKxTCJneP7qRv
EfInCD+/hkrjve9rUexyp1EIRxb409exjaGxytPN/VYKLC9iJ4zh/4iD/4Orh3A=
-----END CERTIFICATE-----
Certificate:
    Data:
        Version: 3 (0x2)
        Serial Number: 4096 (0x1000)
    Signature Algorithm: sha256WithRSAEncryption
        Issuer: CN=E Root CA - Multi-root
        Validity
            Not Before: Jan  2 00:00:00 2016 GMT
            Not After : Jan  2 00:00:00 2026 GMT
        Subject: CN=E Root CA - Multi-root
        Subject Public Key Info:
            Public Key Algorithm: rsaEncryption
                Public-Key: (2048 bit)
                Modulus:
                    00:b5:60:cb:b4:84:ab:6c:ba:59:52:a9:4c:6a:85:
                    41:f2:41:17:49:40:3f:3e:e8:70:5c:05:df:dd:64:
                    9e:fc:be:fb:38:ef:5d:67:ab:0e:de:9c:ea:ad:91:
                    e1:f4:db:8b:f4:c0:e6:d0:ad:e2:83:15:01:aa:49:
                    42:97:ae:72:7b:78:e3:20:4e:7e:29:ee:b5:35:6b:
                    c4:af:d4:54:b0:86:2f:a9:09:a7:3b:8c:05:9e:fd:
                    b4:b8:1f:3a:aa:d5:b5:d2:91:0f:50:e9:d2:1e:62:
                    1c:c1:30:07:41:aa:bd:c2:11:3f:cc:c8:0f:a9:7e:
                    81:69:52:96:86:2a:07:63:7b:f0:23:9e:db:27:88:
                    8c:dc:aa:8c:66:dd:35:3a:08:60:37:36:41:34:f5:
                    48:69:23:1a:5b:18:a7:ec:df:68:0a:3c:19:fb:92:
                    b7:fa:53:9b:f3:70:b6:0d:4c:cb:2f:b7:0e:7e:5f:
                    94:8c:a3:71:66:09:be:0d:af:db:52:f6:82:3f:88:
                    64:72:cc:19:79:f4:7b:4d:6e:50:dc:93:88:d5:29:
                    8a:e1:c8:1f:32:71:9f:d9:0e:14:31:f8:94:11:23:
                    b1:bf:64:eb:27:3a:64:fb:77:ee:40:8c:a7:03:ed:
                    1d:ec:8f:ee:25:58:f0:26:91:3c:f8:28:a1:7a:45:
                    9f:13
                Exponent: 65537 (0x10001)
        X509v3 extensions:
            X509v3 Basic Constraints: critical
                CA:TRUE
            X509v3 Subject Key Identifier: 
                51:68:BC:D9:1B:1D:7F:8E:0D:4A:33:39:2D:A4:1F:14:29:92:70:8E
            X509v3 Key Usage: critical
                Certificate Sign, CRL Sign
    Signature Algorithm: sha256WithRSAEncryption
         2d:d4:56:d9:90:bb:62:64:66:78:6d:cd:73:26:cc:42:ce:37:
         f4:bf:e8:8f:e7:1e:00:cb:c2:bd:54:33:0b:a8:e2:04:e1:5f:
         59:2a:1a:41:70:0f:d6:32:5f:d0:14:86:fa:e2:a7:19:29:49:
         77:56:b9:d7:e6:eb:39:61:e4:25:67:22:eb:f8:46:86:b7:6b:
         7d:44:01:0b:18:cb:ba:e5:af:76:ab:c6:fe:43:6c:d8:f6:33:
         f7:86:0b:22:da:27:78:91:07:55:3f:b2:c5:1e:10:88:09:b3:
         cf:22:c6:7e:8f:c6:d0:c5:ec:67:90:72:8b:2b:c4:46:81:2c:
         82:d1:5c:57:4e:d5:af:c4:d2:d8:b2:a7:91:1a:42:b3:57:bc:
         4e:81:5e:cf:91:af:da:f1:53:29:de:31:6b:d3:69:a4:4d:a9:
         14:15:96:51:7d:0d:bd:28:11:03:71:d2:85:11:92:1d:96:1a:
         12:33:0c:4b:cf:c4:40:19:fb:eb:6a:fe:9b:e7:2d:cd:f7:75:
         a3:66:4e:a6:7d:8e:8c:2e:5d:b8:2c:a8:5e:d7:42:1b:97:00:
         ba:12:41:8c:9b:f1:ed:91:49:63:5a:11:0d:e4:7d:f0:dc:36:
         23:0b:1b:e8:5f:be:1f:6d:a7:aa:bb:30:76:e2:36:b2:5a:68:
         80:f5:75:7e
-----BEGIN CERTIFICATE-----
MIIDADCCAeigAwIBAgICEAAwDQYJKoZIhvcNAQELBQAwITEfMB0GA1UEAwwWRSBS
b290IENBIC0gTXVsdGktcm9vdDAeFw0xNjAxMDIwMDAwMDBaFw0yNjAxMDIwMDAw
MDBaMCExHzAdBgNVBAMMFkUgUm9vdCBDQSAtIE11bHRpLXJvb3QwggEiMA0GCSqG
SIb3DQEBAQUAA4IBDwAwggEKAoIBAQC1YMu0hKtsullSqUxqhUHyQRdJQD8+6HBc
Bd/dZJ78vvs4711nqw7enOqtkeH024v0wObQreKDFQGqSUKXrnJ7eOMgTn4p7rU1
a8Sv1FSwhi+pCac7jAWe/bS4Hzqq1bXSkQ9Q6dIeYhzBMAdBqr3CET/MyA+pfoFp
UpaGKgdje/AjntsniIzcqoxm3TU6CGA3NkE09UhpIxpbGKfs32gKPBn7krf6U5vz
cLYNTMsvtw5+X5SMo3FmCb4Nr9tS9oI/iGRyzBl59HtNblDck4jVKYrhyB8ycZ/Z
DhQx+JQRI7G/ZOsnOmT7d+5AjKcD7R3sj+4lWPAmkTz4KKF6RZ8TAgMBAAGjQjBA
MA8GA1UdEwEB/wQFMAMBAf8wHQYDVR0OBBYEFFFovNkbHX+ODUozOS2kHxQpknCO
MA4GA1UdDwEB/wQEAwIBBjANBgkqhkiG9w0BAQsFAAOCAQEALdRW2ZC7YmRmeG3N
cybMQs439L/oj+ceAMvCvVQzC6jiBOFfWSoaQXAP1jJf0BSG+uKnGSlJd1a51+br
OWHkJWci6/hGhrdrfUQBCxjLuuWvdqvG/kNs2PYz94YLItoneJEHVT+yxR4QiAmz
zyLGfo/G0MXsZ5ByiyvERoEsgtFcV07Vr8TS2LKnkRpCs1e8ToFez5Gv2vFTKd4x
a9NppE2pFBWWUX0NvSgRA3HShRGSHZYaEjMMS8/EQBn762r+m+ctzfd1o2ZOpn2O
jC5duCyoXtdCG5cAuhJBjJvx7ZFJY1oRDeR98Nw2Iwsb6F++H22nqrswduI2slpo
gPV1fg==
-----END CERTIFICATE-----
