Certificate:
    Data:
        Version: 3 (0x2)
        Serial Number: 4097 (0x1001)
    Signature Algorithm: sha256WithRSAEncryption
        Issuer: CN=E Root CA - Multi-root
        Validity
            Not Before: Jan  5 00:00:00 2016 GMT
            Not After : Jan  2 00:00:00 2026 GMT
        Subject: CN=C CA - Multi-root
        Subject Public Key Info:
            Public Key Algorithm: rsaEncryption
                Public-Key: (2048 bit)
                Modulus:
                    00:b6:1f:67:e4:9e:db:e0:ff:eb:29:75:ee:68:a2:
                    4e:95:6e:d2:f6:9d:c9:b6:dc:08:18:70:b5:76:bf:
                    b7:14:8b:cb:46:c6:6a:2c:fa:43:f9:54:93:fa:bd:
                    aa:f0:ee:a3:20:5b:2a:cd:08:f7:be:95:36:e4:88:
                    f8:fd:43:7d:b8:f9:38:b4:d2:4e:22:0b:8b:85:de:
                    6a:fe:6f:da:3b:4b:0f:26:c1:f8:31:22:36:19:96:
                    0c:ef:85:7c:72:67:ac:4c:5c:f9:23:a4:29:d8:a5:
                    1c:b6:ec:95:eb:d3:c2:8d:cb:ae:9a:d7:08:c8:b7:
                    f7:a0:c6:28:44:5f:24:97:bd:ca:d9:6d:99:9b:17:
                    47:1f:38:b3:e3:67:6a:b4:75:d6:92:cd:67:62:20:
                    58:f0:a7:46:85:94:72:76:98:c5:ec:4c:75:1b:a1:
                    76:67:4b:1f:c8:23:6c:2a:78:66:c2:a7:6b:af:ef:
                    97:30:34:60:0a:db:98:94:3b:9f:95:3c:34:b6:35:
                    40:12:fa:1d:bf:66:f4:7b:fd:66:1a:2a:49:8c:24:
                    60:91:08:f9:61:39:f9:3b:29:98:64:7b:35:04:a9:
                    f5:af:8d:0f:1e:e7:28:b6:30:32:b4:5f:d4:29:16:
                    7a:70:8d:db:b9:ba:bf:eb:22:98:5d:94:c8:47:e3:
                    4b:11
                Exponent: 65537 (0x10001)
        X509v3 extensions:
            X509v3 Basic Constraints: critical
                CA:TRUE
            X509v3 Subject Key Identifier: 
                90:53:F5:80:11:F6:3F:1B:A8:9D:8D:75:0D:56:3B:F2:2B:C5:9C:44
            X509v3 Key Usage: critical
                Certificate Sign, CRL Sign
    Signature Algorithm: sha256WithRSAEncryption
         43:35:08:cc:aa:f8:10:9f:9e:fa:ab:24:dc:c6:e6:9a:23:52:
         c9:4c:81:33:ba:64:b2:86:a8:29:f4:1f:5a:fa:5a:c4:91:56:
         16:d1:f9:84:96:89:8c:ac:1f:b6:ea:2f:cb:12:f4:92:ed:3b:
         85:09:eb:f3:7a:2e:09:39:ec:ee:09:4b:fa:86:3e:62:40:0e:
         57:72:07:de:fa:53:45:ac:40:1c:0d:0b:4a:67:9a:f7:39:ce:
         33:5e:d0:17:0b:8a:83:ae:33:6f:96:c0:f0:7a:ac:07:36:c5:
         86:a9:db:93:aa:2e:fa:71:d1:1a:dd:82:2a:f8:1c:30:2a:b9:
         7d:29:fa:75:62:76:7c:15:15:75:af:78:6c:7c:53:ae:2e:80:
         14:0d:0b:eb:0f:b1:6d:fa:df:72:0b:6f:f0:90:96:18:71:df:
         76:1d:8c:f1:d5:c0:4f:ab:38:1a:eb:e6:a1:dd:1d:dc:60:d4:
         da:7f:40:db:17:fc:4a:56:65:3a:86:60:83:87:b3:f6:3b:a8:
         85:ac:2b:14:c2:26:77:8f:ee:a4:6f:11:f2:27:08:3f:bf:86:
         4a:e3:bd:ef:6b:51:ec:72:a7:51:08:47:16:f8:d3:d7:b1:8d:
         a1:b1:ca:d3:cd:fd:56:0a:2c:2f:62:27:8c:e1:ff:88:83:ff:
         83:ab:87:70
-----BEGIN CERTIFICATE-----
MIIC+zCCAeOgAwIBAgICEAEwDQYJKoZIhvcNAQELBQAwITEfMB0GA1UEAwwWRSBS
b290IENBIC0gTXVsdGktcm9vdDAeFw0xNjAxMDUwMDAwMDBaFw0yNjAxMDIwMDAw
MDBaMBwxGjAYBgNVBAMMEUMgQ0EgLSBNdWx0aS1yb290MIIBIjANBgkqhkiG9w0B
AQEFAAOCAQ8AMIIBCgKCAQEAth9n5J7b4P/rKXXuaKJOlW7S9p3JttwIGHC1dr+3
FIvLRsZqLPpD+VST+r2q8O6jIFsqzQj3vpU25Ij4/UN9uPk4tNJOIguLhd5q/m/a
O0sPJsH4MSI2GZYM74V8cmesTFz5I6Qp2KUctuyV69PCjcuumtcIyLf3oMYoRF8k
l73K2W2ZmxdHHziz42dqtHXWks1nYiBY8KdGhZRydpjF7Ex1G6F2Z0sfyCNsKnhm
wqdrr++XMDRgCtuYlDuflTw0tjVAEvodv2b0e/1mGipJjCRgkQj5YTn5OymYZHs1
BKn1r40PHucotjAytF/UKRZ6cI3bubq/6yKYXZTIR+NLEQIDAQABo0IwQDAPBgNV
HRMBAf8EBTADAQH/MB0GA1UdDgQWBBSQU/WAEfY/G6idjXUNVjvyK8WcRDAOBgNV
HQ8BAf8EBAMCAQYwDQYJKoZIhvcNAQELBQADggEBAEM1CMyq+BCfnvqrJNzG5poj
UslMgTO6ZLKGqCn0H1r6WsSRVhbR+YSWiYysH7bqL8sS9JLtO4UJ6/N6Lgk57O4J
S/qGPmJADldyB976U0WsQBwNC0pnmvc5zjNe0BcLioOuM2+WwPB6rAc2xYap25Oq
Lvpx0Rrdgir4HDAquX0p+nVidnwVFXWveGx8U64ugBQNC+sPsW3633ILb/CQlhhx
33YdjPHVwE+rOBrr5qHdHdxg1Np/QNsX/EpWZTqGYIOHs/Y7qIWsKxTCJneP7qRv
EfInCD+/hkrjve9rUexyp1EIRxb409exjaGxytPN/VYKLC9iJ4zh/4iD/4Orh3A=
-----END CERTIFICATE-----
