Certificate:
    Data:
        Version: 3 (0x2)
        Serial Number: 4096 (0x1000)
    Signature Algorithm: sha256WithRSAEncryption
        Issuer: CN=C CA - Multi-root
        Validity
            Not Before: Jan  4 00:00:00 2016 GMT
            Not After : Jan  2 00:00:00 2026 GMT
        Subject: CN=B CA - Multi-root
        Subject Public Key Info:
            Public Key Algorithm: rsaEncryption
                Public-Key: (2048 bit)
                Modulus:
                    00:ca:e9:f3:21:f4:a0:e7:ba:82:8c:7f:b3:98:44:
                    20:4a:9a:8b:f9:e5:0c:99:c4:22:72:f7:57:7c:1e:
                    cc:56:4c:c3:f5:fd:1e:90:a5:1c:bf:2c:c4:c4:29:
                    29:38:cc:26:9e:1a:1d:e3:e4:db:97:58:35:14:e8:
                    e2:db:37:05:1c:32:f7:bb:19:22:c2:37:3f:01:76:
                    8c:17:23:ca:fc:10:69:b4:d1:74:27:b6:10:7e:b7:
                    c1:07:a2:a1:af:18:4d:5c:2e:13:72:a9:fb:64:b1:
                    e7:9f:49:41:3c:dc:b8:5f:94:e6:68:05:a5:1f:c8:
                    56:84:e2:e5:6a:84:71:9c:b8:ac:3e:ec:8e:0c:d2:
                    f2:5f:11:fd:f4:7f:40:a7:3b:08:01:bb:fd:6f:d0:
                    a9:16:1d:14:a1:28:20:30:98:ba:1e:22:4e:5b:09:
                    b9:c1:df:17:60:1b:80:43:97:49:69:cd:6a:4e:58:
                    08:9c:dc:29:57:3f:1b:bf:d8:5f:32:94:ae:97:b2:
                    d4:8d:50:1a:d1:8b:03:84:00:fd:87:d9:2e:ed:91:
                    3d:3f:b7:89:54:46:0a:cd:db:10:62:80:47:60:21:
                    b3:1d:0e:bc:41:4d:86:d4:9d:52:1b:53:82:1a:9f:
                    46:91:98:1e:ed:9f:da:69:16:64:24:1c:de:f8:b3:
                    34:69
                Exponent: 65537 (0x10001)
        X509v3 extensions:
            X509v3 Basic Constraints: critical
                CA:TRUE
            X509v3 Subject Key Identifier: 
                90:CB:53:EE:36:0A:5A:B0:93:38:C9:11:B7:AC:FD:27:71:99:DC:81
            X509v3 Key Usage: critical
                Certificate Sign, CRL Sign
    Signature Algorithm: sha256WithRSAEncryption
         97:cd:ae:5a:26:f4:25:f6:c0:8b:08:d8:df:82:35:d8:76:f3:
         5d:cc:99:bd:ac:70:c9:41:e0:24:c8:fd:e6:4e:41:2c:d4:69:
         8d:08:25:fd:f3:32:3a:58:0b:d3:58:9c:81:51:bf:97:a4:bc:
         00:18:1c:4f:1c:54:04:63:e3:72:87:f4:dc:9e:7b:dc:da:5d:
         e1:ef:59:6b:f0:1f:3d:0c:11:55:1e:9a:1a:d8:8d:bc:7b:18:
         b7:4f:92:1c:68:73:82:ec:f3:69:48:0a:86:40:4a:a5:6f:ae:
         8f:10:2e:12:0b:e8:7e:b9:bc:d7:26:f0:cf:f4:0f:5b:77:f2:
         ff:77:28:b4:5f:5e:ef:65:08:21:b8:f9:1e:56:b9:69:3b:c4:
         7f:01:88:c9:7c:ca:d0:e2:df:e5:5e:8d:e9:2e:7d:4a:78:04:
         8b:c1:dc:d4:58:ac:90:fc:5c:8e:48:2b:60:99:63:37:3f:e5:
         61:da:8f:58:9f:4d:0a:ee:6c:8d:bc:1f:7e:c4:be:0f:32:4b:
         11:7a:28:bf:dd:d0:a0:40:42:a8:43:4d:0b:2f:01:0e:73:de:
         1b:a6:df:49:57:58:89:57:c0:23:76:83:f0:9a:0e:83:d9:9b:
         cb:eb:ac:3f:89:d1:e8:3c:3e:f1:d5:80:0c:38:18:02:5c:5f:
         e5:68:5e:cf
-----BEGIN CERTIFICATE-----
MIIC9jCCAd6gAwIBAgICEAAwDQYJKoZIhvcNAQELBQAwHDEaMBgGA1UEAwwRQyBD
QSAtIE11bHRpLXJvb3QwHhcNMTYwMTA0MDAwMDAwWhcNMjYwMTAyMDAwMDAwWjAc
MRowGAYDVQQDDBFCIENBIC0gTXVsdGktcm9vdDCCASIwDQYJKoZIhvcNAQEBBQAD
ggEPADCCAQoCggEBAMrp8yH0oOe6gox/s5hEIEqai/nlDJnEInL3V3wezFZMw/X9
HpClHL8sxMQpKTjMJp4aHePk25dYNRTo4ts3BRwy97sZIsI3PwF2jBcjyvwQabTR
dCe2EH63wQeioa8YTVwuE3Kp+2Sx559JQTzcuF+U5mgFpR/IVoTi5WqEcZy4rD7s
jgzS8l8R/fR/QKc7CAG7/W/QqRYdFKEoIDCYuh4iTlsJucHfF2AbgEOXSWnNak5Y
CJzcKVc/G7/YXzKUrpey1I1QGtGLA4QA/YfZLu2RPT+3iVRGCs3bEGKAR2Ahsx0O
vEFNhtSdUhtTghqfRpGYHu2f2mkWZCQc3vizNGkCAwEAAaNCMEAwDwYDVR0TAQH/
BAUwAwEB/zAdBgNVHQ4EFgQUkMtT7jYKWrCTOMkRt6z9J3GZ3IEwDgYDVR0PAQH/
BAQDAgEGMA0GCSqGSIb3DQEBCwUAA4IBAQCXza5aJvQl9sCLCNjfgjXYdvNdzJm9
rHDJQeAkyP3mTkEs1GmNCCX98zI6WAvTWJyBUb+XpLwAGBxPHFQEY+Nyh/Tcnnvc
2l3h71lr8B89DBFVHpoa2I28exi3T5IcaHOC7PNpSAqGQEqlb66PEC4SC+h+ubzX
JvDP9A9bd/L/dyi0X17vZQghuPkeVrlpO8R/AYjJfMrQ4t/lXo3pLn1KeASLwdzU
WKyQ/FyOSCtgmWM3P+Vh2o9Yn00K7myNvB9+xL4PMksReii/3dCgQEKoQ00LLwEO
c94bpt9JV1iJV8AjdoPwmg6D2ZvL66w/idHoPD7x1YAMOBgCXF/laF7P
-----END CERTIFICATE-----
