-----BEGIN RSA PRIVATE KEY-----
MIIEowIBAAKCAQEAyCccGYHApzCTAxz4IbgviiK0iQ/asUCV39xGU/xvNiZmWlNt
RXjCORaaP4KLusWweKgYvNWnkqXmrOIMgdCU5QzsXgMMF8U1Knurhuu/6GIKj7Al
snD1EYwWT8F2ROV16JNP6efE5EIKCL5zLMuPc2pAd+szYKy+xSf9sU+ISxWvmP0y
U66wKgyy9QXzOgYNblz+g/zjYK6ZjqEhwnIC5vRJV+aRMS6+kqGt+HExZHQQM9Cn
DO0Yx7JQcfy5tq6VoI2sHzzVeaepiFC2As1oYCRFm7bpggjZnNR+KX0r2a5Xf2Jq
VpaLSjOeX5OCsNEFAybNFfSHf2qa3+kBtdTJEQIDAQABAoIBAHadrupy2fB7OfSz
W13oYMwVazZ7HdjD9M45JbiqNmI5+Zh4Lp7oRPo+KeWPgS2L8NxgimCGogunpAA6
6ryYF1VzBjVkyurfZXWq2ulXl2Cpkaa79ms8xA/FHIfhmCyWa/0MKGTvhODdPkMW
Uv1uGbKFenVW/xjA50HCRHerMZOE1yBaBzrAOGqLm4E/7snbZJ3K5Sx88mu9vAnA
LBHMiqYwf4E9TJW+2AzDtlTI02/UbcQc4MDgRJc1YQSPz4pdtKbA3IvdDhXdsDCr
Tum2gCpeUZS4zmXW6NcOBAHvrLdU8sEsodALCZ58hwkTU9YlqKyYE+DbuDd+3H5a
3WIQbb0CgYEA6ZoLha/chlExbXr/5VcmiDfX/IRjAebG7uHMGC+QlSMxNxUGCuge
kvw5+AkSsKdwHeSgr426SF3gPAwafK5KiTO4NoaD2pXFOvu5Z0Mpw4iT3kdTk/iO
o2zTz4abEA0kQaqlhIbD5RrI5zU3K49BH8CkS+Kr5mCqtPu2b1aDac8CgYEA21gH
/R1eTo4/0lBt+P4+4w8RMtt5Ky6rsZzSC87zJKznAKoGmo2rWCQKcxbZntznsuW3
LN5MPYXXKqugp3fXebnRJYwBBE9HO39Cl5vb3l2EIYVRwspVeUs9KeTlt2FaiqQ1
yE+s75bXFh9e3ztj4vOAWKGXi/KI2PHTdfo4tx8CgYEA5eX3BQDIdWAe1vJAOYMF
pvXemOPpVIu8qIiMBhl5n2zdGKqWIdHDlUCqBFNZk4WVr7W79knzVRkef7ohrycQ
r+q4luDXjx3q11u5YckVpxwY+p8TwALUzj1iT1DX9noYfo/lCYJf9G/h3Lngq/v2
SbubdhuEtdvY5Pj82KI5/r0CgYAKDBxBkejR/F4cCicfcrX6vKPzCm6gdcDTn/VX
KSGmGm1ycFdhGQAyR2RbJT7OshvC7BbZ7UzcvJbAk6AGS80I/GQCLkmVovQGW6v3
OeJ2ax40UuEN5SrJJZMlqiCDp+f31dHI3S10xBoSH1m/K/9FVBYa+Tvx4yg1l84x
50ZVzQKBgB6sEgCK7Q4HwOrSVyLvGjABZC41fuZSl58DB1bKdTtXq2ASP1igzmbR
KEvawdUFqysM1TSz2F+QL4X393VVlSKi69w3LeORcMdOtbew2Rn7msBAHR4JO9sP
dIdM/ccKebf1tgaTgI+c12yg+e+w7dey1Og0iPtcuMg3TumFX5q3
-----END RSA PRIVATE KEY-----
Certificate:
    Data:
        Version: 3 (0x2)
        Serial Number: 4096 (0x1000)
    Signature Algorithm: sha256WithRSAEncryption
        Issuer: CN=B CA - Multi-root
        Validity
            Not Before: Mar 11 01:37:16 2016 GMT
            Not After : Mar  9 01:37:16 2026 GMT
        Subject: C=US, ST=California, L=Mountain View, O=Test CA, CN=127.0.0.1
        Subject Public Key Info:
            Public Key Algorithm: rsaEncryption
                Public-Key: (2048 bit)
                Modulus:
                    00:c8:27:1c:19:81:c0:a7:30:93:03:1c:f8:21:b8:
                    2f:8a:22:b4:89:0f:da:b1:40:95:df:dc:46:53:fc:
                    6f:36:26:66:5a:53:6d:45:78:c2:39:16:9a:3f:82:
                    8b:ba:c5:b0:78:a8:18:bc:d5:a7:92:a5:e6:ac:e2:
                    0c:81:d0:94:e5:0c:ec:5e:03:0c:17:c5:35:2a:7b:
                    ab:86:eb:bf:e8:62:0a:8f:b0:25:b2:70:f5:11:8c:
                    16:4f:c1:76:44:e5:75:e8:93:4f:e9:e7:c4:e4:42:
                    0a:08:be:73:2c:cb:8f:73:6a:40:77:eb:33:60:ac:
                    be:c5:27:fd:b1:4f:88:4b:15:af:98:fd:32:53:ae:
                    b0:2a:0c:b2:f5:05:f3:3a:06:0d:6e:5c:fe:83:fc:
                    e3:60:ae:99:8e:a1:21:c2:72:02:e6:f4:49:57:e6:
                    91:31:2e:be:92:a1:ad:f8:71:31:64:74:10:33:d0:
                    a7:0c:ed:18:c7:b2:50:71:fc:b9:b6:ae:95:a0:8d:
                    ac:1f:3c:d5:79:a7:a9:88:50:b6:02:cd:68:60:24:
                    45:9b:b6:e9:82:08:d9:9c:d4:7e:29:7d:2b:d9:ae:
                    57:7f:62:6a:56:96:8b:4a:33:9e:5f:93:82:b0:d1:
                    05:03:26:cd:15:f4:87:7f:6a:9a:df:e9:01:b5:d4:
                    c9:11
                Exponent: 65537 (0x10001)
        X509v3 extensions:
            X509v3 Basic Constraints: critical
                CA:FALSE
            X509v3 Subject Key Identifier: 
                FB:91:A9:5F:BC:27:81:98:55:30:BF:57:32:4D:B9:DA:56:DD:52:2C
            X509v3 Authority Key Identifier: 
                keyid:90:CB:53:EE:36:0A:5A:B0:93:38:C9:11:B7:AC:FD:27:71:99:DC:81

            X509v3 Extended Key Usage: 
                TLS Web Server Authentication, TLS Web Client Authentication
    Signature Algorithm: sha256WithRSAEncryption
         b9:31:7a:95:b2:ba:3a:b4:f1:16:76:df:eb:d5:b9:af:67:b1:
         9d:8a:27:04:9b:61:6f:42:3f:c2:b3:cd:65:c4:86:cb:90:fb:
         9d:3a:ed:fc:b8:74:da:d7:6a:6c:2f:17:68:d1:73:58:f1:a2:
         bb:8f:d6:b0:a8:7f:b6:a8:b0:74:d1:ea:c4:62:ed:bc:1e:ef:
         02:6b:d5:e8:2d:15:78:16:1e:90:fa:f4:29:5a:a8:43:ad:d2:
         58:40:b4:1c:60:4e:cd:bc:6f:1a:39:e4:46:b2:58:93:96:5a:
         a8:a4:c4:31:73:ed:89:c4:81:27:e1:4c:66:20:7c:27:c4:f9:
         61:ff:d1:d5:a5:02:93:4c:06:fa:15:33:7a:1f:5f:eb:29:b2:
         b5:6a:cd:7e:d6:d7:b7:51:a7:01:2f:22:9f:9e:7e:81:98:c4:
         72:11:36:2c:e7:c6:d0:f0:7d:98:36:ea:b7:a0:aa:13:8f:6e:
         ae:41:59:9b:e6:c9:bc:9c:e8:93:f5:0c:4e:ca:b4:dd:e3:01:
         fe:23:6e:fb:fa:b3:61:66:58:f5:fc:07:16:1d:a9:52:ec:a0:
         29:61:a4:39:ed:41:50:a3:a2:33:72:0e:3c:03:e1:0a:1a:1a:
         cf:22:73:09:d7:ea:e8:15:fc:73:3c:d4:4e:34:6c:b4:18:94:
         c4:d3:6e:12
-----BEGIN CERTIFICATE-----
MIIDZzCCAk+gAwIBAgICEAAwDQYJKoZIhvcNAQELBQAwHDEaMBgGA1UEAwwRQiBD
QSAtIE11bHRpLXJvb3QwHhcNMTYwMzExMDEzNzE2WhcNMjYwMzA5MDEzNzE2WjBg
MQswCQYDVQQGEwJVUzETMBEGA1UECAwKQ2FsaWZvcm5pYTEWMBQGA1UEBwwNTW91
bnRhaW4gVmlldzEQMA4GA1UECgwHVGVzdCBDQTESMBAGA1UEAwwJMTI3LjAuMC4x
MIIBIjANBgkqhkiG9w0BAQEFAAOCAQ8AMIIBCgKCAQEAyCccGYHApzCTAxz4Ibgv
iiK0iQ/asUCV39xGU/xvNiZmWlNtRXjCORaaP4KLusWweKgYvNWnkqXmrOIMgdCU
5QzsXgMMF8U1Knurhuu/6GIKj7AlsnD1EYwWT8F2ROV16JNP6efE5EIKCL5zLMuP
c2pAd+szYKy+xSf9sU+ISxWvmP0yU66wKgyy9QXzOgYNblz+g/zjYK6ZjqEhwnIC
5vRJV+aRMS6+kqGt+HExZHQQM9CnDO0Yx7JQcfy5tq6VoI2sHzzVeaepiFC2As1o
YCRFm7bpggjZnNR+KX0r2a5Xf2JqVpaLSjOeX5OCsNEFAybNFfSHf2qa3+kBtdTJ
EQIDAQABo28wbTAMBgNVHRMBAf8EAjAAMB0GA1UdDgQWBBT7kalfvCeBmFUwv1cy
TbnaVt1SLDAfBgNVHSMEGDAWgBSQy1PuNgpasJM4yRG3rP0ncZncgTAdBgNVHSUE
FjAUBggrBgEFBQcDAQYIKwYBBQUHAwIwDQYJKoZIhvcNAQELBQADggEBALkxepWy
ujq08RZ23+vVua9nsZ2KJwSbYW9CP8KzzWXEhsuQ+5067fy4dNrXamwvF2jRc1jx
oruP1rCof7aosHTR6sRi7bwe7wJr1egtFXgWHpD69ClaqEOt0lhAtBxgTs28bxo5
5EayWJOWWqikxDFz7YnEgSfhTGYgfCfE+WH/0dWlApNMBvoVM3ofX+spsrVqzX7W
17dRpwEvIp+efoGYxHIRNiznxtDwfZg26regqhOPbq5BWZvmybyc6JP1DE7KtN3j
Af4jbvv6s2FmWPX8BxYdqVLsoClhpDntQVCjojNyDjwD4QoaGs8icwnX6ugV/HM8
1E40bLQYlMTTbhI=
-----END CERTIFICATE-----
