Certificate:
    Data:
        Version: 3 (0x2)
        Serial Number: 4097 (0x1001)
    Signature Algorithm: sha256WithRSAEncryption
        Issuer: CN=D Root CA - Multi-root
        Validity
            Not Before: Jan  3 00:00:00 2016 GMT
            Not After : Jan  2 00:00:00 2026 GMT
        Subject: CN=C CA - Multi-root
        Subject Public Key Info:
            Public Key Algorithm: rsaEncryption
                Public-Key: (2048 bit)
                Modulus:
                    00:b6:1f:67:e4:9e:db:e0:ff:eb:29:75:ee:68:a2:
                    4e:95:6e:d2:f6:9d:c9:b6:dc:08:18:70:b5:76:bf:
                    b7:14:8b:cb:46:c6:6a:2c:fa:43:f9:54:93:fa:bd:
                    aa:f0:ee:a3:20:5b:2a:cd:08:f7:be:95:36:e4:88:
                    f8:fd:43:7d:b8:f9:38:b4:d2:4e:22:0b:8b:85:de:
                    6a:fe:6f:da:3b:4b:0f:26:c1:f8:31:22:36:19:96:
                    0c:ef:85:7c:72:67:ac:4c:5c:f9:23:a4:29:d8:a5:
                    1c:b6:ec:95:eb:d3:c2:8d:cb:ae:9a:d7:08:c8:b7:
                    f7:a0:c6:28:44:5f:24:97:bd:ca:d9:6d:99:9b:17:
                    47:1f:38:b3:e3:67:6a:b4:75:d6:92:cd:67:62:20:
                    58:f0:a7:46:85:94:72:76:98:c5:ec:4c:75:1b:a1:
                    76:67:4b:1f:c8:23:6c:2a:78:66:c2:a7:6b:af:ef:
                    97:30:34:60:0a:db:98:94:3b:9f:95:3c:34:b6:35:
                    40:12:fa:1d:bf:66:f4:7b:fd:66:1a:2a:49:8c:24:
                    60:91:08:f9:61:39:f9:3b:29:98:64:7b:35:04:a9:
                    f5:af:8d:0f:1e:e7:28:b6:30:32:b4:5f:d4:29:16:
                    7a:70:8d:db:b9:ba:bf:eb:22:98:5d:94:c8:47:e3:
                    4b:11
                Exponent: 65537 (0x10001)
        X509v3 extensions:
            X509v3 Basic Constraints: critical
                CA:TRUE
            X509v3 Subject Key Identifier: 
                90:53:F5:80:11:F6:3F:1B:A8:9D:8D:75:0D:56:3B:F2:2B:C5:9C:44
            X509v3 Key Usage: critical
                Certificate Sign, CRL Sign
    Signature Algorithm: sha256WithRSAEncryption
         67:11:95:f4:b9:cb:47:e6:50:da:fd:a0:13:78:d7:e1:be:59:
         ec:86:32:e5:56:3e:9b:8f:db:b0:3b:93:fb:d0:6e:b3:de:7e:
         10:5b:b4:30:f7:02:e8:3f:ff:4e:91:3a:e8:b8:4a:94:5e:14:
         7b:f8:84:e5:1f:63:2c:b4:7f:4f:ee:b1:d5:ee:92:79:7d:63:
         87:a0:e9:57:14:57:11:59:18:54:8b:e3:d1:51:80:a7:2f:51:
         f2:6f:43:d2:87:e1:59:23:2c:fe:83:38:e1:25:da:b5:34:af:
         33:17:64:80:08:b6:bd:5f:92:05:2c:81:b0:c3:d3:80:cd:e1:
         5c:95:d2:ea:1e:d3:af:d9:93:c2:f4:23:ae:51:b0:a4:82:49:
         2d:ec:fe:d1:18:e3:a3:53:9f:63:4b:38:dc:54:25:ce:4c:90:
         37:02:e4:67:41:31:ba:7a:13:1a:68:1e:ed:34:0c:3d:66:ba:
         a3:3a:71:76:5f:5f:89:a1:cd:95:50:f6:5d:1f:c0:91:31:93:
         5b:58:af:e7:9b:21:e6:57:b1:f4:d7:dd:c1:84:25:5b:83:f7:
         5f:c9:89:17:5b:6f:54:f2:8b:ed:47:de:27:57:9e:e9:8c:b3:
         58:2c:c2:77:25:e1:eb:22:06:d1:f6:c5:f4:d7:1a:3d:00:1c:
         2e:85:e9:70
-----BEGIN CERTIFICATE-----
MIIC+zCCAeOgAwIBAgICEAEwDQYJKoZIhvcNAQELBQAwITEfMB0GA1UEAwwWRCBS
b290IENBIC0gTXVsdGktcm9vdDAeFw0xNjAxMDMwMDAwMDBaFw0yNjAxMDIwMDAw
MDBaMBwxGjAYBgNVBAMMEUMgQ0EgLSBNdWx0aS1yb290MIIBIjANBgkqhkiG9w0B
AQEFAAOCAQ8AMIIBCgKCAQEAth9n5J7b4P/rKXXuaKJOlW7S9p3JttwIGHC1dr+3
FIvLRsZqLPpD+VST+r2q8O6jIFsqzQj3vpU25Ij4/UN9uPk4tNJOIguLhd5q/m/a
O0sPJsH4MSI2GZYM74V8cmesTFz5I6Qp2KUctuyV69PCjcuumtcIyLf3oMYoRF8k
l73K2W2ZmxdHHziz42dqtHXWks1nYiBY8KdGhZRydpjF7Ex1G6F2Z0sfyCNsKnhm
wqdrr++XMDRgCtuYlDuflTw0tjVAEvodv2b0e/1mGipJjCRgkQj5YTn5OymYZHs1
BKn1r40PHucotjAytF/UKRZ6cI3bubq/6yKYXZTIR+NLEQIDAQABo0IwQDAPBgNV
HRMBAf8EBTADAQH/MB0GA1UdDgQWBBSQU/WAEfY/G6idjXUNVjvyK8WcRDAOBgNV
HQ8BAf8EBAMCAQYwDQYJKoZIhvcNAQELBQADggEBAGcRlfS5y0fmUNr9oBN41+G+
WeyGMuVWPpuP27A7k/vQbrPefhBbtDD3Aug//06ROui4SpReFHv4hOUfYyy0f0/u
sdXuknl9Y4eg6VcUVxFZGFSL49FRgKcvUfJvQ9KH4VkjLP6DOOEl2rU0rzMXZIAI
tr1fkgUsgbDD04DN4VyV0uoe06/Zk8L0I65RsKSCSS3s/tEY46NTn2NLONxUJc5M
kDcC5GdBMbp6ExpoHu00DD1muqM6cXZfX4mhzZVQ9l0fwJExk1tYr+ebIeZXsfTX
3cGEJVuD91/JiRdbb1Tyi+1H3idXnumMs1gswncl4esiBtH2xfTXGj0AHC6F6XA=
-----END CERTIFICATE-----
