-----BEGIN PRIVATE KEY-----
MIIEvgIBADANBgkqhkiG9w0BAQEFAASCBKgwggSkAgEAAoIBAQDD5m1zsjUwajot
NE67oL3Ln1Gj5dOIy85u4iS4bA29+3VCpDpFSb8q+atKgK4VM4H41gZ4ilk6T4Nw
bh0z9PDQBIH8s5Yd0Xkqf3Ji0SDRsqBn+kQ2BXKHjup34lQrCgJ2BPoqle9Aj+Jd
Z2mjnCB2C5E8it8BYziraCdsXLC8wRBDoWFi6laPMuEd910uTaav4/MZ3y6SBJLm
+Q0URXm5d5msqK7KuAVlgYDdnzS1iRNiGH2fPU/NHw1NMsJyM5b3MEwu72YDzmxS
9QTpAp5vVPxKbMIhGqkVZpcfEVkB4FMZYueAJtr761dUhzZSSGoB3/D54cghc6ly
9HySHvFDAgMBAAECggEAfp4WClyZwlQ2i/cuGFm5sr2j7/JhOh64q7ShFU5Jx4ya
6trpCtWyqN08mGf5nJxxGluDTS/moii4hNe3KljbuSfguGt+0IEO9qfvT+1pcAAr
a2k34068CuAVrizsR/EtTAjFhPbp7+nP3p0zi1sjJAkv81iy8NunyioEqSZz2Vsw
ngPFuJeytOgeczoE69yzP1L0BaM46jOKXezXahC31lwtG+U5tLvElU0b/To/7GTg
+u5qnsJ87wHYkOctXvqH+L1JeMkc7RWCo0h4Kbk3ur1kDokjqUV4FGQSaMyIy0PC
ndk9WZhUV03v+Lsy3gzBM8261HOiTSMRz/+KrYqAOQKBgQD6ET0Hm11FIUFSeM/I
Dbxb41oN4ODl4YUgGk/9jPX8/ztvrGddh3VGWD4KUVNlWLioBX/t7FH5paGtd6tg
ZG8X3n48DaJ5h4u95ulAzcVjrkF4aNahy4aMmofdpe4S3+7HwlBcfIocO9WpAtL0
pzFjlXivLQgUQow67tbG2dYrPQKBgQDIjDWWSqn6kB1zFyI6Hh9HhfFAKCRvCIzQ
OvqIOCtExP4U4mE0rUY7RWkFrRTDoMmYCwRuCohL1C4p6i/2AwK1mhS8OgPji7YV
zgYZuw2lSmp1lqzRmiLaOZxLcEKWlHQ1C9Sq606T7YAhgXi3tDfQ53gb1uFDvt1h
rE3AkU1WfwKBgHZ2EBk4aljDRjSRcqzshNxquVB1xVRhHzV0AYy1aBpvtnJSk6zk
7JNkXg95My6BdwhxgobtOnAvHIYWeKLzMQV3qwk71EoKAhL1/m1qjSWJeQ5Xa8W9
qoGU+uPvJPbgCjerP3JwtORnG/Iymki3o1fviPpDNN6UH+YTGr+cli5pAoGBAKnT
4gU1kR/4LpgpvPhOTdq5mITl+YR1Txl++G2mcy23TBrPYdXD7jd/HeKKoYzQeibh
HY06KhVcxwMDqD3CaubyZiDHWEe3Jijs4MmlV3bjv6d4Qzz0NBNsuehAVoNBj+7j
5+IdhdtLQjgddebLHIExosqgev5tgPeXe/hYk49tAoGBALENmfF8ORreFf+aOd4+
w/CZB2VaN4p0N6I+w2HPRRJO6Rhk0Pe6NtPkxbUS0x/cm+WOpvSbntH1DOjigL8e
mo+n2Ym+lrtYmEtB/M2C1k29pwaGYMfEIP3URUuYNEpWvTs6AOY7Sp5QN/X/v9ES
76pTvCiginWRyEeR+6vrDGM8
-----END PRIVATE KEY-----
Certificate:
    Data:
        Version: 3 (0x2)
        Serial Number: 3 (0x3)
    Signature Algorithm: sha256WithRSAEncryption
        Issuer: CN=Test Root CA
        Validity
            Not Before: Dec 21 20:35:47 2015 GMT
            Not After : Dec 18 20:35:47 2025 GMT
        Subject: CN=Leaf certificate
        Subject Public Key Info:
            Public Key Algorithm: rsaEncryption
                Public-Key: (2048 bit)
                Modulus:
                    00:c3:e6:6d:73:b2:35:30:6a:3a:2d:34:4e:bb:a0:
                    bd:cb:9f:51:a3:e5:d3:88:cb:ce:6e:e2:24:b8:6c:
                    0d:bd:fb:75:42:a4:3a:45:49:bf:2a:f9:ab:4a:80:
                    ae:15:33:81:f8:d6:06:78:8a:59:3a:4f:83:70:6e:
                    1d:33:f4:f0:d0:04:81:fc:b3:96:1d:d1:79:2a:7f:
                    72:62:d1:20:d1:b2:a0:67:fa:44:36:05:72:87:8e:
                    ea:77:e2:54:2b:0a:02:76:04:fa:2a:95:ef:40:8f:
                    e2:5d:67:69:a3:9c:20:76:0b:91:3c:8a:df:01:63:
                    38:ab:68:27:6c:5c:b0:bc:c1:10:43:a1:61:62:ea:
                    56:8f:32:e1:1d:f7:5d:2e:4d:a6:af:e3:f3:19:df:
                    2e:92:04:92:e6:f9:0d:14:45:79:b9:77:99:ac:a8:
                    ae:ca:b8:05:65:81:80:dd:9f:34:b5:89:13:62:18:
                    7d:9f:3d:4f:cd:1f:0d:4d:32:c2:72:33:96:f7:30:
                    4c:2e:ef:66:03:ce:6c:52:f5:04:e9:02:9e:6f:54:
                    fc:4a:6c:c2:21:1a:a9:15:66:97:1f:11:59:01:e0:
                    53:19:62:e7:80:26:da:fb:eb:57:54:87:36:52:48:
                    6a:01:df:f0:f9:e1:c8:21:73:a9:72:f4:7c:92:1e:
                    f1:43
                Exponent: 65537 (0x10001)
        X509v3 extensions:
            X509v3 Basic Constraints: critical
                CA:FALSE
            X509v3 Subject Key Identifier: 
                64:AD:F5:F3:4B:2D:70:3A:13:B7:0D:D6:8F:9F:82:37:C3:58:73:A8
            X509v3 Authority Key Identifier: 
                keyid:BC:F7:30:D1:3C:C0:F2:79:FA:EF:9F:C9:6C:5C:93:F3:8A:68:AB:83

            X509v3 Extended Key Usage: 
                TLS Web Server Authentication, TLS Web Client Authentication
            X509v3 Subject Alternative Name: 
                DNS:test.ExAmPlE.CoM, DNS:test.ExAmPlE.OrG
    Signature Algorithm: sha256WithRSAEncryption
         af:4e:e7:07:29:47:e4:18:64:96:83:22:3c:21:4c:dc:41:90:
         c9:28:5b:a7:ce:e9:ad:da:28:04:90:f6:62:c9:6c:0e:a1:98:
         3a:19:ec:28:f5:b7:cf:07:cd:b3:0c:d0:97:a4:3d:e2:fe:0c:
         d8:68:f4:cf:57:18:3e:58:f9:ed:1b:2f:f5:11:e4:4d:61:93:
         b3:f3:1c:bc:53:cf:8b:81:2e:1b:a3:28:f6:df:ae:82:74:99:
         75:62:51:3d:78:1d:65:3d:eb:0a:7b:60:0e:3a:c7:ff:57:1c:
         a4:9e:19:66:ef:18:78:b1:d6:1f:27:31:e0:a6:a2:27:42:15:
         2f:2a:38:e7:4a:0c:3b:8e:4d:c2:a1:27:45:32:0d:c4:b8:51:
         70:41:a6:1a:2f:13:d0:f8:3d:fa:76:0c:57:ad:3e:86:ec:1c:
         05:ea:81:d2:33:35:0b:1e:ab:86:2a:94:ee:44:9f:a4:1a:fe:
         94:0c:7f:f7:e7:17:1f:cc:1c:b8:cc:5a:55:ce:b1:d8:2e:0b:
         3d:8c:19:fc:c2:6b:da:c8:1d:b7:27:fa:bb:90:04:a6:53:bb:
         94:7b:cb:a3:ec:80:7e:18:2e:86:aa:41:97:43:c7:25:1f:33:
         a3:ee:93:00:c5:ec:31:da:0e:40:f2:a2:a9:39:42:a8:e1:65:
         ed:c7:65:f0
-----BEGIN CERTIFICATE-----
MIIDTTCCAjWgAwIBAgIBAzANBgkqhkiG9w0BAQsFADAXMRUwEwYDVQQDDAxUZXN0
IFJvb3QgQ0EwHhcNMTUxMjIxMjAzNTQ3WhcNMjUxMjE4MjAzNTQ3WjAbMRkwFwYD
VQQDExBMZWFmIGNlcnRpZmljYXRlMIIBIjANBgkqhkiG9w0BAQEFAAOCAQ8AMIIB
CgKCAQEAw+Ztc7I1MGo6LTROu6C9y59Ro+XTiMvObuIkuGwNvft1QqQ6RUm/Kvmr
SoCuFTOB+NYGeIpZOk+DcG4dM/Tw0ASB/LOWHdF5Kn9yYtEg0bKgZ/pENgVyh47q
d+JUKwoCdgT6KpXvQI/iXWdpo5wgdguRPIrfAWM4q2gnbFywvMEQQ6FhYupWjzLh
HfddLk2mr+PzGd8ukgSS5vkNFEV5uXeZrKiuyrgFZYGA3Z80tYkTYhh9nz1PzR8N
TTLCcjOW9zBMLu9mA85sUvUE6QKeb1T8SmzCIRqpFWaXHxFZAeBTGWLngCba++tX
VIc2UkhqAd/w+eHIIXOpcvR8kh7xQwIDAQABo4GfMIGcMAwGA1UdEwEB/wQCMAAw
HQYDVR0OBBYEFGSt9fNLLXA6E7cN1o+fgjfDWHOoMB8GA1UdIwQYMBaAFLz3MNE8
wPJ5+u+fyWxck/OKaKuDMB0GA1UdJQQWMBQGCCsGAQUFBwMBBggrBgEFBQcDAjAt
BgNVHREEJjAkghB0ZXN0LkV4QW1QbEUuQ29NghB0ZXN0LkV4QW1QbEUuT3JHMA0G
CSqGSIb3DQEBCwUAA4IBAQCvTucHKUfkGGSWgyI8IUzcQZDJKFunzumt2igEkPZi
yWwOoZg6Gewo9bfPB82zDNCXpD3i/gzYaPTPVxg+WPntGy/1EeRNYZOz8xy8U8+L
gS4boyj2366CdJl1YlE9eB1lPesKe2AOOsf/Vxyknhlm7xh4sdYfJzHgpqInQhUv
KjjnSgw7jk3CoSdFMg3EuFFwQaYaLxPQ+D36dgxXrT6G7BwF6oHSMzULHquGKpTu
RJ+kGv6UDH/35xcfzBy4zFpVzrHYLgs9jBn8wmvayB23J/q7kASmU7uUe8uj7IB+
GC6GqkGXQ8clHzOj7pMAxewx2g5A8qKpOUKo4WXtx2Xw
-----END CERTIFICATE-----
