-----BEGIN PRIVATE KEY-----
MIIEvgIBADANBgkqhkiG9w0BAQEFAASCBKgwggSkAgEAAoIBAQDD5m1zsjUwajot
NE67oL3Ln1Gj5dOIy85u4iS4bA29+3VCpDpFSb8q+atKgK4VM4H41gZ4ilk6T4Nw
bh0z9PDQBIH8s5Yd0Xkqf3Ji0SDRsqBn+kQ2BXKHjup34lQrCgJ2BPoqle9Aj+Jd
Z2mjnCB2C5E8it8BYziraCdsXLC8wRBDoWFi6laPMuEd910uTaav4/MZ3y6SBJLm
+Q0URXm5d5msqK7KuAVlgYDdnzS1iRNiGH2fPU/NHw1NMsJyM5b3MEwu72YDzmxS
9QTpAp5vVPxKbMIhGqkVZpcfEVkB4FMZYueAJtr761dUhzZSSGoB3/D54cghc6ly
9HySHvFDAgMBAAECggEAfp4WClyZwlQ2i/cuGFm5sr2j7/JhOh64q7ShFU5Jx4ya
6trpCtWyqN08mGf5nJxxGluDTS/moii4hNe3KljbuSfguGt+0IEO9qfvT+1pcAAr
a2k34068CuAVrizsR/EtTAjFhPbp7+nP3p0zi1sjJAkv81iy8NunyioEqSZz2Vsw
ngPFuJeytOgeczoE69yzP1L0BaM46jOKXezXahC31lwtG+U5tLvElU0b/To/7GTg
+u5qnsJ87wHYkOctXvqH+L1JeMkc7RWCo0h4Kbk3ur1kDokjqUV4FGQSaMyIy0PC
ndk9WZhUV03v+Lsy3gzBM8261HOiTSMRz/+KrYqAOQKBgQD6ET0Hm11FIUFSeM/I
Dbxb41oN4ODl4YUgGk/9jPX8/ztvrGddh3VGWD4KUVNlWLioBX/t7FH5paGtd6tg
ZG8X3n48DaJ5h4u95ulAzcVjrkF4aNahy4aMmofdpe4S3+7HwlBcfIocO9WpAtL0
pzFjlXivLQgUQow67tbG2dYrPQKBgQDIjDWWSqn6kB1zFyI6Hh9HhfFAKCRvCIzQ
OvqIOCtExP4U4mE0rUY7RWkFrRTDoMmYCwRuCohL1C4p6i/2AwK1mhS8OgPji7YV
zgYZuw2lSmp1lqzRmiLaOZxLcEKWlHQ1C9Sq606T7YAhgXi3tDfQ53gb1uFDvt1h
rE3AkU1WfwKBgHZ2EBk4aljDRjSRcqzshNxquVB1xVRhHzV0AYy1aBpvtnJSk6zk
7JNkXg95My6BdwhxgobtOnAvHIYWeKLzMQV3qwk71EoKAhL1/m1qjSWJeQ5Xa8W9
qoGU+uPvJPbgCjerP3JwtORnG/Iymki3o1fviPpDNN6UH+YTGr+cli5pAoGBAKnT
4gU1kR/4LpgpvPhOTdq5mITl+YR1Txl++G2mcy23TBrPYdXD7jd/HeKKoYzQeibh
HY06KhVcxwMDqD3CaubyZiDHWEe3Jijs4MmlV3bjv6d4Qzz0NBNsuehAVoNBj+7j
5+IdhdtLQjgddebLHIExosqgev5tgPeXe/hYk49tAoGBALENmfF8ORreFf+aOd4+
w/CZB2VaN4p0N6I+w2HPRRJO6Rhk0Pe6NtPkxbUS0x/cm+WOpvSbntH1DOjigL8e
mo+n2Ym+lrtYmEtB/M2C1k29pwaGYMfEIP3URUuYNEpWvTs6AOY7Sp5QN/X/v9ES
76pTvCiginWRyEeR+6vrDGM8
-----END PRIVATE KEY-----
Certificate:
    Data:
        Version: 3 (0x2)
        Serial Number: 4 (0x4)
    Signature Algorithm: sha256WithRSAEncryption
        Issuer: CN=Test Root CA
        Validity
            Not Before: Dec 21 20:35:47 2015 GMT
            Not After : Dec 18 20:35:47 2025 GMT
        Subject: CN=Leaf Certificate
        Subject Public Key Info:
            Public Key Algorithm: rsaEncryption
                Public-Key: (2048 bit)
                Modulus:
                    00:c3:e6:6d:73:b2:35:30:6a:3a:2d:34:4e:bb:a0:
                    bd:cb:9f:51:a3:e5:d3:88:cb:ce:6e:e2:24:b8:6c:
                    0d:bd:fb:75:42:a4:3a:45:49:bf:2a:f9:ab:4a:80:
                    ae:15:33:81:f8:d6:06:78:8a:59:3a:4f:83:70:6e:
                    1d:33:f4:f0:d0:04:81:fc:b3:96:1d:d1:79:2a:7f:
                    72:62:d1:20:d1:b2:a0:67:fa:44:36:05:72:87:8e:
                    ea:77:e2:54:2b:0a:02:76:04:fa:2a:95:ef:40:8f:
                    e2:5d:67:69:a3:9c:20:76:0b:91:3c:8a:df:01:63:
                    38:ab:68:27:6c:5c:b0:bc:c1:10:43:a1:61:62:ea:
                    56:8f:32:e1:1d:f7:5d:2e:4d:a6:af:e3:f3:19:df:
                    2e:92:04:92:e6:f9:0d:14:45:79:b9:77:99:ac:a8:
                    ae:ca:b8:05:65:81:80:dd:9f:34:b5:89:13:62:18:
                    7d:9f:3d:4f:cd:1f:0d:4d:32:c2:72:33:96:f7:30:
                    4c:2e:ef:66:03:ce:6c:52:f5:04:e9:02:9e:6f:54:
                    fc:4a:6c:c2:21:1a:a9:15:66:97:1f:11:59:01:e0:
                    53:19:62:e7:80:26:da:fb:eb:57:54:87:36:52:48:
                    6a:01:df:f0:f9:e1:c8:21:73:a9:72:f4:7c:92:1e:
                    f1:43
                Exponent: 65537 (0x10001)
        X509v3 extensions:
            X509v3 Basic Constraints: critical
                CA:FALSE
            X509v3 Subject Key Identifier: 
                64:AD:F5:F3:4B:2D:70:3A:13:B7:0D:D6:8F:9F:82:37:C3:58:73:A8
            X509v3 Authority Key Identifier: 
                keyid:BC:F7:30:D1:3C:C0:F2:79:FA:EF:9F:C9:6C:5C:93:F3:8A:68:AB:83

            X509v3 Extended Key Usage: 
                TLS Web Server Authentication, TLS Web Client Authentication
            X509v3 Subject Alternative Name: 
                DNS:test.ExAmPlE.CoM, DNS:example.notarealtld, DNS:*.test2.ExAmPlE.CoM, DNS:*.example2.notarealtld
    Signature Algorithm: sha256WithRSAEncryption
         22:eb:19:0b:53:ae:ac:05:af:4f:70:28:c5:ae:8b:c4:6e:d7:
         2a:7a:58:a4:44:7b:46:be:6e:01:6c:b6:d0:15:48:51:10:c7:
         27:ae:8a:de:52:82:91:70:36:dd:d7:55:ac:52:b2:c8:33:53:
         fc:a1:e3:c1:80:6b:e6:46:fb:9c:0d:09:bf:91:c2:ee:25:77:
         39:69:7c:d2:f1:95:f0:2d:1e:fd:52:eb:1a:38:60:34:db:f4:
         43:a2:18:a9:b7:25:14:53:1a:1f:42:97:ab:25:7c:bb:25:88:
         56:fe:ac:d3:6f:5c:fe:90:e4:99:83:91:74:c0:dc:bb:a2:54:
         91:16:dd:d9:12:a5:22:6f:7a:1e:18:ab:54:63:18:4d:79:7c:
         cb:16:78:04:2c:4d:32:13:2c:21:30:c9:22:b3:c7:41:7d:85:
         0f:9f:91:13:88:dd:b6:35:2e:de:a4:b7:72:d3:a0:f1:64:1c:
         30:b9:65:9e:4f:f3:5b:2b:7d:42:7b:7c:21:54:bf:c2:b0:02:
         2f:4e:10:2d:40:11:08:70:36:5c:66:e9:b6:3b:6a:9f:dd:7f:
         f9:42:04:d0:8c:3c:93:54:5d:9f:d2:34:c4:67:d7:7c:ee:3f:
         22:4f:71:86:af:b1:79:6f:00:b4:65:60:58:ed:ef:16:cd:e5:
         97:e0:b8:49
-----BEGIN CERTIFICATE-----
MIIDfTCCAmWgAwIBAgIBBDANBgkqhkiG9w0BAQsFADAXMRUwEwYDVQQDDAxUZXN0
IFJvb3QgQ0EwHhcNMTUxMjIxMjAzNTQ3WhcNMjUxMjE4MjAzNTQ3WjAbMRkwFwYD
VQQDExBMZWFmIENlcnRpZmljYXRlMIIBIjANBgkqhkiG9w0BAQEFAAOCAQ8AMIIB
CgKCAQEAw+Ztc7I1MGo6LTROu6C9y59Ro+XTiMvObuIkuGwNvft1QqQ6RUm/Kvmr
SoCuFTOB+NYGeIpZOk+DcG4dM/Tw0ASB/LOWHdF5Kn9yYtEg0bKgZ/pENgVyh47q
d+JUKwoCdgT6KpXvQI/iXWdpo5wgdguRPIrfAWM4q2gnbFywvMEQQ6FhYupWjzLh
HfddLk2mr+PzGd8ukgSS5vkNFEV5uXeZrKiuyrgFZYGA3Z80tYkTYhh9nz1PzR8N
TTLCcjOW9zBMLu9mA85sUvUE6QKeb1T8SmzCIRqpFWaXHxFZAeBTGWLngCba++tX
VIc2UkhqAd/w+eHIIXOpcvR8kh7xQwIDAQABo4HPMIHMMAwGA1UdEwEB/wQCMAAw
HQYDVR0OBBYEFGSt9fNLLXA6E7cN1o+fgjfDWHOoMB8GA1UdIwQYMBaAFLz3MNE8
wPJ5+u+fyWxck/OKaKuDMB0GA1UdJQQWMBQGCCsGAQUFBwMBBggrBgEFBQcDAjBd
BgNVHREEVjBUghB0ZXN0LkV4QW1QbEUuQ29NghNleGFtcGxlLm5vdGFyZWFsdGxk
ghMqLnRlc3QyLkV4QW1QbEUuQ29NghYqLmV4YW1wbGUyLm5vdGFyZWFsdGxkMA0G
CSqGSIb3DQEBCwUAA4IBAQAi6xkLU66sBa9PcCjFrovEbtcqelikRHtGvm4BbLbQ
FUhREMcnroreUoKRcDbd11WsUrLIM1P8oePBgGvmRvucDQm/kcLuJXc5aXzS8ZXw
LR79UusaOGA02/RDohiptyUUUxofQperJXy7JYhW/qzTb1z+kOSZg5F0wNy7olSR
Ft3ZEqUib3oeGKtUYxhNeXzLFngELE0yEywhMMkis8dBfYUPn5ETiN22NS7epLdy
06DxZBwwuWWeT/NbK31Ce3whVL/CsAIvThAtQBEIcDZcZum2O2qf3X/5QgTQjDyT
VF2f0jTEZ9d87j8iT3GGr7F5bwC0ZWBY7e8WzeWX4LhJ
-----END CERTIFICATE-----
