Certificate:
    Data:
        Version: 3 (0x2)
        Serial Number: 1 (0x1)
    Signature Algorithm: sha256WithRSAEncryption
        Issuer: CN=Testing CA
        Validity
            Not Before: Jan  1 06:00:00 2010 GMT
            Not After : Dec  1 06:00:00 2032 GMT
        Subject: CN=Testing CA
        Subject Public Key Info:
            Public Key Algorithm: rsaEncryption
                Public-Key: (1024 bit)
                Modulus:
                    00:a7:19:98:f2:93:0b:fe:73:d0:31:a8:7f:13:3d:
                    2f:37:8e:ee:ee:d5:2a:77:e4:4d:0f:c9:ff:6f:07:
                    ff:32:cb:f3:da:99:9d:e4:ed:65:83:2a:fc:b0:80:
                    7f:98:78:75:06:53:9d:25:8a:0c:e3:c2:c7:79:67:
                    65:30:99:a9:03:4a:9b:11:5a:87:6c:39:a8:c4:e4:
                    ed:4a:cd:0c:64:09:59:46:fb:39:ee:eb:47:a0:70:
                    4d:bb:01:8a:cf:48:c3:a1:c4:b8:95:fc:40:9f:b4:
                    a3:40:a9:86:b1:af:c4:55:19:ab:9e:ca:47:c3:01:
                    85:c7:71:c6:4a:a5:ec:f0:7d
                Exponent: 3 (0x3)
        X509v3 extensions:
            X509v3 Basic Constraints: critical
                CA:TRUE, pathlen:0
            X509v3 Certificate Policies: 
                Policy: 1.3.6.1.4.1.11129.2.4.1

    Signature Algorithm: sha256WithRSAEncryption
         72:49:8a:05:e0:02:b1:ff:13:d9:f7:02:29:60:8a:f0:39:f2:
         16:b0:49:15:6a:89:31:c7:bf:ba:00:82:e0:d1:ac:0e:33:0b:
         c2:2f:b0:be:9b:ff:a2:d5:ee:70:37:29:63:34:39:44:99:48:
         61:37:cd:06:fd:52:50:76:9c:d6:2c:3c:c7:6f:d0:bb:38:1a:
         e3:b3:55:fc:b8:6e:74:17:a8:c5:88:7e:54:70:f4:be:59:e4:
         a1:fc:56:ee:54:de:88:68:39:40:9f:58:dd:6c:60:ca:1e:4b:
         df:f6:d8:af:71:b5:1b:03:3d:2f:9d:a5:0a:3b:43:a6:68:3a:
         8f:28
-----BEGIN CERTIFICATE-----
MIIBzTCCATagAwIBAgIBATANBgkqhkiG9w0BAQsFADAVMRMwEQYDVQQDEwpUZXN0
aW5nIENBMB4XDTEwMDEwMTA2MDAwMFoXDTMyMTIwMTA2MDAwMFowFTETMBEGA1UE
AxMKVGVzdGluZyBDQTCBnTANBgkqhkiG9w0BAQEFAAOBiwAwgYcCgYEApxmY8pML
/nPQMah/Ez0vN47u7tUqd+RND8n/bwf/Msvz2pmd5O1lgyr8sIB/mHh1BlOdJYoM
48LHeWdlMJmpA0qbEVqHbDmoxOTtSs0MZAlZRvs57utHoHBNuwGKz0jDocS4lfxA
n7SjQKmGsa/EVRmrnspHwwGFx3HGSqXs8H0CAQOjLzAtMBIGA1UdEwEB/wQIMAYB
Af8CAQAwFwYDVR0gBBAwDjAMBgorBgEEAdZ5AgQBMA0GCSqGSIb3DQEBCwUAA4GB
AHJJigXgArH/E9n3AilgivA58hawSRVqiTHHv7oAguDRrA4zC8IvsL6b/6LV7nA3
KWM0OUSZSGE3zQb9UlB2nNYsPMdv0Ls4GuOzVfy4bnQXqMWIflRw9L5Z5KH8Vu5U
3ohoOUCfWN1sYMoeS9/22K9xtRsDPS+dpQo7Q6ZoOo8o
-----END CERTIFICATE-----
