-----BEGIN PRIVATE KEY-----
MIIEvQIBADANBgkqhkiG9w0BAQEFAASCBKcwggSjAgEAAoIBAQC1+PQy2PX0Zcrp
0Mvd6ZehbpDi9LKyFtCb4plX7XvGW29JwZQAqQ1dtTX0Ons8GAajeFpo/6YFH30Q
CK4JbNzv3biXnmzOy6DcMysele8d+9Pa+D5X7YuOnoZNEqYMMCPvCEVPIRJCiIcB
2KUyn7c472Ctt0drO0umXCtWclzRtTiHmew7/8YC74Y47uIFxvBm4hiRUOVXIyeZ
u9tJJIhmqBSWfhptKuH/GPVqN9KIqHnJuVD1mmgLBJ5oAh2hceCJFboqSAZ6eNPR
DHeDmIP4ueJgIJIHm9TIwPpaWp0mQMI1ZQDzoOLTIU2lxJGIkBSnXvcTt+oror3X
hBgat3tdAgMBAAECggEABykz2uhkzWhQEuFvlF0D5YtnUjcU7SMutGO3axliXIzu
lTVz8I62gvCFngXLIbNEV5x92lHtI5h4oG/nAWHyU9Ii2HyYhY7H1sKAuORnk4N8
c8p/EZC8hDFC0behJyuhzl9B8vo3ML0UqwLuhU55tFjfMhbbTaH4uSQ5ZF59vpbV
BLe+j3+0BWINSi65KrE/V9PAlH0IuSir4YYuFcJApZIMdiXGqb1mnnUn4CkMmmeH
JvRaYvrxD14T/lzMVzBkR0bez5jYe7syspCe+mmyqIS0mTOw8rQER1vL/DHcyJsG
inG5IazyDaCvgqNAEKzeh0AC3aoel86lURIlt/TrFQKBgQDrSKIvDDXFpYxtpJYt
Q+gyUqN/QPwGVL39n7kSpBoFWKsP9eSGKjVfD4PJboYjE0pcoci4ohsOHmyHpaqi
lAzy4oGd5VqEfu4qz65W7xFwZnMnxLv7OZeHzZG7nw2PIT6k57hNd0/IEndFLHZU
zBm56Ow/Czkb4HA/IR5RQG4SywKBgQDF/qst7PVtWOm6wJ3boJNl7QasWTRKsNxg
DkEo76dOwq2BSFTO+WYKWFPsOYrlnHbf3Ni869WB/vGwE8IecOH0Ir39plbRb2nc
WRW13mljwTET9AGb0/nhPkduYPyN7Gjvy1DTTz5e47rk5881siU8dPCSvgygo9DO
vy+ZlAtddwKBgQCIGa3ndTKtsAO5cNmGOZ/ZbEAzXk3rA54bVgdipxZ+PTpGs0CL
82KIKJtdK9ff9kqvps5LL0pjMmopVUWNYgLThP7hbUidGCeBED2TABugX0MBoCX1
Pu1OmzVPyMO5Jcvs7DWKahf2begcVYnlp2LCTeBK350baQrFGc1FxvVlXQKBgHrS
y7/2oh1OLdgTCxoml6mAC0a5I6493sebsCJD4McED3wGsc2fewRp3M3KuHZNxJSE
vNMdfVpiG+39o8scfZ7kOnXyTSMo+UOe48/pg/lE7DwTfzf6nKV06/z2H1WvVT2E
I8SiAO/+V38OqkUGGQFTDbYKPW0dkjfe9BlSdGZrAoGAfbDe3biBtcMw57AKTf78
i+dku+lnVkAmPOr1I6nnN2qGUdbXjbV2EE88BSo4OF6TF7C6dwicQuv5PxpozCRM
NkdqZ7UT2h7JX0KybnrIvHefboG/pK/Jjg9cEBhN1P6y6+pyzWKa7Nc1c0pXRqz6
FzMv6eiJALyDSTm0ChEm6ug=
-----END PRIVATE KEY-----
Certificate:
    Data:
        Version: 3 (0x2)
        Serial Number: 2 (0x2)
    Signature Algorithm: sha256WithRSAEncryption
        Issuer: CN=Test Root CA
        Validity
            Not Before: Aug 14 03:05:29 2014 GMT
            Not After : Aug 11 03:05:29 2024 GMT
        Subject: C=US, ST=California, L=Mountain View, O=Test CA, CN=127.0.0.1
        Subject Public Key Info:
            Public Key Algorithm: rsaEncryption
                Public-Key: (2048 bit)
                Modulus:
                    00:b5:f8:f4:32:d8:f5:f4:65:ca:e9:d0:cb:dd:e9:
                    97:a1:6e:90:e2:f4:b2:b2:16:d0:9b:e2:99:57:ed:
                    7b:c6:5b:6f:49:c1:94:00:a9:0d:5d:b5:35:f4:3a:
                    7b:3c:18:06:a3:78:5a:68:ff:a6:05:1f:7d:10:08:
                    ae:09:6c:dc:ef:dd:b8:97:9e:6c:ce:cb:a0:dc:33:
                    2b:1e:95:ef:1d:fb:d3:da:f8:3e:57:ed:8b:8e:9e:
                    86:4d:12:a6:0c:30:23:ef:08:45:4f:21:12:42:88:
                    87:01:d8:a5:32:9f:b7:38:ef:60:ad:b7:47:6b:3b:
                    4b:a6:5c:2b:56:72:5c:d1:b5:38:87:99:ec:3b:ff:
                    c6:02:ef:86:38:ee:e2:05:c6:f0:66:e2:18:91:50:
                    e5:57:23:27:99:bb:db:49:24:88:66:a8:14:96:7e:
                    1a:6d:2a:e1:ff:18:f5:6a:37:d2:88:a8:79:c9:b9:
                    50:f5:9a:68:0b:04:9e:68:02:1d:a1:71:e0:89:15:
                    ba:2a:48:06:7a:78:d3:d1:0c:77:83:98:83:f8:b9:
                    e2:60:20:92:07:9b:d4:c8:c0:fa:5a:5a:9d:26:40:
                    c2:35:65:00:f3:a0:e2:d3:21:4d:a5:c4:91:88:90:
                    14:a7:5e:f7:13:b7:ea:2b:a2:bd:d7:84:18:1a:b7:
                    7b:5d
                Exponent: 65537 (0x10001)
        X509v3 extensions:
            X509v3 Basic Constraints: critical
                CA:FALSE
            X509v3 Subject Key Identifier: 
                82:04:1D:BD:05:71:83:6F:F6:98:19:4D:4F:11:46:88:4D:9B:BF:A8
            X509v3 Authority Key Identifier: 
                keyid:BC:F7:30:D1:3C:C0:F2:79:FA:EF:9F:C9:6C:5C:93:F3:8A:68:AB:83

            X509v3 Extended Key Usage: 
                TLS Web Server Authentication, TLS Web Client Authentication
            X509v3 Subject Alternative Name: 
                IP Address:127.0.0.1
    Signature Algorithm: sha256WithRSAEncryption
         84:dc:10:04:8d:bd:3f:c1:3e:fb:68:4b:3f:35:e4:5d:02:eb:
         73:e6:0e:74:16:e4:c5:30:6b:05:94:4e:9c:69:10:5e:7a:af:
         a4:76:c6:28:a7:1a:c1:5c:7e:1d:5e:1c:5e:87:97:fe:5c:5b:
         28:47:31:b1:79:4a:f8:36:f6:b1:52:b8:d5:ab:6b:86:ef:ec:
         3d:ed:50:0b:40:37:65:0b:22:3a:b7:af:d4:04:36:f0:f0:d2:
         9a:16:69:5d:8b:25:03:f6:05:87:5e:48:bd:25:15:c4:3b:6a:
         ed:63:d8:87:55:8e:3e:1c:44:de:eb:1b:dd:c4:73:c7:a6:6a:
         12:6d:48:d5:e5:12:6a:a8:55:26:26:0d:7e:bc:cd:71:85:b1:
         8a:76:e4:5a:1a:c5:9c:26:bf:d7:5e:57:14:fa:b6:52:cf:85:
         90:0a:e8:7f:69:e1:b0:94:1b:ac:64:5a:e9:38:cc:53:9e:fd:
         c6:d4:e1:5e:9c:37:22:2e:4b:d9:81:5f:59:e1:43:a7:7b:ed:
         a7:23:20:fd:04:91:f0:1d:4e:6c:c0:de:ab:9a:19:2b:4f:00:
         a3:1d:58:74:c9:32:6e:ee:35:b6:33:4c:64:8d:6e:ec:a8:8e:
         d7:33:c7:33:c6:92:8a:ce:b5:f6:5d:8e:12:52:ec:9d:0a:cf:
         4b:3b:dd:f3
-----BEGIN CERTIFICATE-----
MIIDczCCAlugAwIBAgIBAjANBgkqhkiG9w0BAQsFADAXMRUwEwYDVQQDDAxUZXN0
IFJvb3QgQ0EwHhcNMTQwODE0MDMwNTI5WhcNMjQwODExMDMwNTI5WjBgMQswCQYD
VQQGEwJVUzETMBEGA1UECAwKQ2FsaWZvcm5pYTEWMBQGA1UEBwwNTW91bnRhaW4g
VmlldzEQMA4GA1UECgwHVGVzdCBDQTESMBAGA1UEAwwJMTI3LjAuMC4xMIIBIjAN
BgkqhkiG9w0BAQEFAAOCAQ8AMIIBCgKCAQEAtfj0Mtj19GXK6dDL3emXoW6Q4vSy
shbQm+KZV+17xltvScGUAKkNXbU19Dp7PBgGo3haaP+mBR99EAiuCWzc7924l55s
zsug3DMrHpXvHfvT2vg+V+2Ljp6GTRKmDDAj7whFTyESQoiHAdilMp+3OO9grbdH
aztLplwrVnJc0bU4h5nsO//GAu+GOO7iBcbwZuIYkVDlVyMnmbvbSSSIZqgUln4a
bSrh/xj1ajfSiKh5yblQ9ZpoCwSeaAIdoXHgiRW6KkgGenjT0Qx3g5iD+LniYCCS
B5vUyMD6WlqdJkDCNWUA86Di0yFNpcSRiJAUp173E7fqK6K914QYGrd7XQIDAQAB
o4GAMH4wDAYDVR0TAQH/BAIwADAdBgNVHQ4EFgQUggQdvQVxg2/2mBlNTxFGiE2b
v6gwHwYDVR0jBBgwFoAUvPcw0TzA8nn675/JbFyT84poq4MwHQYDVR0lBBYwFAYI
KwYBBQUHAwEGCCsGAQUFBwMCMA8GA1UdEQQIMAaHBH8AAAEwDQYJKoZIhvcNAQEL
BQADggEBAITcEASNvT/BPvtoSz815F0C63PmDnQW5MUwawWUTpxpEF56r6R2xiin
GsFcfh1eHF6Hl/5cWyhHMbF5Svg29rFSuNWra4bv7D3tUAtAN2ULIjq3r9QENvDw
0poWaV2LJQP2BYdeSL0lFcQ7au1j2IdVjj4cRN7rG93Ec8emahJtSNXlEmqoVSYm
DX68zXGFsYp25FoaxZwmv9deVxT6tlLPhZAK6H9p4bCUG6xkWuk4zFOe/cbU4V6c
NyIuS9mBX1nhQ6d77acjIP0EkfAdTmzA3quaGStPAKMdWHTJMm7uNbYzTGSNbuyo
jtczxzPGkorOtfZdjhJS7J0Kz0s73fM=
-----END CERTIFICATE-----
