-----BEGIN PRIVATE KEY-----
MIIEvAIBADANBgkqhkiG9w0BAQEFAASCBKYwggSiAgEAAoIBAQC/o1248m3ahtTW
3Qyg28CaxDu3lQaaEdfPjdAc75ncit2HvdkOuRFpr5RXEa+LhhYIWcj+/oa6Jgn+
8FG6FENkyGWFH8tEOfaTV5g08r8GdzYCatmZBPTiXX/b7fIUXUhysls0st/qVqvT
iPZYRM9AM/7JtbjD4nNZDabmyVuRkkLB8lgxEuBXX5R8di3SrOfCYqKI6IPPiJ7t
umcJYbgfWqXhdMqHGDtd0O/CRfUmJRjKmsX3YZuw+xwECgNZ14fGUWU7bnR2UOfC
UgBaRVmOL2kdg6545QNmFT97QpPwxRqtluTnCTEOTZe1nptjeNMOyifSZCeSwt5r
Llzwf3jZAgMBAAECggEAKxcAq+VW7hwDH4z0mfbPh/03sD/CDEKW1AR/FwKJBh3z
UeJOPBFA6RKhuDIx1p1/tsD5gNyaTqDe/oPq3HxR6wdkTFqpyd1+pAK+JqmuajXD
3ydHZjDHH18GsNz/4bRX5fJUr7TIxFhYqmfRfGd8cmM+lvxVXzY72XpIXPxJqqFk
40AticFiOdMqVp/6gBBBx8TovTDnJCnvMFanNXh8qsfxwWQNS92U/OJ+uaLj1mLd
r2pkMh5VIEzfxgWTTNsRLMOksnmLNLNQZ58UJMNfhJpjBCZ0yMw5EArolQLOyl77
yHlAmSvZWBw216zij6TfcsBmZgdrNsF6GJ92ThwAAQKBgQDgtf8/LUoOv0OGPP8J
Sa+1Ch+l3Lkezdx0p07hES3wNPcnh8yqLXAVt4CllaJKBJTDP5gqCZXTiLFMVwZY
P0/NznTom/84CiEsm4EpdAUndPxM8Np+MZezch2aMlODDZEzfGOJs8Wd/a2UC9kW
VgPIB3hBAZU+k7OSaeMu2BYq2QKBgQDaUnaO+YTJ5QKwZ94+8MI9JIyjIiZss4wk
Qm1WgYToYUZeOQjg+iDELqlQFCahhPTiba8oovsv3BfHAkE2mMB22BccV8BwtZfg
fG+goXbhEumYubMKNg0ST5/wVczPncBxfHCgpdg9G15vKmbV/7VEbwBM/idHiLTy
DIYgPVb+AQKBgA4QlidYKFh/9DQEwVnNeOf1+EEjbZrV+8R5bGB9+MgeKJIa196W
9XsGf1Dd6siDPORzqIyJCQ2ycpZ6o/UGEXKqR3r/uJvDVow6N31mu6PamKggMyzO
4dXjgKLUH5IGWV5FnN1TmTzoUeMAUtgpDheJECfRd4vxJr41TnjyIYERAoGALJbV
AgRyG237a537JS207hnt40+RO3g8MhejDxzq0S802P+bEZ/kW00QZXuIHEr0XN57
/Le0x6SS8qFCQm1WOa+OoMpHUn20JDQl9E+l4Pgk331l1LsPVmMOzl4ns2uLp2H7
+sOEc46IbfniAOj106E8FX1+9jw0gI8QQbtlbgECgYA/QsKOQnnUoikpIsKRfJ7x
S8AERMBXLa1Q9lPtaiCF7lQSkLUfn2goSWVUCEPD6mgsbOcq2hlY9HXQaVispSrm
aUb8tCSa/cM9Gldxl0Jt1rSW4O0H2mw6vwjihZ0MGMfM921+x95vxNylHZxp2eYZ
vKJsYp14tT/JqNH+qQN2mQ==
-----END PRIVATE KEY-----
Certificate:
    Data:
        Version: 3 (0x2)
        Serial Number: 1 (0x1)
    Signature Algorithm: sha256WithRSAEncryption
        Issuer: C=US, ST=California, L=Mountain View, O=Test CA, CN=Test Intermediate CA
        Validity
            Not Before: Dec  9 22:40:08 2016 GMT
            Not After : Dec  7 22:40:08 2026 GMT
        Subject: C=US, ST=California, L=Mountain View, O=Test CA, CN=127.0.0.1
        Subject Public Key Info:
            Public Key Algorithm: rsaEncryption
                Public-Key: (2048 bit)
                Modulus:
                    00:bf:a3:5d:b8:f2:6d:da:86:d4:d6:dd:0c:a0:db:
                    c0:9a:c4:3b:b7:95:06:9a:11:d7:cf:8d:d0:1c:ef:
                    99:dc:8a:dd:87:bd:d9:0e:b9:11:69:af:94:57:11:
                    af:8b:86:16:08:59:c8:fe:fe:86:ba:26:09:fe:f0:
                    51:ba:14:43:64:c8:65:85:1f:cb:44:39:f6:93:57:
                    98:34:f2:bf:06:77:36:02:6a:d9:99:04:f4:e2:5d:
                    7f:db:ed:f2:14:5d:48:72:b2:5b:34:b2:df:ea:56:
                    ab:d3:88:f6:58:44:cf:40:33:fe:c9:b5:b8:c3:e2:
                    73:59:0d:a6:e6:c9:5b:91:92:42:c1:f2:58:31:12:
                    e0:57:5f:94:7c:76:2d:d2:ac:e7:c2:62:a2:88:e8:
                    83:cf:88:9e:ed:ba:67:09:61:b8:1f:5a:a5:e1:74:
                    ca:87:18:3b:5d:d0:ef:c2:45:f5:26:25:18:ca:9a:
                    c5:f7:61:9b:b0:fb:1c:04:0a:03:59:d7:87:c6:51:
                    65:3b:6e:74:76:50:e7:c2:52:00:5a:45:59:8e:2f:
                    69:1d:83:ae:78:e5:03:66:15:3f:7b:42:93:f0:c5:
                    1a:ad:96:e4:e7:09:31:0e:4d:97:b5:9e:9b:63:78:
                    d3:0e:ca:27:d2:64:27:92:c2:de:6b:2e:5c:f0:7f:
                    78:d9
                Exponent: 65537 (0x10001)
        X509v3 extensions:
            X509v3 Basic Constraints: critical
                CA:FALSE
            X509v3 Subject Key Identifier: 
                1A:DE:3A:BF:17:09:87:0A:D0:12:6B:C9:47:D2:A7:EB:ED:5B:04:99
            X509v3 Authority Key Identifier: 
                keyid:F9:98:21:49:71:FA:8D:B9:20:F7:FE:5D:4D:41:E8:8B:6C:E0:62:C3

            X509v3 Extended Key Usage: 
                TLS Web Server Authentication, TLS Web Client Authentication
            X509v3 Subject Alternative Name: 
                IP Address:127.0.0.1
    Signature Algorithm: sha256WithRSAEncryption
         8a:ac:de:1c:d2:ca:a7:b3:f8:26:34:2e:a7:b4:ef:7e:26:08:
         5b:f4:78:ec:37:4a:a8:02:c8:37:cc:45:7c:e3:bd:5c:e3:87:
         24:ea:4f:1a:dd:f5:d7:a3:de:2f:78:6a:e9:3a:4d:87:3a:9b:
         7c:5c:5b:59:b4:2f:9e:1d:6d:29:9f:60:c0:d8:b7:87:0c:4b:
         59:ac:b3:0d:5c:11:4f:24:09:4e:7c:84:72:00:8c:12:b7:84:
         8a:80:91:97:4e:22:17:e0:5f:83:fd:97:6c:51:b3:03:c0:a2:
         3c:f8:9e:24:a1:c1:b7:14:a0:6b:30:e8:62:b8:84:87:6b:ae:
         e0:d2:56:f0:08:f6:d6:0e:1a:8d:5e:8b:06:b3:1e:14:6c:1b:
         72:e9:46:25:cb:97:b7:d5:4e:79:20:37:05:a4:51:8e:d4:40:
         3f:de:6f:c7:32:b8:28:2e:2a:08:c0:51:4e:32:1b:6c:c9:c0:
         03:b3:b6:3e:fd:46:1e:5b:b7:6f:ef:97:ae:df:03:e9:4e:64:
         39:94:fa:6f:65:71:11:dc:f7:4d:ed:48:c4:3d:7a:55:b8:c6:
         f5:04:a4:d8:06:cd:c7:42:48:eb:d0:7a:4c:21:db:44:e7:c2:
         68:a7:45:9f:54:2c:15:71:b5:74:c6:bf:1b:3c:eb:78:89:6f:
         19:3a:69:02
-----BEGIN CERTIFICATE-----
MIIDxzCCAq+gAwIBAgIBATANBgkqhkiG9w0BAQsFADBrMQswCQYDVQQGEwJVUzET
MBEGA1UECAwKQ2FsaWZvcm5pYTEWMBQGA1UEBwwNTW91bnRhaW4gVmlldzEQMA4G
A1UECgwHVGVzdCBDQTEdMBsGA1UEAwwUVGVzdCBJbnRlcm1lZGlhdGUgQ0EwHhcN
MTYxMjA5MjI0MDA4WhcNMjYxMjA3MjI0MDA4WjBgMQswCQYDVQQGEwJVUzETMBEG
A1UECAwKQ2FsaWZvcm5pYTEWMBQGA1UEBwwNTW91bnRhaW4gVmlldzEQMA4GA1UE
CgwHVGVzdCBDQTESMBAGA1UEAwwJMTI3LjAuMC4xMIIBIjANBgkqhkiG9w0BAQEF
AAOCAQ8AMIIBCgKCAQEAv6NduPJt2obU1t0MoNvAmsQ7t5UGmhHXz43QHO+Z3Ird
h73ZDrkRaa+UVxGvi4YWCFnI/v6GuiYJ/vBRuhRDZMhlhR/LRDn2k1eYNPK/Bnc2
AmrZmQT04l1/2+3yFF1IcrJbNLLf6lar04j2WETPQDP+ybW4w+JzWQ2m5slbkZJC
wfJYMRLgV1+UfHYt0qznwmKiiOiDz4ie7bpnCWG4H1ql4XTKhxg7XdDvwkX1JiUY
yprF92GbsPscBAoDWdeHxlFlO250dlDnwlIAWkVZji9pHYOueOUDZhU/e0KT8MUa
rZbk5wkxDk2XtZ6bY3jTDson0mQnksLeay5c8H942QIDAQABo4GAMH4wDAYDVR0T
AQH/BAIwADAdBgNVHQ4EFgQUGt46vxcJhwrQEmvJR9Kn6+1bBJkwHwYDVR0jBBgw
FoAU+ZghSXH6jbkg9/5dTUHoi2zgYsMwHQYDVR0lBBYwFAYIKwYBBQUHAwEGCCsG
AQUFBwMCMA8GA1UdEQQIMAaHBH8AAAEwDQYJKoZIhvcNAQELBQADggEBAIqs3hzS
yqez+CY0Lqe0734mCFv0eOw3SqgCyDfMRXzjvVzjhyTqTxrd9dej3i94auk6TYc6
m3xcW1m0L54dbSmfYMDYt4cMS1mssw1cEU8kCU58hHIAjBK3hIqAkZdOIhfgX4P9
l2xRswPAojz4niShwbcUoGsw6GK4hIdrruDSVvAI9tYOGo1eiwazHhRsG3LpRiXL
l7fVTnkgNwWkUY7UQD/eb8cyuCguKgjAUU4yG2zJwAOztj79Rh5bt2/vl67fA+lO
ZDmU+m9lcRHc903tSMQ9elW4xvUEpNgGzcdCSOvQekwh20TnwminRZ9ULBVxtXTG
vxs863iJbxk6aQI=
-----END CERTIFICATE-----
