Certificate:
    Data:
        Version: 3 (0x2)
        Serial Number: 22 (0x16)
    Signature Algorithm: sha256WithRSAEncryption
        Issuer: CN=Test Root CA
        Validity
            Not Before: Jun  1 00:00:00 2016 GMT
            Not After : Jul  3 00:00:00 2017 GMT
        Subject: C=US, ST=California, L=Mountain View, O=Test CA, CN=127.0.0.1
        Subject Public Key Info:
            Public Key Algorithm: rsaEncryption
                Public-Key: (2048 bit)
                Modulus:
                    00:a0:2c:97:63:20:82:b4:59:56:80:66:89:38:1c:
                    11:9e:5d:c0:e0:4f:15:07:93:aa:ca:1f:d5:e6:46:
                    6f:50:1d:47:f3:28:a5:49:20:11:e4:8d:38:74:c1:
                    6b:ed:95:bb:4e:60:f9:8b:d1:c9:7e:3a:2b:e6:ff:
                    1a:6c:7c:3e:91:f8:2f:7a:52:ed:a8:9b:8f:fe:be:
                    ea:ed:cf:45:9d:33:0b:b6:f5:3b:eb:59:68:73:35:
                    7e:47:e5:c9:2f:c7:5d:fb:bf:0d:f6:e6:09:50:6d:
                    9a:45:3a:b1:b7:21:6c:ea:83:df:4d:7c:96:84:3a:
                    1e:2e:22:d1:30:62:48:a5:d4:56:98:6b:77:7e:be:
                    64:58:4a:18:b8:29:f5:f1:9c:3e:69:8d:33:ca:d5:
                    e1:7d:11:a5:8c:86:97:b3:8e:d2:fe:a0:3b:15:26:
                    22:c9:72:ac:4d:02:25:4c:de:75:b2:6d:9c:a1:38:
                    72:b9:84:f0:0e:83:71:6d:02:32:2b:13:cc:e9:fd:
                    43:e4:e9:9c:a4:9c:b8:6a:81:d8:3b:5f:91:54:03:
                    8c:fd:8e:e0:33:68:08:00:63:c7:c9:23:be:a2:50:
                    94:85:88:d7:1c:23:19:1b:00:60:41:28:a8:a4:58:
                    db:0b:84:48:39:f7:4e:5a:77:dd:fd:90:e3:2e:a1:
                    a2:43
                Exponent: 65537 (0x10001)
        X509v3 extensions:
            X509v3 Basic Constraints: critical
                CA:FALSE
            X509v3 Subject Key Identifier: 
                E4:33:1D:DC:72:6A:BD:68:62:A5:08:96:78:ED:40:A6:4A:3D:D4:C6
            X509v3 Authority Key Identifier: 
                keyid:43:43:FB:54:41:BE:07:E9:5B:E2:B9:75:97:6A:52:DE:F4:28:02:53

            X509v3 Extended Key Usage: 
                TLS Web Server Authentication, TLS Web Client Authentication
            X509v3 Subject Alternative Name: 
                IP Address:127.0.0.1
    Signature Algorithm: sha256WithRSAEncryption
         22:d0:60:a1:65:62:e8:7c:a8:58:87:5b:21:38:32:94:41:1e:
         39:9a:f0:4d:eb:9e:14:1c:61:53:5f:f4:f6:d7:d4:29:81:d6:
         cc:67:ca:83:fc:e6:1e:31:bd:7f:89:76:d2:9e:26:1f:10:2e:
         a4:61:33:24:a7:eb:ec:26:bb:20:c9:3b:d4:cb:9d:72:31:e0:
         23:13:b0:5d:d9:df:c9:49:50:84:29:2f:01:31:83:3c:13:6d:
         d7:81:27:d2:2e:34:26:e8:ae:0d:99:03:31:71:de:e3:16:aa:
         09:32:79:52:cf:d3:75:e5:0d:ed:a7:99:6c:9c:98:93:72:a2:
         3d:3e:93:52:51:cd:76:60:a6:d0:b9:52:ec:02:cc:41:9e:5d:
         66:be:5c:9b:3c:81:e5:9a:17:13:c2:be:2c:c6:ac:26:4e:18:
         84:a2:12:8a:87:78:61:6c:46:2d:a9:93:8c:e9:f5:7b:a9:f7:
         c5:58:00:8c:29:eb:23:e6:bf:93:58:f2:f9:7d:79:2b:51:6d:
         c4:ff:22:3f:67:ab:b6:c7:97:47:98:f8:ef:4d:02:e9:25:0a:
         34:7d:52:35:5d:72:47:0a:e4:b9:6a:25:41:ab:9a:b1:1c:00:
         f0:5b:a9:09:2e:12:43:1c:9a:03:9c:61:2c:b9:e8:a3:f1:e6:
         eb:3e:ee:d9
-----BEGIN CERTIFICATE-----
MIIDczCCAlugAwIBAgIBFjANBgkqhkiG9w0BAQsFADAXMRUwEwYDVQQDDAxUZXN0
IFJvb3QgQ0EwHhcNMTYwNjAxMDAwMDAwWhcNMTcwNzAzMDAwMDAwWjBgMQswCQYD
VQQGEwJVUzETMBEGA1UECAwKQ2FsaWZvcm5pYTEWMBQGA1UEBwwNTW91bnRhaW4g
VmlldzEQMA4GA1UECgwHVGVzdCBDQTESMBAGA1UEAwwJMTI3LjAuMC4xMIIBIjAN
BgkqhkiG9w0BAQEFAAOCAQ8AMIIBCgKCAQEAoCyXYyCCtFlWgGaJOBwRnl3A4E8V
B5Oqyh/V5kZvUB1H8yilSSAR5I04dMFr7ZW7TmD5i9HJfjor5v8abHw+kfgvelLt
qJuP/r7q7c9FnTMLtvU761loczV+R+XJL8dd+78N9uYJUG2aRTqxtyFs6oPfTXyW
hDoeLiLRMGJIpdRWmGt3fr5kWEoYuCn18Zw+aY0zytXhfRGljIaXs47S/qA7FSYi
yXKsTQIlTN51sm2coThyuYTwDoNxbQIyKxPM6f1D5OmcpJy4aoHYO1+RVAOM/Y7g
M2gIAGPHySO+olCUhYjXHCMZGwBgQSiopFjbC4RIOfdOWnfd/ZDjLqGiQwIDAQAB
o4GAMH4wDAYDVR0TAQH/BAIwADAdBgNVHQ4EFgQU5DMd3HJqvWhipQiWeO1Apko9
1MYwHwYDVR0jBBgwFoAUQ0P7VEG+B+lb4rl1l2pS3vQoAlMwHQYDVR0lBBYwFAYI
KwYBBQUHAwEGCCsGAQUFBwMCMA8GA1UdEQQIMAaHBH8AAAEwDQYJKoZIhvcNAQEL
BQADggEBACLQYKFlYuh8qFiHWyE4MpRBHjma8E3rnhQcYVNf9PbX1CmB1sxnyoP8
5h4xvX+JdtKeJh8QLqRhMySn6+wmuyDJO9TLnXIx4CMTsF3Z38lJUIQpLwExgzwT
bdeBJ9IuNCborg2ZAzFx3uMWqgkyeVLP03XlDe2nmWycmJNyoj0+k1JRzXZgptC5
UuwCzEGeXWa+XJs8geWaFxPCvizGrCZOGISiEoqHeGFsRi2pk4zp9Xup98VYAIwp
6yPmv5NY8vl9eStRbcT/Ij9nq7bHl0eY+O9NAuklCjR9UjVdckcK5LlqJUGrmrEc
APBbqQkuEkMcmgOcYSy56KPx5us+7tk=
-----END CERTIFICATE-----
