Certificate:
    Data:
        Version: 3 (0x2)
        Serial Number: 21 (0x15)
    Signature Algorithm: sha256WithRSAEncryption
        Issuer: CN=Test Root CA
        Validity
            Not Before: May  1 00:00:00 2016 GMT
            Not After : Jul  3 00:00:00 2017 GMT
        Subject: C=US, ST=California, L=Mountain View, O=Test CA, CN=127.0.0.1
        Subject Public Key Info:
            Public Key Algorithm: rsaEncryption
                Public-Key: (2048 bit)
                Modulus:
                    00:b6:24:4c:22:10:05:0c:31:f6:ff:fa:4f:2f:bb:
                    d2:24:7a:b0:a3:a7:6a:95:94:13:be:50:9e:2a:6e:
                    79:bf:79:42:7c:b4:18:9c:d3:df:45:05:12:0f:df:
                    e9:e7:92:0c:be:1a:32:81:87:de:28:a2:23:e0:6d:
                    11:3b:28:ee:a8:00:ec:72:e5:10:c2:a0:21:57:e9:
                    29:1d:12:6b:3a:64:4c:85:89:ba:27:9a:71:de:e8:
                    5a:6b:e2:0c:10:f0:f1:27:36:ce:b8:7e:b5:c3:cb:
                    fa:37:2b:a7:bc:ee:d1:89:0a:cd:a5:de:d8:cd:ee:
                    0b:9b:ee:76:64:83:d6:f3:73:a0:fd:47:cf:84:e6:
                    0d:7e:fd:4f:42:a5:ca:af:d8:0d:00:f6:0e:52:09:
                    26:be:57:f1:25:3a:1d:df:4a:c2:bf:c9:9d:43:13:
                    49:cc:4c:4d:3e:e1:6d:5e:6e:7a:6c:92:01:2f:d7:
                    97:1b:5d:6b:9d:bb:a4:cd:b6:21:76:e9:41:97:29:
                    8d:a8:97:27:fe:30:8c:ca:39:62:60:c2:ca:d7:a4:
                    34:07:62:68:32:5f:3c:52:92:31:f8:2f:59:32:dd:
                    d7:7a:04:7d:3b:37:06:b9:44:b0:04:81:21:36:41:
                    29:c4:b0:be:c7:87:d1:02:40:79:9d:6d:a9:1f:41:
                    fa:d5
                Exponent: 65537 (0x10001)
        X509v3 extensions:
            X509v3 Basic Constraints: critical
                CA:FALSE
            X509v3 Subject Key Identifier: 
                A0:47:EE:7C:C6:CD:E0:DB:3C:82:9B:C6:9E:59:AD:67:65:21:CA:31
            X509v3 Authority Key Identifier: 
                keyid:43:43:FB:54:41:BE:07:E9:5B:E2:B9:75:97:6A:52:DE:F4:28:02:53

            X509v3 Extended Key Usage: 
                TLS Web Server Authentication, TLS Web Client Authentication
            X509v3 Subject Alternative Name: 
                IP Address:127.0.0.1
    Signature Algorithm: sha256WithRSAEncryption
         b2:27:20:1e:81:14:5b:25:ac:5e:f9:14:14:72:46:b9:0f:a0:
         f8:fa:cd:58:13:19:e4:a5:ef:f3:2c:6a:c4:2f:9b:dd:d6:91:
         79:d0:94:a7:4c:96:fc:e4:e1:6f:1e:da:3c:15:02:d3:8f:12:
         3f:c0:e4:49:3a:e2:cc:89:dd:5e:cc:28:86:6d:ba:b5:b9:dd:
         06:83:3a:63:fb:9d:6e:29:15:5f:30:eb:7a:fe:8c:2d:cb:22:
         e9:c7:5c:09:a8:ce:d0:9b:65:47:bc:8e:6a:e8:88:dd:14:bd:
         74:eb:72:b5:3b:fb:ff:5e:3a:78:c2:48:5a:55:1a:1c:0e:29:
         06:af:9e:c1:55:ce:16:d0:c7:c5:7f:95:7a:6c:e7:1a:f4:a8:
         7a:b2:ae:ad:b7:b5:90:c5:62:e7:dd:69:ec:a7:19:ec:6c:c5:
         54:18:9c:2e:f0:79:6e:e6:b5:85:dd:24:05:8d:5f:c1:33:01:
         96:b1:37:99:1e:df:42:e4:e5:cf:b1:f9:ea:49:c3:2e:a1:f6:
         ce:20:19:5b:fd:5a:f6:ef:53:de:19:77:2b:04:df:bb:b9:cb:
         3b:c6:74:bd:40:9f:57:44:2a:d0:75:30:ca:e4:c7:7b:22:18:
         73:d4:5a:e9:81:d8:76:85:29:8e:83:13:13:a2:61:ad:b1:12:
         23:71:35:d9
-----BEGIN CERTIFICATE-----
MIIDczCCAlugAwIBAgIBFTANBgkqhkiG9w0BAQsFADAXMRUwEwYDVQQDDAxUZXN0
IFJvb3QgQ0EwHhcNMTYwNTAxMDAwMDAwWhcNMTcwNzAzMDAwMDAwWjBgMQswCQYD
VQQGEwJVUzETMBEGA1UECAwKQ2FsaWZvcm5pYTEWMBQGA1UEBwwNTW91bnRhaW4g
VmlldzEQMA4GA1UECgwHVGVzdCBDQTESMBAGA1UEAwwJMTI3LjAuMC4xMIIBIjAN
BgkqhkiG9w0BAQEFAAOCAQ8AMIIBCgKCAQEAtiRMIhAFDDH2//pPL7vSJHqwo6dq
lZQTvlCeKm55v3lCfLQYnNPfRQUSD9/p55IMvhoygYfeKKIj4G0ROyjuqADscuUQ
wqAhV+kpHRJrOmRMhYm6J5px3uhaa+IMEPDxJzbOuH61w8v6NyunvO7RiQrNpd7Y
ze4Lm+52ZIPW83Og/UfPhOYNfv1PQqXKr9gNAPYOUgkmvlfxJTod30rCv8mdQxNJ
zExNPuFtXm56bJIBL9eXG11rnbukzbYhdulBlymNqJcn/jCMyjliYMLK16Q0B2Jo
Ml88UpIx+C9ZMt3XegR9OzcGuUSwBIEhNkEpxLC+x4fRAkB5nW2pH0H61QIDAQAB
o4GAMH4wDAYDVR0TAQH/BAIwADAdBgNVHQ4EFgQUoEfufMbN4Ns8gpvGnlmtZ2Uh
yjEwHwYDVR0jBBgwFoAUQ0P7VEG+B+lb4rl1l2pS3vQoAlMwHQYDVR0lBBYwFAYI
KwYBBQUHAwEGCCsGAQUFBwMCMA8GA1UdEQQIMAaHBH8AAAEwDQYJKoZIhvcNAQEL
BQADggEBALInIB6BFFslrF75FBRyRrkPoPj6zVgTGeSl7/MsasQvm93WkXnQlKdM
lvzk4W8e2jwVAtOPEj/A5Ek64syJ3V7MKIZturW53QaDOmP7nW4pFV8w63r+jC3L
IunHXAmoztCbZUe8jmroiN0UvXTrcrU7+/9eOnjCSFpVGhwOKQavnsFVzhbQx8V/
lXps5xr0qHqyrq23tZDFYufdaeynGexsxVQYnC7weW7mtYXdJAWNX8EzAZaxN5ke
30Lk5c+x+epJwy6h9s4gGVv9WvbvU94ZdysE37u5yzvGdL1An1dEKtB1MMrkx3si
GHPUWumB2HaFKY6DExOiYa2xEiNxNdk=
-----END CERTIFICATE-----
