Certificate:
    Data:
        Version: 3 (0x2)
        Serial Number: 11 (0xb)
    Signature Algorithm: sha256WithRSAEncryption
        Issuer: CN=Test Root CA
        Validity
            Not Before: May  1 00:00:00 2012 GMT
            Not After : Jul  3 00:00:00 2019 GMT
        Subject: C=US, ST=California, L=Mountain View, O=Test CA, CN=127.0.0.1
        Subject Public Key Info:
            Public Key Algorithm: rsaEncryption
                Public-Key: (2048 bit)
                Modulus:
                    00:ac:f5:76:f7:0e:a7:1b:fd:50:52:81:ae:bb:59:
                    c5:21:00:6f:a4:ef:ca:e0:12:78:4a:f6:78:fc:8a:
                    c8:d4:76:37:15:9e:7f:46:83:f3:c7:57:fa:ec:79:
                    c4:51:4e:b5:76:09:07:2d:91:5d:7f:25:95:fa:98:
                    59:66:84:b4:a3:01:be:3c:cd:2a:71:9e:83:82:94:
                    4b:28:33:af:0a:57:a0:16:28:8f:9a:2b:7b:50:0c:
                    e0:0e:3f:58:49:09:70:c5:99:17:ae:df:e0:83:98:
                    09:0a:a8:a7:d6:ca:b4:86:49:03:86:f5:76:b5:0f:
                    8a:a8:f2:b9:d3:f5:a5:32:b1:e8:50:5a:cf:45:7a:
                    b9:81:26:08:69:24:d0:ac:ea:27:c4:69:0e:65:45:
                    0f:cc:d4:b4:81:81:d0:e0:52:04:17:3e:74:fd:be:
                    3b:de:29:11:41:7d:91:19:45:03:1a:8b:f9:93:ac:
                    61:91:ce:4d:da:b2:1b:b1:2e:14:20:c3:44:78:17:
                    70:1c:1e:cd:e2:86:bf:e4:63:b9:cb:aa:fa:1c:ae:
                    63:4a:fe:a4:df:71:e7:ad:49:40:97:75:d4:b0:90:
                    eb:9b:d1:92:07:a8:f1:b7:29:77:d7:17:c9:e6:55:
                    5d:26:85:09:03:e9:b2:96:18:97:c6:7f:f7:1c:f9:
                    2d:a7
                Exponent: 65537 (0x10001)
        X509v3 extensions:
            X509v3 Basic Constraints: critical
                CA:FALSE
            X509v3 Subject Key Identifier: 
                A2:3D:78:98:07:E9:84:62:82:AF:66:FF:8F:00:F4:9F:79:AA:EB:A5
            X509v3 Authority Key Identifier: 
                keyid:EE:54:52:3A:28:73:20:9D:56:2D:2A:98:F4:9C:B1:7D:FB:C5:22:47

            X509v3 Extended Key Usage: 
                TLS Web Server Authentication, TLS Web Client Authentication
            X509v3 Subject Alternative Name: 
                IP Address:127.0.0.1
    Signature Algorithm: sha256WithRSAEncryption
         3b:66:76:fa:c8:d3:a1:14:64:26:5b:e5:36:6c:e3:5f:53:fd:
         dd:50:9e:01:36:2a:3a:08:ec:bc:1e:76:b5:fd:5f:39:a8:79:
         a8:a7:9f:f0:8d:48:ba:d1:af:77:ed:bf:3a:1b:35:b7:ff:90:
         1a:09:74:bf:1b:15:19:33:8b:f3:a8:61:da:c7:d0:fe:76:52:
         15:5a:cf:a5:3d:c7:fc:05:c7:d2:e3:38:d3:ea:19:46:5b:94:
         8e:75:aa:6e:ab:f3:64:47:7d:f5:65:93:68:54:a5:97:dc:f8:
         1e:f5:fa:f4:8f:47:f6:d8:c5:85:67:6f:03:2f:82:67:0c:6f:
         35:2a:e2:f3:c8:56:be:8f:59:3a:6a:fc:0a:e1:40:dc:28:53:
         d0:1f:60:d1:2b:2c:a9:88:f3:82:63:67:1e:79:4e:0b:d5:90:
         69:9e:91:af:57:9a:fc:db:5c:44:84:0e:dc:05:f7:91:ec:16:
         9a:ad:b0:48:62:c5:3c:c0:ca:7f:43:06:34:ae:50:a0:2e:90:
         fa:21:2b:14:1f:be:51:c3:4f:c6:c4:9e:60:e4:b7:1c:82:f1:
         ef:9f:97:0c:bc:4a:90:86:35:90:da:e4:e7:83:80:8b:7c:7e:
         82:89:cc:c3:67:90:42:30:7e:c1:ba:b0:59:ae:f5:29:88:75:
         16:ff:df:2f
-----BEGIN CERTIFICATE-----
MIIDczCCAlugAwIBAgIBCzANBgkqhkiG9w0BAQsFADAXMRUwEwYDVQQDDAxUZXN0
IFJvb3QgQ0EwHhcNMTIwNTAxMDAwMDAwWhcNMTkwNzAzMDAwMDAwWjBgMQswCQYD
VQQGEwJVUzETMBEGA1UECAwKQ2FsaWZvcm5pYTEWMBQGA1UEBwwNTW91bnRhaW4g
VmlldzEQMA4GA1UECgwHVGVzdCBDQTESMBAGA1UEAwwJMTI3LjAuMC4xMIIBIjAN
BgkqhkiG9w0BAQEFAAOCAQ8AMIIBCgKCAQEArPV29w6nG/1QUoGuu1nFIQBvpO/K
4BJ4SvZ4/IrI1HY3FZ5/RoPzx1f67HnEUU61dgkHLZFdfyWV+phZZoS0owG+PM0q
cZ6DgpRLKDOvClegFiiPmit7UAzgDj9YSQlwxZkXrt/gg5gJCqin1sq0hkkDhvV2
tQ+KqPK50/WlMrHoUFrPRXq5gSYIaSTQrOonxGkOZUUPzNS0gYHQ4FIEFz50/b47
3ikRQX2RGUUDGov5k6xhkc5N2rIbsS4UIMNEeBdwHB7N4oa/5GO5y6r6HK5jSv6k
33HnrUlAl3XUsJDrm9GSB6jxtyl31xfJ5lVdJoUJA+mylhiXxn/3HPktpwIDAQAB
o4GAMH4wDAYDVR0TAQH/BAIwADAdBgNVHQ4EFgQUoj14mAfphGKCr2b/jwD0n3mq
66UwHwYDVR0jBBgwFoAU7lRSOihzIJ1WLSqY9JyxffvFIkcwHQYDVR0lBBYwFAYI
KwYBBQUHAwEGCCsGAQUFBwMCMA8GA1UdEQQIMAaHBH8AAAEwDQYJKoZIhvcNAQEL
BQADggEBADtmdvrI06EUZCZb5TZs419T/d1QngE2KjoI7LwedrX9Xzmoeainn/CN
SLrRr3ftvzobNbf/kBoJdL8bFRkzi/OoYdrH0P52UhVaz6U9x/wFx9LjONPqGUZb
lI51qm6r82RHffVlk2hUpZfc+B71+vSPR/bYxYVnbwMvgmcMbzUq4vPIVr6PWTpq
/ArhQNwoU9AfYNErLKmI84JjZx55TgvVkGmeka9XmvzbXESEDtwF95HsFpqtsEhi
xTzAyn9DBjSuUKAukPohKxQfvlHDT8bEnmDktxyC8e+flwy8SpCGNZDa5OeDgIt8
foKJzMNnkEIwfsG6sFmu9SmIdRb/3y8=
-----END CERTIFICATE-----
