Certificate:
    Data:
        Version: 3 (0x2)
        Serial Number: 17530995897422524617 (0xf34a9be2b0b330c9)
    Signature Algorithm: sha256WithRSAEncryption
        Issuer: CN=xn--wgv71a119e.com
        Validity
            Not Before: Aug 25 23:35:52 2014 GMT
            Not After : Aug 22 23:35:52 2024 GMT
        Subject: CN=xn--wgv71a119e.com
        Subject Public Key Info:
            Public Key Algorithm: rsaEncryption
                Public-Key: (2048 bit)
                Modulus:
                    00:cd:fe:21:97:48:33:2f:76:4b:e8:8f:07:40:41:
                    0f:64:0f:77:29:a5:85:ad:86:44:eb:8d:29:23:b5:
                    b5:56:b4:09:fc:59:35:ff:d0:df:fe:01:f5:e5:c6:
                    c6:ee:8e:33:45:fd:fd:a6:d4:ad:e0:7b:cf:fd:5a:
                    8d:89:c0:87:bc:b9:5c:dd:19:16:d4:7d:1b:48:c0:
                    29:d6:7f:ff:c7:4f:22:e9:35:32:ee:7e:75:ad:99:
                    e6:ae:73:d6:fa:db:ec:ba:7b:13:b2:6d:5e:fb:31:
                    63:6a:7f:80:9b:6f:ab:02:ff:dd:8e:a8:dd:f7:74:
                    f7:67:1e:e7:53:07:b2:b2:55:a8:6b:df:24:5a:b1:
                    8a:35:f1:5b:ea:a3:28:fe:d7:53:44:50:c6:b4:8b:
                    2d:c8:6d:71:4a:43:57:0b:81:66:82:65:f6:db:4b:
                    32:40:e9:43:3a:e0:aa:f5:7c:62:d8:7a:7e:21:c9:
                    0f:da:90:11:2c:14:16:6a:2d:fd:8e:f3:cf:4a:ed:
                    6f:45:23:cb:04:56:95:e9:9e:91:cf:93:bf:ef:6c:
                    57:1c:c0:64:37:76:7a:38:5d:94:4c:1d:79:e8:63:
                    a4:80:ea:51:f6:28:37:d2:6f:3c:70:b9:97:32:79:
                    c2:18:94:66:f3:19:f3:ac:0f:a0:2f:a0:66:9d:d3:
                    0e:37
                Exponent: 65537 (0x10001)
        X509v3 extensions:
            X509v3 Basic Constraints: critical
                CA:TRUE
            X509v3 Subject Alternative Name: 
                DNS:xn--wgv71a119e.com, DNS:*.xn--wgv71a119e.com, DNS:blahblahblahblah.com
    Signature Algorithm: sha256WithRSAEncryption
         7d:29:70:ce:ec:60:99:30:82:c4:ba:c3:cc:72:f8:3b:bf:e3:
         5c:0d:45:7a:23:d5:85:a9:db:a9:f4:fc:11:0d:59:d5:3e:f0:
         b0:a6:db:82:dd:88:61:d1:17:6a:a9:a7:64:b0:0b:fd:b6:d6:
         d5:ba:4d:83:72:c8:a1:b5:5b:a3:fb:17:78:14:86:58:09:2d:
         35:1e:a8:19:75:25:55:38:e5:8d:74:2a:c5:fd:11:95:43:41:
         a7:d8:1b:50:b7:5a:20:39:8e:bd:06:28:4a:d6:d3:28:3d:1d:
         46:cc:64:9b:0b:1e:12:c8:64:1a:b5:b8:6f:99:46:78:ca:e3:
         c1:1f:0c:72:6b:38:e2:7f:86:87:14:0b:13:d1:9b:64:50:d4:
         c1:e6:36:5e:c0:66:29:3d:e4:61:7b:d0:e2:94:8f:60:d6:91:
         4a:31:36:f0:e6:70:75:9f:02:f3:d6:90:6a:12:10:a8:35:0e:
         ab:70:a7:c6:3a:21:e7:c2:ec:b4:42:1f:b5:43:eb:93:b8:60:
         ee:93:a3:17:aa:e3:23:2a:34:74:9d:b1:91:78:82:8f:6b:85:
         6e:94:9d:00:4f:65:85:de:c9:30:e2:22:6e:60:7a:c6:98:7e:
         8f:76:3f:2c:18:09:4b:91:95:53:67:66:c0:44:1e:9e:0a:a1:
         c1:71:87:9e
-----BEGIN CERTIFICATE-----
MIIDGzCCAgOgAwIBAgIJAPNKm+KwszDJMA0GCSqGSIb3DQEBCwUAMB0xGzAZBgNV
BAMMEnhuLS13Z3Y3MWExMTllLmNvbTAeFw0xNDA4MjUyMzM1NTJaFw0yNDA4MjIy
MzM1NTJaMB0xGzAZBgNVBAMMEnhuLS13Z3Y3MWExMTllLmNvbTCCASIwDQYJKoZI
hvcNAQEBBQADggEPADCCAQoCggEBAM3+IZdIMy92S+iPB0BBD2QPdymlha2GROuN
KSO1tVa0CfxZNf/Q3/4B9eXGxu6OM0X9/abUreB7z/1ajYnAh7y5XN0ZFtR9G0jA
KdZ//8dPIuk1Mu5+da2Z5q5z1vrb7Lp7E7JtXvsxY2p/gJtvqwL/3Y6o3fd092ce
51MHsrJVqGvfJFqxijXxW+qjKP7XU0RQxrSLLchtcUpDVwuBZoJl9ttLMkDpQzrg
qvV8Yth6fiHJD9qQESwUFmot/Y7zz0rtb0UjywRWlemekc+Tv+9sVxzAZDd2ejhd
lEwdeehjpIDqUfYoN9JvPHC5lzJ5whiUZvMZ86wPoC+gZp3TDjcCAwEAAaNeMFww
DwYDVR0TAQH/BAUwAwEB/zBJBgNVHREEQjBAghJ4bi0td2d2NzFhMTE5ZS5jb22C
FCoueG4tLXdndjcxYTExOWUuY29tghRibGFoYmxhaGJsYWhibGFoLmNvbTANBgkq
hkiG9w0BAQsFAAOCAQEAfSlwzuxgmTCCxLrDzHL4O7/jXA1FeiPVhanbqfT8EQ1Z
1T7wsKbbgt2IYdEXaqmnZLAL/bbW1bpNg3LIobVbo/sXeBSGWAktNR6oGXUlVTjl
jXQqxf0RlUNBp9gbULdaIDmOvQYoStbTKD0dRsxkmwseEshkGrW4b5lGeMrjwR8M
cms44n+GhxQLE9GbZFDUweY2XsBmKT3kYXvQ4pSPYNaRSjE28OZwdZ8C89aQahIQ
qDUOq3Cnxjoh58LstEIftUPrk7hg7pOjF6rjIyo0dJ2xkXiCj2uFbpSdAE9lhd7J
MOIibmB6xph+j3Y/LBgJS5GVU2dmwEQengqhwXGHng==
-----END CERTIFICATE-----
