Certificate:
    Data:
        Version: 3 (0x2)
        Serial Number: 3 (0x3)
    Signature Algorithm: sha1WithRSAEncryption
        Issuer: O=Acme Co, CN=Intermediate CA
        Validity
            Not Before: Jan  1 10:00:00 2013 GMT
            Not After : Dec 31 10:00:00 2023 GMT
        Subject: O=Acme Co, CN=Leaf certificate
        Subject Public Key Info:
            Public Key Algorithm: rsaEncryption
                Public-Key: (2048 bit)
                Modulus:
                    00:d5:ca:19:79:8e:a9:ab:46:f0:4e:b7:58:6d:b3:
                    a3:9a:68:10:52:af:f0:00:94:ae:34:bd:b4:50:1f:
                    a3:26:a4:9e:1c:90:37:5b:3d:e8:d7:3b:bc:93:fb:
                    00:fb:c7:49:54:9b:f1:d0:9a:f2:51:84:7b:59:8b:
                    bd:66:f3:ae:92:5a:b9:63:8c:64:a7:d0:9e:e3:0c:
                    50:d2:cf:93:9d:e9:4a:11:57:93:c1:de:af:7b:5a:
                    44:1d:0a:8c:22:a6:1d:c6:ad:e9:8f:16:8d:4e:91:
                    f1:d3:f1:f3:82:fe:f6:55:dc:72:f1:11:07:75:ec:
                    bb:e9:3a:35:87:43:81:5e:dc:43:4a:b7:7c:a1:1a:
                    d5:d2:c1:40:39:69:7d:89:ad:64:1b:31:34:a8:ea:
                    9e:5e:26:fc:71:d2:c6:6b:e5:c2:73:30:3f:59:a7:
                    35:8d:a9:a5:e9:3d:43:41:bd:54:f2:2a:e1:15:0c:
                    35:30:6b:8b:f2:77:ca:5c:07:8f:58:f4:54:77:5e:
                    af:ce:b1:c1:2b:a7:bb:c0:e9:7d:ef:1a:d7:03:ee:
                    8f:67:ad:c6:e6:1d:a9:e7:91:3f:41:e7:d6:86:20:
                    8c:53:b3:d8:79:09:e2:4b:15:5a:d8:92:3b:62:4f:
                    68:e4:cb:d0:a4:4e:b6:7d:3e:5f:b0:24:ea:62:61:
                    cf:7b
                Exponent: 65537 (0x10001)
        X509v3 extensions:
            X509v3 Key Usage: critical
                Digital Signature, Key Encipherment
            X509v3 Extended Key Usage: 
                TLS Web Server Authentication
            X509v3 Basic Constraints: critical
                CA:FALSE
            X509v3 Subject Alternative Name: 
                DNS:test.example.com
    Signature Algorithm: sha1WithRSAEncryption
         58:c3:dc:e3:4d:ec:76:c6:62:99:ba:ba:6d:da:e4:2f:ec:00:
         f8:fb:2a:e3:f6:a4:bc:37:c9:53:0f:73:2e:a6:79:8f:6b:ef:
         87:16:56:7b:9e:6d:ac:1a:ec:8b:49:71:7d:f2:11:11:a4:0d:
         5e:6e:be:93:6b:fe:cb:44:1b:4e:99:2a:d2:eb:d8:91:80:d7:
         c8:87:fd:c8:fa:cf:c2:68:06:07:2d:60:ae:56:c4:3c:49:4d:
         e3:05:3f:1b:15:a8:a9:ea:85:d8:af:d3:f5:be:b5:71:28:23:
         8d:04:f1:c6:e1:fb:0c:1b:ac:5a:2d:e0:7f:fb:4e:79:47:29:
         b3:9c:27:09:7d:3c:84:0b:59:0a:03:c5:86:a9:aa:90:49:89:
         0b:bc:8e:0e:2e:b1:67:ed:99:be:37:ee:75:7f:a9:fa:62:95:
         44:02:1c:99:26:fa:a7:17:61:d2:ec:e1:ca:42:2b:69:97:8f:
         71:dc:1b:41:7b:91:a8:d6:b2:82:05:ef:d0:0b:3c:46:a3:9d:
         7c:06:81:da:de:b6:54:ad:97:bd:c2:03:02:ff:1b:64:17:25:
         4a:4c:9b:85:c1:bb:6f:26:3a:b5:ba:9b:2d:17:b9:bd:36:b1:
         43:48:29:f7:da:88:8d:ce:f0:ac:7f:03:a7:93:e1:e9:c1:58:
         15:b3:30:22
-----BEGIN CERTIFICATE-----
MIIDIjCCAgygAwIBAgIBAzALBgkqhkiG9w0BAQUwLDEQMA4GA1UEChMHQWNtZSBD
bzEYMBYGA1UEAxMPSW50ZXJtZWRpYXRlIENBMB4XDTEzMDEwMTEwMDAwMFoXDTIz
MTIzMTEwMDAwMFowLTEQMA4GA1UEChMHQWNtZSBDbzEZMBcGA1UEAxMQTGVhZiBj
ZXJ0aWZpY2F0ZTCCASIwDQYJKoZIhvcNAQEBBQADggEPADCCAQoCggEBANXKGXmO
qatG8E63WG2zo5poEFKv8ACUrjS9tFAfoyaknhyQN1s96Nc7vJP7APvHSVSb8dCa
8lGEe1mLvWbzrpJauWOMZKfQnuMMUNLPk53pShFXk8Her3taRB0KjCKmHcat6Y8W
jU6R8dPx84L+9lXccvERB3Xsu+k6NYdDgV7cQ0q3fKEa1dLBQDlpfYmtZBsxNKjq
nl4m/HHSxmvlwnMwP1mnNY2ppek9Q0G9VPIq4RUMNTBri/J3ylwHj1j0VHder86x
wSunu8Dpfe8a1wPuj2etxuYdqeeRP0Hn1oYgjFOz2HkJ4ksVWtiSO2JPaOTL0KRO
tn0+X7Ak6mJhz3sCAwEAAaNSMFAwDgYDVR0PAQH/BAQDAgCgMBMGA1UdJQQMMAoG
CCsGAQUFBwMBMAwGA1UdEwEB/wQCMAAwGwYDVR0RBBQwEoIQdGVzdC5leGFtcGxl
LmNvbTALBgkqhkiG9w0BAQUDggEBAFjD3ONN7HbGYpm6um3a5C/sAPj7KuP2pLw3
yVMPcy6meY9r74cWVnuebawa7ItJcX3yERGkDV5uvpNr/stEG06ZKtLr2JGA18iH
/cj6z8JoBgctYK5WxDxJTeMFPxsVqKnqhdiv0/W+tXEoI40E8cbh+wwbrFot4H/7
TnlHKbOcJwl9PIQLWQoDxYapqpBJiQu8jg4usWftmb437nV/qfpilUQCHJkm+qcX
YdLs4cpCK2mXj3HcG0F7kajWsoIF79ALPEajnXwGgdretlStl73CAwL/G2QXJUpM
m4XBu28mOrW6my0Xub02sUNIKffaiI3O8Kx/A6eT4enBWBWzMCI=
-----END CERTIFICATE-----
Certificate:
    Data:
        Version: 3 (0x2)
        Serial Number: 2 (0x2)
    Signature Algorithm: sha1WithRSAEncryption
        Issuer: O=Acme Co, CN=Root CA
        Validity
            Not Before: Jan  1 10:00:00 2013 GMT
            Not After : Dec 31 10:00:00 2023 GMT
        Subject: O=Acme Co, CN=Intermediate CA
        Subject Public Key Info:
            Public Key Algorithm: rsaEncryption
                Public-Key: (2048 bit)
                Modulus:
                    00:cd:35:50:e7:0a:68:80:e5:2b:f0:01:2b:93:11:
                    0c:50:f7:23:e1:d8:d2:ed:48:9a:ea:3b:64:9f:82:
                    fa:e4:ad:23:96:a8:a1:9b:31:d1:d6:4a:b2:79:f1:
                    c1:80:03:18:41:54:a5:30:3a:82:bd:57:10:9c:fd:
                    5d:34:fd:19:d3:21:1b:cb:06:e7:66:40:e1:27:89:
                    98:82:2d:d7:2e:0d:5c:05:9a:74:0d:45:de:32:5e:
                    78:4e:81:b4:c8:60:97:f0:8b:2a:8c:e0:57:f6:b9:
                    db:5a:53:64:1d:27:e0:93:47:d9:93:ee:ac:f6:7b:
                    e7:d2:97:b1:a6:85:37:75:ff:aa:f7:8f:ae:92:4e:
                    30:0b:56:54:fd:32:f9:9d:3c:d8:2e:95:f5:64:17:
                    ff:26:d2:65:e2:b1:78:6c:83:5d:67:a4:d8:ae:89:
                    6b:6e:b3:4b:35:a5:b1:03:3c:20:97:79:ed:0b:f8:
                    de:25:a1:3a:50:70:40:ae:9e:04:75:a2:6a:2f:15:
                    84:5b:08:c3:e0:55:4e:47:db:bc:79:25:b0:2e:58:
                    0d:bc:aa:a6:f2:ee:cd:e6:b8:02:8c:5b:00:b3:3d:
                    44:d0:a6:bf:b3:e7:2e:9d:46:70:de:45:d1:bd:79:
                    bd:c0:f2:47:0b:71:28:60:91:c2:98:73:15:2d:b4:
                    b1:f3
                Exponent: 65537 (0x10001)
        X509v3 extensions:
            X509v3 Key Usage: critical
                Certificate Sign
            X509v3 Extended Key Usage: 
                TLS Web Server Authentication
            X509v3 Basic Constraints: critical
                CA:TRUE
    Signature Algorithm: sha1WithRSAEncryption
         b5:66:2c:a1:f8:76:8a:3b:6c:06:2d:d5:1e:4b:25:5c:b8:6d:
         ee:0e:7e:09:a4:43:58:65:93:e9:da:6c:42:2e:5d:74:3f:79:
         61:4d:e5:72:45:d7:2d:fd:73:8e:e2:98:fe:8e:4a:e4:11:6e:
         94:5c:d9:84:c9:cb:a1:1c:fa:95:d9:15:c1:87:72:98:2e:63:
         df:67:4d:04:1f:da:d7:29:66:ec:20:ea:b6:5d:71:dd:bc:5a:
         16:55:87:8f:51:9f:40:05:00:3b:21:ee:74:bc:3b:11:9a:10:
         ba:b4:e8:5e:6e:90:c3:22:ca:da:92:f8:fb:8e:73:fd:69:91:
         13:48:11:01:58:ae:f4:b2:8c:38:56:f0:a5:3b:2a:64:5c:25:
         9a:bb:fd:94:27:34:af:b4:21:4c:08:23:3c:fb:3f:08:6f:07:
         b8:05:9d:85:1d:73:0e:f0:83:f4:3c:9b:cc:aa:fd:3d:fa:82:
         a4:dd:01:10:9d:10:2c:c4:47:64:ca:b4:b5:6e:be:59:d1:d2:
         a1:6a:b5:d3:08:23:49:fc:4f:d4:f3:a5:63:b5:e1:34:19:9d:
         8c:33:0f:8e:47:01:9a:eb:2a:eb:cb:f4:1a:0c:ee:8e:68:d3:
         c1:8e:fd:4b:93:ff:40:8c:3a:11:2b:62:a3:c1:a7:13:bd:26:
         37:c5:85:c5
-----BEGIN CERTIFICATE-----
MIIC/zCCAemgAwIBAgIBAjALBgkqhkiG9w0BAQUwJDEQMA4GA1UEChMHQWNtZSBD
bzEQMA4GA1UEAxMHUm9vdCBDQTAeFw0xMzAxMDExMDAwMDBaFw0yMzEyMzExMDAw
MDBaMCwxEDAOBgNVBAoTB0FjbWUgQ28xGDAWBgNVBAMTD0ludGVybWVkaWF0ZSBD
QTCCASIwDQYJKoZIhvcNAQEBBQADggEPADCCAQoCggEBAM01UOcKaIDlK/ABK5MR
DFD3I+HY0u1Imuo7ZJ+C+uStI5aooZsx0dZKsnnxwYADGEFUpTA6gr1XEJz9XTT9
GdMhG8sG52ZA4SeJmIIt1y4NXAWadA1F3jJeeE6BtMhgl/CLKozgV/a521pTZB0n
4JNH2ZPurPZ759KXsaaFN3X/qvePrpJOMAtWVP0y+Z082C6V9WQX/ybSZeKxeGyD
XWek2K6Ja26zSzWlsQM8IJd57Qv43iWhOlBwQK6eBHWiai8VhFsIw+BVTkfbvHkl
sC5YDbyqpvLuzea4AoxbALM9RNCmv7PnLp1GcN5F0b15vcDyRwtxKGCRwphzFS20
sfMCAwEAAaM4MDYwDgYDVR0PAQH/BAQDAgAEMBMGA1UdJQQMMAoGCCsGAQUFBwMB
MA8GA1UdEwEB/wQFMAMBAf8wCwYJKoZIhvcNAQEFA4IBAQC1Ziyh+HaKO2wGLdUe
SyVcuG3uDn4JpENYZZPp2mxCLl10P3lhTeVyRdct/XOO4pj+jkrkEW6UXNmEycuh
HPqV2RXBh3KYLmPfZ00EH9rXKWbsIOq2XXHdvFoWVYePUZ9ABQA7Ie50vDsRmhC6
tOhebpDDIsrakvj7jnP9aZETSBEBWK70sow4VvClOypkXCWau/2UJzSvtCFMCCM8
+z8Ibwe4BZ2FHXMO8IP0PJvMqv09+oKk3QEQnRAsxEdkyrS1br5Z0dKharXTCCNJ
/E/U86VjteE0GZ2MMw+ORwGa6yrry/QaDO6OaNPBjv1Lk/9AjDoRK2KjwacTvSY3
xYXF
-----END CERTIFICATE-----
Certificate:
    Data:
        Version: 3 (0x2)
        Serial Number: 1 (0x1)
    Signature Algorithm: sha1WithRSAEncryption
        Issuer: O=Acme Co, CN=Root CA
        Validity
            Not Before: Jan  1 10:00:00 2013 GMT
            Not After : Dec 31 10:00:00 2023 GMT
        Subject: O=Acme Co, CN=Root CA
        Subject Public Key Info:
            Public Key Algorithm: rsaEncryption
                Public-Key: (2048 bit)
                Modulus:
                    00:e4:2b:91:c7:7d:ab:32:b7:38:e1:38:ae:c8:b9:
                    0b:15:1c:64:76:47:84:5d:cb:e7:e7:0c:30:77:84:
                    6a:8e:75:95:42:b2:78:c8:88:10:ac:98:47:97:38:
                    d1:3a:7f:86:0d:20:f1:1d:70:84:a2:9d:ed:1a:28:
                    af:5e:43:dd:31:a3:bb:b8:5c:c4:83:79:b8:83:9a:
                    e7:a9:63:04:59:93:b6:26:67:2d:dd:e6:2d:bb:e4:
                    13:eb:d5:17:0b:de:63:46:76:6f:10:05:40:b0:16:
                    fc:ea:f4:97:1c:d6:dc:fe:37:72:d5:40:df:e3:b4:
                    d5:ac:cf:c9:ae:7c:21:49:01:1e:7e:d4:c1:e1:2a:
                    11:01:b4:70:3a:31:3d:9a:33:b7:7f:20:f2:8b:e7:
                    54:8e:06:f2:4b:5f:f0:e2:b9:8f:64:1f:50:bd:b3:
                    a5:ac:69:44:42:6c:12:e9:11:9d:74:b4:49:77:e3:
                    0f:8b:9c:94:53:17:0c:23:ba:61:fa:70:3d:93:8d:
                    ad:5f:dd:4f:32:84:5b:07:50:e4:58:c7:00:45:82:
                    1f:21:14:4c:bf:43:92:76:fb:24:09:33:df:58:8d:
                    be:87:ee:b5:54:e4:d3:32:f6:b1:2d:69:74:86:ad:
                    1f:57:7e:9b:05:11:74:b5:c4:68:ac:9a:80:74:7a:
                    34:89
                Exponent: 65537 (0x10001)
        X509v3 extensions:
            X509v3 Key Usage: critical
                Certificate Sign
            X509v3 Extended Key Usage: 
                TLS Web Server Authentication
            X509v3 Basic Constraints: critical
                CA:TRUE
    Signature Algorithm: sha1WithRSAEncryption
         96:cd:db:46:6e:5b:de:fa:f1:d3:1c:e0:fe:47:67:2a:59:d5:
         f8:c4:0b:25:14:0b:06:8d:82:67:f4:a9:36:e8:53:bc:eb:40:
         51:05:8a:42:09:e7:48:a3:7c:42:6d:c1:37:06:49:cf:58:87:
         d0:0e:c7:9e:4b:0e:34:72:f8:65:65:b2:c4:68:ca:a3:14:e9:
         11:5c:da:78:4e:74:80:43:dc:b8:b6:ce:a8:0c:a2:8f:52:59:
         89:e0:5a:01:e5:e9:b8:4b:31:91:25:bf:7d:e1:7c:86:e9:36:
         c1:5b:10:e5:2c:cc:6f:99:c4:66:79:30:41:1f:0b:f9:4b:ea:
         1e:8a:45:73:3c:79:21:20:c8:80:c4:f4:e9:4f:85:69:7c:2e:
         61:80:3a:4f:5b:92:be:97:12:75:9e:43:09:01:b6:b3:a1:c1:
         5f:2d:86:be:d1:6c:55:ee:27:f8:bf:3a:bc:fb:b2:42:8a:6f:
         51:a0:d3:46:54:f6:1e:73:42:2a:95:5e:eb:bc:40:6b:71:bf:
         90:94:62:f4:90:17:82:e5:1e:33:db:f4:50:11:e5:55:10:09:
         6a:11:a9:1e:d4:07:60:58:f7:16:b1:bd:8b:29:f6:3d:61:ad:
         73:da:ae:e3:e4:6e:59:46:7f:c0:fb:fa:be:6d:7c:31:94:86:
         2e:b3:29:7b
-----BEGIN CERTIFICATE-----
MIIC9zCCAeGgAwIBAgIBATALBgkqhkiG9w0BAQUwJDEQMA4GA1UEChMHQWNtZSBD
bzEQMA4GA1UEAxMHUm9vdCBDQTAeFw0xMzAxMDExMDAwMDBaFw0yMzEyMzExMDAw
MDBaMCQxEDAOBgNVBAoTB0FjbWUgQ28xEDAOBgNVBAMTB1Jvb3QgQ0EwggEiMA0G
CSqGSIb3DQEBAQUAA4IBDwAwggEKAoIBAQDkK5HHfasytzjhOK7IuQsVHGR2R4Rd
y+fnDDB3hGqOdZVCsnjIiBCsmEeXONE6f4YNIPEdcISine0aKK9eQ90xo7u4XMSD
ebiDmuepYwRZk7YmZy3d5i275BPr1RcL3mNGdm8QBUCwFvzq9Jcc1tz+N3LVQN/j
tNWsz8mufCFJAR5+1MHhKhEBtHA6MT2aM7d/IPKL51SOBvJLX/DiuY9kH1C9s6Ws
aURCbBLpEZ10tEl34w+LnJRTFwwjumH6cD2Tja1f3U8yhFsHUORYxwBFgh8hFEy/
Q5J2+yQJM99Yjb6H7rVU5NMy9rEtaXSGrR9XfpsFEXS1xGismoB0ejSJAgMBAAGj
ODA2MA4GA1UdDwEB/wQEAwIABDATBgNVHSUEDDAKBggrBgEFBQcDATAPBgNVHRMB
Af8EBTADAQH/MAsGCSqGSIb3DQEBBQOCAQEAls3bRm5b3vrx0xzg/kdnKlnV+MQL
JRQLBo2CZ/SpNuhTvOtAUQWKQgnnSKN8Qm3BNwZJz1iH0A7HnksONHL4ZWWyxGjK
oxTpEVzaeE50gEPcuLbOqAyij1JZieBaAeXpuEsxkSW/feF8huk2wVsQ5SzMb5nE
ZnkwQR8L+UvqHopFczx5ISDIgMT06U+FaXwuYYA6T1uSvpcSdZ5DCQG2s6HBXy2G
vtFsVe4n+L86vPuyQopvUaDTRlT2HnNCKpVe67xAa3G/kJRi9JAXguUeM9v0UBHl
VRAJahGpHtQHYFj3FrG9iyn2PWGtc9qu4+RuWUZ/wPv6vm18MZSGLrMpew==
-----END CERTIFICATE-----
