Certificate:
    Data:
        Version: 3 (0x2)
        Serial Number: 2 (0x2)
    Signature Algorithm: sha1WithRSAEncryption
        Issuer: O=Acme Co, CN=Root CA
        Validity
            Not Before: Jan  1 10:00:00 2013 GMT
            Not After : Dec 31 10:00:00 2023 GMT
        Subject: O=Acme Co, CN=Intermediate CA
        Subject Public Key Info:
            Public Key Algorithm: rsaEncryption
                Public-Key: (2048 bit)
                Modulus:
                    00:cd:35:50:e7:0a:68:80:e5:2b:f0:01:2b:93:11:
                    0c:50:f7:23:e1:d8:d2:ed:48:9a:ea:3b:64:9f:82:
                    fa:e4:ad:23:96:a8:a1:9b:31:d1:d6:4a:b2:79:f1:
                    c1:80:03:18:41:54:a5:30:3a:82:bd:57:10:9c:fd:
                    5d:34:fd:19:d3:21:1b:cb:06:e7:66:40:e1:27:89:
                    98:82:2d:d7:2e:0d:5c:05:9a:74:0d:45:de:32:5e:
                    78:4e:81:b4:c8:60:97:f0:8b:2a:8c:e0:57:f6:b9:
                    db:5a:53:64:1d:27:e0:93:47:d9:93:ee:ac:f6:7b:
                    e7:d2:97:b1:a6:85:37:75:ff:aa:f7:8f:ae:92:4e:
                    30:0b:56:54:fd:32:f9:9d:3c:d8:2e:95:f5:64:17:
                    ff:26:d2:65:e2:b1:78:6c:83:5d:67:a4:d8:ae:89:
                    6b:6e:b3:4b:35:a5:b1:03:3c:20:97:79:ed:0b:f8:
                    de:25:a1:3a:50:70:40:ae:9e:04:75:a2:6a:2f:15:
                    84:5b:08:c3:e0:55:4e:47:db:bc:79:25:b0:2e:58:
                    0d:bc:aa:a6:f2:ee:cd:e6:b8:02:8c:5b:00:b3:3d:
                    44:d0:a6:bf:b3:e7:2e:9d:46:70:de:45:d1:bd:79:
                    bd:c0:f2:47:0b:71:28:60:91:c2:98:73:15:2d:b4:
                    b1:f3
                Exponent: 65537 (0x10001)
        X509v3 extensions:
            X509v3 Key Usage: critical
                Certificate Sign
            X509v3 Extended Key Usage: 
                TLS Web Server Authentication
            X509v3 Basic Constraints: critical
                CA:TRUE
    Signature Algorithm: sha1WithRSAEncryption
         b5:66:2c:a1:f8:76:8a:3b:6c:06:2d:d5:1e:4b:25:5c:b8:6d:
         ee:0e:7e:09:a4:43:58:65:93:e9:da:6c:42:2e:5d:74:3f:79:
         61:4d:e5:72:45:d7:2d:fd:73:8e:e2:98:fe:8e:4a:e4:11:6e:
         94:5c:d9:84:c9:cb:a1:1c:fa:95:d9:15:c1:87:72:98:2e:63:
         df:67:4d:04:1f:da:d7:29:66:ec:20:ea:b6:5d:71:dd:bc:5a:
         16:55:87:8f:51:9f:40:05:00:3b:21:ee:74:bc:3b:11:9a:10:
         ba:b4:e8:5e:6e:90:c3:22:ca:da:92:f8:fb:8e:73:fd:69:91:
         13:48:11:01:58:ae:f4:b2:8c:38:56:f0:a5:3b:2a:64:5c:25:
         9a:bb:fd:94:27:34:af:b4:21:4c:08:23:3c:fb:3f:08:6f:07:
         b8:05:9d:85:1d:73:0e:f0:83:f4:3c:9b:cc:aa:fd:3d:fa:82:
         a4:dd:01:10:9d:10:2c:c4:47:64:ca:b4:b5:6e:be:59:d1:d2:
         a1:6a:b5:d3:08:23:49:fc:4f:d4:f3:a5:63:b5:e1:34:19:9d:
         8c:33:0f:8e:47:01:9a:eb:2a:eb:cb:f4:1a:0c:ee:8e:68:d3:
         c1:8e:fd:4b:93:ff:40:8c:3a:11:2b:62:a3:c1:a7:13:bd:26:
         37:c5:85:c5
-----BEGIN CERTIFICATE-----
MIIC/zCCAemgAwIBAgIBAjALBgkqhkiG9w0BAQUwJDEQMA4GA1UEChMHQWNtZSBD
bzEQMA4GA1UEAxMHUm9vdCBDQTAeFw0xMzAxMDExMDAwMDBaFw0yMzEyMzExMDAw
MDBaMCwxEDAOBgNVBAoTB0FjbWUgQ28xGDAWBgNVBAMTD0ludGVybWVkaWF0ZSBD
QTCCASIwDQYJKoZIhvcNAQEBBQADggEPADCCAQoCggEBAM01UOcKaIDlK/ABK5MR
DFD3I+HY0u1Imuo7ZJ+C+uStI5aooZsx0dZKsnnxwYADGEFUpTA6gr1XEJz9XTT9
GdMhG8sG52ZA4SeJmIIt1y4NXAWadA1F3jJeeE6BtMhgl/CLKozgV/a521pTZB0n
4JNH2ZPurPZ759KXsaaFN3X/qvePrpJOMAtWVP0y+Z082C6V9WQX/ybSZeKxeGyD
XWek2K6Ja26zSzWlsQM8IJd57Qv43iWhOlBwQK6eBHWiai8VhFsIw+BVTkfbvHkl
sC5YDbyqpvLuzea4AoxbALM9RNCmv7PnLp1GcN5F0b15vcDyRwtxKGCRwphzFS20
sfMCAwEAAaM4MDYwDgYDVR0PAQH/BAQDAgAEMBMGA1UdJQQMMAoGCCsGAQUFBwMB
MA8GA1UdEwEB/wQFMAMBAf8wCwYJKoZIhvcNAQEFA4IBAQC1Ziyh+HaKO2wGLdUe
SyVcuG3uDn4JpENYZZPp2mxCLl10P3lhTeVyRdct/XOO4pj+jkrkEW6UXNmEycuh
HPqV2RXBh3KYLmPfZ00EH9rXKWbsIOq2XXHdvFoWVYePUZ9ABQA7Ie50vDsRmhC6
tOhebpDDIsrakvj7jnP9aZETSBEBWK70sow4VvClOypkXCWau/2UJzSvtCFMCCM8
+z8Ibwe4BZ2FHXMO8IP0PJvMqv09+oKk3QEQnRAsxEdkyrS1br5Z0dKharXTCCNJ
/E/U86VjteE0GZ2MMw+ORwGa6yrry/QaDO6OaNPBjv1Lk/9AjDoRK2KjwacTvSY3
xYXF
-----END CERTIFICATE-----
