Certificate:
    Data:
        Version: 3 (0x2)
        Serial Number: 11446371030079207460 (0x9ed9adce6f317824)
    Signature Algorithm: sha256WithRSAEncryption
        Issuer: CN=webmail
        Validity
            Not Before: Mar  1 03:41:00 2017 GMT
            Not After : Feb 29 03:41:00 2020 GMT
        Subject: CN=webmail
        Subject Public Key Info:
            Public Key Algorithm: rsaEncryption
                Public-Key: (2048 bit)
                Modulus:
                    00:be:3d:d3:32:19:9f:d4:0f:b8:fa:83:0d:4d:77:
                    6a:00:b6:cc:16:45:70:45:a1:1b:29:2c:6b:43:82:
                    29:9c:f9:9c:b5:37:e5:a8:3b:f8:b9:fa:96:df:7b:
                    a9:a0:fc:a4:cf:19:49:e7:c3:2b:94:a0:02:d8:5c:
                    17:f3:84:ec:8b:0c:1b:d6:cd:30:36:d1:41:35:46:
                    c7:a9:62:73:2a:84:de:cf:59:51:8e:92:38:4a:af:
                    f6:e0:7e:db:9e:19:7a:d0:8c:79:c8:4d:53:8c:6d:
                    41:4c:04:b9:08:84:c8:81:eb:6b:65:ac:65:8d:d1:
                    26:a9:31:3a:61:34:2e:70:91:da:c7:98:ff:73:de:
                    95:7a:bf:90:6f:a5:94:d7:6f:e0:10:4b:79:ee:44:
                    4b:a3:46:d1:9b:7d:14:77:7f:9d:74:6f:6c:a4:a7:
                    8f:53:be:1f:fd:28:e8:c1:a7:03:11:57:fc:cb:08:
                    d0:96:cd:41:66:cb:4f:e2:9e:22:d3:96:4b:97:f8:
                    a9:a2:34:58:f3:95:50:59:fd:7f:c9:11:d4:1c:f1:
                    af:b8:fd:35:55:86:5e:13:bf:e7:60:8f:90:76:50:
                    c5:ef:06:95:88:b7:99:2e:1d:07:8f:4b:57:9f:5f:
                    8d:f3:10:76:75:f0:72:0d:9e:48:0b:4e:d9:34:d0:
                    49:05
                Exponent: 65537 (0x10001)
        X509v3 extensions:
            X509v3 Subject Alternative Name: 
                DNS:webmail
    Signature Algorithm: sha256WithRSAEncryption
         10:c1:6c:f1:d6:5c:a7:94:c6:dd:9d:e4:2c:9b:1a:1a:59:84:
         35:32:b3:7f:57:d6:4c:01:fa:ed:78:44:ec:2c:cf:2c:72:31:
         a8:95:c9:50:0d:a5:fe:4c:68:ce:21:b5:bc:4c:a0:b2:84:39:
         33:24:f8:92:05:9f:ea:c4:0e:31:22:85:27:e4:2a:8a:66:b3:
         05:96:60:97:0c:2c:86:69:76:ef:ac:15:4f:36:ac:5a:bd:11:
         69:30:c3:a8:7e:f4:23:ca:7e:3d:83:0f:8b:35:bd:56:d0:5f:
         fc:fa:98:9e:45:54:04:d3:0a:43:3d:b7:01:ca:0b:4b:5c:61:
         34:fe:af:f1:8b:c0:bc:0a:b5:dd:52:e6:c2:81:53:c9:ce:fc:
         39:f4:1a:45:a6:f6:9a:06:eb:57:d9:bb:5e:94:43:98:7f:96:
         33:1d:5f:9b:c5:73:68:86:96:8f:65:8f:be:b7:f2:c5:8f:f0:
         0e:7f:63:67:9d:58:1d:d9:cb:fc:78:a0:74:e7:06:94:12:80:
         03:ab:0a:32:8c:1e:5e:ba:28:a7:eb:ed:3b:55:80:54:38:5b:
         85:d8:e8:dd:de:51:11:42:7a:20:ef:b7:9f:25:d3:5a:4b:e2:
         e3:84:36:94:e3:69:aa:c7:bf:22:14:0e:da:a8:da:13:89:c3:
         6e:7e:8c:32
-----BEGIN CERTIFICATE-----
MIICvTCCAaWgAwIBAgIJAJ7Zrc5vMXgkMA0GCSqGSIb3DQEBCwUAMBIxEDAOBgNV
BAMMB3dlYm1haWwwHhcNMTcwMzAxMDM0MTAwWhcNMjAwMjI5MDM0MTAwWjASMRAw
DgYDVQQDDAd3ZWJtYWlsMIIBIjANBgkqhkiG9w0BAQEFAAOCAQ8AMIIBCgKCAQEA
vj3TMhmf1A+4+oMNTXdqALbMFkVwRaEbKSxrQ4IpnPmctTflqDv4ufqW33upoPyk
zxlJ58MrlKAC2FwX84Tsiwwb1s0wNtFBNUbHqWJzKoTez1lRjpI4Sq/24H7bnhl6
0Ix5yE1TjG1BTAS5CITIgetrZaxljdEmqTE6YTQucJHax5j/c96Ver+Qb6WU12/g
EEt57kRLo0bRm30Ud3+ddG9spKePU74f/SjowacDEVf8ywjQls1BZstP4p4i05ZL
l/ipojRY85VQWf1/yRHUHPGvuP01VYZeE7/nYI+QdlDF7waViLeZLh0Hj0tXn1+N
8xB2dfByDZ5IC07ZNNBJBQIDAQABoxYwFDASBgNVHREECzAJggd3ZWJtYWlsMA0G
CSqGSIb3DQEBCwUAA4IBAQAQwWzx1lynlMbdneQsmxoaWYQ1MrN/V9ZMAfrteETs
LM8scjGolclQDaX+TGjOIbW8TKCyhDkzJPiSBZ/qxA4xIoUn5CqKZrMFlmCXDCyG
aXbvrBVPNqxavRFpMMOofvQjyn49gw+LNb1W0F/8+pieRVQE0wpDPbcBygtLXGE0
/q/xi8C8CrXdUubCgVPJzvw59BpFpvaaButX2btelEOYf5YzHV+bxXNohpaPZY++
t/LFj/AOf2NnnVgd2cv8eKB05waUEoADqwoyjB5euiin6+07VYBUOFuF2Ojd3lER
Qnog77efJdNaS+LjhDaU42mqx78iFA7aqNoTicNufowy
-----END CERTIFICATE-----
