Certificate:
    Data:
        Version: 1 (0x0)
        Serial Number: 15207369410964614739 (0xd30b6de83cafee53)
    Signature Algorithm: sha256WithRSAEncryption
        Issuer: C=US, ST=California, L=Mountain View, O=Test CA, CN=127.0.0.1
        Validity
            Not Before: Oct 31 19:51:55 2014 GMT
            Not After : Oct 30 19:51:55 2017 GMT
        Subject: C=US, ST=California, L=Mountain View, O=Test CA, CN=127.0.0.1
        Subject Public Key Info:
            Public Key Algorithm: rsaEncryption
                Public-Key: (2048 bit)
                Modulus:
                    00:a0:5c:e4:0d:5d:e4:01:47:d8:8c:06:41:12:f8:
                    63:a9:d9:41:3d:e9:75:ad:80:ae:e9:32:2a:d6:6a:
                    42:7c:be:f5:1b:02:99:36:a4:dd:02:db:32:36:ab:
                    ac:8b:c5:78:cb:a2:03:28:db:95:83:56:9a:03:f4:
                    37:70:dc:16:56:d9:0a:c6:34:23:f5:58:36:21:c8:
                    fd:b7:41:1e:2f:85:50:50:d9:76:c0:7d:9e:0d:d7:
                    ad:df:94:06:c1:b6:a4:c9:ee:61:16:5a:54:c2:1d:
                    5e:d9:79:73:4a:21:d0:d3:fe:88:ee:27:3a:5f:e6:
                    a3:cf:89:44:93:80:64:53:50:36:98:c5:da:1f:87:
                    1e:a1:2e:e0:5a:60:c7:80:a7:93:eb:b8:39:33:c3:
                    d7:e7:2b:bd:9b:48:5d:a4:af:ee:7d:93:5a:d0:9f:
                    3b:6d:a8:52:95:ce:d1:bf:0b:a4:60:34:ee:77:80:
                    50:35:0d:af:eb:0f:48:69:ab:c7:87:a8:31:44:69:
                    9c:21:d6:01:de:61:04:95:a4:85:d0:d6:2e:a6:7c:
                    d1:fd:61:45:51:fd:bb:bc:be:6b:d3:87:54:50:b8:
                    36:f8:f0:0f:a4:07:e0:28:86:13:5b:72:ae:5d:b3:
                    a2:fa:b7:54:8d:c9:6a:b3:82:88:4f:40:6d:36:1a:
                    f5:2d
                Exponent: 65537 (0x10001)
    Signature Algorithm: sha256WithRSAEncryption
         47:0d:cd:15:ec:51:89:2f:e0:d1:4e:04:7a:8e:cf:f5:16:ec:
         11:55:bc:48:92:3b:98:60:ba:f1:97:98:a7:22:bf:9e:00:ac:
         4a:5b:a7:e1:b5:aa:b7:20:c5:fc:85:d5:3f:cf:53:da:60:94:
         75:93:78:87:e0:99:d7:f0:c7:35:e5:6d:82:f7:e7:23:e1:fe:
         88:4d:f0:bf:3b:68:70:61:c1:e8:8d:e1:2a:c9:75:c9:28:66:
         71:79:ff:58:a7:79:c3:1c:97:db:9c:3c:25:84:e0:c2:da:77:
         08:9e:4e:9a:5a:c8:48:83:fe:74:41:73:13:46:c2:69:27:31:
         71:d9:7d:40:46:43:59:6d:cd:54:d8:63:44:5b:5f:22:b9:8e:
         2b:ba:99:d1:38:89:0c:ac:b8:f2:c2:b9:a2:67:ae:3d:56:b6:
         c7:c0:cd:4c:e6:70:ce:8e:50:67:3c:93:c5:20:c2:45:66:e5:
         79:7b:29:54:0e:fc:eb:39:75:51:54:5d:fc:69:ad:80:dc:88:
         b0:6c:be:0c:e4:9f:e3:81:3c:aa:6b:b6:a6:34:b6:1e:f7:a9:
         8a:3f:bd:3f:2e:e4:da:c0:27:cb:50:fd:8a:7f:44:bd:a3:70:
         ad:4e:e4:1b:16:9a:fd:82:4d:55:26:06:ca:c7:25:49:fc:2b:
         9e:54:87:7f
-----BEGIN CERTIFICATE-----
MIIDPDCCAiQCCQDTC23oPK/uUzANBgkqhkiG9w0BAQsFADBgMQswCQYDVQQGEwJV
UzETMBEGA1UECAwKQ2FsaWZvcm5pYTEWMBQGA1UEBwwNTW91bnRhaW4gVmlldzEQ
MA4GA1UECgwHVGVzdCBDQTESMBAGA1UEAwwJMTI3LjAuMC4xMB4XDTE0MTAzMTE5
NTE1NVoXDTE3MTAzMDE5NTE1NVowYDELMAkGA1UEBhMCVVMxEzARBgNVBAgMCkNh
bGlmb3JuaWExFjAUBgNVBAcMDU1vdW50YWluIFZpZXcxEDAOBgNVBAoMB1Rlc3Qg
Q0ExEjAQBgNVBAMMCTEyNy4wLjAuMTCCASIwDQYJKoZIhvcNAQEBBQADggEPADCC
AQoCggEBAKBc5A1d5AFH2IwGQRL4Y6nZQT3pda2ArukyKtZqQny+9RsCmTak3QLb
MjarrIvFeMuiAyjblYNWmgP0N3DcFlbZCsY0I/VYNiHI/bdBHi+FUFDZdsB9ng3X
rd+UBsG2pMnuYRZaVMIdXtl5c0oh0NP+iO4nOl/mo8+JRJOAZFNQNpjF2h+HHqEu
4Fpgx4Cnk+u4OTPD1+crvZtIXaSv7n2TWtCfO22oUpXO0b8LpGA07neAUDUNr+sP
SGmrx4eoMURpnCHWAd5hBJWkhdDWLqZ80f1hRVH9u7y+a9OHVFC4NvjwD6QH4CiG
E1tyrl2zovq3VI3JarOCiE9AbTYa9S0CAwEAATANBgkqhkiG9w0BAQsFAAOCAQEA
Rw3NFexRiS/g0U4Eeo7P9RbsEVW8SJI7mGC68ZeYpyK/ngCsSlun4bWqtyDF/IXV
P89T2mCUdZN4h+CZ1/DHNeVtgvfnI+H+iE3wvztocGHB6I3hKsl1yShmcXn/WKd5
wxyX25w8JYTgwtp3CJ5OmlrISIP+dEFzE0bCaScxcdl9QEZDWW3NVNhjRFtfIrmO
K7qZ0TiJDKy48sK5omeuPVa2x8DNTOZwzo5QZzyTxSDCRWbleXspVA786zl1UVRd
/GmtgNyIsGy+DOSf44E8qmu2pjS2Hvepij+9Py7k2sAny1D9in9EvaNwrU7kGxaa
/YJNVSYGysclSfwrnlSHfw==
-----END CERTIFICATE-----
