-----BEGIN RSA PRIVATE KEY-----
MIIEpAIBAAKCAQEAtklB40IBUah/PHpx0/vNkTUXhBqO9jbH0XAd+obzbrt2b+gy
Ljf9OJI9aOSKfUIzFEYb3AT2kW5UQMQKCf3sLWLiXuG6LJzBsWBM2sf4IlyCIGVC
HlZ3dU/rkCxK6lcOIo1slawR6szX7vZwDQndpjVhXcl2bbDyHr8whth3UjaVlw7R
RsXtgT0bsPJhlTzBQDjvX126YZ/vK5yfhYl0cGPVdug1fs4B4fMREZAcDfX9jc4Q
bK18VRohb9ct9HgV6i84vZGePB0HRvVDwYKLrxJTZRmKaWlmBrLaC/oqAKEqFYRJ
8QG/mzAG0BWgH51RkUfhU1/vXuzCYXnCFJ/E4wIDAQABAoIBAQCeoVG9Owt6zG8t
akD0gQR7gQBd7d7LVRC+qhrskdP2YRzIdgB1SDQMrvbR+VCrgJiC5CAKcCdCmAip
8+/okhidxpfIihdCC4hjm7JGEg9Vl7uGBZhsXkLGzC3q4SCwneGnH/uGpJ9S/cBM
LBmGvzcsFPgObeupuXp6V1cbgfUUjQM4h7OpuETlvPOduMEBLj6MwWyVqq5lzBQf
p6nUclEmiwL5izyNW6BSTbaBc36ekpAa/qsfIWtCZfmJ6gf5SfGn3alVYcd25rZ6
1mDig4q+u7U2PBzavmELU+9fvUknSOod6eCyzw1S4PmgvCJrx5fZjfJwOq1vgihb
w3zuPB/BAoGBAOS6goTVgJHCx1oTeJ6XR4p1tg5pxO5tnwhnWL9OIFE2Hlfbv50G
sWfMkNGGpuKP34+eQM7bEAz+LTfGbe4eoeRVvxjPFjosmj8pXGMoc7bsYh0Bo14A
0iUys48UTXLZlyC73wgeOpBTBYakIE13wdpCBxm7OaT3FTjdIiPc+AeVAoGBAMwF
L0YUf6VeJFfQMkVxclxEbLdqfHIa4fBNR4gu9AwGr72ToCW8MhYWwdYLNRDC/jJD
zSXbPs1erSfJNgigkvUiwEUMaqvOF3WfyKgJQXnc6MnTK67WbIol4oRe265n6y8P
gpMaD1OdIsu3zPI9FryS/RJwMe+UjSII3hi7wxyXAoGABaIKQNc5OV3Apxk/qTg0
jNZlS2mTbgPJHN3es6dq6FUa3jMNPwLBL7s7/c0BIydD7DeLhQykEo3X8z2xy2F5
vzPVZvkCpSAgFFoiala+ssyThf9aVKBUjJH5Fhb76U4uiKHX1k1YR+GjizNTkFTY
s1VY82tG+icToLjhdFymxxkCgYEAjLT6sJuMmXF/IS0OrsQaOjZawHjpkQynTMMP
lYXEfNLTu6yn476S0JcrYkLie0fwZpxKTVSTULJ+O5VS9cpA8F3iOvzgSNNfbJkh
m3qetLw9tIw2cWOjAfg07FQ7sGItWoyY4nkzntgd2mBOMbceCjpZ3bCRUAmk+Jcj
De3ZF8sCgYAjbYNkZvUIHMTYTsuO/Tg4karzUebqlBgwOgrztJOtsOSPy9uaroZ3
zRvTUw1UbdSeGi2QFt24wHOOrBLbGO6bYWKY3QyWnJ7m2gzEC2TijIdJ5n/BIkhE
ysXW1YMMCGZgOSXvBDHf3AMUZwcnmLY99wAyNKwC+IDqsKbfjP8drA==
-----END RSA PRIVATE KEY-----
Certificate:
    Data:
        Version: 3 (0x2)
        Serial Number: 12789565514992013210 (0xb17daa12e8af4f9a)
    Signature Algorithm: sha1WithRSAEncryption
        Issuer: CN=Test Root CA
        Validity
            Not Before: Aug 14 03:05:29 2014 GMT
            Not After : Aug 11 03:05:29 2024 GMT
        Subject: CN=Test Root CA
        Subject Public Key Info:
            Public Key Algorithm: rsaEncryption
                Public-Key: (2048 bit)
                Modulus:
                    00:b6:49:41:e3:42:01:51:a8:7f:3c:7a:71:d3:fb:
                    cd:91:35:17:84:1a:8e:f6:36:c7:d1:70:1d:fa:86:
                    f3:6e:bb:76:6f:e8:32:2e:37:fd:38:92:3d:68:e4:
                    8a:7d:42:33:14:46:1b:dc:04:f6:91:6e:54:40:c4:
                    0a:09:fd:ec:2d:62:e2:5e:e1:ba:2c:9c:c1:b1:60:
                    4c:da:c7:f8:22:5c:82:20:65:42:1e:56:77:75:4f:
                    eb:90:2c:4a:ea:57:0e:22:8d:6c:95:ac:11:ea:cc:
                    d7:ee:f6:70:0d:09:dd:a6:35:61:5d:c9:76:6d:b0:
                    f2:1e:bf:30:86:d8:77:52:36:95:97:0e:d1:46:c5:
                    ed:81:3d:1b:b0:f2:61:95:3c:c1:40:38:ef:5f:5d:
                    ba:61:9f:ef:2b:9c:9f:85:89:74:70:63:d5:76:e8:
                    35:7e:ce:01:e1:f3:11:11:90:1c:0d:f5:fd:8d:ce:
                    10:6c:ad:7c:55:1a:21:6f:d7:2d:f4:78:15:ea:2f:
                    38:bd:91:9e:3c:1d:07:46:f5:43:c1:82:8b:af:12:
                    53:65:19:8a:69:69:66:06:b2:da:0b:fa:2a:00:a1:
                    2a:15:84:49:f1:01:bf:9b:30:06:d0:15:a0:1f:9d:
                    51:91:47:e1:53:5f:ef:5e:ec:c2:61:79:c2:14:9f:
                    c4:e3
                Exponent: 65537 (0x10001)
        X509v3 extensions:
            X509v3 Basic Constraints: critical
                CA:TRUE
            X509v3 Subject Key Identifier: 
                BC:F7:30:D1:3C:C0:F2:79:FA:EF:9F:C9:6C:5C:93:F3:8A:68:AB:83
            X509v3 Key Usage: critical
                Certificate Sign, CRL Sign
    Signature Algorithm: sha1WithRSAEncryption
         57:07:29:fb:7f:e8:ff:b0:e6:d8:58:6a:c3:90:a1:38:1c:b4:
         f3:68:b1:ec:e8:89:23:24:d7:a8:f2:21:c3:60:e4:a4:49:5c:
         00:bf:df:c7:82:78:80:2b:18:f7:ad:dd:d0:62:5e:a7:b0:cc:
         f0:aa:b4:ce:70:12:59:65:67:76:05:00:18:9a:ff:c4:2a:17:
         e3:f1:55:d8:be:5c:5e:eb:ca:cb:53:87:10:d5:09:32:36:a7:
         5e:41:f4:53:da:7e:56:60:d2:7e:4e:9a:a5:08:5f:5d:75:e9:
         e7:30:cb:22:e9:ef:19:49:83:a5:23:a1:f8:60:4c:e5:36:d5:
         39:78:18:f1:5e:bf:ce:aa:0b:53:81:2c:78:a9:0a:6b:db:13:
         10:21:14:7f:1b:70:3d:89:1a:40:8a:06:2c:5d:50:19:62:f9:
         c7:45:89:f2:3d:66:05:3d:7d:75:5b:55:1e:80:42:72:a1:9a:
         7c:6d:0a:74:f6:ee:a6:21:6c:3a:98:fb:77:82:5f:f2:6b:56:
         e6:dd:9b:8e:50:f0:c6:ae:fd:ea:a6:05:07:a9:26:06:56:b3:
         b2:d9:b2:37:a0:21:3e:79:06:1f:b9:51:be:f4:b1:49:4d:90:
         b5:33:e5:0e:c7:5e:5b:40:c5:6a:04:d1:43:7a:94:6a:a4:4f:
         61:fc:82:e0
-----BEGIN CERTIFICATE-----
MIIC8zCCAdugAwIBAgIJALF9qhLor0+aMA0GCSqGSIb3DQEBBQUAMBcxFTATBgNV
BAMMDFRlc3QgUm9vdCBDQTAeFw0xNDA4MTQwMzA1MjlaFw0yNDA4MTEwMzA1Mjla
MBcxFTATBgNVBAMMDFRlc3QgUm9vdCBDQTCCASIwDQYJKoZIhvcNAQEBBQADggEP
ADCCAQoCggEBALZJQeNCAVGofzx6cdP7zZE1F4QajvY2x9FwHfqG8267dm/oMi43
/TiSPWjkin1CMxRGG9wE9pFuVEDECgn97C1i4l7huiycwbFgTNrH+CJcgiBlQh5W
d3VP65AsSupXDiKNbJWsEerM1+72cA0J3aY1YV3Jdm2w8h6/MIbYd1I2lZcO0UbF
7YE9G7DyYZU8wUA4719dumGf7yucn4WJdHBj1XboNX7OAeHzERGQHA31/Y3OEGyt
fFUaIW/XLfR4FeovOL2RnjwdB0b1Q8GCi68SU2UZimlpZgay2gv6KgChKhWESfEB
v5swBtAVoB+dUZFH4VNf717swmF5whSfxOMCAwEAAaNCMEAwDwYDVR0TAQH/BAUw
AwEB/zAdBgNVHQ4EFgQUvPcw0TzA8nn675/JbFyT84poq4MwDgYDVR0PAQH/BAQD
AgEGMA0GCSqGSIb3DQEBBQUAA4IBAQBXByn7f+j/sObYWGrDkKE4HLTzaLHs6Ikj
JNeo8iHDYOSkSVwAv9/HgniAKxj3rd3QYl6nsMzwqrTOcBJZZWd2BQAYmv/EKhfj
8VXYvlxe68rLU4cQ1QkyNqdeQfRT2n5WYNJ+TpqlCF9ddennMMsi6e8ZSYOlI6H4
YEzlNtU5eBjxXr/OqgtTgSx4qQpr2xMQIRR/G3A9iRpAigYsXVAZYvnHRYnyPWYF
PX11W1UegEJyoZp8bQp09u6mIWw6mPt3gl/ya1bm3ZuOUPDGrv3qpgUHqSYGVrOy
2bI3oCE+eQYfuVG+9LFJTZC1M+UOx15bQMVqBNFDepRqpE9h/ILg
-----END CERTIFICATE-----
