Certificate:
    Data:
        Version: 3 (0x2)
        Serial Number: 8 (0x8)
    Signature Algorithm: sha1WithRSAEncryption
        Issuer: CN=Test Root CA
        Validity
            Not Before: Dec 31 23:59:59 2015 GMT
            Not After : Dec 30 00:00:00 2016 GMT
        Subject: C=US, ST=California, L=Mountain View, O=Test CA, CN=127.0.0.1
        Subject Public Key Info:
            Public Key Algorithm: rsaEncryption
                Public-Key: (2048 bit)
                Modulus:
                    00:e2:01:60:a4:71:45:a8:f6:30:4a:3d:15:97:19:
                    b9:00:c8:ef:72:4b:6d:cc:92:d2:6e:69:78:7d:ff:
                    a9:80:f3:1d:00:ef:28:a1:07:d0:98:c7:f0:c6:d7:
                    eb:0a:77:42:29:4e:60:d4:a7:11:d0:d0:ae:ed:b6:
                    1c:9f:a8:63:02:05:e5:0d:c0:a7:07:3c:96:4f:c3:
                    61:d0:68:c6:a5:06:cf:ab:b6:09:2c:22:44:f4:b7:
                    97:7e:69:8e:cc:51:3a:2b:0e:4a:cb:7e:8c:3b:6f:
                    da:13:d5:e8:c3:38:e8:e5:5a:01:03:75:e6:4d:04:
                    61:fe:4c:bb:ff:38:9e:97:93:14:ff:42:cd:c7:ba:
                    16:68:d0:0f:5b:2b:7d:d1:59:49:33:5d:22:48:f4:
                    07:fd:19:0b:f4:f3:14:6c:f5:c5:69:90:28:f1:24:
                    8c:a5:cc:77:ba:4b:98:bc:00:2e:57:09:ce:8c:e8:
                    b5:14:39:29:9c:ee:f2:3f:75:5b:9c:92:09:00:6f:
                    89:60:f1:4f:68:a7:c7:fd:22:6a:b8:4a:92:fc:8d:
                    bd:ab:fc:bc:b1:68:23:5f:f2:bc:25:8d:61:a8:d2:
                    91:f1:ba:f6:48:25:05:a6:2c:a4:bb:af:27:c7:b5:
                    61:3f:62:cd:61:2b:d2:2a:f8:02:46:f4:23:6d:90:
                    d9:d3
                Exponent: 65537 (0x10001)
        X509v3 extensions:
            X509v3 Basic Constraints: critical
                CA:FALSE
            X509v3 Subject Key Identifier: 
                5A:67:3F:18:17:60:C4:59:4C:9D:98:C0:8B:B7:2F:77:84:C8:22:A6
            X509v3 Authority Key Identifier: 
                keyid:BC:F7:30:D1:3C:C0:F2:79:FA:EF:9F:C9:6C:5C:93:F3:8A:68:AB:83

            X509v3 Extended Key Usage: 
                TLS Web Server Authentication, TLS Web Client Authentication
            X509v3 Subject Alternative Name: 
                IP Address:127.0.0.1
    Signature Algorithm: sha1WithRSAEncryption
         54:f1:c7:bb:ad:7c:c8:6c:4b:6d:54:65:6c:6c:f7:d9:f9:f7:
         a3:29:0f:df:4c:7f:9c:49:cb:29:b9:e4:14:71:95:e0:ab:1a:
         c2:13:34:b5:d9:a6:64:a1:ec:64:b4:af:00:45:60:3e:66:a8:
         59:bd:8f:b7:35:53:6f:46:e4:5c:17:42:d8:76:12:84:26:f0:
         d2:bc:e9:85:32:7d:fb:d3:4d:7c:c2:af:6e:64:c5:fd:4c:ee:
         57:b8:bd:fc:31:57:aa:3c:aa:03:6f:9c:db:e4:c4:62:45:48:
         ba:6a:7a:63:b9:38:44:4f:fc:cb:3d:b4:fd:09:b0:89:f8:7e:
         c4:cd:ac:06:c0:bd:06:fa:99:64:32:b2:49:6d:df:d1:5f:ae:
         40:9f:95:cd:f2:7b:ba:b7:aa:c0:e0:f0:e6:0f:bf:04:3f:b4:
         52:3a:e9:10:02:4d:71:22:ad:29:be:61:7c:d2:1e:c6:e8:52:
         da:00:cc:2f:e3:0f:68:03:ed:cc:19:c9:da:0f:a3:d1:82:ba:
         d8:14:40:07:37:4e:55:e9:9a:45:25:bf:eb:cb:4c:13:54:c8:
         26:b7:41:0b:68:7b:3a:25:a5:67:33:fd:15:63:be:5e:05:a4:
         09:6d:22:7e:fd:e0:6d:4c:d5:a9:47:c2:30:e4:34:e4:ec:cb:
         b6:61:32:98
-----BEGIN CERTIFICATE-----
MIIDczCCAlugAwIBAgIBCDANBgkqhkiG9w0BAQUFADAXMRUwEwYDVQQDDAxUZXN0
IFJvb3QgQ0EwHhcNMTUxMjMxMjM1OTU5WhcNMTYxMjMwMDAwMDAwWjBgMQswCQYD
VQQGEwJVUzETMBEGA1UECAwKQ2FsaWZvcm5pYTEWMBQGA1UEBwwNTW91bnRhaW4g
VmlldzEQMA4GA1UECgwHVGVzdCBDQTESMBAGA1UEAwwJMTI3LjAuMC4xMIIBIjAN
BgkqhkiG9w0BAQEFAAOCAQ8AMIIBCgKCAQEA4gFgpHFFqPYwSj0Vlxm5AMjvcktt
zJLSbml4ff+pgPMdAO8ooQfQmMfwxtfrCndCKU5g1KcR0NCu7bYcn6hjAgXlDcCn
BzyWT8Nh0GjGpQbPq7YJLCJE9LeXfmmOzFE6Kw5Ky36MO2/aE9Xowzjo5VoBA3Xm
TQRh/ky7/ziel5MU/0LNx7oWaNAPWyt90VlJM10iSPQH/RkL9PMUbPXFaZAo8SSM
pcx3ukuYvAAuVwnOjOi1FDkpnO7yP3VbnJIJAG+JYPFPaKfH/SJquEqS/I29q/y8
sWgjX/K8JY1hqNKR8br2SCUFpiyku68nx7VhP2LNYSvSKvgCRvQjbZDZ0wIDAQAB
o4GAMH4wDAYDVR0TAQH/BAIwADAdBgNVHQ4EFgQUWmc/GBdgxFlMnZjAi7cvd4TI
IqYwHwYDVR0jBBgwFoAUvPcw0TzA8nn675/JbFyT84poq4MwHQYDVR0lBBYwFAYI
KwYBBQUHAwEGCCsGAQUFBwMCMA8GA1UdEQQIMAaHBH8AAAEwDQYJKoZIhvcNAQEF
BQADggEBAFTxx7utfMhsS21UZWxs99n596MpD99Mf5xJyym55BRxleCrGsITNLXZ
pmSh7GS0rwBFYD5mqFm9j7c1U29G5FwXQth2EoQm8NK86YUyffvTTXzCr25kxf1M
7le4vfwxV6o8qgNvnNvkxGJFSLpqemO5OERP/Ms9tP0JsIn4fsTNrAbAvQb6mWQy
sklt39FfrkCflc3ye7q3qsDg8OYPvwQ/tFI66RACTXEirSm+YXzSHsboUtoAzC/j
D2gD7cwZydoPo9GCutgUQAc3TlXpmkUlv+vLTBNUyCa3QQtoezolpWcz/RVjvl4F
pAltIn794G1M1alHwjDkNOTsy7ZhMpg=
-----END CERTIFICATE-----
