Certificate:
    Data:
        Version: 3 (0x2)
        Serial Number: 8 (0x8)
    Signature Algorithm: sha256WithRSAEncryption
        Issuer: CN=Test Root CA
        Validity
            Not Before: Dec 31 23:59:59 2015 GMT
            Not After : Dec 30 00:00:00 2016 GMT
        Subject: C=US, ST=California, L=Mountain View, O=Test CA, CN=127.0.0.1
        Subject Public Key Info:
            Public Key Algorithm: rsaEncryption
                Public-Key: (2048 bit)
                Modulus:
                    00:da:6a:85:4f:e5:d7:73:82:af:a2:1e:85:49:d0:
                    a9:ef:65:b9:29:e3:1d:32:d0:33:10:0d:67:a8:7d:
                    22:d1:99:c1:c9:ab:e5:3e:06:9b:63:62:81:60:26:
                    9c:70:b4:92:65:95:46:b2:fd:ad:e5:19:b1:30:6d:
                    a5:00:7d:d8:4d:b3:e7:b6:a5:83:da:be:26:79:ee:
                    58:0a:f8:dd:8a:ae:13:db:f7:9a:8a:2b:eb:9f:15:
                    53:5d:ce:18:ac:03:f2:ed:30:f4:8c:af:d6:7e:76:
                    97:aa:97:c4:24:a5:7e:28:dc:dc:22:ea:86:54:4f:
                    15:bf:03:81:11:ea:f9:ca:17:db:5a:b8:f0:3d:1a:
                    a5:c9:96:1b:d3:ed:99:ba:7a:55:e3:fa:9e:61:54:
                    61:75:16:79:22:10:e9:e6:5a:b5:6b:b5:9d:32:bb:
                    e8:10:de:66:d7:1a:59:6f:d7:42:bf:80:b5:b2:73:
                    b9:a1:0b:5d:fe:0f:a1:6c:fc:de:99:d2:b3:ae:13:
                    d6:7f:f3:a9:7e:c0:07:f1:e4:a2:27:1b:1f:6d:81:
                    86:b4:0f:f7:2b:9a:3c:7b:76:dc:5d:3a:b0:9e:b7:
                    64:5f:53:33:08:3a:51:77:df:d1:91:b5:54:b8:4e:
                    7a:0c:29:d1:40:cb:47:a4:cc:3b:b4:6e:a2:4d:91:
                    6b:75
                Exponent: 65537 (0x10001)
        X509v3 extensions:
            X509v3 Basic Constraints: critical
                CA:FALSE
            X509v3 Subject Key Identifier: 
                16:04:CF:CB:65:43:70:72:46:1E:83:5B:87:5E:10:CB:CB:69:B2:60
            X509v3 Authority Key Identifier: 
                keyid:6C:29:1B:65:A9:3F:B8:19:9A:0F:FC:77:D6:95:55:2A:F2:4B:74:E6

            X509v3 Extended Key Usage: 
                TLS Web Server Authentication, TLS Web Client Authentication
            X509v3 Subject Alternative Name: 
                IP Address:127.0.0.1
    Signature Algorithm: sha256WithRSAEncryption
         58:b4:e7:31:15:4f:c4:70:1e:51:c6:ae:c3:47:3d:e8:17:92:
         b9:8e:3b:76:c4:38:98:f7:c9:6e:be:0b:6a:2c:9d:fb:29:37:
         e5:a7:4a:33:56:b5:2b:38:37:3e:65:8c:32:97:26:cf:47:94:
         1c:35:d1:8b:83:67:33:60:35:ed:8d:84:51:21:84:fe:15:4b:
         31:6d:6c:df:b2:24:ad:25:cd:f2:40:c5:bf:68:d8:62:db:ad:
         d3:05:4b:71:0a:83:f5:12:d1:49:47:c5:44:a5:a5:08:1d:26:
         35:a2:2e:42:f1:06:4d:79:8a:54:95:51:54:a7:d3:aa:33:86:
         ab:c7:5f:81:03:76:c1:c3:61:9a:9f:d9:a4:0c:6e:9f:31:40:
         0a:ee:b7:ae:e4:4a:17:aa:79:9c:17:1b:d4:49:65:52:57:f4:
         52:bb:e4:12:0e:b0:1a:65:c4:8d:e4:02:26:ff:43:42:87:53:
         7c:4b:10:7d:19:14:a9:c8:b7:9e:9a:e6:54:c1:f9:9e:2e:57:
         58:8e:37:3b:66:25:ce:1c:5c:7c:55:e1:0c:3a:dc:ac:46:48:
         e2:d6:f5:c9:dd:36:c3:4f:75:df:06:af:e4:dc:21:fd:73:14:
         6d:51:1c:2d:b3:15:2e:1c:fb:b4:b9:b4:01:1f:82:ae:1d:20:
         3d:5f:25:98
-----BEGIN CERTIFICATE-----
MIIDczCCAlugAwIBAgIBCDANBgkqhkiG9w0BAQsFADAXMRUwEwYDVQQDDAxUZXN0
IFJvb3QgQ0EwHhcNMTUxMjMxMjM1OTU5WhcNMTYxMjMwMDAwMDAwWjBgMQswCQYD
VQQGEwJVUzETMBEGA1UECAwKQ2FsaWZvcm5pYTEWMBQGA1UEBwwNTW91bnRhaW4g
VmlldzEQMA4GA1UECgwHVGVzdCBDQTESMBAGA1UEAwwJMTI3LjAuMC4xMIIBIjAN
BgkqhkiG9w0BAQEFAAOCAQ8AMIIBCgKCAQEA2mqFT+XXc4Kvoh6FSdCp72W5KeMd
MtAzEA1nqH0i0ZnByavlPgabY2KBYCaccLSSZZVGsv2t5RmxMG2lAH3YTbPntqWD
2r4mee5YCvjdiq4T2/eaiivrnxVTXc4YrAPy7TD0jK/WfnaXqpfEJKV+KNzcIuqG
VE8VvwOBEer5yhfbWrjwPRqlyZYb0+2ZunpV4/qeYVRhdRZ5IhDp5lq1a7WdMrvo
EN5m1xpZb9dCv4C1snO5oQtd/g+hbPzemdKzrhPWf/OpfsAH8eSiJxsfbYGGtA/3
K5o8e3bcXTqwnrdkX1MzCDpRd9/RkbVUuE56DCnRQMtHpMw7tG6iTZFrdQIDAQAB
o4GAMH4wDAYDVR0TAQH/BAIwADAdBgNVHQ4EFgQUFgTPy2VDcHJGHoNbh14Qy8tp
smAwHwYDVR0jBBgwFoAUbCkbZak/uBmaD/x31pVVKvJLdOYwHQYDVR0lBBYwFAYI
KwYBBQUHAwEGCCsGAQUFBwMCMA8GA1UdEQQIMAaHBH8AAAEwDQYJKoZIhvcNAQEL
BQADggEBAFi05zEVT8RwHlHGrsNHPegXkrmOO3bEOJj3yW6+C2osnfspN+WnSjNW
tSs4Nz5ljDKXJs9HlBw10YuDZzNgNe2NhFEhhP4VSzFtbN+yJK0lzfJAxb9o2GLb
rdMFS3EKg/US0UlHxUSlpQgdJjWiLkLxBk15ilSVUVSn06ozhqvHX4EDdsHDYZqf
2aQMbp8xQArut67kSheqeZwXG9RJZVJX9FK75BIOsBplxI3kAib/Q0KHU3xLEH0Z
FKnIt56a5lTB+Z4uV1iONztmJc4cXHxV4Qw63KxGSOLW9cndNsNPdd8Gr+TcIf1z
FG1RHC2zFS4c+7S5tAEfgq4dID1fJZg=
-----END CERTIFICATE-----
