Certificate:
    Data:
        Version: 3 (0x2)
        Serial Number: 1 (0x1)
    Signature Algorithm: sha1WithRSAEncryption
        Issuer: CN=Test Root CA
        Validity
            Not Before: Oct 30 00:00:00 2008 GMT
            Not After : Dec 30 00:00:00 2016 GMT
        Subject: C=US, ST=California, L=Mountain View, O=Test CA, CN=127.0.0.1
        Subject Public Key Info:
            Public Key Algorithm: rsaEncryption
                Public-Key: (2048 bit)
                Modulus:
                    00:bc:e0:e9:f5:9a:f0:36:82:13:c5:f2:2c:79:69:
                    1e:69:35:c5:3b:31:fd:cf:60:28:e1:40:f8:23:d5:
                    dc:b1:52:32:e2:09:08:3a:af:39:5a:05:f8:51:ee:
                    fe:e9:73:c0:80:5a:29:2a:84:c3:14:e5:f7:3e:ab:
                    b4:f5:e4:2d:e9:f5:ab:5a:b1:37:75:e9:91:4d:40:
                    8a:64:fa:f4:7d:22:76:9b:6a:d3:7c:8e:8a:c8:c2:
                    40:42:c2:40:9a:63:be:ad:ac:99:8a:4f:c0:b5:15:
                    63:d2:4e:76:96:49:73:69:86:da:a9:f1:ea:32:f9:
                    27:d0:5a:f2:64:35:86:25:ee:cb:a5:7e:d3:35:97:
                    1f:92:82:4c:c6:23:cc:2a:cd:df:50:7a:37:51:c2:
                    77:01:0c:76:d5:93:fe:af:57:76:3a:5a:3d:83:d6:
                    18:03:1a:50:d6:e3:b5:b0:40:aa:16:a8:03:38:3d:
                    6f:2f:7a:e2:92:6d:b8:04:93:42:0d:27:a5:73:3b:
                    37:f5:0e:50:f5:d6:9e:db:da:64:b1:d3:32:75:94:
                    cd:20:0f:f7:73:92:b2:b4:34:1a:9c:79:13:b1:78:
                    c2:22:0e:45:10:ff:47:ea:df:9a:78:0c:b5:9c:e4:
                    89:9e:12:c0:e7:ab:bc:01:46:90:d7:05:4d:3f:a5:
                    7a:0b
                Exponent: 65537 (0x10001)
        X509v3 extensions:
            X509v3 Basic Constraints: critical
                CA:FALSE
            X509v3 Subject Key Identifier: 
                C7:77:F7:6A:6A:BF:D7:F9:34:CC:B9:74:3F:AC:12:56:46:10:B4:76
            X509v3 Authority Key Identifier: 
                keyid:BC:F7:30:D1:3C:C0:F2:79:FA:EF:9F:C9:6C:5C:93:F3:8A:68:AB:83

            X509v3 Extended Key Usage: 
                TLS Web Server Authentication, TLS Web Client Authentication
            X509v3 Subject Alternative Name: 
                IP Address:127.0.0.1
    Signature Algorithm: sha1WithRSAEncryption
         77:91:04:bc:b5:04:90:6b:1a:dd:f2:26:55:3c:c9:76:f0:de:
         d5:90:dc:8a:94:c3:87:ba:84:ab:bf:0d:2a:39:ab:87:03:e4:
         66:0c:fb:cb:fa:b6:d6:9c:0d:56:cf:a4:1c:5e:31:e3:5d:97:
         8e:b9:2c:c5:9c:a9:32:6a:dd:8d:b9:df:ac:45:04:a4:1f:ca:
         66:fa:43:bb:62:4c:2f:13:5b:43:9b:7f:e4:2b:82:fa:25:01:
         f7:30:de:a5:95:90:78:7f:1f:7a:5f:37:11:f6:86:1c:d4:88:
         e6:36:fa:c6:ae:c5:55:c2:30:97:7b:3a:01:fe:22:b9:c9:67:
         d1:44:f8:f2:f7:35:2d:bd:b8:7f:cb:2a:61:18:7f:55:8e:f7:
         bc:e4:6f:ae:d8:4e:60:10:c6:c3:be:b7:c1:0c:d9:9b:c1:d2:
         23:63:d7:b0:7b:69:87:33:a5:99:65:c8:50:d7:40:e5:1f:43:
         61:54:91:aa:e7:e0:bd:e3:33:d4:d8:fc:88:8b:04:8d:03:60:
         8e:c4:57:c8:d3:82:bc:7d:27:96:c6:14:e8:10:08:45:e4:81:
         da:2c:99:ce:6c:32:70:59:ca:b4:52:21:35:30:12:5f:00:a4:
         4c:6d:e7:32:71:7c:83:5d:7e:6a:fb:cc:f9:8a:f0:3d:01:d5:
         c6:39:a7:f5
-----BEGIN CERTIFICATE-----
MIIDczCCAlugAwIBAgIBATANBgkqhkiG9w0BAQUFADAXMRUwEwYDVQQDDAxUZXN0
IFJvb3QgQ0EwHhcNMDgxMDMwMDAwMDAwWhcNMTYxMjMwMDAwMDAwWjBgMQswCQYD
VQQGEwJVUzETMBEGA1UECAwKQ2FsaWZvcm5pYTEWMBQGA1UEBwwNTW91bnRhaW4g
VmlldzEQMA4GA1UECgwHVGVzdCBDQTESMBAGA1UEAwwJMTI3LjAuMC4xMIIBIjAN
BgkqhkiG9w0BAQEFAAOCAQ8AMIIBCgKCAQEAvODp9ZrwNoITxfIseWkeaTXFOzH9
z2Ao4UD4I9XcsVIy4gkIOq85WgX4Ue7+6XPAgFopKoTDFOX3Pqu09eQt6fWrWrE3
demRTUCKZPr0fSJ2m2rTfI6KyMJAQsJAmmO+rayZik/AtRVj0k52lklzaYbaqfHq
Mvkn0FryZDWGJe7LpX7TNZcfkoJMxiPMKs3fUHo3UcJ3AQx21ZP+r1d2Olo9g9YY
AxpQ1uO1sECqFqgDOD1vL3rikm24BJNCDSelczs39Q5Q9dae29pksdMydZTNIA/3
c5KytDQanHkTsXjCIg5FEP9H6t+aeAy1nOSJnhLA56u8AUaQ1wVNP6V6CwIDAQAB
o4GAMH4wDAYDVR0TAQH/BAIwADAdBgNVHQ4EFgQUx3f3amq/1/k0zLl0P6wSVkYQ
tHYwHwYDVR0jBBgwFoAUvPcw0TzA8nn675/JbFyT84poq4MwHQYDVR0lBBYwFAYI
KwYBBQUHAwEGCCsGAQUFBwMCMA8GA1UdEQQIMAaHBH8AAAEwDQYJKoZIhvcNAQEF
BQADggEBAHeRBLy1BJBrGt3yJlU8yXbw3tWQ3IqUw4e6hKu/DSo5q4cD5GYM+8v6
ttacDVbPpBxeMeNdl465LMWcqTJq3Y2536xFBKQfymb6Q7tiTC8TW0Obf+Qrgvol
Afcw3qWVkHh/H3pfNxH2hhzUiOY2+sauxVXCMJd7OgH+IrnJZ9FE+PL3NS29uH/L
KmEYf1WO97zkb67YTmAQxsO+t8EM2ZvB0iNj17B7aYczpZllyFDXQOUfQ2FUkarn
4L3jM9TY/IiLBI0DYI7EV8jTgrx9J5bGFOgQCEXkgdosmc5sMnBZyrRSITUwEl8A
pExt5zJxfINdfmr7zPmK8D0B1cY5p/U=
-----END CERTIFICATE-----
