Certificate:
    Data:
        Version: 3 (0x2)
        Serial Number: 9 (0x9)
    Signature Algorithm: sha1WithRSAEncryption
        Issuer: CN=Test Root CA
        Validity
            Not Before: Jan  1 00:00:00 2016 GMT
            Not After : Dec 30 00:00:00 2016 GMT
        Subject: C=US, ST=California, L=Mountain View, O=Test CA, CN=127.0.0.1
        Subject Public Key Info:
            Public Key Algorithm: rsaEncryption
                Public-Key: (2048 bit)
                Modulus:
                    00:b4:51:9f:c1:5a:a6:f8:54:6a:4b:a0:76:fe:f8:
                    71:3e:db:f5:fd:60:16:0a:f8:f5:3e:34:1f:1e:f2:
                    ba:46:36:2c:7b:10:a7:13:1e:8f:41:e6:d2:cd:53:
                    9f:3a:99:76:e3:65:4a:c0:0e:e8:6e:08:cd:d0:b6:
                    dd:7c:d8:9e:5f:c2:52:c6:d5:b5:77:12:b0:1b:79:
                    d2:ac:27:7a:37:88:21:6b:22:ea:b6:eb:e6:89:15:
                    e4:f8:e6:46:65:91:37:a5:24:98:44:2b:7a:46:c3:
                    37:5d:d6:14:b9:3a:14:b7:10:8e:49:ae:b3:74:37:
                    9e:b4:e6:80:be:bc:9e:ad:86:cb:88:26:66:56:53:
                    70:80:c5:50:95:1f:a5:d4:a4:b2:34:6e:87:ab:51:
                    64:2f:57:8f:9d:99:67:a2:13:f7:c8:40:8a:65:ba:
                    cd:5e:20:f2:b7:16:20:f0:c6:83:c6:06:fc:a9:e1:
                    fd:45:40:77:46:f5:77:3a:27:12:c5:ed:96:36:75:
                    77:59:c4:4c:9d:df:d9:fd:e8:9b:bb:15:68:22:58:
                    1d:0e:25:71:40:88:e9:6d:cf:e1:b5:1b:de:fd:bb:
                    61:b6:5b:52:04:c9:11:20:d7:2e:4f:eb:fa:04:42:
                    30:fd:fc:64:4d:b9:23:4a:25:dc:0d:3a:40:64:6d:
                    2c:91
                Exponent: 65537 (0x10001)
        X509v3 extensions:
            X509v3 Basic Constraints: critical
                CA:FALSE
            X509v3 Subject Key Identifier: 
                4A:09:4F:0D:9A:CF:60:FE:BA:18:68:EB:3D:6C:EB:6A:72:65:9A:12
            X509v3 Authority Key Identifier: 
                keyid:BC:F7:30:D1:3C:C0:F2:79:FA:EF:9F:C9:6C:5C:93:F3:8A:68:AB:83

            X509v3 Extended Key Usage: 
                TLS Web Server Authentication, TLS Web Client Authentication
            X509v3 Subject Alternative Name: 
                IP Address:127.0.0.1
    Signature Algorithm: sha1WithRSAEncryption
         1a:da:02:13:a7:42:44:32:f2:89:00:b2:8c:8e:7a:65:8a:0d:
         d6:7c:bb:d7:04:bd:75:3a:ae:89:b6:df:38:ea:27:a5:94:03:
         8b:af:07:9d:3e:08:b7:12:62:1c:b6:8a:0a:c8:dd:ea:24:9a:
         19:00:1f:2f:f9:d8:73:d0:e5:58:11:1f:7c:60:09:62:ac:30:
         6c:6f:a7:42:1c:01:52:35:fa:c8:04:59:c9:de:49:ec:b1:eb:
         90:b6:64:4e:fc:58:aa:40:85:57:71:e1:27:64:04:fd:ff:35:
         c2:d7:6d:52:1f:76:b9:35:a7:b4:d5:3b:dc:fe:ba:0d:84:1a:
         5b:38:9d:a1:a2:31:47:d3:85:ec:27:03:d8:a8:e1:b6:fc:09:
         95:a7:f4:54:e4:58:eb:68:47:61:0d:31:bf:8d:13:00:bb:0a:
         db:2a:ac:16:a4:2f:8a:01:db:51:10:a1:45:47:88:3e:7e:d5:
         bb:3b:e9:f9:07:50:6e:f3:2b:aa:67:04:4f:ac:b8:78:87:d0:
         e0:fb:cb:0b:07:d0:7a:98:b4:aa:71:a6:2d:61:26:4a:ee:1c:
         92:59:f2:5c:15:00:10:f4:1b:38:97:ee:a4:b2:2a:bd:53:d7:
         2f:3e:32:e8:6a:4f:30:b1:bf:c6:22:27:52:74:e4:c5:23:fd:
         46:8d:fb:a9
-----BEGIN CERTIFICATE-----
MIIDczCCAlugAwIBAgIBCTANBgkqhkiG9w0BAQUFADAXMRUwEwYDVQQDDAxUZXN0
IFJvb3QgQ0EwHhcNMTYwMTAxMDAwMDAwWhcNMTYxMjMwMDAwMDAwWjBgMQswCQYD
VQQGEwJVUzETMBEGA1UECAwKQ2FsaWZvcm5pYTEWMBQGA1UEBwwNTW91bnRhaW4g
VmlldzEQMA4GA1UECgwHVGVzdCBDQTESMBAGA1UEAwwJMTI3LjAuMC4xMIIBIjAN
BgkqhkiG9w0BAQEFAAOCAQ8AMIIBCgKCAQEAtFGfwVqm+FRqS6B2/vhxPtv1/WAW
Cvj1PjQfHvK6RjYsexCnEx6PQebSzVOfOpl242VKwA7obgjN0LbdfNieX8JSxtW1
dxKwG3nSrCd6N4ghayLqtuvmiRXk+OZGZZE3pSSYRCt6RsM3XdYUuToUtxCOSa6z
dDeetOaAvryerYbLiCZmVlNwgMVQlR+l1KSyNG6Hq1FkL1ePnZlnohP3yECKZbrN
XiDytxYg8MaDxgb8qeH9RUB3RvV3OicSxe2WNnV3WcRMnd/Z/eibuxVoIlgdDiVx
QIjpbc/htRve/bthtltSBMkRINcuT+v6BEIw/fxkTbkjSiXcDTpAZG0skQIDAQAB
o4GAMH4wDAYDVR0TAQH/BAIwADAdBgNVHQ4EFgQUSglPDZrPYP66GGjrPWzranJl
mhIwHwYDVR0jBBgwFoAUvPcw0TzA8nn675/JbFyT84poq4MwHQYDVR0lBBYwFAYI
KwYBBQUHAwEGCCsGAQUFBwMCMA8GA1UdEQQIMAaHBH8AAAEwDQYJKoZIhvcNAQEF
BQADggEBABraAhOnQkQy8okAsoyOemWKDdZ8u9cEvXU6rom23zjqJ6WUA4uvB50+
CLcSYhy2igrI3eokmhkAHy/52HPQ5VgRH3xgCWKsMGxvp0IcAVI1+sgEWcneSeyx
65C2ZE78WKpAhVdx4SdkBP3/NcLXbVIfdrk1p7TVO9z+ug2EGls4naGiMUfThewn
A9io4bb8CZWn9FTkWOtoR2ENMb+NEwC7CtsqrBakL4oB21EQoUVHiD5+1bs76fkH
UG7zK6pnBE+suHiH0OD7ywsH0HqYtKpxpi1hJkruHJJZ8lwVABD0GziX7qSyKr1T
1y8+MuhqTzCxv8YiJ1J05MUj/UaN+6k=
-----END CERTIFICATE-----
