Certificate:
    Data:
        Version: 3 (0x2)
        Serial Number: 9 (0x9)
    Signature Algorithm: sha256WithRSAEncryption
        Issuer: CN=Test Root CA
        Validity
            Not Before: Jan  1 00:00:00 2016 GMT
            Not After : Dec 30 00:00:00 2016 GMT
        Subject: C=US, ST=California, L=Mountain View, O=Test CA, CN=127.0.0.1
        Subject Public Key Info:
            Public Key Algorithm: rsaEncryption
                Public-Key: (2048 bit)
                Modulus:
                    00:b6:93:55:29:0f:ea:d2:34:c0:71:6b:df:b4:f6:
                    9f:12:72:65:e1:0c:ac:1a:7d:ab:3e:76:2e:64:5a:
                    02:c7:bc:61:bd:1e:ed:f3:eb:30:76:bd:44:48:d0:
                    15:fc:8b:f3:c5:bc:06:18:c2:8e:7b:99:a1:bc:f1:
                    24:d4:17:05:39:51:bc:cc:1f:39:c7:0a:67:3b:76:
                    8b:23:3f:9a:df:a9:21:70:71:17:40:c3:6f:b0:a2:
                    ea:7b:e3:64:94:08:cd:4b:66:a4:00:27:2f:af:8e:
                    ce:99:4c:c6:21:c6:4a:05:5e:08:17:41:3a:d4:31:
                    a0:bc:a0:0a:2e:a1:b2:ff:08:d9:11:a6:40:fc:f0:
                    0f:3e:9c:31:de:32:4b:23:c2:b8:d4:a3:2c:81:84:
                    e7:64:c7:25:3b:e9:8e:aa:6c:7f:13:8a:66:35:2d:
                    a6:3c:07:95:7f:26:75:16:24:c0:92:6e:cf:f3:c3:
                    19:f4:66:f9:23:4f:75:de:2f:a5:cd:1a:15:94:23:
                    8c:68:bc:32:74:1d:21:fa:5f:c9:88:48:9a:08:c7:
                    1e:9c:31:27:fb:8e:d7:01:72:6e:60:bb:b4:b6:f3:
                    d8:8b:6c:97:6c:ec:a0:42:b6:48:02:f1:f1:b7:15:
                    0d:84:e5:96:64:9e:f4:59:a1:4f:df:cb:e6:58:51:
                    bf:d7
                Exponent: 65537 (0x10001)
        X509v3 extensions:
            X509v3 Basic Constraints: critical
                CA:FALSE
            X509v3 Subject Key Identifier: 
                A6:36:4C:FB:11:3E:B2:79:D1:1F:94:96:A1:F0:14:03:01:BB:09:CE
            X509v3 Authority Key Identifier: 
                keyid:6C:29:1B:65:A9:3F:B8:19:9A:0F:FC:77:D6:95:55:2A:F2:4B:74:E6

            X509v3 Extended Key Usage: 
                TLS Web Server Authentication, TLS Web Client Authentication
            X509v3 Subject Alternative Name: 
                IP Address:127.0.0.1
    Signature Algorithm: sha256WithRSAEncryption
         6c:76:f5:b4:56:92:77:34:99:32:47:05:9b:23:93:8e:82:29:
         d9:cd:7f:e8:81:65:19:4a:db:6c:c7:c3:ef:7d:47:43:30:24:
         58:8a:9b:63:b6:88:d5:c4:57:09:89:79:ce:ac:4a:e2:bf:e5:
         87:1e:5d:e5:99:37:b6:af:96:7b:0c:a4:6c:ff:1c:65:eb:36:
         cd:5f:74:53:e9:28:ef:72:e1:9f:b6:b5:aa:0f:8f:60:91:f7:
         79:62:85:d1:b2:19:84:26:9d:ff:e0:20:4c:71:7d:72:12:10:
         7e:83:4e:e1:c5:6a:a7:d2:5c:c2:c4:ac:33:e1:02:c5:74:d3:
         79:57:cd:8b:89:a2:17:b2:9a:97:83:ce:8a:b3:ae:50:e4:99:
         d7:af:96:d2:d8:57:72:d3:22:67:17:52:7d:f0:4d:d3:48:95:
         5a:ef:8a:d4:1d:43:bd:3b:65:49:5b:70:da:7f:2e:8a:aa:e0:
         b5:ed:6d:8f:d0:1d:7a:cc:ee:c7:47:dc:66:de:cf:b0:19:07:
         3f:44:d6:ce:db:1d:b1:1a:3e:54:60:16:93:df:85:76:62:9d:
         0e:fa:27:1c:bd:6f:fe:20:9b:34:4a:b6:f8:f9:52:c4:bb:22:
         92:01:69:8e:5b:da:0f:b9:f6:63:89:3f:f2:58:bc:59:9e:3d:
         58:c6:fe:db
-----BEGIN CERTIFICATE-----
MIIDczCCAlugAwIBAgIBCTANBgkqhkiG9w0BAQsFADAXMRUwEwYDVQQDDAxUZXN0
IFJvb3QgQ0EwHhcNMTYwMTAxMDAwMDAwWhcNMTYxMjMwMDAwMDAwWjBgMQswCQYD
VQQGEwJVUzETMBEGA1UECAwKQ2FsaWZvcm5pYTEWMBQGA1UEBwwNTW91bnRhaW4g
VmlldzEQMA4GA1UECgwHVGVzdCBDQTESMBAGA1UEAwwJMTI3LjAuMC4xMIIBIjAN
BgkqhkiG9w0BAQEFAAOCAQ8AMIIBCgKCAQEAtpNVKQ/q0jTAcWvftPafEnJl4Qys
Gn2rPnYuZFoCx7xhvR7t8+swdr1ESNAV/IvzxbwGGMKOe5mhvPEk1BcFOVG8zB85
xwpnO3aLIz+a36khcHEXQMNvsKLqe+NklAjNS2akACcvr47OmUzGIcZKBV4IF0E6
1DGgvKAKLqGy/wjZEaZA/PAPPpwx3jJLI8K41KMsgYTnZMclO+mOqmx/E4pmNS2m
PAeVfyZ1FiTAkm7P88MZ9Gb5I0913i+lzRoVlCOMaLwydB0h+l/JiEiaCMcenDEn
+47XAXJuYLu0tvPYi2yXbOygQrZIAvHxtxUNhOWWZJ70WaFP38vmWFG/1wIDAQAB
o4GAMH4wDAYDVR0TAQH/BAIwADAdBgNVHQ4EFgQUpjZM+xE+snnRH5SWofAUAwG7
Cc4wHwYDVR0jBBgwFoAUbCkbZak/uBmaD/x31pVVKvJLdOYwHQYDVR0lBBYwFAYI
KwYBBQUHAwEGCCsGAQUFBwMCMA8GA1UdEQQIMAaHBH8AAAEwDQYJKoZIhvcNAQEL
BQADggEBAGx29bRWknc0mTJHBZsjk46CKdnNf+iBZRlK22zHw+99R0MwJFiKm2O2
iNXEVwmJec6sSuK/5YceXeWZN7avlnsMpGz/HGXrNs1fdFPpKO9y4Z+2taoPj2CR
93lihdGyGYQmnf/gIExxfXISEH6DTuHFaqfSXMLErDPhAsV003lXzYuJoheympeD
zoqzrlDkmdevltLYV3LTImcXUn3wTdNIlVrvitQdQ707ZUlbcNp/Loqq4LXtbY/Q
HXrM7sdH3Gbez7AZBz9E1s7bHbEaPlRgFpPfhXZinQ76Jxy9b/4gmzRKtvj5UsS7
IpIBaY5b2g+59mOJP/JYvFmePVjG/ts=
-----END CERTIFICATE-----
