Certificate:
    Data:
        Version: 3 (0x2)
        Serial Number: 10845081582941097584 (0x9681783d6f55ce70)
    Signature Algorithm: sha256WithRSAEncryption
        Issuer: C=US, ST=California, L=Mountain View, O=Test CA, CN=127.0.0.1
        Validity
            Not Before: Aug 19 22:55:06 2014 GMT
            Not After : Aug 16 22:55:06 2024 GMT
        Subject: C=US, ST=California, L=Mountain View, O=Test CA, CN=127.0.0.1
        Subject Public Key Info:
            Public Key Algorithm: rsaEncryption
                Public-Key: (2048 bit)
                Modulus:
                    00:ed:ab:c5:df:a9:49:09:80:5a:8b:e6:4e:02:79:
                    65:11:73:88:9b:77:7b:84:87:89:a7:a1:0b:b0:79:
                    44:f5:bf:c6:76:25:76:d3:8d:9b:2c:e1:1a:37:15:
                    29:6d:a5:d9:2a:1a:48:92:f0:65:0a:bc:bf:ff:a2:
                    c7:cf:8d:8b:97:51:57:84:0a:6d:e2:db:6f:16:cf:
                    f7:03:c7:54:43:9e:a9:05:e9:8c:ec:2f:bc:fe:ee:
                    84:9a:0b:40:39:bf:12:ae:c9:69:b7:ec:29:6a:9f:
                    f8:ed:0e:57:46:2a:ba:a5:74:c9:6c:f5:e9:ec:d2:
                    66:fd:0c:91:16:0b:a6:73:7b:e4:4c:82:21:17:9b:
                    91:63:5a:46:43:08:7b:50:97:83:c7:22:57:bc:9e:
                    5f:7f:ea:6c:fd:9a:41:27:05:58:11:72:cc:07:bb:
                    9b:f7:27:1b:13:6e:05:e5:ae:8b:da:9b:9b:0f:f5:
                    a7:9c:f8:15:bc:64:fa:c1:1d:31:de:4a:98:31:9f:
                    88:7c:3c:3f:26:94:e9:01:cf:3f:ad:f8:17:ab:66:
                    81:36:61:b0:a7:ce:67:f9:00:80:90:29:75:6e:02:
                    5f:16:93:d9:66:8f:a3:d2:64:75:73:d2:e2:8a:04:
                    5f:ea:c9:e4:7b:68:09:90:4d:12:a1:96:4b:c0:94:
                    a6:39
                Exponent: 65537 (0x10001)
        X509v3 extensions:
            X509v3 Subject Alternative Name: 
                DNS:www.example.org, DNS:mail.example.org, DNS:mail.example.com
    Signature Algorithm: sha256WithRSAEncryption
         97:2f:73:50:6d:4a:6c:87:68:af:ee:f9:4b:eb:23:12:12:bc:
         c1:9e:26:45:ee:4e:7e:f8:6e:2a:9e:24:ac:4a:a9:31:f8:f3:
         03:1a:49:8a:40:da:44:de:9f:e6:c6:3b:2b:4e:36:43:6c:50:
         b6:ef:8a:b5:c0:b0:71:c8:85:bb:6b:d3:dc:a4:da:e6:06:eb:
         3a:7c:74:af:8d:c9:ba:d5:f4:32:84:81:32:5f:92:33:1f:ea:
         f9:f0:b6:0b:4c:7a:ad:1f:0a:51:79:26:e5:28:cf:93:1c:a1:
         59:3b:46:c6:4e:0f:31:8e:00:d6:a6:b3:2c:97:b4:61:b6:38:
         b7:db:6c:39:2a:2f:50:14:96:40:f2:bd:5d:f0:96:b0:f4:c3:
         30:59:b7:5f:ba:42:c7:86:4b:71:6d:7a:5d:b0:02:81:b2:c3:
         62:97:7c:24:03:2e:61:7a:40:ec:f0:21:1b:6f:70:c8:6e:37:
         73:39:7e:36:2b:b4:5a:c1:e2:28:f9:7d:c0:71:cb:4c:96:cb:
         94:20:0b:fa:7b:78:d5:87:3b:b6:b2:73:84:ae:72:34:79:7d:
         7c:e7:1a:c3:9a:d1:ab:67:ac:e0:70:d0:67:de:6c:e8:a5:d8:
         a0:71:8c:6c:97:7b:a6:09:7a:ca:ec:41:24:a2:43:51:14:07:
         70:65:e7:93
-----BEGIN CERTIFICATE-----
MIIDhTCCAm2gAwIBAgIJAJaBeD1vVc5wMA0GCSqGSIb3DQEBCwUAMGAxCzAJBgNV
BAYTAlVTMRMwEQYDVQQIDApDYWxpZm9ybmlhMRYwFAYDVQQHDA1Nb3VudGFpbiBW
aWV3MRAwDgYDVQQKDAdUZXN0IENBMRIwEAYDVQQDDAkxMjcuMC4wLjEwHhcNMTQw
ODE5MjI1NTA2WhcNMjQwODE2MjI1NTA2WjBgMQswCQYDVQQGEwJVUzETMBEGA1UE
CAwKQ2FsaWZvcm5pYTEWMBQGA1UEBwwNTW91bnRhaW4gVmlldzEQMA4GA1UECgwH
VGVzdCBDQTESMBAGA1UEAwwJMTI3LjAuMC4xMIIBIjANBgkqhkiG9w0BAQEFAAOC
AQ8AMIIBCgKCAQEA7avF36lJCYBai+ZOAnllEXOIm3d7hIeJp6ELsHlE9b/GdiV2
042bLOEaNxUpbaXZKhpIkvBlCry//6LHz42Ll1FXhApt4ttvFs/3A8dUQ56pBemM
7C+8/u6EmgtAOb8Srslpt+wpap/47Q5XRiq6pXTJbPXp7NJm/QyRFgumc3vkTIIh
F5uRY1pGQwh7UJeDxyJXvJ5ff+ps/ZpBJwVYEXLMB7ub9ycbE24F5a6L2pubD/Wn
nPgVvGT6wR0x3kqYMZ+IfDw/JpTpAc8/rfgXq2aBNmGwp85n+QCAkCl1bgJfFpPZ
Zo+j0mR1c9LiigRf6snke2gJkE0SoZZLwJSmOQIDAQABo0IwQDA+BgNVHREENzA1
gg93d3cuZXhhbXBsZS5vcmeCEG1haWwuZXhhbXBsZS5vcmeCEG1haWwuZXhhbXBs
ZS5jb20wDQYJKoZIhvcNAQELBQADggEBAJcvc1BtSmyHaK/u+UvrIxISvMGeJkXu
Tn74biqeJKxKqTH48wMaSYpA2kTen+bGOytONkNsULbvirXAsHHIhbtr09yk2uYG
6zp8dK+NybrV9DKEgTJfkjMf6vnwtgtMeq0fClF5JuUoz5McoVk7RsZODzGOANam
syyXtGG2OLfbbDkqL1AUlkDyvV3wlrD0wzBZt1+6QseGS3Ftel2wAoGyw2KXfCQD
LmF6QOzwIRtvcMhuN3M5fjYrtFrB4ij5fcBxy0yWy5QgC/p7eNWHO7ayc4SucjR5
fXznGsOa0atnrOBw0GfebOil2KBxjGyXe6YJesrsQSSiQ1EUB3Bl55M=
-----END CERTIFICATE-----
