Certificate:
    Data:
        Version: 3 (0x2)
        Serial Number: 9569410291102924913 (0x84cd5ff577284071)
    Signature Algorithm: sha256WithRSAEncryption
        Issuer: C=US, ST=California, L=Mountain View, O=Test CA, CN=127.0.0.1
        Validity
            Not Before: Aug 19 22:55:06 2014 GMT
            Not After : Aug 16 22:55:06 2024 GMT
        Subject: C=US, ST=California, L=Mountain View, O=Test CA, CN=127.0.0.1
        Subject Public Key Info:
            Public Key Algorithm: rsaEncryption
                Public-Key: (2048 bit)
                Modulus:
                    00:bd:c6:0f:42:dc:65:92:0b:07:00:60:9a:4e:b0:
                    84:f0:f1:fa:0b:65:8c:c6:45:ed:bc:ce:af:a4:5c:
                    4f:78:6f:30:4c:97:42:66:cc:ad:66:4a:11:4a:b5:
                    8a:57:f0:58:a4:54:1f:f9:ac:82:67:f8:7c:55:36:
                    d7:c0:b1:5a:06:fa:25:c2:07:36:64:a7:54:c2:62:
                    67:2d:11:30:77:ef:36:3b:d9:2f:9a:2c:2e:71:2b:
                    d7:63:f7:1a:fd:e9:b8:c8:4a:a1:d2:b9:d4:dc:06:
                    ca:68:52:e2:8f:69:ef:2b:a4:7b:1e:4c:db:e5:52:
                    b2:17:b6:e7:f6:fd:91:11:f2:4f:08:d5:9d:7f:b6:
                    0b:1d:8f:ff:17:5e:6f:2b:ef:7b:6e:a3:2c:bc:a9:
                    d0:c3:f4:f1:26:65:4a:23:1e:75:1e:ae:d6:6f:88:
                    6d:0a:a4:c2:96:34:e0:d4:26:f2:2d:d3:16:26:a3:
                    3c:ac:1a:b4:be:ef:c0:84:6a:95:4e:71:c6:be:e3:
                    c4:15:55:5e:94:c3:a8:03:40:34:21:76:48:56:1e:
                    e4:26:05:c0:47:67:44:59:04:47:b2:38:e0:2d:69:
                    11:de:9a:6b:18:7f:57:56:6f:7c:6c:da:ff:a6:c5:
                    db:b0:56:a2:81:de:ae:ca:4b:a0:b3:66:1d:f7:96:
                    41:33
                Exponent: 65537 (0x10001)
        X509v3 extensions:
            X509v3 Basic Constraints: critical
                CA:TRUE
            X509v3 Subject Alternative Name: 
                IP Address:127.0.0.2, IP Address:FE80:0:0:0:0:0:0:1, DNS:test.example, email:test@test.example, othername:<unsupported>, DirName:/CN=127.0.0.3
    Signature Algorithm: sha256WithRSAEncryption
         9c:b8:a4:26:88:6f:1b:be:93:4d:3f:89:d2:cb:b8:b9:7a:1e:
         b6:b0:66:8a:df:79:a1:37:c3:ba:92:17:19:bb:4e:d3:4a:21:
         e2:78:c3:27:6c:4a:d4:11:e0:bf:90:38:ba:9a:3c:f8:54:d1:
         ac:56:32:4f:b1:d1:6c:b9:92:bf:98:a5:d0:55:91:fc:d7:74:
         74:33:3d:f9:e2:f2:97:0a:32:5b:05:e4:2e:f9:41:a6:2c:2c:
         dc:67:58:81:67:b5:84:c3:f2:94:9d:ce:2b:80:ce:48:ec:08:
         2a:01:78:4c:f5:8c:03:2b:87:06:1d:ed:35:53:09:c7:e5:06:
         af:3b:fa:6c:42:a5:be:1e:dd:ce:f8:cc:bf:0e:c5:34:91:7c:
         4c:b5:2f:07:b4:af:76:bc:b3:22:c6:eb:d7:b0:47:00:e4:89:
         ef:8c:fe:be:f8:6e:15:1f:f9:ac:de:b7:3e:dc:c2:e0:65:7c:
         d0:8b:5d:90:0e:68:3e:51:2b:5c:74:f0:fd:6a:14:6d:47:a4:
         45:e8:e5:ba:be:ac:b8:a5:af:0f:c0:ac:99:b7:0c:70:d2:b4:
         53:4a:5b:9e:3b:21:1d:ba:ad:ac:b1:0a:79:53:c3:9d:d9:d6:
         1f:a7:d3:5f:99:9a:35:dd:85:1d:8e:ad:f7:ea:42:9d:a9:f3:
         47:43:11:13
-----BEGIN CERTIFICATE-----
MIIDyDCCArCgAwIBAgIJAITNX/V3KEBxMA0GCSqGSIb3DQEBCwUAMGAxCzAJBgNV
BAYTAlVTMRMwEQYDVQQIDApDYWxpZm9ybmlhMRYwFAYDVQQHDA1Nb3VudGFpbiBW
aWV3MRAwDgYDVQQKDAdUZXN0IENBMRIwEAYDVQQDDAkxMjcuMC4wLjEwHhcNMTQw
ODE5MjI1NTA2WhcNMjQwODE2MjI1NTA2WjBgMQswCQYDVQQGEwJVUzETMBEGA1UE
CAwKQ2FsaWZvcm5pYTEWMBQGA1UEBwwNTW91bnRhaW4gVmlldzEQMA4GA1UECgwH
VGVzdCBDQTESMBAGA1UEAwwJMTI3LjAuMC4xMIIBIjANBgkqhkiG9w0BAQEFAAOC
AQ8AMIIBCgKCAQEAvcYPQtxlkgsHAGCaTrCE8PH6C2WMxkXtvM6vpFxPeG8wTJdC
ZsytZkoRSrWKV/BYpFQf+ayCZ/h8VTbXwLFaBvolwgc2ZKdUwmJnLREwd+82O9kv
miwucSvXY/ca/em4yEqh0rnU3AbKaFLij2nvK6R7Hkzb5VKyF7bn9v2REfJPCNWd
f7YLHY//F15vK+97bqMsvKnQw/TxJmVKIx51Hq7Wb4htCqTCljTg1CbyLdMWJqM8
rBq0vu/AhGqVTnHGvuPEFVVelMOoA0A0IXZIVh7kJgXAR2dEWQRHsjjgLWkR3ppr
GH9XVm98bNr/psXbsFaigd6uykugs2Yd95ZBMwIDAQABo4GEMIGBMA8GA1UdEwEB
/wQFMAMBAf8wbgYDVR0RBGcwZYcEfwAAAocQ/oAAAAAAAAAAAAAAAAAAAYIMdGVz
dC5leGFtcGxlgRF0ZXN0QHRlc3QuZXhhbXBsZaASBgMqAwSgCwwJaWdub3JlIG1l
pBYwFDESMBAGA1UEAwwJMTI3LjAuMC4zMA0GCSqGSIb3DQEBCwUAA4IBAQCcuKQm
iG8bvpNNP4nSy7i5eh62sGaK33mhN8O6khcZu07TSiHieMMnbErUEeC/kDi6mjz4
VNGsVjJPsdFsuZK/mKXQVZH813R0Mz354vKXCjJbBeQu+UGmLCzcZ1iBZ7WEw/KU
nc4rgM5I7AgqAXhM9YwDK4cGHe01UwnH5QavO/psQqW+Ht3O+My/DsU0kXxMtS8H
tK92vLMixuvXsEcA5InvjP6++G4VH/ms3rc+3MLgZXzQi12QDmg+UStcdPD9ahRt
R6RF6OW6vqy4pa8PwKyZtwxw0rRTSlueOyEduq2ssQp5U8Od2dYfp9NfmZo13YUd
jq336kKdqfNHQxET
-----END CERTIFICATE-----
