Certificate:
    Data:
        Version: 3 (0x2)
        Serial Number:
            1a:c8:5e:b7:ae:c3:51:3c:d8:0d:85:38:5e:cf:d2:08
    Signature Algorithm: sha256WithRSAEncryption
        Issuer: C=US, O=Symantec Corporation, OU=Symantec Trust Network, CN=Symantec Class 3 EV SSL CA - G3
        Validity
            Not Before: Sep 10 00:00:00 2014 GMT
            Not After : May  9 23:59:59 2016 GMT
        Subject: 1.3.6.1.4.1.311.60.2.1.3=US/1.3.6.1.4.1.311.60.2.1.2=Delaware/businessCategory=Private Organization/serialNumber=4337446, C=US/postalCode=94103-1307, ST=California, L=San Francisco/street=1355 Market St, O=Twitter, Inc., OU=Twitter Security, CN=twitter.com
        Subject Public Key Info:
            Public Key Algorithm: rsaEncryption
                Public-Key: (2048 bit)
                Modulus:
                    00:e3:ac:59:34:07:dc:11:f8:1c:ca:b3:0f:93:44:
                    8a:54:34:76:90:6a:c0:22:00:be:95:9a:da:58:3c:
                    6c:38:31:a2:a2:1f:3b:64:e2:9d:e0:f5:c2:ab:07:
                    90:5b:7c:fe:f9:88:8c:6a:9d:69:3b:e0:23:65:b7:
                    11:d6:e8:88:d6:3e:6d:8b:ed:ca:ea:58:0b:fe:4d:
                    bf:2a:95:ca:bb:21:bb:ce:d6:e2:10:02:11:21:68:
                    26:f7:92:7e:9c:a3:80:b1:82:d7:e5:a6:a0:86:47:
                    42:1a:c6:5b:04:d9:c3:b5:b2:9b:38:d4:a1:6d:3b:
                    bd:d8:05:f0:51:9b:bd:95:77:7f:e9:02:8e:60:a3:
                    7a:65:20:52:23:db:8d:01:27:24:c2:00:66:0d:14:
                    66:b3:52:2b:cc:6b:5b:a5:44:2f:e2:40:6d:da:21:
                    a1:92:5a:57:12:d3:47:01:ef:e9:df:af:c6:91:8c:
                    21:af:77:65:13:36:1c:63:7a:2d:05:e6:63:c5:0b:
                    d8:39:e9:ac:f2:3b:ff:9d:c5:a7:46:0a:6e:1a:66:
                    10:1e:4a:e7:ba:c7:89:79:1f:ae:f1:f3:84:03:ca:
                    e7:50:8a:19:63:bf:3c:20:10:78:c5:f4:53:3c:7d:
                    5e:0d:af:96:70:89:92:b9:7f:9a:19:0c:f6:78:6a:
                    8f:73
                Exponent: 65537 (0x10001)
        X509v3 extensions:
            X509v3 Subject Alternative Name: 
                DNS:twitter.com, DNS:www.twitter.com
            X509v3 Basic Constraints: 
                CA:FALSE
            X509v3 Key Usage: critical
                Digital Signature, Key Encipherment
            X509v3 Extended Key Usage: 
                TLS Web Server Authentication, TLS Web Client Authentication
            X509v3 Certificate Policies: 
                Policy: 2.16.840.1.113733.1.7.23.6
                  CPS: https://d.symcb.com/cps
                  User Notice:
                    Explicit Text: https://d.symcb.com/rpa

            X509v3 Authority Key Identifier: 
                keyid:01:59:AB:E7:DD:3A:0B:59:A6:64:63:D6:CF:20:07:57:D5:91:E7:6A

            X509v3 CRL Distribution Points: 

                Full Name:
                  URI:http://sr.symcb.com/sr.crl

            Authority Information Access: 
                OCSP - URI:http://sr.symcd.com
                CA Issuers - URI:http://sr.symcb.com/sr.crt

    Signature Algorithm: sha256WithRSAEncryption
         d1:53:68:e9:d6:20:d0:56:7a:10:80:b8:e9:7e:00:c9:9e:d5:
         35:4a:a2:d2:a0:16:8a:e2:fb:eb:96:88:77:c2:6e:35:f4:a7:
         a9:aa:dc:35:7b:c6:7d:5e:3c:f6:c9:5b:a0:d1:58:ae:7d:96:
         e7:54:02:5c:69:1b:56:92:26:ad:06:2c:c1:5a:ff:59:f3:8a:
         8c:94:32:0d:1a:42:d1:6e:bc:1c:bd:a8:c6:08:01:1b:73:17:
         93:28:30:ae:ce:4d:4e:2d:4b:bf:22:af:9a:61:32:7a:a8:68:
         25:19:3c:6d:fb:67:cc:29:3f:5b:f5:d1:af:4c:bf:67:a3:60:
         c4:dd:b0:fb:83:55:6d:b5:2c:a9:7d:34:ad:b0:08:c7:2c:f0:
         cb:4c:d8:2b:79:f4:e9:da:7f:6e:c0:de:55:7c:d6:d6:47:cf:
         c4:90:ef:4f:be:eb:c9:3d:05:71:6b:5e:c7:36:8d:4f:0c:3c:
         47:83:a5:11:88:22:f8:46:e0:f8:9b:1a:fe:e9:a2:df:90:81:
         10:71:f3:97:9c:b7:69:60:77:20:d6:87:85:ee:5a:77:d2:92:
         ec:d9:5d:1f:31:3b:3a:e2:5b:35:d1:92:36:db:44:d4:79:d9:
         6c:03:24:87:5d:c3:86:c6:10:e2:ea:65:7c:cf:b8:ef:c2:31:
         02:55:72:12
-----BEGIN CERTIFICATE-----
MIIFjTCCBHWgAwIBAgIQGshet67DUTzYDYU4Xs/SCDANBgkqhkiG9w0BAQsFADB3
MQswCQYDVQQGEwJVUzEdMBsGA1UEChMUU3ltYW50ZWMgQ29ycG9yYXRpb24xHzAd
BgNVBAsTFlN5bWFudGVjIFRydXN0IE5ldHdvcmsxKDAmBgNVBAMTH1N5bWFudGVj
IENsYXNzIDMgRVYgU1NMIENBIC0gRzMwHhcNMTQwOTEwMDAwMDAwWhcNMTYwNTA5
MjM1OTU5WjCCARIxEzARBgsrBgEEAYI3PAIBAxMCVVMxGTAXBgsrBgEEAYI3PAIB
AgwIRGVsYXdhcmUxHTAbBgNVBA8TFFByaXZhdGUgT3JnYW5pemF0aW9uMRAwDgYD
VQQFEwc0MzM3NDQ2MQswCQYDVQQGEwJVUzETMBEGA1UEEQwKOTQxMDMtMTMwNzET
MBEGA1UECAwKQ2FsaWZvcm5pYTEWMBQGA1UEBwwNU2FuIEZyYW5jaXNjbzEXMBUG
A1UECQwOMTM1NSBNYXJrZXQgU3QxFjAUBgNVBAoMDVR3aXR0ZXIsIEluYy4xGTAX
BgNVBAsMEFR3aXR0ZXIgU2VjdXJpdHkxFDASBgNVBAMMC3R3aXR0ZXIuY29tMIIB
IjANBgkqhkiG9w0BAQEFAAOCAQ8AMIIBCgKCAQEA46xZNAfcEfgcyrMPk0SKVDR2
kGrAIgC+lZraWDxsODGioh87ZOKd4PXCqweQW3z++YiMap1pO+AjZbcR1uiI1j5t
i+3K6lgL/k2/KpXKuyG7ztbiEAIRIWgm95J+nKOAsYLX5aaghkdCGsZbBNnDtbKb
ONShbTu92AXwUZu9lXd/6QKOYKN6ZSBSI9uNASckwgBmDRRms1IrzGtbpUQv4kBt
2iGhklpXEtNHAe/p36/GkYwhr3dlEzYcY3otBeZjxQvYOems8jv/ncWnRgpuGmYQ
HkrnuseJeR+u8fOEA8rnUIoZY788IBB4xfRTPH1eDa+WcImSuX+aGQz2eGqPcwID
AQABo4IBdjCCAXIwJwYDVR0RBCAwHoILdHdpdHRlci5jb22CD3d3dy50d2l0dGVy
LmNvbTAJBgNVHRMEAjAAMA4GA1UdDwEB/wQEAwIFoDAdBgNVHSUEFjAUBggrBgEF
BQcDAQYIKwYBBQUHAwIwZgYDVR0gBF8wXTBbBgtghkgBhvhFAQcXBjBMMCMGCCsG
AQUFBwIBFhdodHRwczovL2Quc3ltY2IuY29tL2NwczAlBggrBgEFBQcCAjAZGhdo
dHRwczovL2Quc3ltY2IuY29tL3JwYTAfBgNVHSMEGDAWgBQBWavn3ToLWaZkY9bP
IAdX1ZHnajArBgNVHR8EJDAiMCCgHqAchhpodHRwOi8vc3Iuc3ltY2IuY29tL3Ny
LmNybDBXBggrBgEFBQcBAQRLMEkwHwYIKwYBBQUHMAGGE2h0dHA6Ly9zci5zeW1j
ZC5jb20wJgYIKwYBBQUHMAKGGmh0dHA6Ly9zci5zeW1jYi5jb20vc3IuY3J0MA0G
CSqGSIb3DQEBCwUAA4IBAQDRU2jp1iDQVnoQgLjpfgDJntU1SqLSoBaK4vvrloh3
wm419Kepqtw1e8Z9Xjz2yVug0ViufZbnVAJcaRtWkiatBizBWv9Z84qMlDINGkLR
brwcvajGCAEbcxeTKDCuzk1OLUu/Iq+aYTJ6qGglGTxt+2fMKT9b9dGvTL9no2DE
3bD7g1VttSypfTStsAjHLPDLTNgrefTp2n9uwN5VfNbWR8/EkO9PvuvJPQVxa17H
No1PDDxHg6URiCL4RuD4mxr+6aLfkIEQcfOXnLdpYHcg1oeF7lp30pLs2V0fMTs6
4ls10ZI220TUedlsAySHXcOGxhDi6mV8z7jvwjECVXIS
-----END CERTIFICATE-----
Certificate:
    Data:
        Version: 3 (0x2)
        Serial Number:
            7e:e1:4a:6f:6f:ef:f2:d3:7f:3f:ad:65:4d:3a:da:b4
    Signature Algorithm: sha256WithRSAEncryption
        Issuer: C=US, O=VeriSign, Inc., OU=VeriSign Trust Network, OU=(c) 2006 VeriSign, Inc. - For authorized use only, CN=VeriSign Class 3 Public Primary Certification Authority - G5
        Validity
            Not Before: Oct 31 00:00:00 2013 GMT
            Not After : Oct 30 23:59:59 2023 GMT
        Subject: C=US, O=Symantec Corporation, OU=Symantec Trust Network, CN=Symantec Class 3 EV SSL CA - G3
        Subject Public Key Info:
            Public Key Algorithm: rsaEncryption
                Public-Key: (2048 bit)
                Modulus:
                    00:d8:a1:65:74:23:e8:2b:64:e2:32:d7:33:37:3d:
                    8e:f5:34:16:48:dd:4f:7f:87:1c:f8:44:23:13:8e:
                    fb:11:d8:44:5a:18:71:8e:60:16:26:92:9b:fd:17:
                    0b:e1:71:70:42:fe:bf:fa:1c:c0:aa:a3:a7:b5:71:
                    e8:ff:18:83:f6:df:10:0a:13:62:c8:3d:9c:a7:de:
                    2e:3f:0c:d9:1d:e7:2e:fb:2a:ce:c8:9a:7f:87:bf:
                    d8:4c:04:15:32:c9:d1:cc:95:71:a0:4e:28:4f:84:
                    d9:35:fb:e3:86:6f:94:53:e6:72:8a:63:67:2e:be:
                    69:f6:f7:6e:8e:9c:60:04:eb:29:fa:c4:47:42:d2:
                    78:98:e3:ec:0b:a5:92:dc:b7:9a:bd:80:64:2b:38:
                    7c:38:09:5b:66:f6:2d:95:7a:86:b2:34:2e:85:9e:
                    90:0e:5f:b7:5d:a4:51:72:46:70:13:bf:67:f2:b6:
                    a7:4d:14:1e:6c:b9:53:ee:23:1a:4e:8d:48:55:43:
                    41:b1:89:75:6a:40:28:c5:7d:dd:d2:6e:d2:02:19:
                    2f:7b:24:94:4b:eb:f1:1a:a9:9b:e3:23:9a:ea:fa:
                    33:ab:0a:2c:b7:f4:60:08:dd:9f:1c:cd:dd:2d:01:
                    66:80:af:b3:2f:29:1d:23:b8:8a:e1:a1:70:07:0c:
                    34:0f
                Exponent: 65537 (0x10001)
        X509v3 extensions:
            Authority Information Access: 
                OCSP - URI:http://s2.symcb.com

            X509v3 Basic Constraints: critical
                CA:TRUE, pathlen:0
            X509v3 Certificate Policies: 
                Policy: X509v3 Any Policy
                  CPS: http://www.symauth.com/cps
                  User Notice:
                    Explicit Text: http://www.symauth.com/rpa

            X509v3 CRL Distribution Points: 

                Full Name:
                  URI:http://s1.symcb.com/pca3-g5.crl

            X509v3 Key Usage: critical
                Certificate Sign, CRL Sign
            X509v3 Subject Alternative Name: 
                DirName:/CN=SymantecPKI-1-533
            X509v3 Subject Key Identifier: 
                01:59:AB:E7:DD:3A:0B:59:A6:64:63:D6:CF:20:07:57:D5:91:E7:6A
            X509v3 Authority Key Identifier: 
                keyid:7F:D3:65:A7:C2:DD:EC:BB:F0:30:09:F3:43:39:FA:02:AF:33:31:33

    Signature Algorithm: sha256WithRSAEncryption
         42:01:55:7b:d0:16:1a:5d:58:e8:bb:9b:a8:4d:d7:f3:d7:eb:
         13:94:86:d6:7f:21:0b:47:bc:57:9b:92:5d:4f:05:9f:38:a4:
         10:7c:cf:83:be:06:43:46:8d:08:bc:6a:d7:10:a6:fa:ab:af:
         2f:61:a8:63:f2:65:df:7f:4c:88:12:88:4f:b3:69:d9:ff:27:
         c0:0a:97:91:8f:56:fb:89:c4:a8:bb:92:2d:1b:73:b0:c6:ab:
         36:f4:96:6c:20:08:ef:0a:1e:66:24:45:4f:67:00:40:c8:07:
         54:74:33:3b:a6:ad:bb:23:9f:66:ed:a2:44:70:34:fb:0e:ea:
         01:fd:cf:78:74:df:a7:ad:55:b7:5f:4d:f6:d6:3f:e0:86:ce:
         24:c7:42:a9:13:14:44:35:4b:b6:df:c9:60:ac:0c:7f:d9:93:
         21:4b:ee:9c:e4:49:02:98:d3:60:7b:5c:bc:d5:30:2f:07:ce:
         44:42:c4:0b:99:fe:e6:9f:fc:b0:78:86:51:6d:d1:2c:9d:c6:
         96:fb:85:82:bb:04:2f:f7:62:80:ef:62:da:7f:f6:0e:ac:90:
         b8:56:bd:79:3f:f2:80:6e:a3:d9:b9:0f:5d:3a:07:1d:91:93:
         86:4b:29:4c:e1:dc:b5:e1:e0:33:9d:b3:cb:36:91:4b:fe:a1:
         b4:ee:f0:f9
-----BEGIN CERTIFICATE-----
MIIFKzCCBBOgAwIBAgIQfuFKb2/v8tN/P61lTTratDANBgkqhkiG9w0BAQsFADCB
yjELMAkGA1UEBhMCVVMxFzAVBgNVBAoTDlZlcmlTaWduLCBJbmMuMR8wHQYDVQQL
ExZWZXJpU2lnbiBUcnVzdCBOZXR3b3JrMTowOAYDVQQLEzEoYykgMjAwNiBWZXJp
U2lnbiwgSW5jLiAtIEZvciBhdXRob3JpemVkIHVzZSBvbmx5MUUwQwYDVQQDEzxW
ZXJpU2lnbiBDbGFzcyAzIFB1YmxpYyBQcmltYXJ5IENlcnRpZmljYXRpb24gQXV0
aG9yaXR5IC0gRzUwHhcNMTMxMDMxMDAwMDAwWhcNMjMxMDMwMjM1OTU5WjB3MQsw
CQYDVQQGEwJVUzEdMBsGA1UEChMUU3ltYW50ZWMgQ29ycG9yYXRpb24xHzAdBgNV
BAsTFlN5bWFudGVjIFRydXN0IE5ldHdvcmsxKDAmBgNVBAMTH1N5bWFudGVjIENs
YXNzIDMgRVYgU1NMIENBIC0gRzMwggEiMA0GCSqGSIb3DQEBAQUAA4IBDwAwggEK
AoIBAQDYoWV0I+grZOIy1zM3PY71NBZI3U9/hxz4RCMTjvsR2ERaGHGOYBYmkpv9
FwvhcXBC/r/6HMCqo6e1cej/GIP23xAKE2LIPZyn3i4/DNkd5y77Ks7Imn+Hv9hM
BBUyydHMlXGgTihPhNk1++OGb5RT5nKKY2cuvmn2926OnGAE6yn6xEdC0niY4+wL
pZLct5q9gGQrOHw4CVtm9i2VeoayNC6FnpAOX7ddpFFyRnATv2fytqdNFB5suVPu
IxpOjUhVQ0GxiXVqQCjFfd3SbtICGS97JJRL6/EaqZvjI5rq+jOrCiy39GAI3Z8c
zd0tAWaAr7MvKR0juIrhoXAHDDQPAgMBAAGjggFdMIIBWTAvBggrBgEFBQcBAQQj
MCEwHwYIKwYBBQUHMAGGE2h0dHA6Ly9zMi5zeW1jYi5jb20wEgYDVR0TAQH/BAgw
BgEB/wIBADBlBgNVHSAEXjBcMFoGBFUdIAAwUjAmBggrBgEFBQcCARYaaHR0cDov
L3d3dy5zeW1hdXRoLmNvbS9jcHMwKAYIKwYBBQUHAgIwHBoaaHR0cDovL3d3dy5z
eW1hdXRoLmNvbS9ycGEwMAYDVR0fBCkwJzAloCOgIYYfaHR0cDovL3MxLnN5bWNi
LmNvbS9wY2EzLWc1LmNybDAOBgNVHQ8BAf8EBAMCAQYwKQYDVR0RBCIwIKQeMBwx
GjAYBgNVBAMTEVN5bWFudGVjUEtJLTEtNTMzMB0GA1UdDgQWBBQBWavn3ToLWaZk
Y9bPIAdX1ZHnajAfBgNVHSMEGDAWgBR/02Wnwt3su/AwCfNDOfoCrzMxMzANBgkq
hkiG9w0BAQsFAAOCAQEAQgFVe9AWGl1Y6LubqE3X89frE5SG1n8hC0e8V5uSXU8F
nzikEHzPg74GQ0aNCLxq1xCm+quvL2GoY/Jl339MiBKIT7Np2f8nwAqXkY9W+4nE
qLuSLRtzsMarNvSWbCAI7woeZiRFT2cAQMgHVHQzO6atuyOfZu2iRHA0+w7qAf3P
eHTfp61Vt19N9tY/4IbOJMdCqRMURDVLtt/JYKwMf9mTIUvunORJApjTYHtcvNUw
LwfORELEC5n+5p/8sHiGUW3RLJ3GlvuFgrsEL/digO9i2n/2DqyQuFa9eT/ygG6j
2bkPXToHHZGThkspTOHcteHgM52zyzaRS/6htO7w+Q==
-----END CERTIFICATE-----
Certificate:
    Data:
        Version: 3 (0x2)
        Serial Number:
            18:da:d1:9e:26:7d:e8:bb:4a:21:58:cd:cc:6b:3b:4a
    Signature Algorithm: sha1WithRSAEncryption
        Issuer: C=US, O=VeriSign, Inc., OU=VeriSign Trust Network, OU=(c) 2006 VeriSign, Inc. - For authorized use only, CN=VeriSign Class 3 Public Primary Certification Authority - G5
        Validity
            Not Before: Nov  8 00:00:00 2006 GMT
            Not After : Jul 16 23:59:59 2036 GMT
        Subject: C=US, O=VeriSign, Inc., OU=VeriSign Trust Network, OU=(c) 2006 VeriSign, Inc. - For authorized use only, CN=VeriSign Class 3 Public Primary Certification Authority - G5
        Subject Public Key Info:
            Public Key Algorithm: rsaEncryption
                Public-Key: (2048 bit)
                Modulus:
                    00:af:24:08:08:29:7a:35:9e:60:0c:aa:e7:4b:3b:
                    4e:dc:7c:bc:3c:45:1c:bb:2b:e0:fe:29:02:f9:57:
                    08:a3:64:85:15:27:f5:f1:ad:c8:31:89:5d:22:e8:
                    2a:aa:a6:42:b3:8f:f8:b9:55:b7:b1:b7:4b:b3:fe:
                    8f:7e:07:57:ec:ef:43:db:66:62:15:61:cf:60:0d:
                    a4:d8:de:f8:e0:c3:62:08:3d:54:13:eb:49:ca:59:
                    54:85:26:e5:2b:8f:1b:9f:eb:f5:a1:91:c2:33:49:
                    d8:43:63:6a:52:4b:d2:8f:e8:70:51:4d:d1:89:69:
                    7b:c7:70:f6:b3:dc:12:74:db:7b:5d:4b:56:d3:96:
                    bf:15:77:a1:b0:f4:a2:25:f2:af:1c:92:67:18:e5:
                    f4:06:04:ef:90:b9:e4:00:e4:dd:3a:b5:19:ff:02:
                    ba:f4:3c:ee:e0:8b:eb:37:8b:ec:f4:d7:ac:f2:f6:
                    f0:3d:af:dd:75:91:33:19:1d:1c:40:cb:74:24:19:
                    21:93:d9:14:fe:ac:2a:52:c7:8f:d5:04:49:e4:8d:
                    63:47:88:3c:69:83:cb:fe:47:bd:2b:7e:4f:c5:95:
                    ae:0e:9d:d4:d1:43:c0:67:73:e3:14:08:7e:e5:3f:
                    9f:73:b8:33:0a:cf:5d:3f:34:87:96:8a:ee:53:e8:
                    25:15
                Exponent: 65537 (0x10001)
        X509v3 extensions:
            X509v3 Basic Constraints: critical
                CA:TRUE
            X509v3 Key Usage: critical
                Certificate Sign, CRL Sign
            1.3.6.1.5.5.7.1.12: 
                0_.].[0Y0W0U..image/gif0!0.0...+..............k...j.H.,{..0%.#http://logo.verisign.com/vslogo.gif
            X509v3 Subject Key Identifier: 
                7F:D3:65:A7:C2:DD:EC:BB:F0:30:09:F3:43:39:FA:02:AF:33:31:33
    Signature Algorithm: sha1WithRSAEncryption
         93:24:4a:30:5f:62:cf:d8:1a:98:2f:3d:ea:dc:99:2d:bd:77:
         f6:a5:79:22:38:ec:c4:a7:a0:78:12:ad:62:0e:45:70:64:c5:
         e7:97:66:2d:98:09:7e:5f:af:d6:cc:28:65:f2:01:aa:08:1a:
         47:de:f9:f9:7c:92:5a:08:69:20:0d:d9:3e:6d:6e:3c:0d:6e:
         d8:e6:06:91:40:18:b9:f8:c1:ed:df:db:41:aa:e0:96:20:c9:
         cd:64:15:38:81:c9:94:ee:a2:84:29:0b:13:6f:8e:db:0c:dd:
         25:02:db:a4:8b:19:44:d2:41:7a:05:69:4a:58:4f:60:ca:7e:
         82:6a:0b:02:aa:25:17:39:b5:db:7f:e7:84:65:2a:95:8a:bd:
         86:de:5e:81:16:83:2d:10:cc:de:fd:a8:82:2a:6d:28:1f:0d:
         0b:c4:e5:e7:1a:26:19:e1:f4:11:6f:10:b5:95:fc:e7:42:05:
         32:db:ce:9d:51:5e:28:b6:9e:85:d3:5b:ef:a5:7d:45:40:72:
         8e:b7:0e:6b:0e:06:fb:33:35:48:71:b8:9d:27:8b:c4:65:5f:
         0d:86:76:9c:44:7a:f6:95:5c:f6:5d:32:08:33:a4:54:b6:18:
         3f:68:5c:f2:42:4a:85:38:54:83:5f:d1:e8:2c:f2:ac:11:d6:
         a8:ed:63:6a
-----BEGIN CERTIFICATE-----
MIIE0zCCA7ugAwIBAgIQGNrRniZ96LtKIVjNzGs7SjANBgkqhkiG9w0BAQUFADCB
yjELMAkGA1UEBhMCVVMxFzAVBgNVBAoTDlZlcmlTaWduLCBJbmMuMR8wHQYDVQQL
ExZWZXJpU2lnbiBUcnVzdCBOZXR3b3JrMTowOAYDVQQLEzEoYykgMjAwNiBWZXJp
U2lnbiwgSW5jLiAtIEZvciBhdXRob3JpemVkIHVzZSBvbmx5MUUwQwYDVQQDEzxW
ZXJpU2lnbiBDbGFzcyAzIFB1YmxpYyBQcmltYXJ5IENlcnRpZmljYXRpb24gQXV0
aG9yaXR5IC0gRzUwHhcNMDYxMTA4MDAwMDAwWhcNMzYwNzE2MjM1OTU5WjCByjEL
MAkGA1UEBhMCVVMxFzAVBgNVBAoTDlZlcmlTaWduLCBJbmMuMR8wHQYDVQQLExZW
ZXJpU2lnbiBUcnVzdCBOZXR3b3JrMTowOAYDVQQLEzEoYykgMjAwNiBWZXJpU2ln
biwgSW5jLiAtIEZvciBhdXRob3JpemVkIHVzZSBvbmx5MUUwQwYDVQQDEzxWZXJp
U2lnbiBDbGFzcyAzIFB1YmxpYyBQcmltYXJ5IENlcnRpZmljYXRpb24gQXV0aG9y
aXR5IC0gRzUwggEiMA0GCSqGSIb3DQEBAQUAA4IBDwAwggEKAoIBAQCvJAgIKXo1
nmAMqudLO07cfLw8RRy7K+D+KQL5VwijZIUVJ/XxrcgxiV0i6CqqpkKzj/i5Vbex
t0uz/o9+B1fs70PbZmIVYc9gDaTY3vjgw2IIPVQT60nKWVSFJuUrjxuf6/WhkcIz
SdhDY2pSS9KP6HBRTdGJaXvHcPaz3BJ023tdS1bTlr8Vd6Gw9KIl8q8ckmcY5fQG
BO+QueQA5N06tRn/Arr0PO7gi+s3i+z016zy9vA9r911kTMZHRxAy3QkGSGT2RT+
rCpSx4/VBEnkjWNHiDxpg8v+R70rfk/Fla4OndTRQ8Bnc+MUCH7lP59zuDMKz10/
NIeWiu5T6CUVAgMBAAGjgbIwga8wDwYDVR0TAQH/BAUwAwEB/zAOBgNVHQ8BAf8E
BAMCAQYwbQYIKwYBBQUHAQwEYTBfoV2gWzBZMFcwVRYJaW1hZ2UvZ2lmMCEwHzAH
BgUrDgMCGgQUj+XTGoasjY5rw8+AatRIGCx7GS4wJRYjaHR0cDovL2xvZ28udmVy
aXNpZ24uY29tL3ZzbG9nby5naWYwHQYDVR0OBBYEFH/TZafC3ey78DAJ80M5+gKv
MzEzMA0GCSqGSIb3DQEBBQUAA4IBAQCTJEowX2LP2BqYLz3q3JktvXf2pXkiOOzE
p6B4Eq1iDkVwZMXnl2YtmAl+X6/WzChl8gGqCBpH3vn5fJJaCGkgDdk+bW48DW7Y
5gaRQBi5+MHt39tBquCWIMnNZBU4gcmU7qKEKQsTb47bDN0lAtukixlE0kF6BWlK
WE9gyn6CagsCqiUXObXbf+eEZSqVir2G3l6BFoMtEMze/aiCKm0oHw0LxOXnGiYZ
4fQRbxC1lfznQgUy286dUV4otp6F01vvpX1FQHKOtw5rDgb7MzVIcbidJ4vEZV8N
hnacRHr2lVz2XTIIM6RUthg/aFzyQkqFOFSDX9HoLPKsEdao7WNq
-----END CERTIFICATE-----
