-----BEGIN PRIVATE KEY-----
MIIEvQIBADANBgkqhkiG9w0BAQEFAASCBKcwggSjAgEAAoIBAQDfhiVHagGcPZTL
4aHOnMXM4dYquwuCgl322Pn1H7KXj+zmaWna8ZzP2i9Zp4++aGoSk0ZMxdgMCSrq
ayCQS6n0Fm5ouEK2dz2EbEWjLMEX4+PRP7Vkh1tE7yS6oQpEGK1nApCSyDqfhmIU
C5G9o5GupqC3WrIOwAPvpDiEKLpAExetEf7IZd415Tj6yq2umyWzxbYUwqSI0fUv
0BY84C+2vaVhPNqv5jCSHBW8ueR+gnIto9vkq6JfOp4yuJ1ufqSdpt67gYskieJw
sBZmyZ3FQYlKj35lPhOnWbRpPTG0L5IhMCRsJ/qR1h2Hrs+dU4+hyLyZpdqic0wL
3UQnpKtPAgMBAAECggEACpATSOmog9KhKnVSKSpdao4tib1nENbKS/T68ut5jBIA
Fu9aUj9isqvT2v/BGjVi9dfB1bTvvbndLlC7rDX3JRK+SvKSLH88B/r523ks8s0R
If1JvCNtW7eVW8BqdMdZwmlrnZQauRknn1zgmT6WjtNO+vstOOc4CGYRSaWHD6oA
rpg23vKm8JbYLACnlQBgDr/fhHN0PLWrsLEFTYSfvFz8+B//2Rslj4/mJhEfu+aG
Nr0N6HqIrgzTZarI0nhst9PTJuOMBjyJIByV6T8hchOgLqWqvtTnXq3U4GLsbTh2
vvKIndORecZV29y+VqIiJLch+OFg4uDR8yqMQndvyQKBgQD5ZRc9YLmXlXPS1PsV
5mix54ZiX70jm4ZwSmDlX3XboEyJrxJJ0EefqSDz1HxMObzWdPs+dT8JzUezU7ha
sBpCDY++rj1UUZbOqCmiU3xdpWVea02xCjAhGO43XErnu5FCmyL4xCTSm48t0w01
3jH9WanO9I3OjngNHawYyarPQwKBgQDlcaYnubY0Vro+JxCuYHYlggYaj9OaNSJ8
hH9PZ6FG3O7OusP8fSvHKNbzdGkXO72UrGcYJGoaYbdIPKP4k3iJ43M1+wX6VZb2
ohylWuHmVn4pMkLC+1zKASLd1AKBgdgX2+mpmfHa5Nnv7+6KgYKNAQKE1IMcq++a
2aateUd1BQKBgQCKFjYi7u50BvVFlFWeD6CCeL5Is9fm4lMy04wJFK0OORiH157Z
rfAqcBvlxg44qnNrjwQZ1hNcWwRLP5zA4eb4Ecg4fQNKL46/yA6daXpf45dYCzPO
ReTWPpaPopN68bkBVyKq+PemgSlq5wPWgrvNGptSEsh9yRahtH84jlj8PwKBgGL8
nwRweI0oBX2e+PFiKFaSO/PlrRLQbaput0YYnVmnI1gI91jM38AyfFnYFSay3V1w
66FcxHHRSnNdxhgN92j1udTGEZQorNKGqfkktmTbV96KEodwTl3QE6zENLiOvh29
AJftFIytQuDjEHSs3xfaIa4QyOfrvZl+4QviUNPJAoGAe8cNgvKPVSEZjt+/tW0K
LPCOZxDsBgwIWcpxFpzTigdw/4AKedccwp0vMRaj44gzKDCVxgnU3qPBEGHqLOAs
UcV6KEVQrIupPB8ix8y1qpiRsrDqhEcNRyDcTJEaPgjOfNKw80lstromo6dmrpFe
cO+alA7DDyg+545GrCsgy/Q=
-----END PRIVATE KEY-----
Certificate:
    Data:
        Version: 3 (0x2)
        Serial Number: 12 (0xc)
    Signature Algorithm: sha256WithRSAEncryption
        Issuer: CN=Test Root CA
        Validity
            Not Before: Dec 30 20:30:57 2015 GMT
            Not After : Dec 27 20:30:57 2025 GMT
        Subject: C=US, ST=California, L=Mountain View, O=Test CA, CN=127.0.0.1
        Subject Public Key Info:
            Public Key Algorithm: rsaEncryption
                Public-Key: (2048 bit)
                Modulus:
                    00:df:86:25:47:6a:01:9c:3d:94:cb:e1:a1:ce:9c:
                    c5:cc:e1:d6:2a:bb:0b:82:82:5d:f6:d8:f9:f5:1f:
                    b2:97:8f:ec:e6:69:69:da:f1:9c:cf:da:2f:59:a7:
                    8f:be:68:6a:12:93:46:4c:c5:d8:0c:09:2a:ea:6b:
                    20:90:4b:a9:f4:16:6e:68:b8:42:b6:77:3d:84:6c:
                    45:a3:2c:c1:17:e3:e3:d1:3f:b5:64:87:5b:44:ef:
                    24:ba:a1:0a:44:18:ad:67:02:90:92:c8:3a:9f:86:
                    62:14:0b:91:bd:a3:91:ae:a6:a0:b7:5a:b2:0e:c0:
                    03:ef:a4:38:84:28:ba:40:13:17:ad:11:fe:c8:65:
                    de:35:e5:38:fa:ca:ad:ae:9b:25:b3:c5:b6:14:c2:
                    a4:88:d1:f5:2f:d0:16:3c:e0:2f:b6:bd:a5:61:3c:
                    da:af:e6:30:92:1c:15:bc:b9:e4:7e:82:72:2d:a3:
                    db:e4:ab:a2:5f:3a:9e:32:b8:9d:6e:7e:a4:9d:a6:
                    de:bb:81:8b:24:89:e2:70:b0:16:66:c9:9d:c5:41:
                    89:4a:8f:7e:65:3e:13:a7:59:b4:69:3d:31:b4:2f:
                    92:21:30:24:6c:27:fa:91:d6:1d:87:ae:cf:9d:53:
                    8f:a1:c8:bc:99:a5:da:a2:73:4c:0b:dd:44:27:a4:
                    ab:4f
                Exponent: 65537 (0x10001)
        X509v3 extensions:
            X509v3 Basic Constraints: critical
                CA:FALSE
            X509v3 Subject Key Identifier: 
                07:AA:23:37:A2:23:9D:E6:7C:C8:28:0E:5B:F7:E0:46:A7:B9:F7:A9
            X509v3 Authority Key Identifier: 
                keyid:BC:F7:30:D1:3C:C0:F2:79:FA:EF:9F:C9:6C:5C:93:F3:8A:68:AB:83

            X509v3 Extended Key Usage: 
                TLS Web Server Authentication, TLS Web Client Authentication
            X509v3 Subject Alternative Name: 
                DNS:*.example.org
    Signature Algorithm: sha256WithRSAEncryption
         35:09:35:43:ec:28:b2:fb:91:25:ef:70:8d:77:58:3e:4b:ec:
         59:3e:53:d7:1f:2c:bc:9c:d7:77:4d:82:93:b5:07:06:cb:9e:
         dd:3d:0b:77:22:46:7f:d1:87:80:8b:04:ca:9b:97:13:0c:f1:
         b7:ed:cf:07:f2:5e:cc:cb:63:57:6e:c8:10:de:1d:25:ce:dd:
         0c:64:35:43:92:9e:59:03:57:b5:04:25:74:4a:40:26:e7:df:
         99:4e:de:05:13:be:d7:91:b8:72:e0:ea:09:32:58:e3:b7:4f:
         55:b6:fb:8d:26:31:54:ac:1b:c7:97:34:7a:73:f2:95:5a:ab:
         54:48:80:19:50:a1:f2:ce:89:3f:06:1a:2c:48:c1:11:7e:62:
         00:c4:ec:41:7d:5e:6c:9b:81:c8:21:1a:8a:2b:38:dc:8d:36:
         c7:e0:e2:f5:20:68:6f:f5:af:ab:62:ec:d8:10:6f:99:b7:f4:
         9a:94:ec:5a:2b:5e:00:62:96:ac:2c:19:b8:dc:ee:c0:da:f9:
         10:50:9f:1f:2a:80:46:68:9f:f5:95:5f:7e:f8:de:ce:3e:b5:
         f1:0b:09:55:c0:09:9f:fb:65:07:41:85:a7:6e:7d:04:fb:25:
         85:dc:c2:d6:4d:0b:00:12:11:be:4c:c1:c2:4a:7d:b4:47:19:
         51:76:9e:f7
-----BEGIN CERTIFICATE-----
MIIDfTCCAmWgAwIBAgIBDDANBgkqhkiG9w0BAQsFADAXMRUwEwYDVQQDDAxUZXN0
IFJvb3QgQ0EwHhcNMTUxMjMwMjAzMDU3WhcNMjUxMjI3MjAzMDU3WjBgMQswCQYD
VQQGEwJVUzETMBEGA1UECAwKQ2FsaWZvcm5pYTEWMBQGA1UEBwwNTW91bnRhaW4g
VmlldzEQMA4GA1UECgwHVGVzdCBDQTESMBAGA1UEAwwJMTI3LjAuMC4xMIIBIjAN
BgkqhkiG9w0BAQEFAAOCAQ8AMIIBCgKCAQEA34YlR2oBnD2Uy+GhzpzFzOHWKrsL
goJd9tj59R+yl4/s5mlp2vGcz9ovWaePvmhqEpNGTMXYDAkq6msgkEup9BZuaLhC
tnc9hGxFoyzBF+Pj0T+1ZIdbRO8kuqEKRBitZwKQksg6n4ZiFAuRvaORrqagt1qy
DsAD76Q4hCi6QBMXrRH+yGXeNeU4+sqtrpsls8W2FMKkiNH1L9AWPOAvtr2lYTza
r+YwkhwVvLnkfoJyLaPb5KuiXzqeMridbn6knabeu4GLJInicLAWZsmdxUGJSo9+
ZT4Tp1m0aT0xtC+SITAkbCf6kdYdh67PnVOPoci8maXaonNMC91EJ6SrTwIDAQAB
o4GKMIGHMAwGA1UdEwEB/wQCMAAwHQYDVR0OBBYEFAeqIzeiI53mfMgoDlv34Ean
ufepMB8GA1UdIwQYMBaAFLz3MNE8wPJ5+u+fyWxck/OKaKuDMB0GA1UdJQQWMBQG
CCsGAQUFBwMBBggrBgEFBQcDAjAYBgNVHREEETAPgg0qLmV4YW1wbGUub3JnMA0G
CSqGSIb3DQEBCwUAA4IBAQA1CTVD7Ciy+5El73CNd1g+S+xZPlPXHyy8nNd3TYKT
tQcGy57dPQt3IkZ/0YeAiwTKm5cTDPG37c8H8l7My2NXbsgQ3h0lzt0MZDVDkp5Z
A1e1BCV0SkAm59+ZTt4FE77Xkbhy4OoJMljjt09VtvuNJjFUrBvHlzR6c/KVWqtU
SIAZUKHyzok/BhosSMERfmIAxOxBfV5sm4HIIRqKKzjcjTbH4OL1IGhv9a+rYuzY
EG+Zt/SalOxaK14AYpasLBm43O7A2vkQUJ8fKoBGaJ/1lV9++N7OPrXxCwlVwAmf
+2UHQYWnbn0E+yWF3MLWTQsAEhG+TMHCSn20RxlRdp73
-----END CERTIFICATE-----
