Certificate:
    Data:
        Version: 3 (0x2)
        Serial Number: 1 (0x1)
    Signature Algorithm: sha256WithRSAEncryption
        Issuer: C=US, ST=California, L=Mountain View, O=Test CA, CN=Test Intermediate CA
        Validity
            Not Before: Dec  9 22:40:08 2016 GMT
            Not After : Dec  7 22:40:08 2026 GMT
        Subject: C=US, ST=California, L=Mountain View, O=Test CA, CN=127.0.0.1
        Subject Public Key Info:
            Public Key Algorithm: rsaEncryption
                Public-Key: (2048 bit)
                Modulus:
                    00:bf:a3:5d:b8:f2:6d:da:86:d4:d6:dd:0c:a0:db:
                    c0:9a:c4:3b:b7:95:06:9a:11:d7:cf:8d:d0:1c:ef:
                    99:dc:8a:dd:87:bd:d9:0e:b9:11:69:af:94:57:11:
                    af:8b:86:16:08:59:c8:fe:fe:86:ba:26:09:fe:f0:
                    51:ba:14:43:64:c8:65:85:1f:cb:44:39:f6:93:57:
                    98:34:f2:bf:06:77:36:02:6a:d9:99:04:f4:e2:5d:
                    7f:db:ed:f2:14:5d:48:72:b2:5b:34:b2:df:ea:56:
                    ab:d3:88:f6:58:44:cf:40:33:fe:c9:b5:b8:c3:e2:
                    73:59:0d:a6:e6:c9:5b:91:92:42:c1:f2:58:31:12:
                    e0:57:5f:94:7c:76:2d:d2:ac:e7:c2:62:a2:88:e8:
                    83:cf:88:9e:ed:ba:67:09:61:b8:1f:5a:a5:e1:74:
                    ca:87:18:3b:5d:d0:ef:c2:45:f5:26:25:18:ca:9a:
                    c5:f7:61:9b:b0:fb:1c:04:0a:03:59:d7:87:c6:51:
                    65:3b:6e:74:76:50:e7:c2:52:00:5a:45:59:8e:2f:
                    69:1d:83:ae:78:e5:03:66:15:3f:7b:42:93:f0:c5:
                    1a:ad:96:e4:e7:09:31:0e:4d:97:b5:9e:9b:63:78:
                    d3:0e:ca:27:d2:64:27:92:c2:de:6b:2e:5c:f0:7f:
                    78:d9
                Exponent: 65537 (0x10001)
        X509v3 extensions:
            X509v3 Basic Constraints: critical
                CA:FALSE
            X509v3 Subject Key Identifier: 
                1A:DE:3A:BF:17:09:87:0A:D0:12:6B:C9:47:D2:A7:EB:ED:5B:04:99
            X509v3 Authority Key Identifier: 
                keyid:F9:98:21:49:71:FA:8D:B9:20:F7:FE:5D:4D:41:E8:8B:6C:E0:62:C3

            X509v3 Extended Key Usage: 
                TLS Web Server Authentication, TLS Web Client Authentication
            X509v3 Subject Alternative Name: 
                IP Address:127.0.0.1
    Signature Algorithm: sha256WithRSAEncryption
         8a:ac:de:1c:d2:ca:a7:b3:f8:26:34:2e:a7:b4:ef:7e:26:08:
         5b:f4:78:ec:37:4a:a8:02:c8:37:cc:45:7c:e3:bd:5c:e3:87:
         24:ea:4f:1a:dd:f5:d7:a3:de:2f:78:6a:e9:3a:4d:87:3a:9b:
         7c:5c:5b:59:b4:2f:9e:1d:6d:29:9f:60:c0:d8:b7:87:0c:4b:
         59:ac:b3:0d:5c:11:4f:24:09:4e:7c:84:72:00:8c:12:b7:84:
         8a:80:91:97:4e:22:17:e0:5f:83:fd:97:6c:51:b3:03:c0:a2:
         3c:f8:9e:24:a1:c1:b7:14:a0:6b:30:e8:62:b8:84:87:6b:ae:
         e0:d2:56:f0:08:f6:d6:0e:1a:8d:5e:8b:06:b3:1e:14:6c:1b:
         72:e9:46:25:cb:97:b7:d5:4e:79:20:37:05:a4:51:8e:d4:40:
         3f:de:6f:c7:32:b8:28:2e:2a:08:c0:51:4e:32:1b:6c:c9:c0:
         03:b3:b6:3e:fd:46:1e:5b:b7:6f:ef:97:ae:df:03:e9:4e:64:
         39:94:fa:6f:65:71:11:dc:f7:4d:ed:48:c4:3d:7a:55:b8:c6:
         f5:04:a4:d8:06:cd:c7:42:48:eb:d0:7a:4c:21:db:44:e7:c2:
         68:a7:45:9f:54:2c:15:71:b5:74:c6:bf:1b:3c:eb:78:89:6f:
         19:3a:69:02
-----BEGIN CERTIFICATE-----
MIIDxzCCAq+gAwIBAgIBATANBgkqhkiG9w0BAQsFADBrMQswCQYDVQQGEwJVUzET
MBEGA1UECAwKQ2FsaWZvcm5pYTEWMBQGA1UEBwwNTW91bnRhaW4gVmlldzEQMA4G
A1UECgwHVGVzdCBDQTEdMBsGA1UEAwwUVGVzdCBJbnRlcm1lZGlhdGUgQ0EwHhcN
MTYxMjA5MjI0MDA4WhcNMjYxMjA3MjI0MDA4WjBgMQswCQYDVQQGEwJVUzETMBEG
A1UECAwKQ2FsaWZvcm5pYTEWMBQGA1UEBwwNTW91bnRhaW4gVmlldzEQMA4GA1UE
CgwHVGVzdCBDQTESMBAGA1UEAwwJMTI3LjAuMC4xMIIBIjANBgkqhkiG9w0BAQEF
AAOCAQ8AMIIBCgKCAQEAv6NduPJt2obU1t0MoNvAmsQ7t5UGmhHXz43QHO+Z3Ird
h73ZDrkRaa+UVxGvi4YWCFnI/v6GuiYJ/vBRuhRDZMhlhR/LRDn2k1eYNPK/Bnc2
AmrZmQT04l1/2+3yFF1IcrJbNLLf6lar04j2WETPQDP+ybW4w+JzWQ2m5slbkZJC
wfJYMRLgV1+UfHYt0qznwmKiiOiDz4ie7bpnCWG4H1ql4XTKhxg7XdDvwkX1JiUY
yprF92GbsPscBAoDWdeHxlFlO250dlDnwlIAWkVZji9pHYOueOUDZhU/e0KT8MUa
rZbk5wkxDk2XtZ6bY3jTDson0mQnksLeay5c8H942QIDAQABo4GAMH4wDAYDVR0T
AQH/BAIwADAdBgNVHQ4EFgQUGt46vxcJhwrQEmvJR9Kn6+1bBJkwHwYDVR0jBBgw
FoAU+ZghSXH6jbkg9/5dTUHoi2zgYsMwHQYDVR0lBBYwFAYIKwYBBQUHAwEGCCsG
AQUFBwMCMA8GA1UdEQQIMAaHBH8AAAEwDQYJKoZIhvcNAQELBQADggEBAIqs3hzS
yqez+CY0Lqe0734mCFv0eOw3SqgCyDfMRXzjvVzjhyTqTxrd9dej3i94auk6TYc6
m3xcW1m0L54dbSmfYMDYt4cMS1mssw1cEU8kCU58hHIAjBK3hIqAkZdOIhfgX4P9
l2xRswPAojz4niShwbcUoGsw6GK4hIdrruDSVvAI9tYOGo1eiwazHhRsG3LpRiXL
l7fVTnkgNwWkUY7UQD/eb8cyuCguKgjAUU4yG2zJwAOztj79Rh5bt2/vl67fA+lO
ZDmU+m9lcRHc903tSMQ9elW4xvUEpNgGzcdCSOvQekwh20TnwminRZ9ULBVxtXTG
vxs863iJbxk6aQI=
-----END CERTIFICATE-----
Certificate:
    Data:
        Version: 3 (0x2)
        Serial Number: 1 (0x1)
    Signature Algorithm: sha256WithRSAEncryption
        Issuer: CN=Test Root CA
        Validity
            Not Before: Dec  9 22:40:07 2016 GMT
            Not After : Dec  7 22:40:07 2026 GMT
        Subject: C=US, ST=California, L=Mountain View, O=Test CA, CN=Test Intermediate CA
        Subject Public Key Info:
            Public Key Algorithm: rsaEncryption
                Public-Key: (2048 bit)
                Modulus:
                    00:a7:50:4b:cf:f2:ca:69:33:1a:91:ef:71:7d:68:
                    3a:af:1e:eb:14:ee:64:a8:2b:41:c6:ec:2b:52:e9:
                    66:ac:5d:4f:fd:2e:b0:31:39:6c:2e:81:1e:83:5d:
                    59:95:d2:2a:99:fb:f1:38:2e:f9:36:52:53:7c:ea:
                    ba:df:fb:d6:98:f4:c9:39:d1:34:46:67:83:41:89:
                    bc:cb:94:f9:26:3d:b0:b6:68:f7:93:6b:d4:40:27:
                    52:61:0f:20:1e:91:58:3d:60:dd:4a:1c:fe:54:3f:
                    0c:4a:c4:58:d7:11:ff:a8:3c:f1:cd:39:f6:48:9b:
                    a5:20:db:cc:90:2b:fb:1f:62:eb:46:4d:d3:ef:03:
                    f8:f6:e0:82:05:af:2a:4f:00:ed:da:63:04:70:41:
                    e6:0a:93:e9:4d:85:d4:f7:2b:86:f3:35:e1:69:b5:
                    81:fc:da:4f:cb:42:94:c9:d7:76:ba:9b:57:9f:fb:
                    ef:ed:26:ef:2d:53:73:2f:92:31:4b:38:7b:86:66:
                    eb:0d:2e:f2:93:8f:c5:bb:fe:cc:13:50:e9:18:1d:
                    18:64:99:91:da:de:96:2b:08:72:21:23:42:67:99:
                    86:98:fe:6f:f5:8e:0e:61:b1:0a:7e:f5:b8:d5:a7:
                    06:a0:53:ef:7f:04:db:11:c4:07:0a:47:96:f0:93:
                    82:d5
                Exponent: 65537 (0x10001)
        X509v3 extensions:
            X509v3 Basic Constraints: critical
                CA:TRUE
            X509v3 Subject Key Identifier: 
                F9:98:21:49:71:FA:8D:B9:20:F7:FE:5D:4D:41:E8:8B:6C:E0:62:C3
            X509v3 Key Usage: critical
                Certificate Sign, CRL Sign
    Signature Algorithm: sha256WithRSAEncryption
         50:c7:37:47:87:1a:8a:b2:cc:37:d0:f6:4a:46:ee:b5:85:90:
         35:a5:a0:c8:c7:c7:38:7d:5d:bb:e0:fc:0f:15:d3:75:50:e5:
         06:08:b5:ec:d7:e8:65:63:03:5a:38:3e:2c:5a:eb:28:a0:3c:
         70:3f:d4:30:25:20:dd:22:63:08:f0:9b:a9:c8:34:8f:f6:7c:
         5a:ce:10:72:5c:37:a0:01:a6:5e:1b:a4:60:e7:93:f6:42:61:
         2c:d1:57:67:16:d9:19:21:52:03:8c:9a:aa:75:10:ca:a1:bc:
         53:07:f1:6f:52:54:88:50:7d:11:ef:96:82:0d:e9:7d:c1:42:
         42:42:13:1f:48:ef:49:70:df:e1:30:f9:6f:2f:3d:cd:51:1c:
         14:9c:bd:12:0c:f2:d7:16:32:4a:d5:6b:4b:21:01:6c:4a:b1:
         ee:7b:8c:d0:99:7e:5e:1e:ef:10:24:6e:e3:6f:e2:e0:4b:0b:
         42:79:78:ab:2b:af:54:82:c4:b1:57:a3:f0:6f:16:42:ed:61:
         fc:69:5e:2b:09:14:4a:61:cc:6a:19:52:66:89:06:48:f1:b5:
         76:39:68:21:dc:68:9d:11:07:37:80:ae:37:77:b4:69:69:29:
         ff:f6:fc:f1:50:bc:ee:9a:f9:ab:c8:bf:a6:65:51:cc:89:1e:
         2f:2c:95:e9
-----BEGIN CERTIFICATE-----
MIIDPzCCAiegAwIBAgIBATANBgkqhkiG9w0BAQsFADAXMRUwEwYDVQQDDAxUZXN0
IFJvb3QgQ0EwHhcNMTYxMjA5MjI0MDA3WhcNMjYxMjA3MjI0MDA3WjBrMQswCQYD
VQQGEwJVUzETMBEGA1UECAwKQ2FsaWZvcm5pYTEWMBQGA1UEBwwNTW91bnRhaW4g
VmlldzEQMA4GA1UECgwHVGVzdCBDQTEdMBsGA1UEAwwUVGVzdCBJbnRlcm1lZGlh
dGUgQ0EwggEiMA0GCSqGSIb3DQEBAQUAA4IBDwAwggEKAoIBAQCnUEvP8sppMxqR
73F9aDqvHusU7mSoK0HG7CtS6WasXU/9LrAxOWwugR6DXVmV0iqZ+/E4Lvk2UlN8
6rrf+9aY9Mk50TRGZ4NBibzLlPkmPbC2aPeTa9RAJ1JhDyAekVg9YN1KHP5UPwxK
xFjXEf+oPPHNOfZIm6Ug28yQK/sfYutGTdPvA/j24IIFrypPAO3aYwRwQeYKk+lN
hdT3K4bzNeFptYH82k/LQpTJ13a6m1ef++/tJu8tU3MvkjFLOHuGZusNLvKTj8W7
/swTUOkYHRhkmZHa3pYrCHIhI0JnmYaY/m/1jg5hsQp+9bjVpwagU+9/BNsRxAcK
R5bwk4LVAgMBAAGjQjBAMA8GA1UdEwEB/wQFMAMBAf8wHQYDVR0OBBYEFPmYIUlx
+o25IPf+XU1B6Its4GLDMA4GA1UdDwEB/wQEAwIBBjANBgkqhkiG9w0BAQsFAAOC
AQEAUMc3R4cairLMN9D2SkbutYWQNaWgyMfHOH1du+D8DxXTdVDlBgi17NfoZWMD
Wjg+LFrrKKA8cD/UMCUg3SJjCPCbqcg0j/Z8Ws4Qclw3oAGmXhukYOeT9kJhLNFX
ZxbZGSFSA4yaqnUQyqG8Uwfxb1JUiFB9Ee+Wgg3pfcFCQkITH0jvSXDf4TD5by89
zVEcFJy9Egzy1xYyStVrSyEBbEqx7nuM0Jl+Xh7vECRu42/i4EsLQnl4qyuvVILE
sVej8G8WQu1h/GleKwkUSmHMahlSZokGSPG1djloIdxonREHN4CuN3e0aWkp//b8
8VC87pr5q8i/pmVRzIkeLyyV6Q==
-----END CERTIFICATE-----
-----BEGIN CERTIFICATE-----
MIIC8zCCAdugAwIBAgIJALF9qhLor0+aMA0GCSqGSIb3DQEBBQUAMBcxFTATBgNV
BAMMDFRlc3QgUm9vdCBDQTAeFw0xNDA4MTQwMzA1MjlaFw0yNDA4MTEwMzA1Mjla
MBcxFTATBgNVBAMMDFRlc3QgUm9vdCBDQTCCASIwDQYJKoZIhvcNAQEBBQADggEP
ADCCAQoCggEBALZJQeNCAVGofzx6cdP7zZE1F4QajvY2x9FwHfqG8267dm/oMi43
/TiSPWjkin1CMxRGG9wE9pFuVEDECgn97C1i4l7huiycwbFgTNrH+CJcgiBlQh5W
d3VP65AsSupXDiKNbJWsEerM1+72cA0J3aY1YV3Jdm2w8h6/MIbYd1I2lZcO0UbF
7YE9G7DyYZU8wUA4719dumGf7yucn4WJdHBj1XboNX7OAeHzERGQHA31/Y3OEGyt
fFUaIW/XLfR4FeovOL2RnjwdB0b1Q8GCi68SU2UZimlpZgay2gv6KgChKhWESfEB
v5swBtAVoB+dUZFH4VNf717swmF5whSfxOMCAwEAAaNCMEAwDwYDVR0TAQH/BAUw
AwEB/zAdBgNVHQ4EFgQUvPcw0TzA8nn675/JbFyT84poq4MwDgYDVR0PAQH/BAQD
AgEGMA0GCSqGSIb3DQEBBQUAA4IBAQBXByn7f+j/sObYWGrDkKE4HLTzaLHs6Ikj
JNeo8iHDYOSkSVwAv9/HgniAKxj3rd3QYl6nsMzwqrTOcBJZZWd2BQAYmv/EKhfj
8VXYvlxe68rLU4cQ1QkyNqdeQfRT2n5WYNJ+TpqlCF9ddennMMsi6e8ZSYOlI6H4
YEzlNtU5eBjxXr/OqgtTgSx4qQpr2xMQIRR/G3A9iRpAigYsXVAZYvnHRYnyPWYF
PX11W1UegEJyoZp8bQp09u6mIWw6mPt3gl/ya1bm3ZuOUPDGrv3qpgUHqSYGVrOy
2bI3oCE+eQYfuVG+9LFJTZC1M+UOx15bQMVqBNFDepRqpE9h/ILg
-----END CERTIFICATE-----
