[Created by: generate-chains.py]

Certificate chain with 1 intermediate and a trusted root. The intermediate
restricts the EKU to clientAuth + any, and the target has serverAuth +
clientAuth. Verification is expected to succeed because intermediate will match
the "any".

Certificate:
    Data:
        Version: 3 (0x2)
        Serial Number: 1 (0x1)
    Signature Algorithm: sha256WithRSAEncryption
        Issuer: CN=Intermediate
        Validity
            Not Before: Jan  1 12:00:00 2015 GMT
            Not After : Jan  1 12:00:00 2016 GMT
        Subject: CN=Target
        Subject Public Key Info:
            Public Key Algorithm: rsaEncryption
                Public-Key: (2048 bit)
                Modulus:
                    00:ae:2e:8b:18:8d:f7:76:2c:94:0c:3f:a0:b6:ea:
                    70:1f:5e:c8:48:c5:aa:ad:55:6b:bd:55:68:0d:8e:
                    ce:e5:99:27:c5:2c:b2:9a:29:a9:8f:8e:c3:c6:97:
                    89:6d:31:d7:a4:8f:d8:36:37:4f:33:c7:d6:42:03:
                    11:08:c4:7f:35:8c:ee:0f:1b:7a:31:74:04:aa:01:
                    d3:1e:8b:5b:01:9d:60:4b:9c:d1:8f:1e:ab:e5:dc:
                    8f:17:77:49:e3:f6:d5:82:a5:2f:0a:e8:dc:9f:96:
                    1e:2a:a1:41:d1:67:2c:9e:f3:7f:94:0c:6e:cf:5f:
                    55:52:37:05:d0:39:37:1a:6e:11:ed:db:fa:aa:92:
                    a7:4f:50:29:07:69:af:1d:a7:99:fa:e1:56:f0:03:
                    38:b0:ae:6b:e7:19:0b:dd:c3:07:31:8e:84:04:a5:
                    b4:eb:b8:bc:23:f3:40:b0:17:b4:ab:9e:3f:05:96:
                    89:fc:84:23:cc:d1:06:c2:e4:8b:c6:65:f5:24:eb:
                    72:31:bc:41:7d:3a:c9:55:08:0c:ee:a6:ae:1f:78:
                    17:f8:a7:9d:7b:b1:82:f5:ce:82:6b:a8:b2:c6:8a:
                    b9:be:a5:d8:39:f4:49:e2:4c:53:32:85:26:53:4d:
                    44:ce:d5:3b:a0:6b:e7:d9:02:a1:5a:ef:e1:a5:81:
                    a7:fb
                Exponent: 65537 (0x10001)
        X509v3 extensions:
            X509v3 Subject Key Identifier: 
                EB:B0:1C:BD:B7:68:B8:D1:B9:8A:C2:9F:5D:CF:DD:AF:F2:62:70:8A
            X509v3 Authority Key Identifier: 
                keyid:EE:C6:9A:65:CC:FB:CE:A0:3E:17:02:F9:68:12:86:B6:22:09:60:B4

            Authority Information Access: 
                CA Issuers - URI:http://url-for-aia/Intermediate.cer

            X509v3 CRL Distribution Points: 

                Full Name:
                  URI:http://url-for-crl/Intermediate.crl

            X509v3 Key Usage: critical
                Digital Signature, Key Encipherment
            X509v3 Extended Key Usage: 
                TLS Web Server Authentication, TLS Web Client Authentication
    Signature Algorithm: sha256WithRSAEncryption
         04:83:63:1b:67:f1:17:c4:b4:65:6c:fa:2f:b8:d0:67:b4:14:
         b2:51:4f:a2:cd:c5:20:a0:83:b2:f6:20:af:49:07:59:89:8e:
         cf:bc:59:3a:b6:c3:e0:ec:a7:cd:87:7c:a6:72:bb:0b:6c:97:
         16:00:d2:2e:0b:66:c0:35:66:5b:f9:d8:25:cb:f2:20:f2:39:
         b8:a9:a6:ab:47:ba:06:ba:97:a5:27:f7:9b:2a:68:35:e0:96:
         39:37:16:2f:28:b9:ad:bb:49:59:18:fe:d1:7b:5d:5e:ec:1d:
         f0:e7:77:61:ab:f4:c6:6d:25:fa:a6:56:0c:1c:aa:6c:37:97:
         e4:4a:9d:56:16:d0:e2:45:05:e9:d2:72:8a:ad:d9:3d:98:ad:
         7f:d3:a1:1a:f3:e4:f6:eb:c2:b1:97:49:42:55:45:ab:a2:03:
         22:24:2f:7f:c6:ed:7b:87:47:ab:3f:6e:a1:d9:c5:6c:21:db:
         73:de:47:e6:62:4e:7b:53:c0:df:6e:38:1d:2d:37:29:0a:81:
         46:7f:2e:0a:bd:c5:4d:9b:71:86:3e:22:81:bd:2a:79:9e:e0:
         2f:44:aa:bc:f8:a7:12:f3:79:8d:ec:69:0c:10:ed:7f:df:a2:
         a2:07:88:2c:1d:a9:1b:61:fd:b8:59:3e:70:4c:7d:f1:95:61:
         d4:98:61:ff
-----BEGIN CERTIFICATE-----
MIIDjTCCAnWgAwIBAgIBATANBgkqhkiG9w0BAQsFADAXMRUwEwYDVQQDDAxJbnRl
cm1lZGlhdGUwHhcNMTUwMTAxMTIwMDAwWhcNMTYwMTAxMTIwMDAwWjARMQ8wDQYD
VQQDDAZUYXJnZXQwggEiMA0GCSqGSIb3DQEBAQUAA4IBDwAwggEKAoIBAQCuLosY
jfd2LJQMP6C26nAfXshIxaqtVWu9VWgNjs7lmSfFLLKaKamPjsPGl4ltMdekj9g2
N08zx9ZCAxEIxH81jO4PG3oxdASqAdMei1sBnWBLnNGPHqvl3I8Xd0nj9tWCpS8K
6Nyflh4qoUHRZyye83+UDG7PX1VSNwXQOTcabhHt2/qqkqdPUCkHaa8dp5n64Vbw
AziwrmvnGQvdwwcxjoQEpbTruLwj80CwF7Srnj8Flon8hCPM0QbC5IvGZfUk63Ix
vEF9OslVCAzupq4feBf4p517sYL1zoJrqLLGirm+pdg59EniTFMyhSZTTUTO1Tug
a+fZAqFa7+Glgaf7AgMBAAGjgekwgeYwHQYDVR0OBBYEFOuwHL23aLjRuYrCn13P
3a/yYnCKMB8GA1UdIwQYMBaAFO7GmmXM+86gPhcC+WgShrYiCWC0MD8GCCsGAQUF
BwEBBDMwMTAvBggrBgEFBQcwAoYjaHR0cDovL3VybC1mb3ItYWlhL0ludGVybWVk
aWF0ZS5jZXIwNAYDVR0fBC0wKzApoCegJYYjaHR0cDovL3VybC1mb3ItY3JsL0lu
dGVybWVkaWF0ZS5jcmwwDgYDVR0PAQH/BAQDAgWgMB0GA1UdJQQWMBQGCCsGAQUF
BwMBBggrBgEFBQcDAjANBgkqhkiG9w0BAQsFAAOCAQEABINjG2fxF8S0ZWz6L7jQ
Z7QUslFPos3FIKCDsvYgr0kHWYmOz7xZOrbD4OynzYd8pnK7C2yXFgDSLgtmwDVm
W/nYJcvyIPI5uKmmq0e6BrqXpSf3mypoNeCWOTcWLyi5rbtJWRj+0XtdXuwd8Od3
Yav0xm0l+qZWDByqbDeX5EqdVhbQ4kUF6dJyiq3ZPZitf9OhGvPk9uvCsZdJQlVF
q6IDIiQvf8bte4dHqz9uodnFbCHbc95H5mJOe1PA3244HS03KQqBRn8uCr3FTZtx
hj4igb0qeZ7gL0SqvPinEvN5jexpDBDtf9+iogeILB2pG2H9uFk+cEx98ZVh1Jhh
/w==
-----END CERTIFICATE-----

Certificate:
    Data:
        Version: 3 (0x2)
        Serial Number: 2 (0x2)
    Signature Algorithm: sha256WithRSAEncryption
        Issuer: CN=Root
        Validity
            Not Before: Jan  1 12:00:00 2015 GMT
            Not After : Jan  1 12:00:00 2016 GMT
        Subject: CN=Intermediate
        Subject Public Key Info:
            Public Key Algorithm: rsaEncryption
                Public-Key: (2048 bit)
                Modulus:
                    00:d1:41:40:6f:cb:25:05:d9:29:d0:a3:c7:fe:2f:
                    f0:53:ad:46:36:19:aa:b1:1f:3f:7a:a2:e0:fb:03:
                    2b:77:65:6a:79:eb:f3:a3:16:13:34:83:3b:42:de:
                    a2:bb:e2:bf:d8:d2:75:3d:48:38:86:bb:2a:7d:14:
                    a3:88:f7:7c:00:f4:0a:6b:6b:aa:9b:44:24:62:fe:
                    db:a3:42:55:15:67:2a:32:ff:b2:4d:80:93:d0:84:
                    ef:1b:dc:7c:ac:56:2d:54:08:02:f6:18:6e:b5:80:
                    a8:77:52:1f:b8:2c:09:6d:cc:f8:1c:04:91:62:6e:
                    1e:dd:1d:89:b2:f1:23:0b:4d:4c:6c:da:49:3d:61:
                    83:72:0f:66:36:12:3f:f3:ff:53:52:73:53:a1:ca:
                    38:bd:c3:48:bf:7a:2f:13:19:d7:c2:28:e1:6f:32:
                    00:5e:64:ac:4b:05:7a:77:62:57:55:a9:59:83:d5:
                    ed:a3:2e:28:34:71:79:2f:b9:c3:9e:df:b3:2a:b1:
                    59:cd:04:00:1d:8b:11:56:ae:c6:67:f6:4f:1d:58:
                    07:65:e0:b0:2f:ef:57:6d:de:c1:a0:7c:6e:38:a8:
                    45:26:21:96:e0:f6:ef:0e:28:cf:01:70:57:dc:20:
                    15:08:ad:e8:e3:98:74:8c:54:32:c1:28:17:e0:de:
                    a1:8b
                Exponent: 65537 (0x10001)
        X509v3 extensions:
            X509v3 Subject Key Identifier: 
                EE:C6:9A:65:CC:FB:CE:A0:3E:17:02:F9:68:12:86:B6:22:09:60:B4
            X509v3 Authority Key Identifier: 
                keyid:42:75:41:34:C5:59:9F:99:A3:9B:1C:0C:57:DB:5C:C7:C1:48:B7:91

            Authority Information Access: 
                CA Issuers - URI:http://url-for-aia/Root.cer

            X509v3 CRL Distribution Points: 

                Full Name:
                  URI:http://url-for-crl/Root.crl

            X509v3 Key Usage: critical
                Certificate Sign, CRL Sign
            X509v3 Basic Constraints: critical
                CA:TRUE
            X509v3 Extended Key Usage: 
                TLS Web Client Authentication, Any Extended Key Usage
    Signature Algorithm: sha256WithRSAEncryption
         7e:65:1a:1b:ca:f6:29:2d:fa:64:43:07:29:94:06:40:45:c5:
         86:64:c8:7e:3d:83:78:1b:a2:41:2c:35:33:80:f1:d3:77:84:
         6c:7b:db:f1:65:3b:71:72:85:67:5e:a9:b3:91:8e:39:41:ae:
         ba:ad:3a:c5:7f:f2:be:e3:af:83:b1:3e:26:c0:36:f4:c7:12:
         21:51:2f:1f:37:19:a5:03:25:d9:25:9c:b1:10:1b:56:06:1e:
         7a:08:b6:d8:04:de:3c:23:8b:cb:22:ea:24:65:a8:89:f4:61:
         8b:16:c4:9d:bb:31:f1:20:56:18:32:eb:26:43:7a:83:71:33:
         e6:ab:d2:3d:44:d2:20:2c:39:b7:79:46:59:41:8c:f4:b2:16:
         a1:23:2b:cb:67:10:e3:c0:2d:e5:a5:57:8d:a9:86:f3:d6:79:
         54:60:34:d7:48:f4:34:84:a2:55:0a:7c:7c:3e:66:8b:6c:6d:
         a1:5a:cf:fd:96:f1:f9:f0:88:f8:f5:66:b1:7d:c4:cb:8a:47:
         7d:d3:d6:fa:3c:34:76:8d:9d:1a:68:bc:d7:cd:2a:eb:99:cf:
         d2:f0:bd:44:3e:91:77:45:85:56:a0:80:74:a7:1d:65:a6:d5:
         ef:82:95:80:d3:f9:a0:39:e7:34:2d:4e:63:cb:47:f8:05:13:
         34:62:ec:c8
-----BEGIN CERTIFICATE-----
MIIDiDCCAnCgAwIBAgIBAjANBgkqhkiG9w0BAQsFADAPMQ0wCwYDVQQDDARSb290
MB4XDTE1MDEwMTEyMDAwMFoXDTE2MDEwMTEyMDAwMFowFzEVMBMGA1UEAwwMSW50
ZXJtZWRpYXRlMIIBIjANBgkqhkiG9w0BAQEFAAOCAQ8AMIIBCgKCAQEA0UFAb8sl
Bdkp0KPH/i/wU61GNhmqsR8/eqLg+wMrd2VqeevzoxYTNIM7Qt6iu+K/2NJ1PUg4
hrsqfRSjiPd8APQKa2uqm0QkYv7bo0JVFWcqMv+yTYCT0ITvG9x8rFYtVAgC9hhu
tYCod1IfuCwJbcz4HASRYm4e3R2JsvEjC01MbNpJPWGDcg9mNhI/8/9TUnNToco4
vcNIv3ovExnXwijhbzIAXmSsSwV6d2JXValZg9Xtoy4oNHF5L7nDnt+zKrFZzQQA
HYsRVq7GZ/ZPHVgHZeCwL+9Xbd7BoHxuOKhFJiGW4PbvDijPAXBX3CAVCK3o45h0
jFQywSgX4N6hiwIDAQABo4HmMIHjMB0GA1UdDgQWBBTuxpplzPvOoD4XAvloEoa2
IglgtDAfBgNVHSMEGDAWgBRCdUE0xVmfmaObHAxX21zHwUi3kTA3BggrBgEFBQcB
AQQrMCkwJwYIKwYBBQUHMAKGG2h0dHA6Ly91cmwtZm9yLWFpYS9Sb290LmNlcjAs
BgNVHR8EJTAjMCGgH6AdhhtodHRwOi8vdXJsLWZvci1jcmwvUm9vdC5jcmwwDgYD
VR0PAQH/BAQDAgEGMA8GA1UdEwEB/wQFMAMBAf8wGQYDVR0lBBIwEAYIKwYBBQUH
AwIGBFUdJQAwDQYJKoZIhvcNAQELBQADggEBAH5lGhvK9ikt+mRDBymUBkBFxYZk
yH49g3gbokEsNTOA8dN3hGx72/FlO3FyhWdeqbORjjlBrrqtOsV/8r7jr4OxPibA
NvTHEiFRLx83GaUDJdklnLEQG1YGHnoIttgE3jwji8si6iRlqIn0YYsWxJ27MfEg
Vhgy6yZDeoNxM+ar0j1E0iAsObd5RllBjPSyFqEjK8tnEOPALeWlV42phvPWeVRg
NNdI9DSEolUKfHw+ZotsbaFaz/2W8fnwiPj1ZrF9xMuKR33T1vo8NHaNnRpovNfN
KuuZz9LwvUQ+kXdFhVaggHSnHWWm1e+ClYDT+aA55zQtTmPLR/gFEzRi7Mg=
-----END CERTIFICATE-----

Certificate:
    Data:
        Version: 3 (0x2)
        Serial Number: 1 (0x1)
    Signature Algorithm: sha256WithRSAEncryption
        Issuer: CN=Root
        Validity
            Not Before: Jan  1 12:00:00 2015 GMT
            Not After : Jan  1 12:00:00 2016 GMT
        Subject: CN=Root
        Subject Public Key Info:
            Public Key Algorithm: rsaEncryption
                Public-Key: (2048 bit)
                Modulus:
                    00:c3:96:66:c7:e7:fd:21:14:ec:df:4a:05:1a:8c:
                    22:da:8f:3e:b7:8e:ca:a2:de:d7:e3:08:05:cd:28:
                    1c:da:d4:99:ba:ad:de:92:07:44:18:55:e7:b5:41:
                    6b:38:64:18:06:ab:6c:b8:ad:3d:b8:4e:c8:fa:8c:
                    fc:58:2c:2c:a8:42:08:28:b4:85:2a:aa:57:e2:a8:
                    76:4a:6e:fe:38:2f:d1:14:c6:52:6f:05:a4:89:54:
                    c2:0f:f0:93:83:09:b7:55:56:94:7b:57:65:87:09:
                    dd:61:ea:1a:02:3c:24:a5:cc:2d:d3:7c:0a:dc:2e:
                    67:a2:7f:91:ad:b4:76:76:02:ac:7f:85:5f:61:86:
                    0c:60:15:a0:82:7f:85:16:f4:10:8d:49:27:e4:33:
                    58:75:55:6b:5a:ab:c7:d1:bd:3d:a8:3b:68:1b:b4:
                    de:68:89:c4:87:fe:87:04:d4:52:f3:8f:fa:2e:44:
                    79:c1:62:46:b7:88:4c:bb:75:61:fd:e6:c5:6a:fb:
                    a8:3b:ef:a7:e6:1a:1e:44:2d:61:a7:4e:63:5e:66:
                    b8:f7:85:60:74:8b:ea:20:82:84:84:71:f5:1d:c6:
                    0c:c2:ee:11:78:01:ae:44:5a:e3:7b:97:2e:01:d0:
                    18:91:77:01:23:7f:d2:21:73:f4:f3:9a:94:ad:93:
                    2e:a1
                Exponent: 65537 (0x10001)
        X509v3 extensions:
            X509v3 Subject Key Identifier: 
                42:75:41:34:C5:59:9F:99:A3:9B:1C:0C:57:DB:5C:C7:C1:48:B7:91
            X509v3 Authority Key Identifier: 
                keyid:42:75:41:34:C5:59:9F:99:A3:9B:1C:0C:57:DB:5C:C7:C1:48:B7:91

            Authority Information Access: 
                CA Issuers - URI:http://url-for-aia/Root.cer

            X509v3 CRL Distribution Points: 

                Full Name:
                  URI:http://url-for-crl/Root.crl

            X509v3 Key Usage: critical
                Certificate Sign, CRL Sign
            X509v3 Basic Constraints: critical
                CA:TRUE
    Signature Algorithm: sha256WithRSAEncryption
         47:b6:e9:3a:86:dc:51:de:1f:9c:e4:ce:08:aa:28:ee:50:9e:
         92:7f:f9:ee:0c:44:1e:e8:e3:18:6d:51:db:e5:62:56:af:fd:
         ca:37:a2:7c:a7:a9:64:8d:27:52:0c:c5:4a:64:6f:16:30:2a:
         c6:63:18:7f:7c:3d:fe:a1:5e:4a:04:87:1b:64:1c:c6:03:89:
         d2:a2:3b:e0:bf:f4:a4:b3:93:ef:75:fd:3b:4e:1f:9c:fd:36:
         ec:3c:6f:ec:b5:62:21:e0:c4:4b:07:71:34:29:61:20:b9:50:
         6c:fc:b9:a1:74:39:93:10:32:ea:1e:11:5e:20:27:47:7a:6a:
         3d:52:e1:35:85:9d:ca:65:f2:0d:b6:a2:6a:34:af:31:23:a1:
         ca:be:cf:dc:ab:36:04:4f:d6:93:9b:c1:3f:fd:dd:34:d4:ca:
         16:84:4b:92:4c:d5:11:4d:c3:ae:11:a7:8d:c0:cf:c8:94:27:
         5b:7f:9d:e0:d8:fa:67:7a:75:ce:a4:e7:d5:d0:c8:fc:ce:31:
         20:ab:7a:3b:59:8f:41:ce:58:7f:70:96:9b:e3:00:3b:ca:9e:
         f3:df:66:e1:86:7a:f0:1c:72:6b:96:2a:29:c7:3a:f5:c3:c0:
         c4:5f:a6:86:7f:c1:f5:ae:6f:4c:14:3a:b1:15:5e:c9:c8:77:
         52:d1:da:c5
-----BEGIN CERTIFICATE-----
MIIDZTCCAk2gAwIBAgIBATANBgkqhkiG9w0BAQsFADAPMQ0wCwYDVQQDDARSb290
MB4XDTE1MDEwMTEyMDAwMFoXDTE2MDEwMTEyMDAwMFowDzENMAsGA1UEAwwEUm9v
dDCCASIwDQYJKoZIhvcNAQEBBQADggEPADCCAQoCggEBAMOWZsfn/SEU7N9KBRqM
ItqPPreOyqLe1+MIBc0oHNrUmbqt3pIHRBhV57VBazhkGAarbLitPbhOyPqM/Fgs
LKhCCCi0hSqqV+Kodkpu/jgv0RTGUm8FpIlUwg/wk4MJt1VWlHtXZYcJ3WHqGgI8
JKXMLdN8CtwuZ6J/ka20dnYCrH+FX2GGDGAVoIJ/hRb0EI1JJ+QzWHVVa1qrx9G9
Pag7aBu03miJxIf+hwTUUvOP+i5EecFiRreITLt1Yf3mxWr7qDvvp+YaHkQtYadO
Y15muPeFYHSL6iCChIRx9R3GDMLuEXgBrkRa43uXLgHQGJF3ASN/0iFz9POalK2T
LqECAwEAAaOByzCByDAdBgNVHQ4EFgQUQnVBNMVZn5mjmxwMV9tcx8FIt5EwHwYD
VR0jBBgwFoAUQnVBNMVZn5mjmxwMV9tcx8FIt5EwNwYIKwYBBQUHAQEEKzApMCcG
CCsGAQUFBzAChhtodHRwOi8vdXJsLWZvci1haWEvUm9vdC5jZXIwLAYDVR0fBCUw
IzAhoB+gHYYbaHR0cDovL3VybC1mb3ItY3JsL1Jvb3QuY3JsMA4GA1UdDwEB/wQE
AwIBBjAPBgNVHRMBAf8EBTADAQH/MA0GCSqGSIb3DQEBCwUAA4IBAQBHtuk6htxR
3h+c5M4IqijuUJ6Sf/nuDEQe6OMYbVHb5WJWr/3KN6J8p6lkjSdSDMVKZG8WMCrG
Yxh/fD3+oV5KBIcbZBzGA4nSojvgv/Sks5Pvdf07Th+c/TbsPG/stWIh4MRLB3E0
KWEguVBs/LmhdDmTEDLqHhFeICdHemo9UuE1hZ3KZfINtqJqNK8xI6HKvs/cqzYE
T9aTm8E//d001MoWhEuSTNURTcOuEaeNwM/IlCdbf53g2PpnenXOpOfV0Mj8zjEg
q3o7WY9Bzlh/cJab4wA7yp7z32bhhnrwHHJrliopxzr1w8DEX6aGf8H1rm9MFDqx
FV7JyHdS0drF
-----END CERTIFICATE-----
