[Created by: generate-chains.py]

Certificate chain with 1 intermediate and a trusted root. The trusted root
is NOT self signed, however its issuer is not included in the chain or root
store. Verification is expected to succeed since the root is trusted.

Certificate:
    Data:
        Version: 3 (0x2)
        Serial Number: 1 (0x1)
    Signature Algorithm: sha256WithRSAEncryption
        Issuer: CN=Intermediate
        Validity
            Not Before: Jan  1 12:00:00 2015 GMT
            Not After : Jan  1 12:00:00 2016 GMT
        Subject: CN=Target
        Subject Public Key Info:
            Public Key Algorithm: rsaEncryption
                Public-Key: (2048 bit)
                Modulus:
                    00:ca:05:80:6e:cf:1f:63:66:cf:05:e3:dc:51:2c:
                    12:41:1f:96:f5:a5:94:96:c5:5e:34:36:bc:90:df:
                    85:73:5e:26:ed:f3:12:fb:90:a0:fb:05:b4:8e:05:
                    71:07:4c:cc:32:ae:95:89:87:8c:9a:08:22:f0:a1:
                    47:da:be:5c:12:c7:18:31:aa:19:61:59:3d:3a:7b:
                    e9:e9:1a:9f:56:d9:5b:31:b4:3f:bc:ad:da:1c:e9:
                    0d:dc:40:5c:4d:5d:8c:5a:ad:78:97:ab:cf:28:fb:
                    52:7d:74:6f:d3:27:da:5a:e4:37:7e:1a:56:8b:f3:
                    85:55:c5:aa:f8:96:3d:51:52:5f:be:60:47:97:fd:
                    82:ef:28:b7:cd:50:64:e2:70:43:7b:1f:5d:f3:9e:
                    d1:c2:dd:22:a6:08:85:94:e8:80:69:62:67:01:ed:
                    12:bb:96:96:83:b4:02:4f:5a:a0:33:63:99:e2:1c:
                    88:33:38:fa:b7:20:70:2d:91:e7:ca:27:9b:81:2f:
                    29:a6:d6:f0:ea:ec:7b:a4:86:61:56:af:bd:30:26:
                    91:e7:d9:18:e9:4e:90:6e:66:ab:1a:48:70:62:9d:
                    b9:0e:11:fa:49:d5:3c:8c:20:52:9b:b0:6a:71:85:
                    a5:92:66:22:ea:79:0c:53:b1:66:ab:82:3d:7c:16:
                    78:fd
                Exponent: 65537 (0x10001)
        X509v3 extensions:
            X509v3 Subject Key Identifier: 
                7F:FE:A1:79:97:34:D7:6D:63:C2:1A:94:43:45:AE:6E:0D:30:5A:18
            X509v3 Authority Key Identifier: 
                keyid:1E:C9:1C:45:5F:46:A4:0C:10:15:82:7C:01:23:5B:21:F4:AE:88:D9

            Authority Information Access: 
                CA Issuers - URI:http://url-for-aia/Intermediate.cer

            X509v3 CRL Distribution Points: 

                Full Name:
                  URI:http://url-for-crl/Intermediate.crl

            X509v3 Key Usage: critical
                Digital Signature, Key Encipherment
            X509v3 Extended Key Usage: 
                TLS Web Server Authentication, TLS Web Client Authentication
    Signature Algorithm: sha256WithRSAEncryption
         2c:07:9b:10:5f:1e:c2:b7:13:67:71:06:b1:d6:46:7d:9c:24:
         01:bf:87:87:98:04:2d:a7:0d:9e:c2:15:f8:c8:a9:56:61:08:
         06:63:b5:1b:c9:9b:ba:63:50:24:63:1f:f4:10:d6:60:aa:23:
         c8:72:7a:88:e2:11:22:68:20:b1:c5:e8:22:b0:bc:b7:1d:d5:
         86:1a:71:81:aa:58:ec:6a:aa:56:1a:d8:ac:34:aa:7b:df:d3:
         28:47:cf:86:59:3c:b2:e9:eb:58:68:2b:1e:db:41:b7:da:ab:
         73:38:07:d1:7e:fa:9b:9a:43:a4:57:1c:3a:4d:c3:72:87:de:
         f2:00:a2:e3:11:15:3d:9d:58:3e:c1:59:13:ed:3d:32:20:d5:
         84:d4:2b:41:c6:69:10:35:ee:3c:73:93:c5:e4:c9:0e:5c:5b:
         ae:00:6c:ae:91:09:2e:69:b2:41:5f:30:61:fc:32:ba:67:c3:
         05:37:36:6b:5d:2a:be:c0:53:67:e2:6f:26:6b:4c:54:6f:0c:
         18:e8:81:94:ea:61:cd:e7:42:8f:8a:a8:83:21:0e:ac:eb:5c:
         87:85:d0:72:72:7d:bd:2f:96:49:93:6b:f6:e2:3f:42:86:c8:
         48:25:32:10:e3:20:fc:93:33:8f:f9:20:92:21:8b:ce:37:d1:
         7f:d9:d6:85
-----BEGIN CERTIFICATE-----
MIIDjTCCAnWgAwIBAgIBATANBgkqhkiG9w0BAQsFADAXMRUwEwYDVQQDDAxJbnRl
cm1lZGlhdGUwHhcNMTUwMTAxMTIwMDAwWhcNMTYwMTAxMTIwMDAwWjARMQ8wDQYD
VQQDDAZUYXJnZXQwggEiMA0GCSqGSIb3DQEBAQUAA4IBDwAwggEKAoIBAQDKBYBu
zx9jZs8F49xRLBJBH5b1pZSWxV40NryQ34VzXibt8xL7kKD7BbSOBXEHTMwyrpWJ
h4yaCCLwoUfavlwSxxgxqhlhWT06e+npGp9W2VsxtD+8rdoc6Q3cQFxNXYxarXiX
q88o+1J9dG/TJ9pa5Dd+GlaL84VVxar4lj1RUl++YEeX/YLvKLfNUGTicEN7H13z
ntHC3SKmCIWU6IBpYmcB7RK7lpaDtAJPWqAzY5niHIgzOPq3IHAtkefKJ5uBLymm
1vDq7HukhmFWr70wJpHn2RjpTpBuZqsaSHBinbkOEfpJ1TyMIFKbsGpxhaWSZiLq
eQxTsWargj18Fnj9AgMBAAGjgekwgeYwHQYDVR0OBBYEFH/+oXmXNNdtY8IalENF
rm4NMFoYMB8GA1UdIwQYMBaAFB7JHEVfRqQMEBWCfAEjWyH0rojZMD8GCCsGAQUF
BwEBBDMwMTAvBggrBgEFBQcwAoYjaHR0cDovL3VybC1mb3ItYWlhL0ludGVybWVk
aWF0ZS5jZXIwNAYDVR0fBC0wKzApoCegJYYjaHR0cDovL3VybC1mb3ItY3JsL0lu
dGVybWVkaWF0ZS5jcmwwDgYDVR0PAQH/BAQDAgWgMB0GA1UdJQQWMBQGCCsGAQUF
BwMBBggrBgEFBQcDAjANBgkqhkiG9w0BAQsFAAOCAQEALAebEF8ewrcTZ3EGsdZG
fZwkAb+Hh5gELacNnsIV+MipVmEIBmO1G8mbumNQJGMf9BDWYKojyHJ6iOIRImgg
scXoIrC8tx3VhhpxgapY7GqqVhrYrDSqe9/TKEfPhlk8sunrWGgrHttBt9qrczgH
0X76m5pDpFccOk3Dcofe8gCi4xEVPZ1YPsFZE+09MiDVhNQrQcZpEDXuPHOTxeTJ
DlxbrgBsrpEJLmmyQV8wYfwyumfDBTc2a10qvsBTZ+JvJmtMVG8MGOiBlOphzedC
j4qogyEOrOtch4XQcnJ9vS+WSZNr9uI/QobISCUyEOMg/JMzj/kgkiGLzjfRf9nW
hQ==
-----END CERTIFICATE-----

Certificate:
    Data:
        Version: 3 (0x2)
        Serial Number: 1 (0x1)
    Signature Algorithm: sha256WithRSAEncryption
        Issuer: CN=Root
        Validity
            Not Before: Jan  1 12:00:00 2015 GMT
            Not After : Jan  1 12:00:00 2016 GMT
        Subject: CN=Intermediate
        Subject Public Key Info:
            Public Key Algorithm: rsaEncryption
                Public-Key: (2048 bit)
                Modulus:
                    00:b8:b5:04:1a:b6:ce:13:85:6b:9b:9e:2d:2f:a5:
                    b4:b5:05:44:72:4b:8b:80:23:1e:0b:1e:1d:30:eb:
                    c0:f5:c1:a5:17:e6:13:5d:b4:2f:bf:7c:a9:95:38:
                    cc:88:9a:6e:26:e2:3a:22:68:fe:b1:a3:e4:70:04:
                    73:70:78:b7:68:7a:c7:0d:86:c0:ad:3c:a4:ad:83:
                    a5:00:a8:a3:c2:59:53:3a:77:33:c7:f2:56:15:1b:
                    85:7a:2f:b4:44:e1:40:5d:04:9a:ce:0c:4d:5c:33:
                    40:4c:68:de:b9:58:48:f1:b6:cc:a4:02:48:86:46:
                    66:32:0f:0e:3d:fd:fd:af:df:96:27:b1:60:5b:0d:
                    be:25:b5:dd:84:ec:f8:9d:da:21:44:95:df:46:16:
                    3f:77:69:8e:70:bc:9a:78:ec:45:89:13:0f:be:34:
                    7e:00:4d:83:cd:d3:f4:fe:3f:6c:ce:d0:6f:36:64:
                    6c:c1:61:dd:c2:68:1d:b9:78:2d:2d:0b:32:96:75:
                    3a:d6:a5:d3:3f:2d:55:0e:e7:9e:aa:7d:31:a0:4d:
                    ac:91:20:1e:46:41:85:3f:03:45:db:8f:98:c2:c2:
                    b8:7d:e1:f2:e7:b8:6f:a8:cb:b9:d6:7e:8a:29:98:
                    b3:b3:ed:38:a4:a7:fc:9d:c1:e1:63:68:00:64:a5:
                    e1:bf
                Exponent: 65537 (0x10001)
        X509v3 extensions:
            X509v3 Subject Key Identifier: 
                1E:C9:1C:45:5F:46:A4:0C:10:15:82:7C:01:23:5B:21:F4:AE:88:D9
            X509v3 Authority Key Identifier: 
                keyid:91:D7:20:C6:1D:00:21:35:53:7D:FE:50:11:02:DD:E3:40:2B:9A:A8

            Authority Information Access: 
                CA Issuers - URI:http://url-for-aia/Root.cer

            X509v3 CRL Distribution Points: 

                Full Name:
                  URI:http://url-for-crl/Root.crl

            X509v3 Key Usage: critical
                Certificate Sign, CRL Sign
            X509v3 Basic Constraints: critical
                CA:TRUE
    Signature Algorithm: sha256WithRSAEncryption
         49:e9:a6:5e:82:77:77:f3:e2:c5:48:19:73:4e:ce:79:e7:22:
         40:79:6b:83:25:9f:8f:c3:a5:9a:83:55:a1:92:98:89:2e:fc:
         d3:85:4c:7f:11:4a:ff:48:f3:6e:af:d3:f5:82:e4:d2:01:94:
         12:56:31:f9:1e:88:a4:90:2a:cb:1c:7f:ce:ca:ab:f7:d6:18:
         3a:03:6e:e7:53:40:ea:d5:02:68:9c:4e:cd:63:9e:a9:7b:f8:
         77:85:ac:03:27:3f:51:0a:8d:db:fb:d1:9e:39:58:0f:99:31:
         df:f8:31:9c:19:82:3d:6f:d5:93:7f:a3:60:3e:67:0a:0a:ea:
         8f:c3:2b:40:22:89:46:ea:02:29:ae:2c:e0:45:47:5e:63:49:
         77:d6:17:c6:7d:1f:f1:d6:37:2d:c6:1d:e4:db:9e:b6:64:62:
         99:e6:2b:5c:8b:d5:d7:28:fc:63:cc:ec:ac:f6:44:36:cd:e7:
         a5:63:6d:9b:20:74:10:73:35:7c:68:f2:27:3c:10:b6:0c:b2:
         1c:e2:47:90:8c:42:dc:5b:f9:87:3a:bc:32:c6:f7:55:79:c9:
         43:39:ec:25:74:0c:c7:e4:fc:27:48:bf:e2:b0:12:4c:84:0c:
         3f:ac:a8:7f:39:8e:3e:1c:4f:55:4b:b4:90:e5:e5:53:49:cb:
         75:c4:7e:ce
-----BEGIN CERTIFICATE-----
MIIDbTCCAlWgAwIBAgIBATANBgkqhkiG9w0BAQsFADAPMQ0wCwYDVQQDDARSb290
MB4XDTE1MDEwMTEyMDAwMFoXDTE2MDEwMTEyMDAwMFowFzEVMBMGA1UEAwwMSW50
ZXJtZWRpYXRlMIIBIjANBgkqhkiG9w0BAQEFAAOCAQ8AMIIBCgKCAQEAuLUEGrbO
E4Vrm54tL6W0tQVEckuLgCMeCx4dMOvA9cGlF+YTXbQvv3yplTjMiJpuJuI6Imj+
saPkcARzcHi3aHrHDYbArTykrYOlAKijwllTOnczx/JWFRuFei+0ROFAXQSazgxN
XDNATGjeuVhI8bbMpAJIhkZmMg8OPf39r9+WJ7FgWw2+JbXdhOz4ndohRJXfRhY/
d2mOcLyaeOxFiRMPvjR+AE2DzdP0/j9sztBvNmRswWHdwmgduXgtLQsylnU61qXT
Py1VDueeqn0xoE2skSAeRkGFPwNF24+YwsK4feHy57hvqMu51n6KKZizs+04pKf8
ncHhY2gAZKXhvwIDAQABo4HLMIHIMB0GA1UdDgQWBBQeyRxFX0akDBAVgnwBI1sh
9K6I2TAfBgNVHSMEGDAWgBSR1yDGHQAhNVN9/lARAt3jQCuaqDA3BggrBgEFBQcB
AQQrMCkwJwYIKwYBBQUHMAKGG2h0dHA6Ly91cmwtZm9yLWFpYS9Sb290LmNlcjAs
BgNVHR8EJTAjMCGgH6AdhhtodHRwOi8vdXJsLWZvci1jcmwvUm9vdC5jcmwwDgYD
VR0PAQH/BAQDAgEGMA8GA1UdEwEB/wQFMAMBAf8wDQYJKoZIhvcNAQELBQADggEB
AEnppl6Cd3fz4sVIGXNOznnnIkB5a4Mln4/DpZqDVaGSmIku/NOFTH8RSv9I826v
0/WC5NIBlBJWMfkeiKSQKsscf87Kq/fWGDoDbudTQOrVAmicTs1jnql7+HeFrAMn
P1EKjdv70Z45WA+ZMd/4MZwZgj1v1ZN/o2A+ZwoK6o/DK0AiiUbqAimuLOBFR15j
SXfWF8Z9H/HWNy3GHeTbnrZkYpnmK1yL1dco/GPM7Kz2RDbN56VjbZsgdBBzNXxo
8ic8ELYMshziR5CMQtxb+Yc6vDLG91V5yUM57CV0DMfk/CdIv+KwEkyEDD+sqH85
jj4cT1VLtJDl5VNJy3XEfs4=
-----END CERTIFICATE-----

Certificate:
    Data:
        Version: 3 (0x2)
        Serial Number: 2 (0x2)
    Signature Algorithm: sha256WithRSAEncryption
        Issuer: CN=ShadowRoot
        Validity
            Not Before: Jan  1 12:00:00 2015 GMT
            Not After : Jan  1 12:00:00 2016 GMT
        Subject: CN=Root
        Subject Public Key Info:
            Public Key Algorithm: rsaEncryption
                Public-Key: (2048 bit)
                Modulus:
                    00:bb:fa:87:39:cb:43:d9:24:e9:2c:54:cd:18:ea:
                    b8:87:ec:2f:d3:57:e3:9c:23:be:94:3c:26:41:db:
                    61:40:b8:ad:07:53:f1:69:c5:b4:2c:6a:ad:de:e5:
                    4a:bd:e3:0f:77:c4:59:fa:ee:d5:3a:1a:93:ca:cd:
                    b1:22:2a:24:42:5a:01:42:e8:57:74:f9:89:56:f8:
                    c1:13:f6:c9:42:9b:45:7b:ff:b7:aa:c1:1f:1b:e8:
                    02:24:12:97:0d:84:b9:62:70:83:93:72:cd:9b:1a:
                    26:27:92:34:46:51:c5:b7:c7:4a:b4:7a:8a:84:98:
                    e2:f7:90:4d:cc:cf:3d:ee:85:91:8d:75:60:38:0c:
                    e5:0b:00:e6:fe:e9:c3:19:64:3f:2d:c8:14:f1:d9:
                    a9:76:05:54:a8:5a:9e:64:56:ed:60:43:c5:98:db:
                    7a:ae:da:2c:56:cb:87:00:6f:3d:83:3b:a3:5c:f5:
                    55:0d:6c:ab:ed:68:c1:b8:1d:a5:d0:77:1d:b7:e6:
                    52:ef:2c:75:3a:98:ec:51:6f:15:5f:64:82:f6:d1:
                    90:bd:ee:01:28:e5:89:0e:01:ee:54:07:1d:0e:7a:
                    f0:82:9c:cc:c1:c5:4a:f6:a9:58:33:c5:cc:a3:86:
                    17:72:19:92:2c:ae:6a:46:a8:a8:25:2a:cf:ba:70:
                    c1:89
                Exponent: 65537 (0x10001)
        X509v3 extensions:
            X509v3 Subject Key Identifier: 
                91:D7:20:C6:1D:00:21:35:53:7D:FE:50:11:02:DD:E3:40:2B:9A:A8
            X509v3 Authority Key Identifier: 
                keyid:85:C5:B6:72:29:30:56:96:1B:80:37:79:29:18:A2:BD:48:F9:9E:4A

            Authority Information Access: 
                CA Issuers - URI:http://url-for-aia/ShadowRoot.cer

            X509v3 CRL Distribution Points: 

                Full Name:
                  URI:http://url-for-crl/ShadowRoot.crl

            X509v3 Key Usage: critical
                Certificate Sign, CRL Sign
            X509v3 Basic Constraints: critical
                CA:TRUE
    Signature Algorithm: sha256WithRSAEncryption
         2a:d9:cc:29:76:55:6c:f9:a8:95:82:27:a6:33:b1:77:30:fb:
         4b:16:5f:29:98:c5:36:6a:b9:7f:e0:4f:8a:f2:7a:28:99:15:
         c3:b8:5a:75:cc:47:c6:c1:f0:20:8b:54:3e:06:fe:ac:28:e5:
         38:0e:5b:b6:f2:31:e1:ca:fc:6e:19:3d:6f:61:76:2b:cd:35:
         a8:86:ac:56:c4:c2:5b:b2:f4:3a:81:99:86:ef:da:fb:33:ac:
         a6:19:e6:0e:92:53:25:1f:5f:b0:17:8e:46:55:56:6f:8e:31:
         f6:2e:52:5b:56:96:e3:99:15:91:8b:dc:2b:5c:a6:91:23:ad:
         a5:85:e2:0f:68:7e:6d:17:47:4b:30:12:82:cb:16:fd:63:58:
         52:c7:a7:5c:b5:a3:f1:b8:8b:09:3c:f1:32:90:1e:5c:2c:15:
         c3:32:cb:27:8d:bc:96:43:5f:5f:32:e1:f9:15:61:ea:d1:7f:
         32:4d:b5:17:44:f8:00:d9:59:ab:d3:0e:5c:02:79:06:a3:27:
         00:40:e0:82:77:4a:78:e1:ff:60:83:d5:aa:a0:86:62:56:f0:
         8c:fa:7f:a2:2b:f3:e5:88:f3:f3:6c:f4:6c:f9:5b:08:90:bb:
         83:f8:12:da:1c:59:63:ad:4a:4d:12:22:d3:e3:69:6e:47:d9:
         67:84:68:78
-----BEGIN CERTIFICATE-----
MIIDdzCCAl+gAwIBAgIBAjANBgkqhkiG9w0BAQsFADAVMRMwEQYDVQQDDApTaGFk
b3dSb290MB4XDTE1MDEwMTEyMDAwMFoXDTE2MDEwMTEyMDAwMFowDzENMAsGA1UE
AwwEUm9vdDCCASIwDQYJKoZIhvcNAQEBBQADggEPADCCAQoCggEBALv6hznLQ9kk
6SxUzRjquIfsL9NX45wjvpQ8JkHbYUC4rQdT8WnFtCxqrd7lSr3jD3fEWfru1Toa
k8rNsSIqJEJaAULoV3T5iVb4wRP2yUKbRXv/t6rBHxvoAiQSlw2EuWJwg5NyzZsa
JieSNEZRxbfHSrR6ioSY4veQTczPPe6FkY11YDgM5QsA5v7pwxlkPy3IFPHZqXYF
VKhanmRW7WBDxZjbeq7aLFbLhwBvPYM7o1z1VQ1sq+1owbgdpdB3HbfmUu8sdTqY
7FFvFV9kgvbRkL3uASjliQ4B7lQHHQ568IKczMHFSvapWDPFzKOGF3IZkiyuakao
qCUqz7pwwYkCAwEAAaOB1zCB1DAdBgNVHQ4EFgQUkdcgxh0AITVTff5QEQLd40Ar
mqgwHwYDVR0jBBgwFoAUhcW2cikwVpYbgDd5KRiivUj5nkowPQYIKwYBBQUHAQEE
MTAvMC0GCCsGAQUFBzAChiFodHRwOi8vdXJsLWZvci1haWEvU2hhZG93Um9vdC5j
ZXIwMgYDVR0fBCswKTAnoCWgI4YhaHR0cDovL3VybC1mb3ItY3JsL1NoYWRvd1Jv
b3QuY3JsMA4GA1UdDwEB/wQEAwIBBjAPBgNVHRMBAf8EBTADAQH/MA0GCSqGSIb3
DQEBCwUAA4IBAQAq2cwpdlVs+aiVgiemM7F3MPtLFl8pmMU2arl/4E+K8noomRXD
uFp1zEfGwfAgi1Q+Bv6sKOU4Dlu28jHhyvxuGT1vYXYrzTWohqxWxMJbsvQ6gZmG
79r7M6ymGeYOklMlH1+wF45GVVZvjjH2LlJbVpbjmRWRi9wrXKaRI62lheIPaH5t
F0dLMBKCyxb9Y1hSx6dctaPxuIsJPPEykB5cLBXDMssnjbyWQ19fMuH5FWHq0X8y
TbUXRPgA2Vmr0w5cAnkGoycAQOCCd0p44f9gg9WqoIZiVvCM+n+iK/PliPPzbPRs
+VsIkLuD+BLaHFljrUpNEiLT42luR9lnhGh4
-----END CERTIFICATE-----
