[Created by: generate-chains.py]

Certificate chain where the target has an incorrect signature. Everything
else should check out, however the digital signature contained in the target
certificate is wrong.

Certificate:
    Data:
        Version: 3 (0x2)
        Serial Number: 1 (0x1)
    Signature Algorithm: sha256WithRSAEncryption
        Issuer: CN=Intermediate
        Validity
            Not Before: Jan  1 12:00:00 2015 GMT
            Not After : Jan  1 12:00:00 2016 GMT
        Subject: CN=Target
        Subject Public Key Info:
            Public Key Algorithm: rsaEncryption
                Public-Key: (2048 bit)
                Modulus:
                    00:a3:10:52:35:1d:ac:4e:a5:23:41:40:b1:1d:66:
                    30:25:bc:dd:a5:62:66:d1:74:db:5f:bd:5d:96:07:
                    08:94:c4:61:a4:e9:07:31:f9:e8:6a:52:f5:8a:3d:
                    1c:6d:00:c8:47:51:30:99:42:8b:27:11:48:e9:c6:
                    de:db:ff:7f:ee:6e:29:cf:48:77:1e:63:11:bc:2a:
                    81:fb:3a:5d:4e:d2:b8:0c:ce:68:6b:61:f2:bf:64:
                    da:aa:3f:06:74:47:77:72:08:d2:a3:c3:35:cf:e5:
                    dd:13:f7:d3:45:21:f5:9c:cf:7e:50:56:53:11:c8:
                    eb:90:f2:a2:eb:8f:9d:c1:07:c4:b8:4b:38:04:3d:
                    7f:be:73:36:3e:5f:c4:7e:37:a7:0c:88:8b:a8:63:
                    79:74:b4:2c:c6:7c:52:61:e1:03:d3:ff:4f:c5:50:
                    63:19:83:eb:f3:89:a3:91:e5:90:ab:80:43:18:3e:
                    c8:77:ac:69:97:cf:2f:5b:be:a9:59:89:99:3a:5d:
                    87:c4:4f:97:4a:60:18:ea:ea:a5:b7:1e:61:57:98:
                    50:55:91:13:34:0d:03:65:a4:f4:bb:63:e6:bb:3e:
                    9f:03:84:f7:e6:63:d0:f3:82:5b:0c:96:b1:32:f2:
                    2f:2a:55:5b:24:a6:b6:33:62:6e:ed:0b:f2:77:f8:
                    f8:f3
                Exponent: 65537 (0x10001)
        X509v3 extensions:
            X509v3 Subject Key Identifier: 
                19:59:39:C0:2B:03:0A:9B:BF:AA:A8:AB:B2:FB:AF:95:88:63:CA:6E
            X509v3 Authority Key Identifier: 
                keyid:CC:47:D8:FF:8B:67:33:FB:F5:CD:D0:A7:B6:12:A0:19:27:27:D1:57

            Authority Information Access: 
                CA Issuers - URI:http://url-for-aia/Intermediate.cer

            X509v3 CRL Distribution Points: 

                Full Name:
                  URI:http://url-for-crl/Intermediate.crl

            X509v3 Key Usage: critical
                Digital Signature, Key Encipherment
            X509v3 Extended Key Usage: 
                TLS Web Server Authentication, TLS Web Client Authentication
    Signature Algorithm: sha256WithRSAEncryption
         6a:6d:db:f5:f0:61:b0:79:d9:bc:e5:fe:d3:c9:94:3e:c8:cf:
         d9:77:0f:57:a0:fb:14:29:04:b0:91:6a:e1:9e:9a:80:7f:5e:
         85:ef:1f:f7:47:32:26:ba:1e:ae:c1:50:b4:81:47:4e:7c:4a:
         eb:f5:ea:b1:2d:af:85:d5:8f:c0:f4:9b:54:ef:2d:52:05:f2:
         69:8a:dc:68:0c:43:fc:32:73:94:57:45:2c:60:02:e8:e0:bf:
         cf:06:96:93:7d:75:b8:18:d6:33:5c:70:cd:5c:07:70:ad:39:
         3d:e0:86:14:06:00:f3:a3:85:8a:0f:08:42:22:87:1b:67:16:
         06:da:ed:6b:ec:12:fd:f2:34:12:e8:27:99:a3:7a:2a:83:a2:
         97:f1:87:9e:fb:86:de:6c:1c:c2:68:71:10:fe:2d:22:ff:fa:
         95:ef:e1:38:04:da:ee:83:dd:ac:17:56:2d:f7:de:46:2f:73:
         4e:50:4c:e6:2c:36:2d:33:21:c0:3c:2b:70:61:f8:f6:68:7e:
         69:a8:b0:8c:00:b2:6d:0f:38:c7:24:9d:ce:88:41:84:31:e5:
         10:eb:5d:b9:61:e1:4c:75:4a:3a:d1:e0:74:5e:ea:68:c2:c5:
         13:8f:19:31:bd:df:4e:99:da:6d:24:3d:cb:c2:cd:ff:0f:c5:
         98:c8:26:78
-----BEGIN CERTIFICATE-----
MIIDjTCCAnWgAwIBAgIBATANBgkqhkiG9w0BAQsFADAXMRUwEwYDVQQDDAxJbnRl
cm1lZGlhdGUwHhcNMTUwMTAxMTIwMDAwWhcNMTYwMTAxMTIwMDAwWjARMQ8wDQYD
VQQDDAZUYXJnZXQwggEiMA0GCSqGSIb3DQEBAQUAA4IBDwAwggEKAoIBAQCjEFI1
HaxOpSNBQLEdZjAlvN2lYmbRdNtfvV2WBwiUxGGk6Qcx+ehqUvWKPRxtAMhHUTCZ
QosnEUjpxt7b/3/ubinPSHceYxG8KoH7Ol1O0rgMzmhrYfK/ZNqqPwZ0R3dyCNKj
wzXP5d0T99NFIfWcz35QVlMRyOuQ8qLrj53BB8S4SzgEPX++czY+X8R+N6cMiIuo
Y3l0tCzGfFJh4QPT/0/FUGMZg+vziaOR5ZCrgEMYPsh3rGmXzy9bvqlZiZk6XYfE
T5dKYBjq6qW3HmFXmFBVkRM0DQNlpPS7Y+a7Pp8DhPfmY9DzglsMlrEy8i8qVVsk
prYzYm7tC/J3+PjzAgMBAAGjgekwgeYwHQYDVR0OBBYEFBlZOcArAwqbv6qoq7L7
r5WIY8puMB8GA1UdIwQYMBaAFMxH2P+LZzP79c3Qp7YSoBknJ9FXMD8GCCsGAQUF
BwEBBDMwMTAvBggrBgEFBQcwAoYjaHR0cDovL3VybC1mb3ItYWlhL0ludGVybWVk
aWF0ZS5jZXIwNAYDVR0fBC0wKzApoCegJYYjaHR0cDovL3VybC1mb3ItY3JsL0lu
dGVybWVkaWF0ZS5jcmwwDgYDVR0PAQH/BAQDAgWgMB0GA1UdJQQWMBQGCCsGAQUF
BwMBBggrBgEFBQcDAjANBgkqhkiG9w0BAQsFAAOCAQEAam3b9fBhsHnZvOX+08mU
PsjP2XcPV6D7FCkEsJFq4Z6agH9ehe8f90cyJroersFQtIFHTnxK6/XqsS2vhdWP
wPSbVO8tUgXyaYrcaAxD/DJzlFdFLGAC6OC/zwaWk311uBjWM1xwzVwHcK05PeCG
FAYA86OFig8IQiKHG2cWBtrta+wS/fI0EugnmaN6KoOil/GHnvuG3mwcwmhxEP4t
Iv/6le/hOATa7oPdrBdWLffeRi9zTlBM5iw2LTMhwDwrcGH49mh+aaiwjACybQ84
xySdzohBhDHlEOtduWHhTHVKOtHgdF7qaMLFE48ZMb3fTpnabSQ9y8LN/w/FmMgm
eA==
-----END CERTIFICATE-----

Certificate:
    Data:
        Version: 3 (0x2)
        Serial Number: 3 (0x3)
    Signature Algorithm: sha256WithRSAEncryption
        Issuer: CN=Root
        Validity
            Not Before: Jan  1 12:00:00 2015 GMT
            Not After : Jan  1 12:00:00 2016 GMT
        Subject: CN=Intermediate
        Subject Public Key Info:
            Public Key Algorithm: rsaEncryption
                Public-Key: (2048 bit)
                Modulus:
                    00:e8:a7:ff:7c:21:83:d4:bd:ed:f4:09:73:79:69:
                    0c:ec:79:18:79:54:2e:a6:87:f3:7b:65:e8:73:6a:
                    a5:af:fd:00:6b:c9:ed:86:50:18:f0:4c:d9:12:17:
                    3a:23:ae:7a:49:3d:71:7c:6e:da:4f:7b:ed:55:73:
                    e8:71:5c:72:13:84:8f:83:aa:30:4f:0a:bc:38:51:
                    75:47:67:c3:6c:5e:e8:af:96:07:4a:0c:f7:5d:c1:
                    82:ea:02:e2:c3:da:57:68:2c:03:1a:a0:d9:51:05:
                    ef:ec:67:cc:fd:c4:09:b4:f7:2f:c7:5a:df:84:7f:
                    15:60:32:9d:17:4e:4b:3c:15:48:a7:42:a1:f5:d4:
                    04:82:bb:cc:18:3a:ab:07:d1:66:82:9b:0d:b0:ef:
                    d8:47:18:71:78:e6:07:47:97:29:24:0c:7a:12:ab:
                    2f:4b:14:ec:35:7a:d2:a3:2a:16:0c:0b:91:5a:e2:
                    f2:64:93:85:1d:e2:27:7e:7e:cd:eb:5f:83:d7:07:
                    0c:06:b8:8f:44:91:0c:37:d8:86:65:23:1a:fe:8f:
                    69:3e:bb:20:bb:ef:1b:18:1b:fd:2f:bf:5b:d3:be:
                    da:2d:9f:9a:57:6b:4b:73:3f:34:04:99:5d:a1:73:
                    b5:08:d1:bb:9a:5c:88:a0:f8:65:1c:e7:7f:f3:95:
                    d0:fd
                Exponent: 65537 (0x10001)
        X509v3 extensions:
            X509v3 Subject Key Identifier: 
                1E:51:BA:4C:14:B3:B7:2B:E2:AE:4C:1C:35:21:7C:DB:92:18:AB:53
            X509v3 Authority Key Identifier: 
                keyid:5B:22:4E:B0:32:77:9B:92:26:9B:3B:E9:76:31:CE:FB:43:87:A3:2A

            Authority Information Access: 
                CA Issuers - URI:http://url-for-aia/Root.cer

            X509v3 CRL Distribution Points: 

                Full Name:
                  URI:http://url-for-crl/Root.crl

            X509v3 Key Usage: critical
                Certificate Sign, CRL Sign
            X509v3 Basic Constraints: critical
                CA:TRUE
    Signature Algorithm: sha256WithRSAEncryption
         7c:79:ca:6b:60:89:76:dc:bb:53:59:83:04:b1:1d:de:f9:4d:
         34:56:88:87:e6:9e:4e:23:bd:92:48:82:f0:7e:63:24:49:75:
         df:2f:10:ca:f4:06:f2:d8:61:51:72:15:54:a5:02:1d:9b:68:
         0a:72:7b:8c:e5:f8:28:b3:75:92:cd:0e:8c:30:ab:c7:a2:00:
         33:fc:e1:be:aa:fc:60:5f:4c:37:51:bf:de:61:1c:78:c7:df:
         6a:e7:58:b5:9f:04:d8:43:13:f7:85:3d:48:a2:c6:fa:32:e7:
         e4:1f:be:7f:13:56:00:7d:77:bc:b0:55:b3:4d:ab:7e:90:a0:
         78:38:9c:7a:fe:4a:ee:cb:9a:72:37:52:18:2f:02:b0:c5:a4:
         91:8d:b3:27:e0:3c:e7:18:b6:33:7a:d0:dd:15:7d:b6:48:15:
         f4:00:64:47:b9:f4:51:ed:dc:b5:70:18:8a:c0:70:5c:56:bd:
         c8:d3:b8:82:a4:15:7a:2c:5b:d4:87:5d:2a:00:a5:30:40:b9:
         68:95:32:44:e7:af:8b:76:88:95:f7:92:5a:df:a6:73:50:a1:
         29:07:bb:d8:d9:0c:09:2c:70:18:2c:38:4c:48:f7:ef:e8:50:
         55:d8:2a:f5:0d:86:4c:b4:d0:5b:e9:28:2e:ca:32:27:3e:b4:
         b5:00:68:d2
-----BEGIN CERTIFICATE-----
MIIDbTCCAlWgAwIBAgIBAzANBgkqhkiG9w0BAQsFADAPMQ0wCwYDVQQDDARSb290
MB4XDTE1MDEwMTEyMDAwMFoXDTE2MDEwMTEyMDAwMFowFzEVMBMGA1UEAwwMSW50
ZXJtZWRpYXRlMIIBIjANBgkqhkiG9w0BAQEFAAOCAQ8AMIIBCgKCAQEA6Kf/fCGD
1L3t9AlzeWkM7HkYeVQupofze2Xoc2qlr/0Aa8nthlAY8EzZEhc6I656ST1xfG7a
T3vtVXPocVxyE4SPg6owTwq8OFF1R2fDbF7or5YHSgz3XcGC6gLiw9pXaCwDGqDZ
UQXv7GfM/cQJtPcvx1rfhH8VYDKdF05LPBVIp0Kh9dQEgrvMGDqrB9FmgpsNsO/Y
RxhxeOYHR5cpJAx6EqsvSxTsNXrSoyoWDAuRWuLyZJOFHeInfn7N61+D1wcMBriP
RJEMN9iGZSMa/o9pPrsgu+8bGBv9L79b077aLZ+aV2tLcz80BJldoXO1CNG7mlyI
oPhlHOd/85XQ/QIDAQABo4HLMIHIMB0GA1UdDgQWBBQeUbpMFLO3K+KuTBw1IXzb
khirUzAfBgNVHSMEGDAWgBRbIk6wMnebkiabO+l2Mc77Q4ejKjA3BggrBgEFBQcB
AQQrMCkwJwYIKwYBBQUHMAKGG2h0dHA6Ly91cmwtZm9yLWFpYS9Sb290LmNlcjAs
BgNVHR8EJTAjMCGgH6AdhhtodHRwOi8vdXJsLWZvci1jcmwvUm9vdC5jcmwwDgYD
VR0PAQH/BAQDAgEGMA8GA1UdEwEB/wQFMAMBAf8wDQYJKoZIhvcNAQELBQADggEB
AHx5ymtgiXbcu1NZgwSxHd75TTRWiIfmnk4jvZJIgvB+YyRJdd8vEMr0BvLYYVFy
FVSlAh2baApye4zl+CizdZLNDowwq8eiADP84b6q/GBfTDdRv95hHHjH32rnWLWf
BNhDE/eFPUiixvoy5+Qfvn8TVgB9d7ywVbNNq36QoHg4nHr+Su7LmnI3UhgvArDF
pJGNsyfgPOcYtjN60N0VfbZIFfQAZEe59FHt3LVwGIrAcFxWvcjTuIKkFXosW9SH
XSoApTBAuWiVMkTnr4t2iJX3klrfpnNQoSkHu9jZDAkscBgsOExI9+/oUFXYKvUN
hky00FvpKC7KMic+tLUAaNI=
-----END CERTIFICATE-----

Certificate:
    Data:
        Version: 3 (0x2)
        Serial Number: 1 (0x1)
    Signature Algorithm: sha256WithRSAEncryption
        Issuer: CN=Root
        Validity
            Not Before: Jan  1 12:00:00 2015 GMT
            Not After : Jan  1 12:00:00 2016 GMT
        Subject: CN=Root
        Subject Public Key Info:
            Public Key Algorithm: rsaEncryption
                Public-Key: (2048 bit)
                Modulus:
                    00:df:f9:b3:49:5f:c8:1f:a6:a5:bc:9e:5d:08:17:
                    7e:a5:87:b6:d2:53:a6:c2:ce:73:29:cb:f4:35:07:
                    26:c5:b0:ef:87:ca:a0:64:db:7f:e4:2c:05:da:81:
                    8e:98:b8:80:d2:f1:c3:e5:d6:6c:1a:ac:90:8f:f0:
                    4d:43:fd:09:f4:eb:17:fa:c4:cb:da:2a:56:7e:b6:
                    d2:ce:6d:5f:d5:ec:01:67:af:02:3a:d6:18:a2:61:
                    43:f6:ff:45:10:c4:8e:c1:15:1b:a0:88:77:45:82:
                    39:10:f8:d7:2c:26:13:df:20:62:0f:9a:5d:69:d1:
                    ae:4e:c2:28:30:0c:dd:d5:6e:8e:23:d0:45:f3:4f:
                    2c:9a:f6:f7:d4:fd:b8:6e:28:32:74:57:94:5d:f8:
                    3f:51:ef:11:21:09:27:3c:05:46:86:78:63:f6:c5:
                    0d:7c:28:e5:b7:1a:66:f4:91:59:f2:91:16:a2:7b:
                    0a:34:e7:30:78:72:73:10:dc:b7:60:cd:d3:ea:8b:
                    09:0e:7c:9c:01:f9:f5:d8:ce:35:86:8f:60:e4:00:
                    38:98:81:ac:36:1a:25:7e:c6:59:bd:79:53:5b:83:
                    f0:72:50:78:a2:3f:53:45:fc:64:56:40:ed:64:5d:
                    7d:df:62:4f:a0:01:25:19:59:9f:84:e6:c7:21:04:
                    b8:2f
                Exponent: 65537 (0x10001)
        X509v3 extensions:
            X509v3 Subject Key Identifier: 
                5B:22:4E:B0:32:77:9B:92:26:9B:3B:E9:76:31:CE:FB:43:87:A3:2A
            X509v3 Authority Key Identifier: 
                keyid:5B:22:4E:B0:32:77:9B:92:26:9B:3B:E9:76:31:CE:FB:43:87:A3:2A

            Authority Information Access: 
                CA Issuers - URI:http://url-for-aia/Root.cer

            X509v3 CRL Distribution Points: 

                Full Name:
                  URI:http://url-for-crl/Root.crl

            X509v3 Key Usage: critical
                Certificate Sign, CRL Sign
            X509v3 Basic Constraints: critical
                CA:TRUE
    Signature Algorithm: sha256WithRSAEncryption
         51:7e:2e:dd:d2:0b:3c:89:5d:8c:cd:9c:91:05:00:74:ad:90:
         a5:a6:d6:c0:ba:b9:82:d8:4f:d2:bf:1c:53:36:9d:aa:0e:2b:
         bc:99:b9:d4:54:ed:1a:90:29:d6:8d:d9:02:f6:87:dc:ec:92:
         67:4d:34:db:6d:a8:57:f6:4f:d6:5e:2c:08:f6:ac:06:55:ff:
         c8:5b:5c:af:85:ee:28:53:86:c3:39:33:b9:2b:5e:0d:70:bd:
         01:6f:cf:79:19:e2:08:79:43:f0:af:00:f5:b6:a1:a3:6a:a3:
         0a:a9:b8:87:77:7c:7b:a2:f5:17:40:52:1f:10:f9:13:bc:94:
         c7:9b:70:dc:dc:71:ec:24:5b:d3:5f:b8:d8:66:44:89:18:48:
         4f:80:4d:61:5e:8a:42:6b:03:69:17:0f:4d:cf:6e:7c:9a:ce:
         7b:e3:06:70:7b:4d:17:37:46:54:43:15:4c:f1:99:95:4d:5c:
         d1:57:96:11:56:7b:b3:6b:f1:ae:73:98:8a:f4:e9:5f:e9:00:
         e3:87:01:82:3d:96:0f:41:0a:59:8a:bf:e4:79:78:28:bb:73:
         52:cd:91:0c:78:59:15:85:64:46:90:21:a2:f5:81:cc:34:b1:
         fc:6f:12:51:9f:be:c1:f0:62:84:4e:e6:35:39:61:44:cb:53:
         7e:eb:28:9b
-----BEGIN CERTIFICATE-----
MIIDZTCCAk2gAwIBAgIBATANBgkqhkiG9w0BAQsFADAPMQ0wCwYDVQQDDARSb290
MB4XDTE1MDEwMTEyMDAwMFoXDTE2MDEwMTEyMDAwMFowDzENMAsGA1UEAwwEUm9v
dDCCASIwDQYJKoZIhvcNAQEBBQADggEPADCCAQoCggEBAN/5s0lfyB+mpbyeXQgX
fqWHttJTpsLOcynL9DUHJsWw74fKoGTbf+QsBdqBjpi4gNLxw+XWbBqskI/wTUP9
CfTrF/rEy9oqVn620s5tX9XsAWevAjrWGKJhQ/b/RRDEjsEVG6CId0WCORD41ywm
E98gYg+aXWnRrk7CKDAM3dVujiPQRfNPLJr299T9uG4oMnRXlF34P1HvESEJJzwF
RoZ4Y/bFDXwo5bcaZvSRWfKRFqJ7CjTnMHhycxDct2DN0+qLCQ58nAH59djONYaP
YOQAOJiBrDYaJX7GWb15U1uD8HJQeKI/U0X8ZFZA7WRdfd9iT6ABJRlZn4TmxyEE
uC8CAwEAAaOByzCByDAdBgNVHQ4EFgQUWyJOsDJ3m5ImmzvpdjHO+0OHoyowHwYD
VR0jBBgwFoAUWyJOsDJ3m5ImmzvpdjHO+0OHoyowNwYIKwYBBQUHAQEEKzApMCcG
CCsGAQUFBzAChhtodHRwOi8vdXJsLWZvci1haWEvUm9vdC5jZXIwLAYDVR0fBCUw
IzAhoB+gHYYbaHR0cDovL3VybC1mb3ItY3JsL1Jvb3QuY3JsMA4GA1UdDwEB/wQE
AwIBBjAPBgNVHRMBAf8EBTADAQH/MA0GCSqGSIb3DQEBCwUAA4IBAQBRfi7d0gs8
iV2MzZyRBQB0rZClptbAurmC2E/SvxxTNp2qDiu8mbnUVO0akCnWjdkC9ofc7JJn
TTTbbahX9k/WXiwI9qwGVf/IW1yvhe4oU4bDOTO5K14NcL0Bb895GeIIeUPwrwD1
tqGjaqMKqbiHd3x7ovUXQFIfEPkTvJTHm3Dc3HHsJFvTX7jYZkSJGEhPgE1hXopC
awNpFw9Nz258ms574wZwe00XN0ZUQxVM8ZmVTVzRV5YRVnuza/Guc5iK9Olf6QDj
hwGCPZYPQQpZir/keXgou3NSzZEMeFkVhWRGkCGi9YHMNLH8bxJRn77B8GKETuY1
OWFEy1N+6yib
-----END CERTIFICATE-----
