[Created by: generate-chains.py]

Certificate chain with an intermediate that uses MD5 to sign the target
certificate. This is expected to fail because MD5 is too weak.

Certificate:
    Data:
        Version: 3 (0x2)
        Serial Number: 1 (0x1)
    Signature Algorithm: md5WithRSAEncryption
        Issuer: CN=Intermediate
        Validity
            Not Before: Jan  1 12:00:00 2015 GMT
            Not After : Jan  1 12:00:00 2016 GMT
        Subject: CN=Target
        Subject Public Key Info:
            Public Key Algorithm: rsaEncryption
                Public-Key: (2048 bit)
                Modulus:
                    00:a7:b8:bc:92:74:b1:bc:8f:5b:d5:3c:81:a6:8f:
                    d2:bf:7e:b8:f6:cd:49:5b:fd:18:ee:07:5c:32:cf:
                    f1:7f:51:06:98:53:91:16:4e:c0:2c:34:16:b8:12:
                    9d:10:5d:72:42:ec:00:e9:6b:4a:fb:17:bf:3a:35:
                    f9:a7:f5:50:df:80:bf:d9:6a:3d:74:93:4b:ce:13:
                    5f:57:3c:a1:60:55:10:e9:32:0f:84:ce:c2:d7:51:
                    be:16:b1:54:3f:86:5b:9e:9c:ec:5e:10:87:10:08:
                    ac:78:ee:da:97:5a:af:52:84:de:8d:2d:e4:91:30:
                    09:a1:e7:2b:8b:8b:b8:70:a0:43:0f:db:15:48:a5:
                    c2:94:af:f9:82:e4:86:57:d3:1c:e8:0c:71:11:06:
                    fe:f5:5e:ad:a6:26:d3:51:0b:f2:f0:5c:99:05:fe:
                    51:a1:d7:4a:e6:7f:f3:54:eb:82:07:f9:3a:83:bb:
                    c4:b5:41:07:df:76:95:9a:ed:04:34:4a:1f:bd:91:
                    19:78:6b:e0:24:4c:cc:ad:21:80:61:20:03:96:1c:
                    e8:d8:ca:e9:bc:ee:5f:93:eb:f8:48:ee:93:01:eb:
                    c3:a4:83:6b:3d:03:0e:fa:a7:aa:22:4d:66:40:8b:
                    ff:e4:9e:39:4f:b1:13:1f:ee:cd:70:21:10:26:96:
                    9b:03
                Exponent: 65537 (0x10001)
        X509v3 extensions:
            X509v3 Subject Key Identifier: 
                BF:EB:3A:84:42:B2:07:20:64:80:5F:29:BC:F8:61:4A:F6:05:54:0D
            X509v3 Authority Key Identifier: 
                keyid:EE:50:7B:40:71:90:A0:CE:F2:A3:28:0D:EC:1C:F2:D9:7E:A8:F3:0E

            Authority Information Access: 
                CA Issuers - URI:http://url-for-aia/Intermediate.cer

            X509v3 CRL Distribution Points: 

                Full Name:
                  URI:http://url-for-crl/Intermediate.crl

            X509v3 Key Usage: critical
                Digital Signature, Key Encipherment
            X509v3 Extended Key Usage: 
                TLS Web Server Authentication, TLS Web Client Authentication
    Signature Algorithm: md5WithRSAEncryption
         11:ba:a0:e8:b0:df:df:68:dc:c3:1e:39:5a:7a:fb:12:f1:65:
         68:bc:0d:b2:32:5e:79:6e:64:6f:9a:78:a1:89:04:d9:fa:cf:
         04:38:b6:dd:03:1a:25:ba:dd:68:34:bf:d3:20:4e:a4:4b:8b:
         82:87:97:27:c7:79:7d:a6:3c:ac:c1:7b:fa:60:e0:49:25:6f:
         93:dd:22:4c:36:e1:65:f6:d4:d9:dd:51:fc:3e:14:79:1d:e4:
         a2:52:55:fc:c0:51:48:75:ff:cd:f4:9d:25:75:be:d8:9d:5d:
         c6:ce:dc:60:b1:c2:6f:1d:37:26:e7:e3:d3:9a:c6:37:73:5a:
         0f:32:7e:9a:14:d9:e5:b2:3e:61:89:8a:22:e0:eb:fd:cb:95:
         55:27:62:6a:82:bc:42:c5:d0:7d:5c:d9:56:05:15:26:4a:87:
         f7:49:4b:57:f1:6f:ae:80:aa:e0:a6:4d:57:4c:53:a2:0c:66:
         a4:19:2c:d2:bc:5b:bf:8a:fb:07:5d:f0:1a:5b:47:45:c0:6d:
         97:ee:4b:69:f7:ab:b2:7c:4c:6a:a7:b1:c8:3a:37:90:91:f2:
         3d:42:48:41:40:b8:19:6d:a1:cf:4a:16:8f:c5:8a:6b:58:d9:
         bd:fc:cd:23:29:aa:7b:a3:5e:8d:69:15:c6:6b:c2:fa:c0:78:
         ba:31:21:56
-----BEGIN CERTIFICATE-----
MIIDjTCCAnWgAwIBAgIBATANBgkqhkiG9w0BAQQFADAXMRUwEwYDVQQDDAxJbnRl
cm1lZGlhdGUwHhcNMTUwMTAxMTIwMDAwWhcNMTYwMTAxMTIwMDAwWjARMQ8wDQYD
VQQDDAZUYXJnZXQwggEiMA0GCSqGSIb3DQEBAQUAA4IBDwAwggEKAoIBAQCnuLyS
dLG8j1vVPIGmj9K/frj2zUlb/RjuB1wyz/F/UQaYU5EWTsAsNBa4Ep0QXXJC7ADp
a0r7F786Nfmn9VDfgL/Zaj10k0vOE19XPKFgVRDpMg+EzsLXUb4WsVQ/hluenOxe
EIcQCKx47tqXWq9ShN6NLeSRMAmh5yuLi7hwoEMP2xVIpcKUr/mC5IZX0xzoDHER
Bv71Xq2mJtNRC/LwXJkF/lGh10rmf/NU64IH+TqDu8S1QQffdpWa7QQ0Sh+9kRl4
a+AkTMytIYBhIAOWHOjYyum87l+T6/hI7pMB68Okg2s9Aw76p6oiTWZAi//knjlP
sRMf7s1wIRAmlpsDAgMBAAGjgekwgeYwHQYDVR0OBBYEFL/rOoRCsgcgZIBfKbz4
YUr2BVQNMB8GA1UdIwQYMBaAFO5Qe0BxkKDO8qMoDewc8tl+qPMOMD8GCCsGAQUF
BwEBBDMwMTAvBggrBgEFBQcwAoYjaHR0cDovL3VybC1mb3ItYWlhL0ludGVybWVk
aWF0ZS5jZXIwNAYDVR0fBC0wKzApoCegJYYjaHR0cDovL3VybC1mb3ItY3JsL0lu
dGVybWVkaWF0ZS5jcmwwDgYDVR0PAQH/BAQDAgWgMB0GA1UdJQQWMBQGCCsGAQUF
BwMBBggrBgEFBQcDAjANBgkqhkiG9w0BAQQFAAOCAQEAEbqg6LDf32jcwx45Wnr7
EvFlaLwNsjJeeW5kb5p4oYkE2frPBDi23QMaJbrdaDS/0yBOpEuLgoeXJ8d5faY8
rMF7+mDgSSVvk90iTDbhZfbU2d1R/D4UeR3kolJV/MBRSHX/zfSdJXW+2J1dxs7c
YLHCbx03Jufj05rGN3NaDzJ+mhTZ5bI+YYmKIuDr/cuVVSdiaoK8QsXQfVzZVgUV
JkqH90lLV/FvroCq4KZNV0xTogxmpBks0rxbv4r7B13wGltHRcBtl+5LafersnxM
aqexyDo3kJHyPUJIQUC4GW2hz0oWj8WKa1jZvfzNIymqe6NejWkVxmvC+sB4ujEh
Vg==
-----END CERTIFICATE-----

Certificate:
    Data:
        Version: 3 (0x2)
        Serial Number: 2 (0x2)
    Signature Algorithm: sha256WithRSAEncryption
        Issuer: CN=Root
        Validity
            Not Before: Jan  1 12:00:00 2015 GMT
            Not After : Jan  1 12:00:00 2016 GMT
        Subject: CN=Intermediate
        Subject Public Key Info:
            Public Key Algorithm: rsaEncryption
                Public-Key: (2048 bit)
                Modulus:
                    00:d9:cf:a3:72:11:43:a1:d1:78:59:5e:27:cb:ee:
                    f6:2e:52:4e:9d:79:d1:c4:1e:bd:bb:e9:d4:cb:5e:
                    95:9f:ba:0c:7c:aa:b3:1b:97:57:82:a9:6c:f1:e6:
                    89:4b:37:fc:68:8c:93:2b:c8:35:58:e4:f5:6a:c9:
                    9d:cc:a3:3f:25:98:a3:6f:81:6c:97:67:30:b8:7a:
                    ab:47:42:6a:7c:93:a1:c9:1d:3e:b9:02:fb:1c:71:
                    40:2d:9a:a3:46:35:5c:4e:db:a9:2d:9a:09:d6:d1:
                    9d:7c:99:93:a9:fd:25:98:90:ba:84:a7:74:bf:4f:
                    9a:8e:5b:a2:2e:6b:5d:23:c4:77:42:77:0b:8a:f4:
                    e1:55:21:66:18:43:a7:a6:08:41:99:42:cc:f3:1c:
                    90:93:21:12:5d:67:1d:af:fd:f0:f6:c1:ce:26:83:
                    85:02:6e:dc:ca:9a:d4:81:55:19:9c:57:a0:56:17:
                    4c:a7:1a:7b:f0:89:cf:9a:fd:27:56:9b:b6:24:00:
                    a4:8a:1b:82:5a:39:fc:3a:d1:e9:ae:03:0d:aa:8d:
                    95:c4:31:50:18:b5:0b:c5:4f:95:85:00:1d:de:e4:
                    d4:1f:fa:c3:90:12:47:d4:60:75:ca:5a:1b:37:22:
                    5a:21:14:21:89:8a:07:1b:10:5d:9f:35:b5:50:3f:
                    d2:29
                Exponent: 65537 (0x10001)
        X509v3 extensions:
            X509v3 Subject Key Identifier: 
                EE:50:7B:40:71:90:A0:CE:F2:A3:28:0D:EC:1C:F2:D9:7E:A8:F3:0E
            X509v3 Authority Key Identifier: 
                keyid:92:8E:AB:BC:5A:AD:A6:C8:EA:A3:7B:A6:23:5B:F4:4F:B0:FA:60:FA

            Authority Information Access: 
                CA Issuers - URI:http://url-for-aia/Root.cer

            X509v3 CRL Distribution Points: 

                Full Name:
                  URI:http://url-for-crl/Root.crl

            X509v3 Key Usage: critical
                Certificate Sign, CRL Sign
            X509v3 Basic Constraints: critical
                CA:TRUE
    Signature Algorithm: sha256WithRSAEncryption
         c4:f9:ff:10:68:6d:bd:80:a2:31:26:12:4e:0c:7d:32:35:a3:
         8f:98:b3:a0:dd:18:57:b3:4a:9e:8e:40:e9:59:20:e0:9b:4f:
         4c:52:65:9c:21:8e:e8:46:d9:05:eb:c3:f5:4b:24:45:02:f2:
         79:f0:15:25:11:e5:de:e0:b4:05:29:52:5d:cf:d8:1f:f7:49:
         ea:8b:76:6f:44:f2:91:d1:67:de:1f:44:26:59:c6:9b:c8:34:
         3b:2e:81:3e:dd:9e:25:df:fd:72:19:d9:f4:ad:17:a3:6a:2a:
         94:9c:4b:64:2a:75:1e:7c:ce:75:b0:ea:0c:0e:b0:fa:be:ea:
         3f:fa:e4:49:ee:58:90:26:9e:b2:bc:f8:8a:4c:a3:f5:08:1a:
         e6:b5:50:10:7e:7d:30:b6:87:5c:c6:6b:e2:f4:7f:b2:58:a4:
         b7:ea:fe:90:29:16:cc:8e:f3:f3:d7:4c:56:f6:a1:c2:2b:8d:
         7e:3e:d5:e2:2b:42:ae:6b:fa:9a:cc:bf:ab:5d:87:17:4f:7a:
         5c:4e:b7:27:1d:44:85:fb:82:5d:09:d7:ae:49:67:2f:03:41:
         f4:64:c4:f3:66:18:fe:46:c3:89:49:be:c8:99:9c:93:eb:ba:
         59:d4:92:52:4d:5f:3b:d3:14:a1:4b:5a:ea:5f:8b:78:12:be:
         52:c2:b9:6b
-----BEGIN CERTIFICATE-----
MIIDbTCCAlWgAwIBAgIBAjANBgkqhkiG9w0BAQsFADAPMQ0wCwYDVQQDDARSb290
MB4XDTE1MDEwMTEyMDAwMFoXDTE2MDEwMTEyMDAwMFowFzEVMBMGA1UEAwwMSW50
ZXJtZWRpYXRlMIIBIjANBgkqhkiG9w0BAQEFAAOCAQ8AMIIBCgKCAQEA2c+jchFD
odF4WV4ny+72LlJOnXnRxB69u+nUy16Vn7oMfKqzG5dXgqls8eaJSzf8aIyTK8g1
WOT1asmdzKM/JZijb4Fsl2cwuHqrR0JqfJOhyR0+uQL7HHFALZqjRjVcTtupLZoJ
1tGdfJmTqf0lmJC6hKd0v0+ajluiLmtdI8R3QncLivThVSFmGEOnpghBmULM8xyQ
kyESXWcdr/3w9sHOJoOFAm7cyprUgVUZnFegVhdMpxp78InPmv0nVpu2JACkihuC
Wjn8OtHprgMNqo2VxDFQGLULxU+VhQAd3uTUH/rDkBJH1GB1ylobNyJaIRQhiYoH
GxBdnzW1UD/SKQIDAQABo4HLMIHIMB0GA1UdDgQWBBTuUHtAcZCgzvKjKA3sHPLZ
fqjzDjAfBgNVHSMEGDAWgBSSjqu8Wq2myOqje6YjW/RPsPpg+jA3BggrBgEFBQcB
AQQrMCkwJwYIKwYBBQUHMAKGG2h0dHA6Ly91cmwtZm9yLWFpYS9Sb290LmNlcjAs
BgNVHR8EJTAjMCGgH6AdhhtodHRwOi8vdXJsLWZvci1jcmwvUm9vdC5jcmwwDgYD
VR0PAQH/BAQDAgEGMA8GA1UdEwEB/wQFMAMBAf8wDQYJKoZIhvcNAQELBQADggEB
AMT5/xBobb2AojEmEk4MfTI1o4+Ys6DdGFezSp6OQOlZIOCbT0xSZZwhjuhG2QXr
w/VLJEUC8nnwFSUR5d7gtAUpUl3P2B/3SeqLdm9E8pHRZ94fRCZZxpvINDsugT7d
niXf/XIZ2fStF6NqKpScS2QqdR58znWw6gwOsPq+6j/65EnuWJAmnrK8+IpMo/UI
Gua1UBB+fTC2h1zGa+L0f7JYpLfq/pApFsyO8/PXTFb2ocIrjX4+1eIrQq5r+prM
v6tdhxdPelxOtycdRIX7gl0J165JZy8DQfRkxPNmGP5Gw4lJvsiZnJPrulnUklJN
XzvTFKFLWupfi3gSvlLCuWs=
-----END CERTIFICATE-----

Certificate:
    Data:
        Version: 3 (0x2)
        Serial Number: 1 (0x1)
    Signature Algorithm: sha256WithRSAEncryption
        Issuer: CN=Root
        Validity
            Not Before: Jan  1 12:00:00 2015 GMT
            Not After : Jan  1 12:00:00 2016 GMT
        Subject: CN=Root
        Subject Public Key Info:
            Public Key Algorithm: rsaEncryption
                Public-Key: (2048 bit)
                Modulus:
                    00:f6:22:a8:ce:1d:94:88:97:b9:e7:e7:ab:56:da:
                    1c:7c:06:27:7b:06:ac:a5:75:b0:b8:8b:44:d9:8f:
                    07:38:8f:c8:15:46:49:46:c7:33:07:74:fa:4c:30:
                    a7:e6:48:eb:5c:03:14:0b:da:f9:66:be:0b:f4:04:
                    e2:d6:d8:79:cf:3c:0c:1d:61:27:4e:8e:0e:21:4f:
                    b6:2b:e0:bf:dd:67:0d:31:7b:38:36:8c:89:f0:50:
                    2c:35:f0:a6:1f:46:85:f2:78:59:2e:e0:f0:a3:a5:
                    d7:d5:25:a9:6e:d3:6e:6f:80:57:64:a0:c0:d3:75:
                    94:62:72:99:1f:a3:df:6e:b9:e3:39:6b:d3:94:83:
                    db:99:91:fa:d3:98:e2:c0:e3:66:71:1c:ff:ee:40:
                    14:75:eb:47:79:21:01:b5:60:86:81:1e:40:c7:e6:
                    b8:48:95:2c:07:50:49:40:65:9f:c4:91:6c:00:ee:
                    cc:98:1e:c5:d2:ef:fe:09:74:f2:b8:d9:91:48:01:
                    48:27:d9:50:b5:4f:44:e8:f3:fa:03:12:08:a5:fa:
                    b9:55:b1:45:59:76:87:c9:d4:c4:d7:65:ad:b4:c5:
                    82:79:ea:f0:b7:5c:75:18:4d:33:4c:bc:f6:05:e8:
                    22:30:6b:5b:d8:2a:14:2a:6a:11:7c:48:6a:7c:0e:
                    e7:e9
                Exponent: 65537 (0x10001)
        X509v3 extensions:
            X509v3 Subject Key Identifier: 
                92:8E:AB:BC:5A:AD:A6:C8:EA:A3:7B:A6:23:5B:F4:4F:B0:FA:60:FA
            X509v3 Authority Key Identifier: 
                keyid:92:8E:AB:BC:5A:AD:A6:C8:EA:A3:7B:A6:23:5B:F4:4F:B0:FA:60:FA

            Authority Information Access: 
                CA Issuers - URI:http://url-for-aia/Root.cer

            X509v3 CRL Distribution Points: 

                Full Name:
                  URI:http://url-for-crl/Root.crl

            X509v3 Key Usage: critical
                Certificate Sign, CRL Sign
            X509v3 Basic Constraints: critical
                CA:TRUE
    Signature Algorithm: sha256WithRSAEncryption
         3c:8a:43:74:66:4d:ed:71:d0:df:58:60:b9:2a:5a:04:b7:a7:
         5a:e6:06:68:a8:ca:1e:58:62:b1:c4:71:ca:6c:87:2d:c4:2a:
         66:82:46:af:ee:7a:70:24:44:73:a1:20:cd:ae:17:fe:85:45:
         4f:da:15:17:b8:3a:b8:6f:e5:4e:b1:c0:40:09:c7:fc:79:9d:
         e1:dc:23:75:6e:89:81:f9:ec:14:e1:e7:7f:79:f2:cd:88:eb:
         79:ca:c1:16:c1:8b:cd:40:bc:c3:98:72:11:7f:90:23:61:1e:
         d2:f0:ed:10:95:3e:8d:85:17:be:b3:e1:02:68:68:41:56:0f:
         57:7e:1d:8c:96:3b:c6:57:fd:f3:73:3a:19:70:82:1e:b2:07:
         a9:a3:c8:dd:49:5b:17:10:ce:f9:cb:aa:0f:e8:47:e3:ba:9d:
         d1:81:d6:71:e2:74:f9:36:cf:45:62:93:f0:02:ef:a0:43:47:
         fb:03:32:6b:53:63:0c:fe:05:3b:7b:00:0a:02:c1:df:cc:15:
         16:4c:0e:13:26:1b:85:da:ed:cf:14:e2:ad:ca:82:9f:5b:a0:
         e0:3d:95:b7:f9:30:0a:fe:e8:0b:06:2d:26:31:21:05:b0:8a:
         d4:27:fb:24:3d:7b:a7:fb:e6:0f:a5:c2:a8:ec:fd:65:76:86:
         4d:ef:24:0a
-----BEGIN CERTIFICATE-----
MIIDZTCCAk2gAwIBAgIBATANBgkqhkiG9w0BAQsFADAPMQ0wCwYDVQQDDARSb290
MB4XDTE1MDEwMTEyMDAwMFoXDTE2MDEwMTEyMDAwMFowDzENMAsGA1UEAwwEUm9v
dDCCASIwDQYJKoZIhvcNAQEBBQADggEPADCCAQoCggEBAPYiqM4dlIiXuefnq1ba
HHwGJ3sGrKV1sLiLRNmPBziPyBVGSUbHMwd0+kwwp+ZI61wDFAva+Wa+C/QE4tbY
ec88DB1hJ06ODiFPtivgv91nDTF7ODaMifBQLDXwph9GhfJ4WS7g8KOl19UlqW7T
bm+AV2SgwNN1lGJymR+j32654zlr05SD25mR+tOY4sDjZnEc/+5AFHXrR3khAbVg
hoEeQMfmuEiVLAdQSUBln8SRbADuzJgexdLv/gl08rjZkUgBSCfZULVPROjz+gMS
CKX6uVWxRVl2h8nUxNdlrbTFgnnq8LdcdRhNM0y89gXoIjBrW9gqFCpqEXxIanwO
5+kCAwEAAaOByzCByDAdBgNVHQ4EFgQUko6rvFqtpsjqo3umI1v0T7D6YPowHwYD
VR0jBBgwFoAUko6rvFqtpsjqo3umI1v0T7D6YPowNwYIKwYBBQUHAQEEKzApMCcG
CCsGAQUFBzAChhtodHRwOi8vdXJsLWZvci1haWEvUm9vdC5jZXIwLAYDVR0fBCUw
IzAhoB+gHYYbaHR0cDovL3VybC1mb3ItY3JsL1Jvb3QuY3JsMA4GA1UdDwEB/wQE
AwIBBjAPBgNVHRMBAf8EBTADAQH/MA0GCSqGSIb3DQEBCwUAA4IBAQA8ikN0Zk3t
cdDfWGC5KloEt6da5gZoqMoeWGKxxHHKbIctxCpmgkav7npwJERzoSDNrhf+hUVP
2hUXuDq4b+VOscBACcf8eZ3h3CN1bomB+ewU4ed/efLNiOt5ysEWwYvNQLzDmHIR
f5AjYR7S8O0QlT6NhRe+s+ECaGhBVg9Xfh2MljvGV/3zczoZcIIesgepo8jdSVsX
EM75y6oP6Efjup3RgdZx4nT5Ns9FYpPwAu+gQ0f7AzJrU2MM/gU7ewAKAsHfzBUW
TA4TJhuF2u3PFOKtyoKfW6DgPZW3+TAK/ugLBi0mMSEFsIrUJ/skPXun++YPpcKo
7P1ldoZN7yQK
-----END CERTIFICATE-----
