[Created by: generate-chains.py]

Certificate chain with 1 intermediate, a trusted root, and a target
certificate for serverAuth that has only keyEncipherment.

Certificate:
    Data:
        Version: 3 (0x2)
        Serial Number: 1 (0x1)
    Signature Algorithm: sha256WithRSAEncryption
        Issuer: CN=Intermediate
        Validity
            Not Before: Jan  1 12:00:00 2015 GMT
            Not After : Jan  1 12:00:00 2016 GMT
        Subject: CN=Target
        Subject Public Key Info:
            Public Key Algorithm: rsaEncryption
                Public-Key: (2048 bit)
                Modulus:
                    00:be:70:8e:8b:b3:94:90:81:27:a9:43:8b:04:f8:
                    e8:ab:93:a6:49:b7:a3:ee:b8:7f:3f:0c:74:c5:88:
                    08:51:62:de:3e:d9:2b:37:e8:8b:e4:6c:a5:1a:90:
                    be:9a:55:fc:9f:d8:e7:d5:9a:97:58:f1:e6:a3:47:
                    99:f7:f8:73:eb:58:dd:be:0f:52:b9:39:a7:3f:35:
                    27:ba:be:93:b0:d1:ff:51:88:04:f4:96:a2:e1:9a:
                    19:e0:ef:e0:22:86:0e:be:cb:74:4d:be:aa:37:43:
                    e0:40:47:bf:3b:f2:4d:b7:25:ff:e1:56:be:5a:65:
                    51:27:e2:19:a6:7c:cd:8f:d6:ae:9c:a2:f3:b0:89:
                    fa:36:ae:ac:52:17:2c:98:e4:e2:4a:75:3e:86:53:
                    ee:39:fb:ba:2b:7f:94:17:26:44:aa:17:44:0f:30:
                    5a:d1:02:c0:ce:72:cf:9a:21:3a:65:06:f9:e1:63:
                    45:b0:a8:60:84:33:70:63:a6:96:fe:2c:a6:38:80:
                    d3:c8:6c:99:f6:ea:17:cb:a1:fe:dc:ef:ee:aa:15:
                    d2:ed:9f:87:93:39:60:ae:f1:aa:bb:82:fe:61:c9:
                    4f:46:98:2a:68:fe:76:d8:b8:c9:c3:79:5e:3c:95:
                    c4:3e:46:ae:e8:16:7b:4e:f1:16:94:27:f3:62:d2:
                    20:5d
                Exponent: 65537 (0x10001)
        X509v3 extensions:
            X509v3 Subject Key Identifier: 
                2F:AD:49:2C:16:DB:32:20:57:BA:06:6C:CE:D6:34:86:BB:04:80:8A
            X509v3 Authority Key Identifier: 
                keyid:0E:E3:46:47:04:CC:5D:6F:59:87:24:CF:23:57:BC:9E:91:DE:15:B0

            Authority Information Access: 
                CA Issuers - URI:http://url-for-aia/Intermediate.cer

            X509v3 CRL Distribution Points: 

                Full Name:
                  URI:http://url-for-crl/Intermediate.crl

            X509v3 Key Usage: critical
                Key Encipherment
            X509v3 Extended Key Usage: 
                TLS Web Server Authentication
    Signature Algorithm: sha256WithRSAEncryption
         63:3b:32:00:83:47:82:36:ba:79:68:ee:12:c3:0a:28:1b:69:
         d9:4c:c0:28:4b:f9:ec:2f:33:fd:f9:6a:88:cc:e7:82:92:6a:
         b1:b7:d3:f4:7a:80:8d:e8:52:8c:b1:1a:0a:96:01:44:51:11:
         db:58:05:b0:f3:02:5b:5f:77:e8:71:26:06:8a:b5:24:c8:ee:
         e2:87:f3:b6:ab:51:be:33:e9:8d:a4:46:91:99:ca:ae:03:f5:
         bc:50:2b:ca:78:7b:97:be:d5:93:cf:02:ff:d3:f5:59:8a:f4:
         c9:a1:f8:d4:65:4c:40:cd:94:5e:f9:7f:d9:32:ff:bd:75:77:
         21:c9:47:d4:d6:d3:7c:f2:68:a4:10:27:9a:c0:f6:ce:ea:2a:
         d7:7c:54:b6:9a:13:27:7b:d1:b8:73:b1:00:4e:59:ca:8b:9b:
         0a:08:fe:ed:93:b0:5e:86:c0:52:70:f3:bb:03:4c:e8:08:f2:
         05:e3:d8:e9:18:06:0b:a6:de:c2:0b:b0:81:e8:0c:82:1a:06:
         4f:77:0d:d6:67:fb:74:b6:97:1c:4c:66:c8:0b:88:70:0c:c1:
         9b:29:77:60:b8:f7:35:27:92:a5:31:77:9b:74:d4:a8:f1:8d:
         5f:90:f7:aa:12:5b:71:16:60:73:4c:a9:27:8d:5a:08:6e:87:
         40:7e:ba:d3
-----BEGIN CERTIFICATE-----
MIIDgzCCAmugAwIBAgIBATANBgkqhkiG9w0BAQsFADAXMRUwEwYDVQQDDAxJbnRl
cm1lZGlhdGUwHhcNMTUwMTAxMTIwMDAwWhcNMTYwMTAxMTIwMDAwWjARMQ8wDQYD
VQQDDAZUYXJnZXQwggEiMA0GCSqGSIb3DQEBAQUAA4IBDwAwggEKAoIBAQC+cI6L
s5SQgSepQ4sE+Oirk6ZJt6PuuH8/DHTFiAhRYt4+2Ss36IvkbKUakL6aVfyf2OfV
mpdY8eajR5n3+HPrWN2+D1K5Oac/NSe6vpOw0f9RiAT0lqLhmhng7+Aihg6+y3RN
vqo3Q+BAR7878k23Jf/hVr5aZVEn4hmmfM2P1q6covOwifo2rqxSFyyY5OJKdT6G
U+45+7orf5QXJkSqF0QPMFrRAsDOcs+aITplBvnhY0WwqGCEM3Bjppb+LKY4gNPI
bJn26hfLof7c7+6qFdLtn4eTOWCu8aq7gv5hyU9GmCpo/nbYuMnDeV48lcQ+Rq7o
FntO8RaUJ/Ni0iBdAgMBAAGjgd8wgdwwHQYDVR0OBBYEFC+tSSwW2zIgV7oGbM7W
NIa7BICKMB8GA1UdIwQYMBaAFA7jRkcEzF1vWYckzyNXvJ6R3hWwMD8GCCsGAQUF
BwEBBDMwMTAvBggrBgEFBQcwAoYjaHR0cDovL3VybC1mb3ItYWlhL0ludGVybWVk
aWF0ZS5jZXIwNAYDVR0fBC0wKzApoCegJYYjaHR0cDovL3VybC1mb3ItY3JsL0lu
dGVybWVkaWF0ZS5jcmwwDgYDVR0PAQH/BAQDAgUgMBMGA1UdJQQMMAoGCCsGAQUF
BwMBMA0GCSqGSIb3DQEBCwUAA4IBAQBjOzIAg0eCNrp5aO4SwwooG2nZTMAoS/ns
LzP9+WqIzOeCkmqxt9P0eoCN6FKMsRoKlgFEURHbWAWw8wJbX3focSYGirUkyO7i
h/O2q1G+M+mNpEaRmcquA/W8UCvKeHuXvtWTzwL/0/VZivTJofjUZUxAzZRe+X/Z
Mv+9dXchyUfU1tN88mikECeawPbO6irXfFS2mhMne9G4c7EATlnKi5sKCP7tk7Be
hsBScPO7A0zoCPIF49jpGAYLpt7CC7CB6AyCGgZPdw3WZ/t0tpccTGbIC4hwDMGb
KXdguPc1J5KlMXebdNSo8Y1fkPeqEltxFmBzTKknjVoIbodAfrrT
-----END CERTIFICATE-----

Certificate:
    Data:
        Version: 3 (0x2)
        Serial Number: 2 (0x2)
    Signature Algorithm: sha256WithRSAEncryption
        Issuer: CN=Root
        Validity
            Not Before: Jan  1 12:00:00 2015 GMT
            Not After : Jan  1 12:00:00 2016 GMT
        Subject: CN=Intermediate
        Subject Public Key Info:
            Public Key Algorithm: rsaEncryption
                Public-Key: (2048 bit)
                Modulus:
                    00:9c:9a:1b:3a:9b:94:b9:b4:cc:58:be:93:c2:b0:
                    8f:a1:c1:29:07:5c:3a:51:ce:ab:46:8f:e6:d2:9f:
                    79:a1:ec:4a:d6:40:59:9d:0f:e0:6e:e0:cd:88:f1:
                    e6:ca:83:0c:6c:53:31:af:69:66:b6:80:96:d8:68:
                    c4:45:1d:6b:94:78:48:83:56:ca:61:34:6e:88:1c:
                    04:65:67:dc:47:bf:95:a6:6f:8e:90:87:95:b8:19:
                    8b:66:49:cf:15:8a:74:c9:c5:9a:22:11:df:8f:1b:
                    c1:b1:c0:e1:06:c6:4e:60:99:0f:78:cf:d8:75:a2:
                    f8:1e:f7:b7:cd:69:3b:07:c8:28:de:dd:6d:64:59:
                    c4:f8:b4:aa:63:bc:0e:d2:74:e7:4e:a2:73:5d:c6:
                    b2:49:a7:38:d1:99:f4:90:4c:9f:51:cd:37:7f:d5:
                    68:a1:35:99:17:e7:fa:62:23:de:64:36:c9:d3:de:
                    b6:3b:69:97:2b:ca:e7:f4:0a:0f:5e:df:55:0a:00:
                    ac:6d:27:e6:2f:f9:08:99:69:d2:34:2c:3d:9f:65:
                    df:59:ca:df:06:a4:a9:05:f9:2e:fb:d5:15:2c:77:
                    19:4c:06:03:09:df:2b:07:aa:da:e6:a4:ff:79:eb:
                    0f:da:7e:29:ad:4c:dd:f7:13:f9:65:49:43:6f:89:
                    98:fd
                Exponent: 65537 (0x10001)
        X509v3 extensions:
            X509v3 Subject Key Identifier: 
                0E:E3:46:47:04:CC:5D:6F:59:87:24:CF:23:57:BC:9E:91:DE:15:B0
            X509v3 Authority Key Identifier: 
                keyid:54:56:C6:20:3C:8C:EE:44:C8:B4:6F:DB:71:32:B7:92:B0:69:52:05

            Authority Information Access: 
                CA Issuers - URI:http://url-for-aia/Root.cer

            X509v3 CRL Distribution Points: 

                Full Name:
                  URI:http://url-for-crl/Root.crl

            X509v3 Key Usage: critical
                Certificate Sign, CRL Sign
            X509v3 Basic Constraints: critical
                CA:TRUE
    Signature Algorithm: sha256WithRSAEncryption
         65:45:bc:b2:d5:33:41:43:20:e1:fd:4a:11:e0:c8:76:8c:2f:
         dc:77:50:85:5a:a9:c7:d8:60:a4:48:df:3b:68:71:bd:37:3d:
         e1:af:74:6b:78:91:38:7f:cc:0b:d4:38:fc:fb:2c:5b:5b:8b:
         fe:c9:07:d0:56:dd:f9:84:d3:b6:1d:60:fe:23:56:c6:6c:00:
         20:8a:20:fc:df:b0:e9:23:bd:25:15:58:d8:2b:ce:ad:aa:7f:
         f7:9a:17:74:92:82:61:6c:2e:76:ea:e6:3e:15:e8:f5:b9:f9:
         06:22:d0:a4:cd:d7:ca:5c:bb:2b:25:62:7e:64:3b:22:e3:f6:
         6e:ac:5d:43:a1:bc:5c:4b:53:5c:43:a6:f6:31:d9:35:cd:37:
         7b:9c:08:46:2c:49:5c:da:2c:e2:00:73:75:e7:05:66:5e:ca:
         70:40:28:d3:47:dc:5f:29:e4:08:e4:97:b9:b5:e9:d7:68:1c:
         b4:33:30:da:21:69:ff:df:65:5a:7c:b2:62:36:ed:5f:d5:f7:
         00:ef:56:59:51:d1:a8:aa:32:28:12:18:05:0a:f2:ab:cb:3f:
         38:a0:d8:2e:d8:5a:bd:dc:4e:e5:45:a8:ce:49:ac:55:96:48:
         f2:2b:87:b2:3d:c3:b9:bc:94:8b:d7:8a:ae:aa:7a:4f:6d:2c:
         9f:36:c6:27
-----BEGIN CERTIFICATE-----
MIIDbTCCAlWgAwIBAgIBAjANBgkqhkiG9w0BAQsFADAPMQ0wCwYDVQQDDARSb290
MB4XDTE1MDEwMTEyMDAwMFoXDTE2MDEwMTEyMDAwMFowFzEVMBMGA1UEAwwMSW50
ZXJtZWRpYXRlMIIBIjANBgkqhkiG9w0BAQEFAAOCAQ8AMIIBCgKCAQEAnJobOpuU
ubTMWL6TwrCPocEpB1w6Uc6rRo/m0p95oexK1kBZnQ/gbuDNiPHmyoMMbFMxr2lm
toCW2GjERR1rlHhIg1bKYTRuiBwEZWfcR7+Vpm+OkIeVuBmLZknPFYp0ycWaIhHf
jxvBscDhBsZOYJkPeM/YdaL4Hve3zWk7B8go3t1tZFnE+LSqY7wO0nTnTqJzXcay
Sac40Zn0kEyfUc03f9VooTWZF+f6YiPeZDbJ0962O2mXK8rn9AoPXt9VCgCsbSfm
L/kImWnSNCw9n2XfWcrfBqSpBfku+9UVLHcZTAYDCd8rB6ra5qT/eesP2n4prUzd
9xP5ZUlDb4mY/QIDAQABo4HLMIHIMB0GA1UdDgQWBBQO40ZHBMxdb1mHJM8jV7ye
kd4VsDAfBgNVHSMEGDAWgBRUVsYgPIzuRMi0b9txMreSsGlSBTA3BggrBgEFBQcB
AQQrMCkwJwYIKwYBBQUHMAKGG2h0dHA6Ly91cmwtZm9yLWFpYS9Sb290LmNlcjAs
BgNVHR8EJTAjMCGgH6AdhhtodHRwOi8vdXJsLWZvci1jcmwvUm9vdC5jcmwwDgYD
VR0PAQH/BAQDAgEGMA8GA1UdEwEB/wQFMAMBAf8wDQYJKoZIhvcNAQELBQADggEB
AGVFvLLVM0FDIOH9ShHgyHaML9x3UIVaqcfYYKRI3ztocb03PeGvdGt4kTh/zAvU
OPz7LFtbi/7JB9BW3fmE07YdYP4jVsZsACCKIPzfsOkjvSUVWNgrzq2qf/eaF3SS
gmFsLnbq5j4V6PW5+QYi0KTN18pcuyslYn5kOyLj9m6sXUOhvFxLU1xDpvYx2TXN
N3ucCEYsSVzaLOIAc3XnBWZeynBAKNNH3F8p5Ajkl7m16ddoHLQzMNohaf/fZVp8
smI27V/V9wDvVllR0aiqMigSGAUK8qvLPzig2C7YWr3cTuVFqM5JrFWWSPIrh7I9
w7m8lIvXiq6qek9tLJ82xic=
-----END CERTIFICATE-----

Certificate:
    Data:
        Version: 3 (0x2)
        Serial Number: 1 (0x1)
    Signature Algorithm: sha256WithRSAEncryption
        Issuer: CN=Root
        Validity
            Not Before: Jan  1 12:00:00 2015 GMT
            Not After : Jan  1 12:00:00 2016 GMT
        Subject: CN=Root
        Subject Public Key Info:
            Public Key Algorithm: rsaEncryption
                Public-Key: (2048 bit)
                Modulus:
                    00:9f:eb:7d:ec:d7:82:b2:82:c3:22:42:8c:d1:09:
                    ea:bd:76:d1:9f:7f:d4:3a:51:6d:0f:e3:da:c4:72:
                    b4:50:22:06:fe:85:bc:1b:2f:d6:c2:bf:33:51:f0:
                    73:70:c8:f3:ae:63:ad:0e:6c:e4:b4:d3:8a:e1:26:
                    d4:38:4a:0f:15:fe:f4:a9:ce:de:21:bb:00:00:c7:
                    bc:4f:2d:1c:fe:88:94:9c:6d:3e:c1:f0:b1:f0:1d:
                    5b:dc:51:bf:f3:db:9d:2b:6e:cd:47:57:82:6b:64:
                    fe:2b:fc:63:01:cf:e1:24:05:4d:c5:90:53:91:11:
                    fc:08:ea:08:38:cd:b3:3b:87:e6:66:21:22:04:10:
                    94:71:a2:71:fa:2b:7d:6a:02:fd:dc:7d:67:1a:54:
                    58:af:63:0a:5a:f8:7e:45:23:ff:78:08:20:52:4b:
                    e7:64:7f:29:0a:01:bb:4a:5a:6c:26:59:da:a5:d4:
                    3c:28:d2:26:ba:a6:98:62:dc:95:2a:66:5c:b2:c7:
                    1a:3a:a9:9f:f9:2f:82:9d:c5:db:bc:f7:26:99:f9:
                    79:99:bc:40:08:52:36:f0:cf:3e:94:42:8c:32:d9:
                    c7:c4:44:cb:c6:15:7a:61:2e:f4:24:2b:c2:85:9c:
                    67:02:d9:9e:6c:4b:d7:5d:36:38:19:ef:95:75:2f:
                    48:5d
                Exponent: 65537 (0x10001)
        X509v3 extensions:
            X509v3 Subject Key Identifier: 
                54:56:C6:20:3C:8C:EE:44:C8:B4:6F:DB:71:32:B7:92:B0:69:52:05
            X509v3 Authority Key Identifier: 
                keyid:54:56:C6:20:3C:8C:EE:44:C8:B4:6F:DB:71:32:B7:92:B0:69:52:05

            Authority Information Access: 
                CA Issuers - URI:http://url-for-aia/Root.cer

            X509v3 CRL Distribution Points: 

                Full Name:
                  URI:http://url-for-crl/Root.crl

            X509v3 Key Usage: critical
                Certificate Sign, CRL Sign
            X509v3 Basic Constraints: critical
                CA:TRUE
    Signature Algorithm: sha256WithRSAEncryption
         42:bf:3f:d0:f3:43:91:38:2f:82:b6:c7:b6:85:47:09:71:95:
         75:fa:8e:7d:33:70:ed:0e:b9:3f:08:06:5b:b5:54:47:4e:aa:
         f4:76:8f:f8:a7:d2:57:35:23:44:25:58:ae:29:7a:93:36:6e:
         6d:6f:03:a1:94:c7:db:23:cb:dd:ea:12:14:5c:ac:3e:38:e0:
         a2:61:9f:ae:02:3f:12:a4:f0:3e:6e:7a:b0:1c:44:99:fa:54:
         17:17:92:47:57:2e:a9:a7:dc:b7:4f:d2:7d:e1:0a:21:cb:36:
         de:d5:6f:00:ce:40:6e:c3:80:ad:45:0b:82:1f:65:86:70:e6:
         47:bc:11:d6:39:01:65:c2:58:c5:91:66:a2:22:e3:d6:08:a4:
         48:f8:fd:d8:7a:8c:b5:8b:f0:cc:b9:f8:b6:58:eb:6f:78:d8:
         00:4c:f4:7c:ca:7c:63:22:43:9b:c4:88:0b:6b:00:29:61:49:
         4a:f4:51:87:46:69:c6:14:b3:cc:85:b8:41:ec:5d:82:c6:4f:
         f2:f4:ba:87:81:ab:06:5e:d4:2a:a9:08:0c:ff:24:cb:17:40:
         27:ad:64:69:bc:bd:b2:4f:b5:ba:9f:6b:8c:c0:6f:1d:f3:72:
         89:ab:88:80:e9:13:ac:cf:7d:79:bb:12:87:74:01:17:df:d8:
         bc:f4:20:c5
-----BEGIN CERTIFICATE-----
MIIDZTCCAk2gAwIBAgIBATANBgkqhkiG9w0BAQsFADAPMQ0wCwYDVQQDDARSb290
MB4XDTE1MDEwMTEyMDAwMFoXDTE2MDEwMTEyMDAwMFowDzENMAsGA1UEAwwEUm9v
dDCCASIwDQYJKoZIhvcNAQEBBQADggEPADCCAQoCggEBAJ/rfezXgrKCwyJCjNEJ
6r120Z9/1DpRbQ/j2sRytFAiBv6FvBsv1sK/M1Hwc3DI865jrQ5s5LTTiuEm1DhK
DxX+9KnO3iG7AADHvE8tHP6IlJxtPsHwsfAdW9xRv/PbnStuzUdXgmtk/iv8YwHP
4SQFTcWQU5ER/AjqCDjNszuH5mYhIgQQlHGicforfWoC/dx9ZxpUWK9jClr4fkUj
/3gIIFJL52R/KQoBu0pabCZZ2qXUPCjSJrqmmGLclSpmXLLHGjqpn/kvgp3F27z3
Jpn5eZm8QAhSNvDPPpRCjDLZx8REy8YVemEu9CQrwoWcZwLZnmxL1102OBnvlXUv
SF0CAwEAAaOByzCByDAdBgNVHQ4EFgQUVFbGIDyM7kTItG/bcTK3krBpUgUwHwYD
VR0jBBgwFoAUVFbGIDyM7kTItG/bcTK3krBpUgUwNwYIKwYBBQUHAQEEKzApMCcG
CCsGAQUFBzAChhtodHRwOi8vdXJsLWZvci1haWEvUm9vdC5jZXIwLAYDVR0fBCUw
IzAhoB+gHYYbaHR0cDovL3VybC1mb3ItY3JsL1Jvb3QuY3JsMA4GA1UdDwEB/wQE
AwIBBjAPBgNVHRMBAf8EBTADAQH/MA0GCSqGSIb3DQEBCwUAA4IBAQBCvz/Q80OR
OC+Ctse2hUcJcZV1+o59M3DtDrk/CAZbtVRHTqr0do/4p9JXNSNEJViuKXqTNm5t
bwOhlMfbI8vd6hIUXKw+OOCiYZ+uAj8SpPA+bnqwHESZ+lQXF5JHVy6pp9y3T9J9
4Qohyzbe1W8AzkBuw4CtRQuCH2WGcOZHvBHWOQFlwljFkWaiIuPWCKRI+P3Yeoy1
i/DMufi2WOtveNgATPR8ynxjIkObxIgLawApYUlK9FGHRmnGFLPMhbhB7F2Cxk/y
9LqHgasGXtQqqQgM/yTLF0AnrWRpvL2yT7W6n2uMwG8d83KJq4iA6ROsz315uxKH
dAEX39i89CDF
-----END CERTIFICATE-----
