[Created by: generate-chains.py]

Certificate chain with 2 intermediates and one end entity certificate. The
root certificate has a pathlen:1 restriction. Ordinarily this would be an
invalid chain, however constraints on this trust anchor are not enforced.

Certificate:
    Data:
        Version: 3 (0x2)
        Serial Number: 1 (0x1)
    Signature Algorithm: sha256WithRSAEncryption
        Issuer: CN=Intermediate2
        Validity
            Not Before: Jan  1 12:00:00 2015 GMT
            Not After : Jan  1 12:00:00 2016 GMT
        Subject: CN=Target
        Subject Public Key Info:
            Public Key Algorithm: rsaEncryption
                Public-Key: (2048 bit)
                Modulus:
                    00:9d:b0:80:41:9a:d5:31:ea:d0:f6:46:1d:cd:f5:
                    e0:b8:d1:d4:21:fa:7b:01:03:9a:2a:dc:f0:f1:91:
                    75:4e:57:cb:b6:d2:03:4d:49:16:cf:85:87:a7:e8:
                    b5:de:55:67:d1:9f:1a:2a:19:2c:00:91:00:81:c4:
                    92:cc:03:be:c1:f2:c5:72:39:94:b6:1e:5f:4a:70:
                    83:7d:5a:05:2d:02:a7:84:25:2a:da:11:c4:d4:e8:
                    7f:1a:fb:88:6b:52:f9:8c:c9:c7:99:21:75:35:c3:
                    84:a0:a1:b1:32:6e:1f:e4:b4:bc:21:5b:e4:7b:e0:
                    85:06:3d:bf:fb:c0:92:66:1e:53:ff:d0:16:3b:a5:
                    7c:32:07:10:54:b7:98:3d:70:2f:fc:ee:54:3e:74:
                    a8:ec:4b:45:11:e5:08:d1:54:2b:a9:78:83:bc:55:
                    92:3e:71:e4:ba:ac:67:28:f2:4d:3e:8c:8f:26:88:
                    02:fc:04:82:a9:88:bf:c7:95:4d:8c:d5:0e:17:2d:
                    ea:90:ad:6e:e4:7e:76:89:c6:0d:f4:5a:35:1a:72:
                    d4:91:38:50:cc:f3:1b:05:ff:80:d3:b2:e9:0a:5d:
                    8a:9f:b8:b2:2a:20:a8:76:b5:41:1b:80:33:7c:79:
                    12:fa:ff:36:df:61:22:c5:fa:27:4a:88:75:a8:f5:
                    5d:49
                Exponent: 65537 (0x10001)
        X509v3 extensions:
            X509v3 Subject Key Identifier: 
                ED:D0:2C:C2:73:F7:C3:03:A2:08:6E:44:C9:E5:97:16:A5:B9:C9:EC
            X509v3 Authority Key Identifier: 
                keyid:48:81:22:AA:57:F7:0B:70:A7:D6:32:4B:AA:85:CD:7C:F2:85:30:2B

            Authority Information Access: 
                CA Issuers - URI:http://url-for-aia/Intermediate2.cer

            X509v3 CRL Distribution Points: 

                Full Name:
                  URI:http://url-for-crl/Intermediate2.crl

            X509v3 Key Usage: critical
                Digital Signature, Key Encipherment
            X509v3 Extended Key Usage: 
                TLS Web Server Authentication, TLS Web Client Authentication
    Signature Algorithm: sha256WithRSAEncryption
         9d:20:0c:60:ba:20:1d:ec:68:b0:dc:22:c4:f8:38:b7:de:8b:
         59:98:10:dc:d9:4e:9c:11:a8:92:88:8d:f9:33:e7:3d:ac:58:
         d9:06:9f:1e:c1:86:58:14:87:77:3c:9a:ed:bc:57:4d:ef:10:
         5a:f3:b8:5b:15:df:37:dc:a0:7e:81:68:7e:e6:2d:db:64:fd:
         0b:6f:64:49:e0:b2:9c:4c:5d:a6:20:9a:5b:b5:80:b4:04:8e:
         6d:1c:94:53:1e:72:a3:11:34:31:06:a5:b3:f4:3d:8e:69:91:
         7d:aa:a0:67:fc:82:f8:79:f6:51:76:c9:d5:47:8a:18:3f:9c:
         53:38:0d:f7:a3:79:5f:82:8b:8a:21:21:b7:f6:db:33:0c:7c:
         6c:00:4a:94:76:59:95:7b:90:8d:2f:7e:68:09:3f:54:bb:14:
         5b:08:cf:41:2c:6e:f1:17:df:de:b2:14:10:3d:84:b7:dd:da:
         83:a7:7f:5b:42:6c:1b:f7:79:63:b2:af:06:71:5b:9d:e3:0c:
         3a:3b:e1:59:8a:80:96:8e:ef:ba:89:36:2a:77:9c:71:ca:c8:
         12:04:13:9a:3a:1b:a1:07:61:39:33:c3:4e:3b:1d:cb:5c:50:
         b5:7f:2b:60:55:f6:9f:65:72:69:fc:ff:9d:90:7b:58:21:6a:
         82:40:de:87
-----BEGIN CERTIFICATE-----
MIIDkDCCAnigAwIBAgIBATANBgkqhkiG9w0BAQsFADAYMRYwFAYDVQQDDA1JbnRl
cm1lZGlhdGUyMB4XDTE1MDEwMTEyMDAwMFoXDTE2MDEwMTEyMDAwMFowETEPMA0G
A1UEAwwGVGFyZ2V0MIIBIjANBgkqhkiG9w0BAQEFAAOCAQ8AMIIBCgKCAQEAnbCA
QZrVMerQ9kYdzfXguNHUIfp7AQOaKtzw8ZF1TlfLttIDTUkWz4WHp+i13lVn0Z8a
KhksAJEAgcSSzAO+wfLFcjmUth5fSnCDfVoFLQKnhCUq2hHE1Oh/GvuIa1L5jMnH
mSF1NcOEoKGxMm4f5LS8IVvke+CFBj2/+8CSZh5T/9AWO6V8MgcQVLeYPXAv/O5U
PnSo7EtFEeUI0VQrqXiDvFWSPnHkuqxnKPJNPoyPJogC/ASCqYi/x5VNjNUOFy3q
kK1u5H52icYN9Fo1GnLUkThQzPMbBf+A07LpCl2Kn7iyKiCodrVBG4AzfHkS+v82
32EixfonSoh1qPVdSQIDAQABo4HrMIHoMB0GA1UdDgQWBBTt0CzCc/fDA6IIbkTJ
5ZcWpbnJ7DAfBgNVHSMEGDAWgBRIgSKqV/cLcKfWMkuqhc188oUwKzBABggrBgEF
BQcBAQQ0MDIwMAYIKwYBBQUHMAKGJGh0dHA6Ly91cmwtZm9yLWFpYS9JbnRlcm1l
ZGlhdGUyLmNlcjA1BgNVHR8ELjAsMCqgKKAmhiRodHRwOi8vdXJsLWZvci1jcmwv
SW50ZXJtZWRpYXRlMi5jcmwwDgYDVR0PAQH/BAQDAgWgMB0GA1UdJQQWMBQGCCsG
AQUFBwMBBggrBgEFBQcDAjANBgkqhkiG9w0BAQsFAAOCAQEAnSAMYLogHexosNwi
xPg4t96LWZgQ3NlOnBGokoiN+TPnPaxY2QafHsGGWBSHdzya7bxXTe8QWvO4WxXf
N9ygfoFofuYt22T9C29kSeCynExdpiCaW7WAtASObRyUUx5yoxE0MQals/Q9jmmR
faqgZ/yC+Hn2UXbJ1UeKGD+cUzgN96N5X4KLiiEht/bbMwx8bABKlHZZlXuQjS9+
aAk/VLsUWwjPQSxu8Rff3rIUED2Et93ag6d/W0JsG/d5Y7KvBnFbneMMOjvhWYqA
lo7vuok2KnecccrIEgQTmjoboQdhOTPDTjsdy1xQtX8rYFX2n2Vyafz/nZB7WCFq
gkDehw==
-----END CERTIFICATE-----

Certificate:
    Data:
        Version: 3 (0x2)
        Serial Number: 1 (0x1)
    Signature Algorithm: sha256WithRSAEncryption
        Issuer: CN=Intermediate1
        Validity
            Not Before: Jan  1 12:00:00 2015 GMT
            Not After : Jan  1 12:00:00 2016 GMT
        Subject: CN=Intermediate2
        Subject Public Key Info:
            Public Key Algorithm: rsaEncryption
                Public-Key: (2048 bit)
                Modulus:
                    00:b9:41:a3:79:b8:9d:70:a4:25:58:5b:47:07:ad:
                    0a:23:3e:36:c4:44:c3:27:bb:cd:ab:c8:1b:4e:b8:
                    ba:d7:33:af:4a:59:74:cb:c1:5f:8c:8f:b6:0d:89:
                    ad:43:1f:3c:f4:64:11:0a:dc:ec:65:6d:85:5c:97:
                    7e:8d:79:4d:bf:2c:bc:7e:31:59:bc:b7:cb:1c:8b:
                    9a:10:ae:12:ed:93:50:72:66:45:c0:af:be:e7:e2:
                    0a:cd:b4:60:f8:03:3e:6a:e2:ca:ff:75:52:20:73:
                    d3:2b:af:72:91:1b:ee:31:ea:74:9b:a0:aa:b2:3a:
                    84:96:f3:00:65:a4:a7:21:e0:b1:96:d2:32:45:c6:
                    bd:6e:17:67:74:34:89:71:a8:2e:18:6b:12:1f:f1:
                    97:07:10:61:b2:c2:38:ac:44:97:e4:fb:99:33:4b:
                    7d:60:52:86:44:d4:df:91:0b:2d:04:37:b5:7e:5c:
                    fa:3d:46:9e:cf:0b:4f:1a:43:d9:9a:68:56:47:b5:
                    f0:68:80:67:a0:e4:d9:e2:25:d4:ff:3c:1a:b3:e0:
                    5f:d5:44:ec:d5:1b:e0:b2:be:fd:d1:26:89:25:4a:
                    18:4a:ca:44:d0:94:74:cb:a8:39:75:64:5a:19:21:
                    d1:4c:d9:b2:13:f0:d1:4f:6f:45:02:b7:3e:6e:10:
                    fe:5f
                Exponent: 65537 (0x10001)
        X509v3 extensions:
            X509v3 Subject Key Identifier: 
                48:81:22:AA:57:F7:0B:70:A7:D6:32:4B:AA:85:CD:7C:F2:85:30:2B
            X509v3 Authority Key Identifier: 
                keyid:A7:AB:30:41:BC:BB:CC:D3:7C:21:06:CA:C4:71:84:FF:FA:00:FC:D3

            Authority Information Access: 
                CA Issuers - URI:http://url-for-aia/Intermediate1.cer

            X509v3 CRL Distribution Points: 

                Full Name:
                  URI:http://url-for-crl/Intermediate1.crl

            X509v3 Key Usage: critical
                Certificate Sign, CRL Sign
            X509v3 Basic Constraints: critical
                CA:TRUE
    Signature Algorithm: sha256WithRSAEncryption
         52:27:15:09:55:79:d8:ec:44:99:43:01:4e:bf:95:68:95:9a:
         5d:1f:3e:fd:df:4e:e4:52:69:f5:b1:f7:0d:ee:a5:7b:b5:d8:
         68:72:01:05:aa:7f:ef:e1:7b:a0:dd:11:32:d0:92:00:d6:ca:
         43:3d:88:b1:84:f6:cf:cc:de:85:37:29:05:4f:68:ea:d7:cf:
         27:e7:32:4e:34:af:8b:49:99:23:d3:55:9f:d7:35:5e:3d:53:
         6c:e6:02:da:2d:d4:a1:9f:d4:9e:a4:03:03:d1:dc:f7:20:1c:
         29:9a:22:b0:26:6f:08:57:07:a3:94:e8:f9:ac:eb:6a:0b:59:
         64:a9:32:a1:f6:ae:92:56:b6:a2:0b:c5:0f:d2:bd:4e:10:6f:
         15:8f:bd:67:a0:17:0f:99:bb:32:10:cc:0e:36:b0:24:ce:94:
         15:47:40:02:0d:f7:23:01:91:1f:d9:cc:9e:e9:b5:35:ba:89:
         f7:f4:d3:e2:ef:51:16:dd:ca:bc:2a:a4:e1:f6:d1:f1:74:84:
         43:1a:1d:5b:83:8e:6e:08:a4:b9:cd:bd:0e:a1:73:a8:fa:74:
         94:5a:9a:ed:be:25:08:80:d3:70:bf:7b:d4:a2:5a:b4:ff:91:
         bd:1c:3b:60:86:b1:47:02:23:92:ec:b4:22:0e:fa:96:87:d5:
         54:74:93:ed
-----BEGIN CERTIFICATE-----
MIIDiTCCAnGgAwIBAgIBATANBgkqhkiG9w0BAQsFADAYMRYwFAYDVQQDDA1JbnRl
cm1lZGlhdGUxMB4XDTE1MDEwMTEyMDAwMFoXDTE2MDEwMTEyMDAwMFowGDEWMBQG
A1UEAwwNSW50ZXJtZWRpYXRlMjCCASIwDQYJKoZIhvcNAQEBBQADggEPADCCAQoC
ggEBALlBo3m4nXCkJVhbRwetCiM+NsREwye7zavIG064utczr0pZdMvBX4yPtg2J
rUMfPPRkEQrc7GVthVyXfo15Tb8svH4xWby3yxyLmhCuEu2TUHJmRcCvvufiCs20
YPgDPmriyv91UiBz0yuvcpEb7jHqdJugqrI6hJbzAGWkpyHgsZbSMkXGvW4XZ3Q0
iXGoLhhrEh/xlwcQYbLCOKxEl+T7mTNLfWBShkTU35ELLQQ3tX5c+j1Gns8LTxpD
2ZpoVke18GiAZ6Dk2eIl1P88GrPgX9VE7NUb4LK+/dEmiSVKGErKRNCUdMuoOXVk
Whkh0UzZshPw0U9vRQK3Pm4Q/l8CAwEAAaOB3TCB2jAdBgNVHQ4EFgQUSIEiqlf3
C3Cn1jJLqoXNfPKFMCswHwYDVR0jBBgwFoAUp6swQby7zNN8IQbKxHGE//oA/NMw
QAYIKwYBBQUHAQEENDAyMDAGCCsGAQUFBzAChiRodHRwOi8vdXJsLWZvci1haWEv
SW50ZXJtZWRpYXRlMS5jZXIwNQYDVR0fBC4wLDAqoCigJoYkaHR0cDovL3VybC1m
b3ItY3JsL0ludGVybWVkaWF0ZTEuY3JsMA4GA1UdDwEB/wQEAwIBBjAPBgNVHRMB
Af8EBTADAQH/MA0GCSqGSIb3DQEBCwUAA4IBAQBSJxUJVXnY7ESZQwFOv5VolZpd
Hz79307kUmn1sfcN7qV7tdhocgEFqn/v4Xug3REy0JIA1spDPYixhPbPzN6FNykF
T2jq188n5zJONK+LSZkj01Wf1zVePVNs5gLaLdShn9SepAMD0dz3IBwpmiKwJm8I
VwejlOj5rOtqC1lkqTKh9q6SVraiC8UP0r1OEG8Vj71noBcPmbsyEMwONrAkzpQV
R0ACDfcjAZEf2cye6bU1uon39NPi71EW3cq8KqTh9tHxdIRDGh1bg45uCKS5zb0O
oXOo+nSUWprtviUIgNNwv3vUolq0/5G9HDtghrFHAiOS7LQiDvqWh9VUdJPt
-----END CERTIFICATE-----

Certificate:
    Data:
        Version: 3 (0x2)
        Serial Number: 2 (0x2)
    Signature Algorithm: sha256WithRSAEncryption
        Issuer: CN=Root
        Validity
            Not Before: Jan  1 12:00:00 2015 GMT
            Not After : Jan  1 12:00:00 2016 GMT
        Subject: CN=Intermediate1
        Subject Public Key Info:
            Public Key Algorithm: rsaEncryption
                Public-Key: (2048 bit)
                Modulus:
                    00:c1:37:3b:43:f5:80:3a:6f:88:94:a1:ea:18:3b:
                    56:7b:bc:4d:3e:b3:3c:dc:99:4a:aa:11:0c:3e:95:
                    ee:ed:76:27:5b:a5:81:59:73:69:dc:33:da:20:35:
                    48:00:ac:3e:43:5e:df:10:17:d8:d3:e9:11:da:00:
                    72:e7:d3:42:54:f1:93:39:0b:18:7a:0c:69:4d:12:
                    50:73:0c:f6:4f:44:8d:5f:c0:62:89:e5:f0:63:78:
                    1b:92:bb:23:67:8f:77:b1:d3:3f:b1:67:de:6b:aa:
                    0f:73:c3:d3:f2:69:84:7e:e3:04:34:25:69:23:13:
                    23:92:4d:d5:08:55:7d:77:b8:42:96:fd:f7:09:35:
                    20:4a:bf:8e:3d:16:9c:93:5d:81:a2:ed:9d:b4:b3:
                    43:06:74:f2:79:f1:26:d8:1a:b8:3c:35:e6:cd:d6:
                    36:79:5c:2d:3f:3e:df:1c:08:e9:5a:7a:cb:e4:e7:
                    aa:54:db:7e:96:38:a0:0c:39:65:68:88:3a:a0:05:
                    5a:79:ee:8e:dd:96:08:86:8d:3e:79:b1:7e:28:bd:
                    0f:9a:26:f5:de:8c:6c:7a:d8:e7:79:c4:9a:48:35:
                    26:2c:ac:1c:ce:d4:7f:a4:a2:75:e3:27:0f:0f:de:
                    5a:ba:7a:59:c7:ef:d8:39:8d:74:81:fc:37:a6:b1:
                    b7:4d
                Exponent: 65537 (0x10001)
        X509v3 extensions:
            X509v3 Subject Key Identifier: 
                A7:AB:30:41:BC:BB:CC:D3:7C:21:06:CA:C4:71:84:FF:FA:00:FC:D3
            X509v3 Authority Key Identifier: 
                keyid:2A:A9:CA:EF:18:15:3E:D3:AC:C4:EC:2D:A1:3C:8F:19:F8:EE:51:B5

            Authority Information Access: 
                CA Issuers - URI:http://url-for-aia/Root.cer

            X509v3 CRL Distribution Points: 

                Full Name:
                  URI:http://url-for-crl/Root.crl

            X509v3 Key Usage: critical
                Certificate Sign, CRL Sign
            X509v3 Basic Constraints: critical
                CA:TRUE
    Signature Algorithm: sha256WithRSAEncryption
         87:3d:53:9a:e3:97:ee:bb:4d:a4:f6:c5:c7:7b:f0:32:0f:bb:
         29:5b:1b:b1:fc:47:75:01:39:1d:88:c4:79:30:4a:7a:4a:fb:
         3c:5c:f5:89:3f:2c:71:48:1f:12:9e:fb:2b:8f:dc:99:ff:f3:
         6d:4a:b8:1c:b3:59:86:9e:27:2e:c4:16:39:8e:7d:aa:a8:b0:
         93:6d:07:88:78:0c:48:29:8f:f0:25:10:b4:a1:63:24:81:3c:
         e8:da:70:a1:c7:14:ec:e4:58:cc:4e:12:eb:f3:13:2a:0b:f6:
         7a:88:5e:6d:d4:2a:88:43:29:1d:81:16:2f:b9:33:fe:d6:d4:
         96:b4:a1:de:87:dc:30:a8:92:87:79:cc:09:fa:a6:a5:1c:ec:
         e4:ce:fb:cd:0b:7c:47:b9:58:4e:d4:c7:f1:6d:93:bc:61:88:
         88:ab:2d:90:b4:b9:53:8e:fa:13:73:b1:a3:fa:a4:95:58:5a:
         32:2f:22:e5:cc:a4:4a:ad:be:ee:59:60:02:22:4d:3c:31:1b:
         7b:d3:b4:bf:6a:b7:c4:6f:f1:75:69:57:d2:eb:02:d9:ae:5b:
         a7:85:21:09:4c:cb:ff:32:c6:bb:ba:cb:53:6d:29:e2:b4:be:
         b9:d3:52:7a:64:af:fb:63:40:9b:ce:d8:9b:06:74:dd:99:24:
         dd:05:d6:b5
-----BEGIN CERTIFICATE-----
MIIDbjCCAlagAwIBAgIBAjANBgkqhkiG9w0BAQsFADAPMQ0wCwYDVQQDDARSb290
MB4XDTE1MDEwMTEyMDAwMFoXDTE2MDEwMTEyMDAwMFowGDEWMBQGA1UEAwwNSW50
ZXJtZWRpYXRlMTCCASIwDQYJKoZIhvcNAQEBBQADggEPADCCAQoCggEBAME3O0P1
gDpviJSh6hg7Vnu8TT6zPNyZSqoRDD6V7u12J1ulgVlzadwz2iA1SACsPkNe3xAX
2NPpEdoAcufTQlTxkzkLGHoMaU0SUHMM9k9EjV/AYonl8GN4G5K7I2ePd7HTP7Fn
3muqD3PD0/JphH7jBDQlaSMTI5JN1QhVfXe4Qpb99wk1IEq/jj0WnJNdgaLtnbSz
QwZ08nnxJtgauDw15s3WNnlcLT8+3xwI6Vp6y+TnqlTbfpY4oAw5ZWiIOqAFWnnu
jt2WCIaNPnmxfii9D5om9d6MbHrY53nEmkg1JiysHM7Uf6SideMnDw/eWrp6Wcfv
2DmNdIH8N6axt00CAwEAAaOByzCByDAdBgNVHQ4EFgQUp6swQby7zNN8IQbKxHGE
//oA/NMwHwYDVR0jBBgwFoAUKqnK7xgVPtOsxOwtoTyPGfjuUbUwNwYIKwYBBQUH
AQEEKzApMCcGCCsGAQUFBzAChhtodHRwOi8vdXJsLWZvci1haWEvUm9vdC5jZXIw
LAYDVR0fBCUwIzAhoB+gHYYbaHR0cDovL3VybC1mb3ItY3JsL1Jvb3QuY3JsMA4G
A1UdDwEB/wQEAwIBBjAPBgNVHRMBAf8EBTADAQH/MA0GCSqGSIb3DQEBCwUAA4IB
AQCHPVOa45fuu02k9sXHe/AyD7spWxux/Ed1ATkdiMR5MEp6Svs8XPWJPyxxSB8S
nvsrj9yZ//NtSrgcs1mGnicuxBY5jn2qqLCTbQeIeAxIKY/wJRC0oWMkgTzo2nCh
xxTs5FjMThLr8xMqC/Z6iF5t1CqIQykdgRYvuTP+1tSWtKHeh9wwqJKHecwJ+qal
HOzkzvvNC3xHuVhO1MfxbZO8YYiIqy2QtLlTjvoTc7Gj+qSVWFoyLyLlzKRKrb7u
WWACIk08MRt707S/arfEb/F1aVfS6wLZrlunhSEJTMv/Msa7ustTbSnitL6501J6
ZK/7Y0CbztibBnTdmSTdBda1
-----END CERTIFICATE-----

Certificate:
    Data:
        Version: 3 (0x2)
        Serial Number: 1 (0x1)
    Signature Algorithm: sha256WithRSAEncryption
        Issuer: CN=Root
        Validity
            Not Before: Jan  1 12:00:00 2015 GMT
            Not After : Jan  1 12:00:00 2016 GMT
        Subject: CN=Root
        Subject Public Key Info:
            Public Key Algorithm: rsaEncryption
                Public-Key: (2048 bit)
                Modulus:
                    00:b6:f5:2f:2d:0b:bf:09:20:92:56:ed:6f:1b:b3:
                    4e:2c:7b:1b:7d:8e:97:f1:ee:95:bf:2e:b7:63:de:
                    9c:5b:35:3e:c1:5b:78:1e:6c:fd:94:fe:23:7d:6c:
                    28:bf:da:ac:d4:47:58:b4:ba:00:9e:aa:ce:23:44:
                    c6:a3:84:7a:5b:53:99:bc:20:f7:f9:76:10:1c:3d:
                    c4:45:af:b4:55:7f:03:26:54:6f:92:15:3c:e1:ea:
                    3d:00:c7:02:fb:ce:59:f9:5c:21:17:b2:18:9c:b8:
                    d2:d5:36:56:8d:7c:24:a0:76:66:7e:2e:18:88:d0:
                    ae:18:d8:65:98:56:33:0a:50:e8:28:eb:a9:fe:7e:
                    2e:b7:c7:39:93:61:2c:6b:04:80:fa:5b:c3:b5:3f:
                    82:b3:81:b3:92:2a:0a:ab:b0:1c:0d:3b:88:63:5e:
                    19:dd:bd:c4:0a:43:b6:a2:f8:c9:e7:86:33:7e:4a:
                    b4:8b:1d:87:24:a4:67:6a:1d:32:41:a9:73:74:05:
                    dd:09:34:b9:42:63:fd:2c:bc:53:6e:06:51:f4:9f:
                    eb:b0:8d:0f:ec:9c:4b:61:6e:18:e0:d0:e4:03:34:
                    34:66:1c:7c:33:64:f7:4d:4f:89:2d:a9:c3:b5:43:
                    08:82:df:ad:0b:03:0d:20:6b:cf:27:81:cb:a7:53:
                    7d:13
                Exponent: 65537 (0x10001)
        X509v3 extensions:
            X509v3 Subject Key Identifier: 
                2A:A9:CA:EF:18:15:3E:D3:AC:C4:EC:2D:A1:3C:8F:19:F8:EE:51:B5
            X509v3 Authority Key Identifier: 
                keyid:2A:A9:CA:EF:18:15:3E:D3:AC:C4:EC:2D:A1:3C:8F:19:F8:EE:51:B5

            Authority Information Access: 
                CA Issuers - URI:http://url-for-aia/Root.cer

            X509v3 CRL Distribution Points: 

                Full Name:
                  URI:http://url-for-crl/Root.crl

            X509v3 Key Usage: critical
                Certificate Sign, CRL Sign
            X509v3 Basic Constraints: critical
                CA:TRUE, pathlen:1
    Signature Algorithm: sha256WithRSAEncryption
         4e:33:39:0a:dd:84:e1:33:fa:3c:11:3a:01:90:26:0f:61:50:
         04:74:a5:8f:5b:8f:67:48:c7:6c:e9:33:8b:51:40:b6:55:b4:
         55:3c:71:ee:77:a7:ec:b3:21:66:b7:3c:c4:09:24:2b:b7:f7:
         fd:66:e3:ff:81:b5:bb:f5:59:ff:31:80:f3:a4:46:20:f8:db:
         15:67:f3:f9:95:a7:3c:89:e7:69:f8:3f:2f:a1:fc:e9:c1:4e:
         b9:42:cd:e3:17:f4:b9:eb:f6:19:74:9c:52:bf:36:58:1f:ab:
         ac:29:c8:3d:e1:c9:fb:a6:e1:3f:86:12:e4:2f:78:0f:17:de:
         23:3a:04:9b:ee:29:2c:48:1d:b6:82:33:e5:78:26:f4:c5:5d:
         36:91:24:15:d2:c7:73:49:0c:6f:1d:2e:b8:53:ab:c0:a2:17:
         11:b9:ee:91:94:43:90:8a:de:5e:08:02:e3:d4:be:6f:cd:fc:
         a0:c2:8f:91:07:02:b0:ff:ff:03:a3:77:47:88:b7:a3:24:2e:
         8f:00:96:e6:23:3e:9a:43:4b:29:ba:39:ee:16:2c:43:3e:7e:
         58:2c:60:d0:0a:05:c6:42:88:56:b6:1a:3d:24:c9:93:57:de:
         73:67:16:fc:93:32:06:fe:2e:9c:f5:5f:08:2d:73:63:e6:05:
         d2:78:a7:8f
-----BEGIN CERTIFICATE-----
MIIDaDCCAlCgAwIBAgIBATANBgkqhkiG9w0BAQsFADAPMQ0wCwYDVQQDDARSb290
MB4XDTE1MDEwMTEyMDAwMFoXDTE2MDEwMTEyMDAwMFowDzENMAsGA1UEAwwEUm9v
dDCCASIwDQYJKoZIhvcNAQEBBQADggEPADCCAQoCggEBALb1Ly0Lvwkgklbtbxuz
Tix7G32Ol/Hulb8ut2PenFs1PsFbeB5s/ZT+I31sKL/arNRHWLS6AJ6qziNExqOE
eltTmbwg9/l2EBw9xEWvtFV/AyZUb5IVPOHqPQDHAvvOWflcIReyGJy40tU2Vo18
JKB2Zn4uGIjQrhjYZZhWMwpQ6Cjrqf5+LrfHOZNhLGsEgPpbw7U/grOBs5IqCquw
HA07iGNeGd29xApDtqL4yeeGM35KtIsdhySkZ2odMkGpc3QF3Qk0uUJj/Sy8U24G
UfSf67CND+ycS2FuGODQ5AM0NGYcfDNk901PiS2pw7VDCILfrQsDDSBrzyeBy6dT
fRMCAwEAAaOBzjCByzAdBgNVHQ4EFgQUKqnK7xgVPtOsxOwtoTyPGfjuUbUwHwYD
VR0jBBgwFoAUKqnK7xgVPtOsxOwtoTyPGfjuUbUwNwYIKwYBBQUHAQEEKzApMCcG
CCsGAQUFBzAChhtodHRwOi8vdXJsLWZvci1haWEvUm9vdC5jZXIwLAYDVR0fBCUw
IzAhoB+gHYYbaHR0cDovL3VybC1mb3ItY3JsL1Jvb3QuY3JsMA4GA1UdDwEB/wQE
AwIBBjASBgNVHRMBAf8ECDAGAQH/AgEBMA0GCSqGSIb3DQEBCwUAA4IBAQBOMzkK
3YThM/o8EToBkCYPYVAEdKWPW49nSMds6TOLUUC2VbRVPHHud6fssyFmtzzECSQr
t/f9ZuP/gbW79Vn/MYDzpEYg+NsVZ/P5lac8iedp+D8vofzpwU65Qs3jF/S56/YZ
dJxSvzZYH6usKcg94cn7puE/hhLkL3gPF94jOgSb7iksSB22gjPleCb0xV02kSQV
0sdzSQxvHS64U6vAohcRue6RlEOQit5eCALj1L5vzfygwo+RBwKw//8Do3dHiLej
JC6PAJbmIz6aQ0spujnuFixDPn5YLGDQCgXGQohWtho9JMmTV95zZxb8kzIG/i6c
9V8ILXNj5gXSeKeP
-----END CERTIFICATE-----
