[Created by: generate-chains.py]

Certificate chain with 1 intermediate, a trusted root, and a target
certificate that is not a CA, and yet has the keyCertSign bit set. Verification
is expected to fail, since keyCertSign should only be asserted when CA is
true.

Certificate:
    Data:
        Version: 3 (0x2)
        Serial Number: 1 (0x1)
    Signature Algorithm: sha256WithRSAEncryption
        Issuer: CN=Intermediate
        Validity
            Not Before: Jan  1 12:00:00 2015 GMT
            Not After : Jan  1 12:00:00 2016 GMT
        Subject: CN=Target
        Subject Public Key Info:
            Public Key Algorithm: rsaEncryption
                Public-Key: (2048 bit)
                Modulus:
                    00:d5:97:4d:ce:b9:89:7b:00:4f:e4:1f:f6:b0:1d:
                    26:7d:c5:42:70:21:40:3a:a6:f9:07:5b:11:c6:fb:
                    0f:8e:79:46:78:ad:34:71:46:b4:fa:96:75:06:c8:
                    3e:c7:e9:1a:ae:f0:47:7f:4b:53:4a:f2:46:83:89:
                    92:b0:11:11:0c:04:7c:33:e1:4b:7e:b5:b5:b2:54:
                    a7:28:64:31:7b:e2:5c:4a:00:30:3f:8c:21:e0:61:
                    f6:15:e8:20:03:bf:ce:d3:b4:ec:6e:27:88:fb:a9:
                    b0:9a:73:79:26:46:55:a3:05:ac:25:ba:6f:24:3c:
                    17:7d:17:6c:25:ad:14:68:0b:fd:a6:d6:5f:5a:9a:
                    4a:9d:6d:86:e5:77:b9:50:9c:40:2b:40:af:1d:92:
                    4e:22:7a:c1:eb:57:17:16:4d:fa:12:e3:8c:25:8e:
                    8d:4b:74:4f:3e:67:cd:84:2a:63:46:43:3c:45:7f:
                    ad:bc:dd:5c:00:46:7e:25:36:43:d9:98:15:a1:f4:
                    f6:29:5d:54:9d:20:b8:b6:e1:4c:e3:f1:3c:91:47:
                    9d:eb:d7:f8:a2:f1:c5:f8:bc:7b:bf:bd:40:38:39:
                    01:3b:98:33:12:d9:de:c6:f9:eb:4b:e3:82:8e:98:
                    4b:28:1b:cd:ba:22:d5:b3:02:12:fc:40:86:ec:3e:
                    e7:51
                Exponent: 65537 (0x10001)
        X509v3 extensions:
            X509v3 Subject Key Identifier: 
                1B:6F:D1:A8:67:1C:5F:A0:86:1B:FF:7B:E0:F4:72:33:CF:7C:F0:26
            X509v3 Authority Key Identifier: 
                keyid:B2:C0:C2:33:FD:8F:F5:37:4B:52:85:82:DD:31:5D:CE:A2:99:71:D0

            Authority Information Access: 
                CA Issuers - URI:http://url-for-aia/Intermediate.cer

            X509v3 CRL Distribution Points: 

                Full Name:
                  URI:http://url-for-crl/Intermediate.crl

            X509v3 Key Usage: critical
                Digital Signature, Key Encipherment, Certificate Sign
            X509v3 Extended Key Usage: 
                TLS Web Server Authentication, TLS Web Client Authentication
    Signature Algorithm: sha256WithRSAEncryption
         2d:a5:c3:f3:14:08:9d:6d:dd:87:aa:77:68:85:02:9e:9c:8e:
         71:4f:d2:c8:aa:fd:37:2e:b3:a4:14:16:38:92:cf:e6:31:3d:
         98:f5:08:dd:f7:b1:2b:2c:59:b1:b9:21:85:16:fc:6b:20:75:
         eb:bc:c8:88:e5:94:49:68:89:b3:5f:6b:d3:bd:77:b6:0e:1d:
         cf:89:31:11:80:8f:a8:2d:e4:61:12:53:bc:91:a3:1c:31:7f:
         dd:db:1f:c5:d9:9a:0b:14:49:f1:f0:57:3a:9f:88:76:ee:b5:
         13:fd:86:ab:db:75:a0:50:c7:39:c4:8e:8f:0c:54:76:c8:52:
         12:75:22:c1:5f:91:1e:dc:79:63:74:19:f8:2a:e8:a8:c1:bd:
         c1:9d:a7:8b:4a:47:d5:de:0c:60:40:08:c4:a2:2e:47:39:0f:
         8c:24:d5:b2:a4:b4:2d:4f:66:59:ef:dc:85:b7:74:91:54:d3:
         d6:64:ba:97:6b:2b:0b:4c:90:a0:2b:f6:d4:6a:66:e0:78:2e:
         91:c7:e9:9e:ae:1b:8f:07:41:d9:f8:ce:e0:d7:f8:7f:76:8c:
         df:62:11:59:b7:7e:7d:83:80:7d:a6:6e:e7:5b:4f:56:84:c8:
         e9:be:3c:d4:27:a1:79:48:34:2d:da:1c:5a:43:54:29:8b:5b:
         13:03:3d:59
-----BEGIN CERTIFICATE-----
MIIDjTCCAnWgAwIBAgIBATANBgkqhkiG9w0BAQsFADAXMRUwEwYDVQQDDAxJbnRl
cm1lZGlhdGUwHhcNMTUwMTAxMTIwMDAwWhcNMTYwMTAxMTIwMDAwWjARMQ8wDQYD
VQQDDAZUYXJnZXQwggEiMA0GCSqGSIb3DQEBAQUAA4IBDwAwggEKAoIBAQDVl03O
uYl7AE/kH/awHSZ9xUJwIUA6pvkHWxHG+w+OeUZ4rTRxRrT6lnUGyD7H6Rqu8Ed/
S1NK8kaDiZKwEREMBHwz4Ut+tbWyVKcoZDF74lxKADA/jCHgYfYV6CADv87TtOxu
J4j7qbCac3kmRlWjBawlum8kPBd9F2wlrRRoC/2m1l9amkqdbYbld7lQnEArQK8d
kk4iesHrVxcWTfoS44wljo1LdE8+Z82EKmNGQzxFf6283VwARn4lNkPZmBWh9PYp
XVSdILi24Uzj8TyRR53r1/ii8cX4vHu/vUA4OQE7mDMS2d7G+etL44KOmEsoG826
ItWzAhL8QIbsPudRAgMBAAGjgekwgeYwHQYDVR0OBBYEFBtv0ahnHF+ghhv/e+D0
cjPPfPAmMB8GA1UdIwQYMBaAFLLAwjP9j/U3S1KFgt0xXc6imXHQMD8GCCsGAQUF
BwEBBDMwMTAvBggrBgEFBQcwAoYjaHR0cDovL3VybC1mb3ItYWlhL0ludGVybWVk
aWF0ZS5jZXIwNAYDVR0fBC0wKzApoCegJYYjaHR0cDovL3VybC1mb3ItY3JsL0lu
dGVybWVkaWF0ZS5jcmwwDgYDVR0PAQH/BAQDAgKkMB0GA1UdJQQWMBQGCCsGAQUF
BwMBBggrBgEFBQcDAjANBgkqhkiG9w0BAQsFAAOCAQEALaXD8xQInW3dh6p3aIUC
npyOcU/SyKr9Ny6zpBQWOJLP5jE9mPUI3fexKyxZsbkhhRb8ayB167zIiOWUSWiJ
s19r0713tg4dz4kxEYCPqC3kYRJTvJGjHDF/3dsfxdmaCxRJ8fBXOp+Idu61E/2G
q9t1oFDHOcSOjwxUdshSEnUiwV+RHtx5Y3QZ+CroqMG9wZ2ni0pH1d4MYEAIxKIu
RzkPjCTVsqS0LU9mWe/chbd0kVTT1mS6l2srC0yQoCv21Gpm4Hgukcfpnq4bjwdB
2fjO4Nf4f3aM32IRWbd+fYOAfaZu51tPVoTI6b481CeheUg0LdocWkNUKYtbEwM9
WQ==
-----END CERTIFICATE-----

Certificate:
    Data:
        Version: 3 (0x2)
        Serial Number: 2 (0x2)
    Signature Algorithm: sha256WithRSAEncryption
        Issuer: CN=Root
        Validity
            Not Before: Jan  1 12:00:00 2015 GMT
            Not After : Jan  1 12:00:00 2016 GMT
        Subject: CN=Intermediate
        Subject Public Key Info:
            Public Key Algorithm: rsaEncryption
                Public-Key: (2048 bit)
                Modulus:
                    00:c6:14:bf:96:32:0d:cf:bb:58:2a:b4:3c:97:e5:
                    6c:22:92:ff:d3:14:e2:b9:0b:c9:fe:0d:09:d0:c6:
                    b5:48:ed:e0:2a:25:04:2e:16:08:6b:55:da:d1:f3:
                    b1:c1:1a:49:85:33:f4:bb:7c:d6:38:45:c8:af:4d:
                    d4:a9:43:a7:56:cf:9c:40:a5:2b:b8:13:7f:ee:6b:
                    fe:98:3b:ed:74:2a:5e:c7:9f:7c:e0:73:6c:a7:c4:
                    d8:f1:e3:55:79:6c:02:7c:b4:e8:3f:1a:93:57:62:
                    3a:86:5b:24:db:70:f2:fd:94:91:95:6b:68:72:73:
                    31:44:a5:36:32:e6:77:37:bb:e1:cb:6d:b5:aa:20:
                    3a:02:7e:ff:44:6d:79:e4:7d:e6:d3:72:92:e9:59:
                    92:57:ff:be:e8:e2:d9:84:47:f8:a9:f6:11:ee:cf:
                    5b:7f:92:d8:19:44:7f:96:40:52:19:09:80:af:2f:
                    36:65:14:9a:fe:ef:aa:aa:c9:00:fb:ac:d3:87:59:
                    14:ab:69:52:4c:4f:87:0f:74:49:ab:c5:f2:fb:73:
                    23:c0:91:c9:93:82:6f:28:8d:23:f9:2d:f3:92:cc:
                    f5:68:20:86:0d:37:35:d7:46:da:dd:4a:fc:92:3b:
                    32:a2:67:ba:f5:b3:49:13:76:e9:5e:78:a0:86:3e:
                    de:2d
                Exponent: 65537 (0x10001)
        X509v3 extensions:
            X509v3 Subject Key Identifier: 
                B2:C0:C2:33:FD:8F:F5:37:4B:52:85:82:DD:31:5D:CE:A2:99:71:D0
            X509v3 Authority Key Identifier: 
                keyid:24:DB:B4:DE:3E:3F:AA:1D:B0:57:7A:1D:7C:CD:86:E9:6B:D0:15:6F

            Authority Information Access: 
                CA Issuers - URI:http://url-for-aia/Root.cer

            X509v3 CRL Distribution Points: 

                Full Name:
                  URI:http://url-for-crl/Root.crl

            X509v3 Key Usage: critical
                Certificate Sign, CRL Sign
            X509v3 Basic Constraints: critical
                CA:TRUE
    Signature Algorithm: sha256WithRSAEncryption
         a3:2e:22:99:3d:6c:10:66:97:a5:f8:1c:3a:65:f7:2e:c4:df:
         26:a9:b2:7a:33:5e:74:b3:76:27:b8:c4:db:7a:96:fb:e4:e8:
         33:05:7d:49:36:64:6d:f5:64:ae:a9:71:e5:d1:ac:17:9a:e6:
         77:a2:3b:c1:08:f7:70:15:f2:20:f3:26:10:12:33:b9:0b:ed:
         1e:49:01:3f:da:54:e9:1c:29:db:e9:9f:38:dc:94:8a:b5:a3:
         7d:e6:2a:97:e1:75:8e:84:8e:2b:ae:91:ba:5b:26:9c:ce:28:
         0a:1d:99:c1:30:0f:ac:80:e8:41:2b:13:5e:af:a0:60:30:9b:
         1d:9d:68:8b:e6:d3:d4:54:f7:3e:eb:bb:1e:e9:8b:47:3b:22:
         bc:61:da:99:d9:8e:4e:7c:ea:a4:5e:61:6a:4e:55:2c:76:94:
         83:d1:07:08:45:b8:9c:30:ed:74:f7:49:3b:7a:d6:f0:21:ee:
         38:7d:11:56:00:4e:ae:bb:a9:36:e4:71:bc:8b:7a:a1:ee:6d:
         e3:e4:5f:83:2e:0e:f8:fd:00:df:11:f5:78:5b:f0:64:0c:b6:
         8e:d8:ee:73:6d:32:8e:ad:47:d3:db:c4:32:83:09:c5:9e:35:
         c6:54:1c:45:fd:08:f5:83:65:11:48:d8:d5:f6:54:12:ef:53:
         90:4e:ac:38
-----BEGIN CERTIFICATE-----
MIIDbTCCAlWgAwIBAgIBAjANBgkqhkiG9w0BAQsFADAPMQ0wCwYDVQQDDARSb290
MB4XDTE1MDEwMTEyMDAwMFoXDTE2MDEwMTEyMDAwMFowFzEVMBMGA1UEAwwMSW50
ZXJtZWRpYXRlMIIBIjANBgkqhkiG9w0BAQEFAAOCAQ8AMIIBCgKCAQEAxhS/ljIN
z7tYKrQ8l+VsIpL/0xTiuQvJ/g0J0Ma1SO3gKiUELhYIa1Xa0fOxwRpJhTP0u3zW
OEXIr03UqUOnVs+cQKUruBN/7mv+mDvtdCpex5984HNsp8TY8eNVeWwCfLToPxqT
V2I6hlsk23Dy/ZSRlWtocnMxRKU2MuZ3N7vhy221qiA6An7/RG155H3m03KS6VmS
V/++6OLZhEf4qfYR7s9bf5LYGUR/lkBSGQmAry82ZRSa/u+qqskA+6zTh1kUq2lS
TE+HD3RJq8Xy+3MjwJHJk4JvKI0j+S3zksz1aCCGDTc110ba3Ur8kjsyome69bNJ
E3bpXnighj7eLQIDAQABo4HLMIHIMB0GA1UdDgQWBBSywMIz/Y/1N0tShYLdMV3O
oplx0DAfBgNVHSMEGDAWgBQk27TePj+qHbBXeh18zYbpa9AVbzA3BggrBgEFBQcB
AQQrMCkwJwYIKwYBBQUHMAKGG2h0dHA6Ly91cmwtZm9yLWFpYS9Sb290LmNlcjAs
BgNVHR8EJTAjMCGgH6AdhhtodHRwOi8vdXJsLWZvci1jcmwvUm9vdC5jcmwwDgYD
VR0PAQH/BAQDAgEGMA8GA1UdEwEB/wQFMAMBAf8wDQYJKoZIhvcNAQELBQADggEB
AKMuIpk9bBBml6X4HDpl9y7E3yapsnozXnSzdie4xNt6lvvk6DMFfUk2ZG31ZK6p
ceXRrBea5neiO8EI93AV8iDzJhASM7kL7R5JAT/aVOkcKdvpnzjclIq1o33mKpfh
dY6EjiuukbpbJpzOKAodmcEwD6yA6EErE16voGAwmx2daIvm09RU9z7rux7pi0c7
Irxh2pnZjk586qReYWpOVSx2lIPRBwhFuJww7XT3STt61vAh7jh9EVYATq67qTbk
cbyLeqHubePkX4MuDvj9AN8R9Xhb8GQMto7Y7nNtMo6tR9PbxDKDCcWeNcZUHEX9
CPWDZRFI2NX2VBLvU5BOrDg=
-----END CERTIFICATE-----

Certificate:
    Data:
        Version: 3 (0x2)
        Serial Number: 1 (0x1)
    Signature Algorithm: sha256WithRSAEncryption
        Issuer: CN=Root
        Validity
            Not Before: Jan  1 12:00:00 2015 GMT
            Not After : Jan  1 12:00:00 2016 GMT
        Subject: CN=Root
        Subject Public Key Info:
            Public Key Algorithm: rsaEncryption
                Public-Key: (2048 bit)
                Modulus:
                    00:e4:4e:96:f6:de:02:05:e7:16:80:fa:ed:b1:3c:
                    f3:19:ea:7b:d2:fe:ed:93:b7:09:37:7d:c1:98:9b:
                    65:a9:84:09:72:cd:e5:d8:da:21:44:c2:2e:92:95:
                    12:fe:35:0c:66:34:ad:f3:4f:c5:2f:d0:2e:57:41:
                    1c:3b:ce:c9:51:17:05:eb:06:f7:4f:fb:6e:27:9d:
                    06:d8:10:87:f4:97:5f:0f:9d:5d:d7:2b:d3:3b:21:
                    5b:5a:8f:20:e0:97:16:7b:15:39:d6:3f:ff:1d:06:
                    53:74:62:78:68:5b:ed:c2:05:e7:86:8b:1a:63:3a:
                    d3:e4:a9:25:8f:0e:92:13:df:39:d6:31:82:bf:bd:
                    ef:d4:21:9d:0e:7f:c9:90:ef:1d:c5:f3:c4:00:1e:
                    4a:03:61:f4:5e:cf:e9:58:e5:12:49:37:31:49:89:
                    54:d8:59:40:78:eb:e2:3f:75:9c:a5:ff:1c:33:b8:
                    6c:26:26:5a:8f:28:12:1f:4e:81:e5:a6:aa:dd:c6:
                    d9:c9:94:6a:15:3c:9e:7a:59:29:92:cb:7a:f5:67:
                    c4:d4:dd:4c:c5:6e:fb:b3:c2:5a:9d:f1:0b:35:17:
                    92:b6:85:dc:fd:45:c5:3f:13:f3:cd:fc:bc:b6:59:
                    c0:17:0b:ce:b3:e1:47:d1:2f:34:74:a4:5c:ba:a9:
                    cf:0d
                Exponent: 65537 (0x10001)
        X509v3 extensions:
            X509v3 Subject Key Identifier: 
                24:DB:B4:DE:3E:3F:AA:1D:B0:57:7A:1D:7C:CD:86:E9:6B:D0:15:6F
            X509v3 Authority Key Identifier: 
                keyid:24:DB:B4:DE:3E:3F:AA:1D:B0:57:7A:1D:7C:CD:86:E9:6B:D0:15:6F

            Authority Information Access: 
                CA Issuers - URI:http://url-for-aia/Root.cer

            X509v3 CRL Distribution Points: 

                Full Name:
                  URI:http://url-for-crl/Root.crl

            X509v3 Key Usage: critical
                Certificate Sign, CRL Sign
            X509v3 Basic Constraints: critical
                CA:TRUE
    Signature Algorithm: sha256WithRSAEncryption
         2b:46:4a:c0:43:58:cc:e5:46:f7:83:8c:ae:9a:01:26:6b:32:
         52:34:ee:ab:63:6c:ae:c7:4c:35:f2:35:70:d2:b9:9e:17:0b:
         96:6b:11:78:9d:e0:83:4e:41:e6:4f:3e:16:7f:93:fa:4f:b9:
         fa:86:23:34:d1:47:46:da:00:ee:58:6f:6b:d7:42:04:15:4c:
         e8:82:31:93:c5:58:46:43:19:c7:4b:eb:61:c7:28:a2:42:f0:
         ad:8d:ed:2f:93:39:9e:46:84:13:42:c9:92:37:4e:f9:32:a1:
         84:17:22:95:c1:9e:1c:23:91:0a:33:32:29:38:7f:4d:ec:de:
         90:0f:96:5d:fb:73:9a:a9:a9:56:c0:74:95:3d:f7:eb:6a:97:
         45:2f:46:50:84:68:b9:5c:64:ad:01:8a:98:1a:c1:38:00:b2:
         8e:a9:8b:50:27:42:31:16:e4:c7:3b:11:a7:56:b4:f4:f7:bf:
         f5:fc:e4:b8:2b:59:2c:d6:3d:35:6f:a7:a6:e6:cc:85:cd:36:
         ee:98:dc:af:35:33:24:f2:0d:5f:e5:de:1b:26:e6:de:2c:f6:
         cf:1e:ac:13:67:8b:8a:a1:8e:f0:62:d1:03:ed:aa:25:ca:0b:
         82:32:6e:24:4e:95:96:b3:ea:a0:33:fc:20:a3:3e:e4:ce:a4:
         60:af:33:78
-----BEGIN CERTIFICATE-----
MIIDZTCCAk2gAwIBAgIBATANBgkqhkiG9w0BAQsFADAPMQ0wCwYDVQQDDARSb290
MB4XDTE1MDEwMTEyMDAwMFoXDTE2MDEwMTEyMDAwMFowDzENMAsGA1UEAwwEUm9v
dDCCASIwDQYJKoZIhvcNAQEBBQADggEPADCCAQoCggEBAOROlvbeAgXnFoD67bE8
8xnqe9L+7ZO3CTd9wZibZamECXLN5djaIUTCLpKVEv41DGY0rfNPxS/QLldBHDvO
yVEXBesG90/7biedBtgQh/SXXw+dXdcr0zshW1qPIOCXFnsVOdY//x0GU3RieGhb
7cIF54aLGmM60+SpJY8OkhPfOdYxgr+979QhnQ5/yZDvHcXzxAAeSgNh9F7P6Vjl
Ekk3MUmJVNhZQHjr4j91nKX/HDO4bCYmWo8oEh9OgeWmqt3G2cmUahU8nnpZKZLL
evVnxNTdTMVu+7PCWp3xCzUXkraF3P1FxT8T8838vLZZwBcLzrPhR9EvNHSkXLqp
zw0CAwEAAaOByzCByDAdBgNVHQ4EFgQUJNu03j4/qh2wV3odfM2G6WvQFW8wHwYD
VR0jBBgwFoAUJNu03j4/qh2wV3odfM2G6WvQFW8wNwYIKwYBBQUHAQEEKzApMCcG
CCsGAQUFBzAChhtodHRwOi8vdXJsLWZvci1haWEvUm9vdC5jZXIwLAYDVR0fBCUw
IzAhoB+gHYYbaHR0cDovL3VybC1mb3ItY3JsL1Jvb3QuY3JsMA4GA1UdDwEB/wQE
AwIBBjAPBgNVHRMBAf8EBTADAQH/MA0GCSqGSIb3DQEBCwUAA4IBAQArRkrAQ1jM
5Ub3g4yumgEmazJSNO6rY2yux0w18jVw0rmeFwuWaxF4neCDTkHmTz4Wf5P6T7n6
hiM00UdG2gDuWG9r10IEFUzogjGTxVhGQxnHS+thxyiiQvCtje0vkzmeRoQTQsmS
N075MqGEFyKVwZ4cI5EKMzIpOH9N7N6QD5Zd+3OaqalWwHSVPffrapdFL0ZQhGi5
XGStAYqYGsE4ALKOqYtQJ0IxFuTHOxGnVrT097/1/OS4K1ks1j01b6em5syFzTbu
mNyvNTMk8g1f5d4bJubeLPbPHqwTZ4uKoY7wYtED7aolyguCMm4kTpWWs+qgM/wg
oz7kzqRgrzN4
-----END CERTIFICATE-----
