[Created by: generate-chains.py]

Certificate chain with 2 intermediates. The first intermediate has a basic
constraints path length of 0. The second one is self-issued so does not count
against the path length.

Certificate:
    Data:
        Version: 3 (0x2)
        Serial Number: 2 (0x2)
    Signature Algorithm: sha256WithRSAEncryption
        Issuer: CN=Intermediate
        Validity
            Not Before: Jan  1 12:00:00 2015 GMT
            Not After : Jan  1 12:00:00 2016 GMT
        Subject: CN=Target
        Subject Public Key Info:
            Public Key Algorithm: rsaEncryption
                Public-Key: (2048 bit)
                Modulus:
                    00:be:6c:86:21:26:6b:16:22:36:2b:5b:b1:d4:52:
                    28:74:2d:76:f3:1b:3b:01:17:dd:e1:18:e3:02:06:
                    a7:88:93:ad:32:59:53:ff:5d:c5:cd:1a:78:70:fb:
                    2e:d9:ba:f9:fa:75:53:fc:02:a8:3c:9b:e0:f4:50:
                    00:4f:30:0b:b3:d6:04:6a:b6:ef:85:0b:42:35:29:
                    77:fa:91:16:0e:ed:34:8a:f3:d2:5e:e9:66:66:57:
                    9b:6f:71:30:16:88:18:7a:f3:fc:61:79:06:d5:e8:
                    b9:18:d6:b9:20:bf:b9:9a:dd:c5:de:64:7d:44:fd:
                    3f:2a:a0:23:31:4d:a7:4c:42:65:ad:9b:38:b6:35:
                    51:f7:4a:58:84:b3:92:cb:98:36:a3:92:0c:33:85:
                    64:18:f2:06:c4:11:a6:12:a9:7c:da:ea:36:59:90:
                    9c:87:a4:60:39:9d:29:e3:21:91:c4:ae:9a:f9:f2:
                    ec:ad:f8:44:55:5c:3a:21:52:81:58:a1:e0:3a:5b:
                    9e:2d:61:62:7f:51:58:44:87:80:41:00:e9:6c:ed:
                    a7:ff:a0:7c:b4:17:33:7c:78:54:ca:92:81:d1:56:
                    75:b1:3a:b7:27:6a:77:e8:0c:30:71:bd:db:b1:06:
                    19:e9:d6:99:d6:41:d2:c6:90:3d:72:31:fc:e7:03:
                    38:35
                Exponent: 65537 (0x10001)
        X509v3 extensions:
            X509v3 Subject Key Identifier: 
                BF:95:3A:85:28:C1:82:8F:C9:0C:81:29:EA:8A:F8:1E:73:80:F8:7F
            X509v3 Authority Key Identifier: 
                keyid:0C:50:93:FA:6E:53:C4:76:18:87:E2:39:87:0B:AA:8E:31:01:3D:69

            Authority Information Access: 
                CA Issuers - URI:http://url-for-aia/Intermediate.cer

            X509v3 CRL Distribution Points: 

                Full Name:
                  URI:http://url-for-crl/Intermediate.crl

            X509v3 Key Usage: critical
                Digital Signature, Key Encipherment
            X509v3 Extended Key Usage: 
                TLS Web Server Authentication, TLS Web Client Authentication
    Signature Algorithm: sha256WithRSAEncryption
         8e:3e:92:84:d9:51:4c:c7:47:52:fa:ae:7a:86:26:5a:98:88:
         0d:07:9f:22:d2:1e:b1:3f:b3:a8:b2:ba:d2:40:b4:9c:95:01:
         b6:1e:6e:4c:2e:54:d2:0f:9a:bc:4f:08:85:5e:6a:f5:da:17:
         13:7a:f6:10:d6:3b:63:7a:47:b7:4e:19:92:4d:66:e9:58:fa:
         78:c7:74:a4:62:b4:5f:a8:0d:49:60:51:b9:be:75:b8:33:e6:
         c2:db:47:58:7d:21:f7:88:2f:6a:2b:70:3c:59:f3:a3:50:0e:
         c2:91:06:e4:6d:ad:a5:ed:12:d9:15:32:a3:01:a4:a9:58:15:
         8b:e0:ab:9f:8a:eb:1a:e4:6b:da:ff:19:fb:76:ad:c6:27:d1:
         23:6f:d8:88:0a:ec:8c:d3:6a:b6:1c:80:f0:6f:fc:51:dd:20:
         11:36:dd:eb:a9:be:2b:83:54:8a:60:7f:07:c3:a4:7a:00:d8:
         71:47:18:fb:1a:7b:df:18:76:d0:01:71:71:fe:c1:4a:d6:db:
         4c:b0:dd:46:6f:33:a1:b6:59:a7:a6:29:b1:34:67:f9:be:40:
         78:3f:a9:72:45:02:c0:70:3d:42:5f:96:9c:5d:a6:9e:79:11:
         7f:87:6c:7d:42:8b:94:7d:19:44:a8:38:86:ca:0a:c5:06:11:
         84:12:28:b0
-----BEGIN CERTIFICATE-----
MIIDjTCCAnWgAwIBAgIBAjANBgkqhkiG9w0BAQsFADAXMRUwEwYDVQQDDAxJbnRl
cm1lZGlhdGUwHhcNMTUwMTAxMTIwMDAwWhcNMTYwMTAxMTIwMDAwWjARMQ8wDQYD
VQQDDAZUYXJnZXQwggEiMA0GCSqGSIb3DQEBAQUAA4IBDwAwggEKAoIBAQC+bIYh
JmsWIjYrW7HUUih0LXbzGzsBF93hGOMCBqeIk60yWVP/XcXNGnhw+y7Zuvn6dVP8
Aqg8m+D0UABPMAuz1gRqtu+FC0I1KXf6kRYO7TSK89Je6WZmV5tvcTAWiBh68/xh
eQbV6LkY1rkgv7ma3cXeZH1E/T8qoCMxTadMQmWtmzi2NVH3SliEs5LLmDajkgwz
hWQY8gbEEaYSqXza6jZZkJyHpGA5nSnjIZHErpr58uyt+ERVXDohUoFYoeA6W54t
YWJ/UVhEh4BBAOls7af/oHy0FzN8eFTKkoHRVnWxOrcnanfoDDBxvduxBhnp1pnW
QdLGkD1yMfznAzg1AgMBAAGjgekwgeYwHQYDVR0OBBYEFL+VOoUowYKPyQyBKeqK
+B5zgPh/MB8GA1UdIwQYMBaAFAxQk/puU8R2GIfiOYcLqo4xAT1pMD8GCCsGAQUF
BwEBBDMwMTAvBggrBgEFBQcwAoYjaHR0cDovL3VybC1mb3ItYWlhL0ludGVybWVk
aWF0ZS5jZXIwNAYDVR0fBC0wKzApoCegJYYjaHR0cDovL3VybC1mb3ItY3JsL0lu
dGVybWVkaWF0ZS5jcmwwDgYDVR0PAQH/BAQDAgWgMB0GA1UdJQQWMBQGCCsGAQUF
BwMBBggrBgEFBQcDAjANBgkqhkiG9w0BAQsFAAOCAQEAjj6ShNlRTMdHUvqueoYm
WpiIDQefItIesT+zqLK60kC0nJUBth5uTC5U0g+avE8IhV5q9doXE3r2ENY7Y3pH
t04Zkk1m6Vj6eMd0pGK0X6gNSWBRub51uDPmwttHWH0h94gvaitwPFnzo1AOwpEG
5G2tpe0S2RUyowGkqVgVi+Crn4rrGuRr2v8Z+3atxifRI2/YiArsjNNqthyA8G/8
Ud0gETbd66m+K4NUimB/B8OkegDYcUcY+xp73xh20AFxcf7BStbbTLDdRm8zobZZ
p6YpsTRn+b5AeD+pckUCwHA9Ql+WnF2mnnkRf4dsfUKLlH0ZRKg4hsoKxQYRhBIo
sA==
-----END CERTIFICATE-----

Certificate:
    Data:
        Version: 3 (0x2)
        Serial Number: 1 (0x1)
    Signature Algorithm: sha256WithRSAEncryption
        Issuer: CN=Intermediate
        Validity
            Not Before: Jan  1 12:00:00 2015 GMT
            Not After : Jan  1 12:00:00 2016 GMT
        Subject: CN=Intermediate
        Subject Public Key Info:
            Public Key Algorithm: rsaEncryption
                Public-Key: (2048 bit)
                Modulus:
                    00:bb:cd:84:14:6c:0b:68:76:9e:7d:d5:f7:55:ac:
                    5a:2b:6d:71:ad:aa:34:2a:dc:b4:b0:c2:37:23:5b:
                    05:01:08:b6:9b:fb:97:ce:3c:eb:fe:2f:b2:5e:6b:
                    07:bb:5f:29:fb:b1:25:55:5c:dd:9f:de:89:bd:29:
                    37:e8:a7:8a:99:c3:50:82:32:10:bb:2d:19:bc:a8:
                    47:21:3d:0a:66:b6:8d:ab:42:3a:94:50:7f:c3:19:
                    7f:ea:28:89:c2:9d:a8:87:d5:1b:42:63:9a:9f:9e:
                    06:72:41:ee:64:ee:ac:1e:21:f6:3e:3d:e5:f6:d1:
                    04:dd:7e:61:cb:e5:65:99:c1:49:97:13:c4:11:96:
                    3b:62:f0:46:ad:20:5d:52:5c:16:d6:59:29:e2:9e:
                    91:15:f1:23:0d:fb:3c:86:90:50:05:2d:63:81:cc:
                    39:25:62:cc:00:18:b4:0e:1a:a0:d8:ca:4b:e0:b6:
                    ea:33:83:8a:2e:ab:6c:6f:41:9e:ec:43:92:d1:83:
                    b6:d0:45:e7:a8:8d:28:6b:a4:b5:f7:53:8b:8a:dc:
                    3e:b0:df:9f:d4:70:4e:c2:2c:1a:a5:4d:6c:5d:2e:
                    94:35:84:b9:5d:e9:df:22:fd:55:6e:05:ff:eb:b6:
                    10:0c:28:a3:5b:49:c1:98:63:8f:5d:fa:83:4e:11:
                    cd:13
                Exponent: 65537 (0x10001)
        X509v3 extensions:
            X509v3 Subject Key Identifier: 
                0C:50:93:FA:6E:53:C4:76:18:87:E2:39:87:0B:AA:8E:31:01:3D:69
            X509v3 Authority Key Identifier: 
                keyid:4E:47:5F:93:57:FE:5F:F3:92:73:A6:6A:55:7C:1A:FB:F9:16:85:36

            Authority Information Access: 
                CA Issuers - URI:http://url-for-aia/Intermediate.cer

            X509v3 CRL Distribution Points: 

                Full Name:
                  URI:http://url-for-crl/Intermediate.crl

            X509v3 Key Usage: critical
                Certificate Sign, CRL Sign
            X509v3 Basic Constraints: critical
                CA:TRUE, pathlen:0
    Signature Algorithm: sha256WithRSAEncryption
         19:b6:16:ea:23:be:47:b1:3a:8f:1b:ef:f7:33:52:87:ff:d4:
         b5:0b:44:d3:10:69:c7:99:d6:49:db:74:ac:4c:bd:64:87:c5:
         43:90:a6:0a:4e:00:15:8a:92:21:5c:b0:ed:c9:b7:18:d6:28:
         ef:fc:75:3b:98:b0:6e:07:79:94:c7:0f:91:72:97:e5:9a:f7:
         37:45:e2:91:fd:e9:ac:ca:28:65:3f:ac:94:74:b3:87:10:7e:
         56:df:35:4b:89:20:36:ee:9a:05:03:da:f8:d0:fb:02:cc:82:
         f6:9b:84:44:11:5f:be:1c:64:e7:8b:0b:6b:c7:51:f2:79:1f:
         f1:f5:1f:47:37:37:12:52:07:f2:59:2b:d7:4f:b6:60:75:a4:
         6f:ac:e2:33:10:d6:ef:52:fa:d4:87:08:70:31:4a:3e:c6:b7:
         1d:6c:9c:12:41:39:6d:c3:4f:00:cd:e6:5f:2d:f8:30:19:f8:
         58:54:ae:f7:98:81:24:36:3e:a9:05:b1:d9:27:2b:b2:b9:79:
         46:ba:81:21:22:a0:16:49:4c:6a:1c:48:d0:21:2d:85:8e:00:
         f9:7d:71:d6:49:f2:93:aa:16:e9:7c:5d:77:5c:77:6f:4c:ea:
         21:c6:37:b2:76:48:b3:9c:31:2f:80:21:4e:77:86:11:40:1e:
         84:16:60:08
-----BEGIN CERTIFICATE-----
MIIDiDCCAnCgAwIBAgIBATANBgkqhkiG9w0BAQsFADAXMRUwEwYDVQQDDAxJbnRl
cm1lZGlhdGUwHhcNMTUwMTAxMTIwMDAwWhcNMTYwMTAxMTIwMDAwWjAXMRUwEwYD
VQQDDAxJbnRlcm1lZGlhdGUwggEiMA0GCSqGSIb3DQEBAQUAA4IBDwAwggEKAoIB
AQC7zYQUbAtodp591fdVrForbXGtqjQq3LSwwjcjWwUBCLab+5fOPOv+L7Jeawe7
Xyn7sSVVXN2f3om9KTfop4qZw1CCMhC7LRm8qEchPQpmto2rQjqUUH/DGX/qKInC
naiH1RtCY5qfngZyQe5k7qweIfY+PeX20QTdfmHL5WWZwUmXE8QRljti8EatIF1S
XBbWWSninpEV8SMN+zyGkFAFLWOBzDklYswAGLQOGqDYykvgtuozg4ouq2xvQZ7s
Q5LRg7bQReeojShrpLX3U4uK3D6w35/UcE7CLBqlTWxdLpQ1hLld6d8i/VVuBf/r
thAMKKNbScGYY49d+oNOEc0TAgMBAAGjgd4wgdswHQYDVR0OBBYEFAxQk/puU8R2
GIfiOYcLqo4xAT1pMB8GA1UdIwQYMBaAFE5HX5NX/l/zknOmalV8Gvv5FoU2MD8G
CCsGAQUFBwEBBDMwMTAvBggrBgEFBQcwAoYjaHR0cDovL3VybC1mb3ItYWlhL0lu
dGVybWVkaWF0ZS5jZXIwNAYDVR0fBC0wKzApoCegJYYjaHR0cDovL3VybC1mb3It
Y3JsL0ludGVybWVkaWF0ZS5jcmwwDgYDVR0PAQH/BAQDAgEGMBIGA1UdEwEB/wQI
MAYBAf8CAQAwDQYJKoZIhvcNAQELBQADggEBABm2FuojvkexOo8b7/czUof/1LUL
RNMQaceZ1knbdKxMvWSHxUOQpgpOABWKkiFcsO3JtxjWKO/8dTuYsG4HeZTHD5Fy
l+Wa9zdF4pH96azKKGU/rJR0s4cQflbfNUuJIDbumgUD2vjQ+wLMgvabhEQRX74c
ZOeLC2vHUfJ5H/H1H0c3NxJSB/JZK9dPtmB1pG+s4jMQ1u9S+tSHCHAxSj7Gtx1s
nBJBOW3DTwDN5l8t+DAZ+FhUrveYgSQ2PqkFsdknK7K5eUa6gSEioBZJTGocSNAh
LYWOAPl9cdZJ8pOqFul8XXdcd29M6iHGN7J2SLOcMS+AIU53hhFAHoQWYAg=
-----END CERTIFICATE-----

Certificate:
    Data:
        Version: 3 (0x2)
        Serial Number: 2 (0x2)
    Signature Algorithm: sha256WithRSAEncryption
        Issuer: CN=Root
        Validity
            Not Before: Jan  1 12:00:00 2015 GMT
            Not After : Jan  1 12:00:00 2016 GMT
        Subject: CN=Intermediate
        Subject Public Key Info:
            Public Key Algorithm: rsaEncryption
                Public-Key: (2048 bit)
                Modulus:
                    00:cf:6c:3c:e9:bb:09:74:83:4d:d6:c8:58:96:d9:
                    3b:ee:6d:f2:fd:9e:11:e5:80:e5:35:50:51:70:0d:
                    95:a9:f9:0e:96:df:33:db:94:6f:a3:7d:2a:80:d2:
                    a4:3b:fa:34:e0:bd:44:e5:07:a6:09:02:40:3b:6f:
                    11:a7:54:88:0f:22:09:58:27:97:4a:7f:55:e3:03:
                    5c:c2:13:fb:62:4b:0b:b0:fb:5b:20:c1:57:fc:a4:
                    32:4d:97:71:f7:5c:f1:63:6c:21:7b:a8:6e:ce:9f:
                    e5:50:66:40:b1:e9:23:df:52:b4:b6:de:aa:99:75:
                    f0:d2:ec:26:60:37:89:c9:a2:dc:b0:f5:33:e9:0e:
                    0f:0e:bd:f3:72:65:1e:4f:9c:c6:1b:32:34:98:de:
                    04:c0:dd:28:24:ec:f7:dc:e5:54:7a:a5:1a:b0:1a:
                    31:96:d3:43:f0:df:4b:52:41:9c:8e:34:22:50:fc:
                    44:bb:a5:fb:c0:c5:59:8a:bb:32:42:29:fc:73:cb:
                    a1:85:54:7f:5a:db:bd:ec:0d:99:76:c0:c5:72:9f:
                    0d:28:e9:ca:65:9f:a1:69:b6:07:20:01:64:c7:03:
                    0f:ff:ab:a1:f1:df:5b:a4:da:7e:e5:79:68:19:a2:
                    63:e0:87:37:05:5d:f7:88:5d:11:c6:1d:d8:18:0a:
                    0c:23
                Exponent: 65537 (0x10001)
        X509v3 extensions:
            X509v3 Subject Key Identifier: 
                4E:47:5F:93:57:FE:5F:F3:92:73:A6:6A:55:7C:1A:FB:F9:16:85:36
            X509v3 Authority Key Identifier: 
                keyid:A0:D4:A1:BC:4B:2D:3E:83:D7:0D:0C:E2:BE:E6:3A:C5:40:4D:4E:DC

            Authority Information Access: 
                CA Issuers - URI:http://url-for-aia/Root.cer

            X509v3 CRL Distribution Points: 

                Full Name:
                  URI:http://url-for-crl/Root.crl

            X509v3 Key Usage: critical
                Certificate Sign, CRL Sign
            X509v3 Basic Constraints: critical
                CA:TRUE, pathlen:0
    Signature Algorithm: sha256WithRSAEncryption
         c8:e1:98:d8:d3:82:c8:5f:6b:10:fc:04:23:c1:64:7d:4b:14:
         29:ac:68:69:6f:06:e0:7e:4d:af:02:c3:fc:f4:d7:9a:0f:20:
         e1:cf:a1:10:57:0b:d6:06:98:e3:1e:d4:ee:b5:34:74:e4:6a:
         82:34:35:89:9b:50:61:fc:0b:9d:46:11:84:8a:ee:4f:f2:ac:
         96:1c:c0:97:79:2b:21:03:c6:ae:c8:27:b5:3e:3e:00:d3:06:
         50:94:bc:ab:10:dd:9e:42:c9:d9:6f:6e:69:0c:d5:47:78:b7:
         76:bb:fb:be:f9:61:c1:ac:4f:8a:be:f8:c0:03:d0:f4:6d:05:
         71:82:6e:5e:d9:08:20:68:a6:83:79:b5:54:f2:2c:7c:2b:24:
         eb:d0:a7:5f:d5:ec:29:7f:64:8f:d0:62:82:df:a3:7d:16:19:
         89:0a:e5:b5:99:17:68:ab:0c:e6:11:b5:06:3c:67:bf:82:37:
         9e:c6:8c:2a:53:ca:8c:b0:6d:56:83:1f:0e:2d:3d:01:e3:b2:
         f7:8b:2d:60:f0:11:ba:57:35:e0:cf:20:51:79:17:c2:08:11:
         18:d6:e0:38:24:29:04:17:28:ed:88:03:74:a3:44:47:87:90:
         06:fe:20:2f:e0:38:2e:ba:c3:30:c1:cd:14:94:b6:d6:e0:5c:
         9d:a3:aa:1f
-----BEGIN CERTIFICATE-----
MIIDcDCCAligAwIBAgIBAjANBgkqhkiG9w0BAQsFADAPMQ0wCwYDVQQDDARSb290
MB4XDTE1MDEwMTEyMDAwMFoXDTE2MDEwMTEyMDAwMFowFzEVMBMGA1UEAwwMSW50
ZXJtZWRpYXRlMIIBIjANBgkqhkiG9w0BAQEFAAOCAQ8AMIIBCgKCAQEAz2w86bsJ
dINN1shYltk77m3y/Z4R5YDlNVBRcA2VqfkOlt8z25Rvo30qgNKkO/o04L1E5Qem
CQJAO28Rp1SIDyIJWCeXSn9V4wNcwhP7YksLsPtbIMFX/KQyTZdx91zxY2whe6hu
zp/lUGZAsekj31K0tt6qmXXw0uwmYDeJyaLcsPUz6Q4PDr3zcmUeT5zGGzI0mN4E
wN0oJOz33OVUeqUasBoxltND8N9LUkGcjjQiUPxEu6X7wMVZirsyQin8c8uhhVR/
Wtu97A2ZdsDFcp8NKOnKZZ+habYHIAFkxwMP/6uh8d9bpNp+5XloGaJj4Ic3BV33
iF0Rxh3YGAoMIwIDAQABo4HOMIHLMB0GA1UdDgQWBBROR1+TV/5f85JzpmpVfBr7
+RaFNjAfBgNVHSMEGDAWgBSg1KG8Sy0+g9cNDOK+5jrFQE1O3DA3BggrBgEFBQcB
AQQrMCkwJwYIKwYBBQUHMAKGG2h0dHA6Ly91cmwtZm9yLWFpYS9Sb290LmNlcjAs
BgNVHR8EJTAjMCGgH6AdhhtodHRwOi8vdXJsLWZvci1jcmwvUm9vdC5jcmwwDgYD
VR0PAQH/BAQDAgEGMBIGA1UdEwEB/wQIMAYBAf8CAQAwDQYJKoZIhvcNAQELBQAD
ggEBAMjhmNjTgshfaxD8BCPBZH1LFCmsaGlvBuB+Ta8Cw/z015oPIOHPoRBXC9YG
mOMe1O61NHTkaoI0NYmbUGH8C51GEYSK7k/yrJYcwJd5KyEDxq7IJ7U+PgDTBlCU
vKsQ3Z5CydlvbmkM1Ud4t3a7+775YcGsT4q++MAD0PRtBXGCbl7ZCCBopoN5tVTy
LHwrJOvQp1/V7Cl/ZI/QYoLfo30WGYkK5bWZF2irDOYRtQY8Z7+CN57GjCpTyoyw
bVaDHw4tPQHjsveLLWDwEbpXNeDPIFF5F8IIERjW4DgkKQQXKO2IA3SjREeHkAb+
IC/gOC66wzDBzRSUttbgXJ2jqh8=
-----END CERTIFICATE-----

Certificate:
    Data:
        Version: 3 (0x2)
        Serial Number: 1 (0x1)
    Signature Algorithm: sha256WithRSAEncryption
        Issuer: CN=Root
        Validity
            Not Before: Jan  1 12:00:00 2015 GMT
            Not After : Jan  1 12:00:00 2016 GMT
        Subject: CN=Root
        Subject Public Key Info:
            Public Key Algorithm: rsaEncryption
                Public-Key: (2048 bit)
                Modulus:
                    00:de:61:1e:7e:20:61:c0:eb:1c:13:ee:75:3c:36:
                    f0:5d:4b:ef:d2:83:20:1b:d5:bb:6e:70:cf:2f:4a:
                    4e:13:b1:a7:66:9c:19:fe:7f:5c:69:85:0a:64:3e:
                    05:4e:a3:71:bf:70:70:9a:dd:45:18:14:9b:b6:40:
                    39:75:24:67:c3:bf:18:60:be:c9:b4:07:a9:81:f7:
                    1b:d9:4c:96:66:eb:dc:ef:7b:fd:c5:27:68:fd:9b:
                    94:7e:52:ac:ac:4e:65:60:7b:12:d4:6a:de:0f:81:
                    cc:3c:cd:cf:39:f5:f5:28:9f:e1:ee:65:02:66:f8:
                    0d:df:b0:20:45:03:13:16:d2:c7:f2:f7:c9:c7:c9:
                    0d:03:d0:ec:5c:79:a4:54:99:e5:62:52:6c:aa:83:
                    df:42:d5:f7:83:29:ce:90:32:06:71:80:78:e1:fb:
                    a6:d4:25:02:c5:b1:bd:43:68:fa:8d:c6:cc:10:18:
                    02:58:3d:32:df:65:a8:47:75:cb:88:0e:fa:0e:33:
                    60:bd:d1:fe:0c:e4:29:60:f3:28:fb:91:45:f3:ba:
                    b7:fc:ec:63:ba:b9:2d:4e:fc:95:8e:3d:fb:9d:87:
                    dd:0b:5c:ff:a8:75:3d:66:2c:cd:ec:4a:fd:c8:24:
                    4b:0f:a9:0d:aa:81:69:56:00:c4:ef:97:e1:7d:38:
                    6f:b5
                Exponent: 65537 (0x10001)
        X509v3 extensions:
            X509v3 Subject Key Identifier: 
                A0:D4:A1:BC:4B:2D:3E:83:D7:0D:0C:E2:BE:E6:3A:C5:40:4D:4E:DC
            X509v3 Authority Key Identifier: 
                keyid:A0:D4:A1:BC:4B:2D:3E:83:D7:0D:0C:E2:BE:E6:3A:C5:40:4D:4E:DC

            Authority Information Access: 
                CA Issuers - URI:http://url-for-aia/Root.cer

            X509v3 CRL Distribution Points: 

                Full Name:
                  URI:http://url-for-crl/Root.crl

            X509v3 Key Usage: critical
                Certificate Sign, CRL Sign
            X509v3 Basic Constraints: critical
                CA:TRUE
    Signature Algorithm: sha256WithRSAEncryption
         a3:37:3e:47:45:66:c0:12:bf:41:97:3a:80:2c:3b:f8:3b:6c:
         13:ab:39:b6:d5:87:17:fb:35:9d:98:fa:f4:88:54:2b:aa:85:
         a9:44:46:7b:a8:c1:62:a8:b4:af:eb:65:72:54:6d:7e:a5:fa:
         c2:91:cc:42:e1:ec:02:9e:42:5a:6e:03:bf:73:7d:a5:0e:62:
         f6:54:83:b4:f3:f9:c1:b4:3b:af:9a:1e:de:81:6a:ff:7b:a9:
         b8:e1:3f:56:d1:9b:50:13:8d:c5:b0:9b:d4:55:bd:db:6e:ff:
         76:13:4c:21:3a:fc:cc:10:59:e4:d5:4d:d2:36:9b:67:67:69:
         5c:3b:96:40:17:e7:a3:0d:b2:45:6b:93:dd:8a:18:a4:65:87:
         b5:9f:33:dc:fc:82:3a:5a:56:12:e8:b8:59:5e:e8:8c:f0:a8:
         c5:7b:bf:53:56:f0:46:ba:70:94:3a:62:0a:ce:39:1f:44:e2:
         11:ba:8d:88:47:14:bd:c3:68:a3:18:73:3d:25:dc:a3:e4:17:
         cb:7d:f6:52:ea:a6:3f:a1:fb:0a:db:6d:60:c2:9c:1e:9f:ae:
         b8:c1:90:b0:ea:f9:5f:40:af:50:a7:93:1c:7a:c8:fd:20:6d:
         ae:65:cc:63:08:e4:9c:dd:4a:f2:16:d9:1a:5e:dc:a8:d0:67:
         c7:27:27:18
-----BEGIN CERTIFICATE-----
MIIDZTCCAk2gAwIBAgIBATANBgkqhkiG9w0BAQsFADAPMQ0wCwYDVQQDDARSb290
MB4XDTE1MDEwMTEyMDAwMFoXDTE2MDEwMTEyMDAwMFowDzENMAsGA1UEAwwEUm9v
dDCCASIwDQYJKoZIhvcNAQEBBQADggEPADCCAQoCggEBAN5hHn4gYcDrHBPudTw2
8F1L79KDIBvVu25wzy9KThOxp2acGf5/XGmFCmQ+BU6jcb9wcJrdRRgUm7ZAOXUk
Z8O/GGC+ybQHqYH3G9lMlmbr3O97/cUnaP2blH5SrKxOZWB7EtRq3g+BzDzNzzn1
9Sif4e5lAmb4Dd+wIEUDExbSx/L3ycfJDQPQ7Fx5pFSZ5WJSbKqD30LV94MpzpAy
BnGAeOH7ptQlAsWxvUNo+o3GzBAYAlg9Mt9lqEd1y4gO+g4zYL3R/gzkKWDzKPuR
RfO6t/zsY7q5LU78lY49+52H3Qtc/6h1PWYszexK/cgkSw+pDaqBaVYAxO+X4X04
b7UCAwEAAaOByzCByDAdBgNVHQ4EFgQUoNShvEstPoPXDQzivuY6xUBNTtwwHwYD
VR0jBBgwFoAUoNShvEstPoPXDQzivuY6xUBNTtwwNwYIKwYBBQUHAQEEKzApMCcG
CCsGAQUFBzAChhtodHRwOi8vdXJsLWZvci1haWEvUm9vdC5jZXIwLAYDVR0fBCUw
IzAhoB+gHYYbaHR0cDovL3VybC1mb3ItY3JsL1Jvb3QuY3JsMA4GA1UdDwEB/wQE
AwIBBjAPBgNVHRMBAf8EBTADAQH/MA0GCSqGSIb3DQEBCwUAA4IBAQCjNz5HRWbA
Er9BlzqALDv4O2wTqzm21YcX+zWdmPr0iFQrqoWpREZ7qMFiqLSv62VyVG1+pfrC
kcxC4ewCnkJabgO/c32lDmL2VIO08/nBtDuvmh7egWr/e6m44T9W0ZtQE43FsJvU
Vb3bbv92E0whOvzMEFnk1U3SNptnZ2lcO5ZAF+ejDbJFa5PdihikZYe1nzPc/II6
WlYS6LhZXuiM8KjFe79TVvBGunCUOmIKzjkfROIRuo2IRxS9w2ijGHM9Jdyj5BfL
ffZS6qY/ofsK221gwpwen664wZCw6vlfQK9Qp5Mcesj9IG2uZcxjCOSc3UryFtka
Xtyo0GfHJycY
-----END CERTIFICATE-----
