[Created by: generate-chains.py]

Certificate chain with 1 intermediate and a trust anchor. The trust anchor
has a basic constraints extension that indicates it is NOT a CA. Verification
is expected to succeed even though the trust anchor enforces constraints, since
the CA part of basic constraints is not enforced.

Certificate:
    Data:
        Version: 3 (0x2)
        Serial Number: 1 (0x1)
    Signature Algorithm: sha256WithRSAEncryption
        Issuer: CN=Intermediate
        Validity
            Not Before: Jan  1 12:00:00 2015 GMT
            Not After : Jan  1 12:00:00 2016 GMT
        Subject: CN=Target
        Subject Public Key Info:
            Public Key Algorithm: rsaEncryption
                Public-Key: (2048 bit)
                Modulus:
                    00:b3:7d:07:29:33:df:ea:eb:78:7f:88:ef:13:78:
                    ff:42:10:a6:ae:9c:8d:9e:c6:48:37:77:a4:2c:27:
                    81:cd:a9:b2:54:b5:84:cd:0a:a1:90:11:28:1d:85:
                    0f:9a:88:a4:a1:75:36:42:53:19:71:4d:da:17:02:
                    9f:80:94:58:55:87:23:47:47:be:8a:64:15:d6:15:
                    6f:fe:73:a2:e7:e8:5a:01:48:33:ae:21:a1:7c:a3:
                    3a:58:fc:2c:25:f5:ab:ff:bb:3d:ff:e1:2f:62:d8:
                    79:ec:e5:d6:b0:33:dc:ce:68:ca:f5:96:b7:0e:5f:
                    22:80:09:e8:ca:6c:14:64:84:97:a9:c0:bf:57:e4:
                    ad:42:46:c6:58:07:2d:12:18:a2:d1:1f:5d:40:0e:
                    93:19:eb:a0:4b:49:f5:1e:f6:8b:f9:6f:37:96:e4:
                    07:04:71:bc:da:d4:e0:3f:3d:4e:3e:71:40:e8:39:
                    27:ab:c8:2d:b4:22:45:51:32:8a:c4:21:10:84:fe:
                    ba:74:3e:72:8e:64:66:24:f6:a2:7a:f9:10:29:9d:
                    48:59:57:a9:0a:59:b4:00:60:5c:e1:93:4f:53:23:
                    a1:2e:a3:a3:eb:49:2c:8a:d1:2d:ba:bb:57:c3:a4:
                    5f:78:85:4b:8d:b0:6a:89:f0:cc:ba:be:60:89:a8:
                    9c:49
                Exponent: 65537 (0x10001)
        X509v3 extensions:
            X509v3 Subject Key Identifier: 
                72:41:94:01:8B:5E:D8:39:1C:E1:A1:6F:76:49:3E:9F:93:09:60:3A
            X509v3 Authority Key Identifier: 
                keyid:7A:10:56:B4:5F:2F:4E:7E:28:92:1A:46:EE:EB:8F:1E:A0:B6:3B:02

            Authority Information Access: 
                CA Issuers - URI:http://url-for-aia/Intermediate.cer

            X509v3 CRL Distribution Points: 

                Full Name:
                  URI:http://url-for-crl/Intermediate.crl

            X509v3 Key Usage: critical
                Digital Signature, Key Encipherment
            X509v3 Extended Key Usage: 
                TLS Web Server Authentication, TLS Web Client Authentication
    Signature Algorithm: sha256WithRSAEncryption
         8b:ee:65:ac:90:4d:81:25:5f:e1:42:eb:b8:38:4a:08:10:f6:
         35:e8:46:4d:e1:10:9c:59:25:6b:ce:ac:a6:8f:64:b3:d7:15:
         b0:e9:4d:1e:a6:5e:62:fc:38:9e:41:45:60:7c:20:9d:8f:ed:
         f2:fd:a5:9c:14:1d:12:bf:31:e2:d0:b8:a8:c2:6a:df:d2:38:
         7a:d0:f3:1e:ad:24:c7:cd:f6:5e:71:1c:c3:df:f0:16:47:5c:
         b4:c9:6f:6c:0d:bc:92:ec:29:76:6d:5b:ea:96:97:b4:1e:43:
         11:c4:41:6c:ee:66:ef:e8:48:1a:f6:52:17:0e:73:08:92:ad:
         df:c5:29:93:9a:07:1b:16:58:8e:14:0d:1c:e4:06:ac:92:87:
         64:62:22:f4:f8:1e:45:d7:de:eb:9a:cd:1c:74:5c:bb:9a:02:
         b9:ab:57:f0:a6:11:9b:4a:87:e0:b8:62:ca:18:e4:cf:c4:d6:
         7f:52:2b:e1:54:f6:92:65:be:89:3c:e0:78:1f:d4:8b:e4:37:
         0f:c8:68:01:df:fa:39:60:e5:de:7b:31:87:3b:19:39:ca:42:
         b8:9f:93:2a:2f:2b:14:5c:57:f9:ca:2e:bc:6a:38:73:72:3a:
         87:e2:29:c1:54:4d:45:31:49:3a:b6:d7:04:c6:8c:19:59:67:
         c3:94:a1:4c
-----BEGIN CERTIFICATE-----
MIIDjTCCAnWgAwIBAgIBATANBgkqhkiG9w0BAQsFADAXMRUwEwYDVQQDDAxJbnRl
cm1lZGlhdGUwHhcNMTUwMTAxMTIwMDAwWhcNMTYwMTAxMTIwMDAwWjARMQ8wDQYD
VQQDDAZUYXJnZXQwggEiMA0GCSqGSIb3DQEBAQUAA4IBDwAwggEKAoIBAQCzfQcp
M9/q63h/iO8TeP9CEKaunI2exkg3d6QsJ4HNqbJUtYTNCqGQESgdhQ+aiKShdTZC
UxlxTdoXAp+AlFhVhyNHR76KZBXWFW/+c6Ln6FoBSDOuIaF8ozpY/Cwl9av/uz3/
4S9i2Hns5dawM9zOaMr1lrcOXyKACejKbBRkhJepwL9X5K1CRsZYBy0SGKLRH11A
DpMZ66BLSfUe9ov5bzeW5AcEcbza1OA/PU4+cUDoOSeryC20IkVRMorEIRCE/rp0
PnKOZGYk9qJ6+RApnUhZV6kKWbQAYFzhk09TI6Euo6PrSSyK0S26u1fDpF94hUuN
sGqJ8My6vmCJqJxJAgMBAAGjgekwgeYwHQYDVR0OBBYEFHJBlAGLXtg5HOGhb3ZJ
Pp+TCWA6MB8GA1UdIwQYMBaAFHoQVrRfL05+KJIaRu7rjx6gtjsCMD8GCCsGAQUF
BwEBBDMwMTAvBggrBgEFBQcwAoYjaHR0cDovL3VybC1mb3ItYWlhL0ludGVybWVk
aWF0ZS5jZXIwNAYDVR0fBC0wKzApoCegJYYjaHR0cDovL3VybC1mb3ItY3JsL0lu
dGVybWVkaWF0ZS5jcmwwDgYDVR0PAQH/BAQDAgWgMB0GA1UdJQQWMBQGCCsGAQUF
BwMBBggrBgEFBQcDAjANBgkqhkiG9w0BAQsFAAOCAQEAi+5lrJBNgSVf4ULruDhK
CBD2NehGTeEQnFkla86spo9ks9cVsOlNHqZeYvw4nkFFYHwgnY/t8v2lnBQdEr8x
4tC4qMJq39I4etDzHq0kx832XnEcw9/wFkdctMlvbA28kuwpdm1b6paXtB5DEcRB
bO5m7+hIGvZSFw5zCJKt38Upk5oHGxZYjhQNHOQGrJKHZGIi9PgeRdfe65rNHHRc
u5oCuatX8KYRm0qH4Lhiyhjkz8TWf1Ir4VT2kmW+iTzgeB/Ui+Q3D8hoAd/6OWDl
3nsxhzsZOcpCuJ+TKi8rFFxX+couvGo4c3I6h+IpwVRNRTFJOrbXBMaMGVlnw5Sh
TA==
-----END CERTIFICATE-----

Certificate:
    Data:
        Version: 3 (0x2)
        Serial Number: 2 (0x2)
    Signature Algorithm: sha256WithRSAEncryption
        Issuer: CN=Root
        Validity
            Not Before: Jan  1 12:00:00 2015 GMT
            Not After : Jan  1 12:00:00 2016 GMT
        Subject: CN=Intermediate
        Subject Public Key Info:
            Public Key Algorithm: rsaEncryption
                Public-Key: (2048 bit)
                Modulus:
                    00:bb:be:bc:29:e3:c0:a2:2b:12:a7:b2:77:ff:30:
                    a1:03:d7:b9:aa:0b:7d:b4:2a:4b:e4:cb:72:cb:5e:
                    ff:34:16:06:51:e2:e5:bf:a0:ae:0b:19:34:c3:45:
                    b1:2b:df:94:3c:9c:00:1c:bf:1f:69:a5:a6:08:04:
                    20:c9:0a:0d:c2:69:0b:a6:63:63:ab:9b:76:5b:d0:
                    1e:d1:20:32:02:bc:4d:4b:02:7e:8a:6c:90:34:b1:
                    2b:ae:88:da:99:fd:e0:77:f6:97:54:dc:f5:53:64:
                    83:87:70:f9:03:c4:aa:45:2c:78:bc:b0:9b:fa:11:
                    eb:a0:8c:a4:62:12:c2:82:ee:70:83:a8:8f:19:26:
                    1c:f0:60:e4:17:20:bf:4c:d8:76:90:42:0d:cd:82:
                    fe:e9:38:39:ca:d8:72:c0:8f:cf:98:4d:af:47:82:
                    77:63:a7:6e:c0:e8:ac:f8:4c:a8:b1:b0:20:09:03:
                    74:67:cc:24:5f:91:24:4a:38:05:ca:64:3e:b7:e0:
                    03:a5:79:44:71:32:19:31:cb:0a:02:84:39:8a:a7:
                    10:c7:6b:60:72:81:16:3f:9c:ac:f8:af:46:c4:21:
                    f4:88:30:a8:8d:62:82:1c:36:8d:b0:d9:00:bb:b5:
                    8c:e5:7a:89:de:6c:fd:3f:f0:e1:12:50:8c:1c:02:
                    1f:e9
                Exponent: 65537 (0x10001)
        X509v3 extensions:
            X509v3 Subject Key Identifier: 
                7A:10:56:B4:5F:2F:4E:7E:28:92:1A:46:EE:EB:8F:1E:A0:B6:3B:02
            X509v3 Authority Key Identifier: 
                keyid:9E:16:CB:63:0C:02:2E:E7:DC:BA:AA:D5:D2:10:B0:E0:F7:2D:14:6D

            Authority Information Access: 
                CA Issuers - URI:http://url-for-aia/Root.cer

            X509v3 CRL Distribution Points: 

                Full Name:
                  URI:http://url-for-crl/Root.crl

            X509v3 Key Usage: critical
                Certificate Sign, CRL Sign
            X509v3 Basic Constraints: critical
                CA:TRUE
    Signature Algorithm: sha256WithRSAEncryption
         3e:31:dd:13:08:38:cc:52:d8:16:8d:eb:23:d2:af:0e:52:f7:
         90:bc:e9:5d:c0:3d:52:aa:ee:54:a9:8b:71:d0:71:79:a0:42:
         66:9c:14:bd:a6:9b:b0:62:67:78:b9:52:1c:87:3d:32:22:af:
         65:2a:7f:3b:fc:94:a7:70:c2:83:2c:d6:cf:c7:ba:1f:28:4b:
         7a:a4:0f:90:7d:a6:b7:72:bd:37:d9:39:18:8b:e4:c0:9f:03:
         aa:70:db:70:51:48:32:a9:4c:2d:a6:f7:55:ae:6c:06:7e:7d:
         e9:0f:5a:0e:ae:30:2d:79:ea:5c:de:dd:95:2b:a9:ad:c4:c1:
         e2:d7:4b:3b:2a:41:e8:80:94:bc:97:10:3a:c0:1a:71:56:4c:
         04:c2:6f:30:dd:35:dc:68:16:4c:c5:1d:0c:6b:fd:d2:c1:38:
         c9:cb:6c:fd:70:5a:34:7a:04:e1:b2:24:e4:d5:c6:8f:5b:96:
         93:a1:54:cb:f8:02:4b:e6:72:a1:45:9a:8c:e9:5a:b9:02:c2:
         07:04:2e:25:80:1e:ad:58:14:f6:96:b6:7d:85:80:da:9f:5a:
         3c:4e:db:a2:5b:b6:4c:ea:b8:92:13:bd:e7:da:41:25:c1:86:
         44:6e:65:3e:cb:d4:a2:70:ad:49:2e:eb:2a:86:6a:22:40:89:
         22:6f:46:a5
-----BEGIN CERTIFICATE-----
MIIDbTCCAlWgAwIBAgIBAjANBgkqhkiG9w0BAQsFADAPMQ0wCwYDVQQDDARSb290
MB4XDTE1MDEwMTEyMDAwMFoXDTE2MDEwMTEyMDAwMFowFzEVMBMGA1UEAwwMSW50
ZXJtZWRpYXRlMIIBIjANBgkqhkiG9w0BAQEFAAOCAQ8AMIIBCgKCAQEAu768KePA
oisSp7J3/zChA9e5qgt9tCpL5Mtyy17/NBYGUeLlv6CuCxk0w0WxK9+UPJwAHL8f
aaWmCAQgyQoNwmkLpmNjq5t2W9Ae0SAyArxNSwJ+imyQNLErrojamf3gd/aXVNz1
U2SDh3D5A8SqRSx4vLCb+hHroIykYhLCgu5wg6iPGSYc8GDkFyC/TNh2kEINzYL+
6Tg5ythywI/PmE2vR4J3Y6duwOis+EyosbAgCQN0Z8wkX5EkSjgFymQ+t+ADpXlE
cTIZMcsKAoQ5iqcQx2tgcoEWP5ys+K9GxCH0iDCojWKCHDaNsNkAu7WM5XqJ3mz9
P/DhElCMHAIf6QIDAQABo4HLMIHIMB0GA1UdDgQWBBR6EFa0Xy9OfiiSGkbu648e
oLY7AjAfBgNVHSMEGDAWgBSeFstjDAIu59y6qtXSELDg9y0UbTA3BggrBgEFBQcB
AQQrMCkwJwYIKwYBBQUHMAKGG2h0dHA6Ly91cmwtZm9yLWFpYS9Sb290LmNlcjAs
BgNVHR8EJTAjMCGgH6AdhhtodHRwOi8vdXJsLWZvci1jcmwvUm9vdC5jcmwwDgYD
VR0PAQH/BAQDAgEGMA8GA1UdEwEB/wQFMAMBAf8wDQYJKoZIhvcNAQELBQADggEB
AD4x3RMIOMxS2BaN6yPSrw5S95C86V3APVKq7lSpi3HQcXmgQmacFL2mm7BiZ3i5
UhyHPTIir2Uqfzv8lKdwwoMs1s/Huh8oS3qkD5B9prdyvTfZORiL5MCfA6pw23BR
SDKpTC2m91WubAZ+fekPWg6uMC156lze3ZUrqa3EweLXSzsqQeiAlLyXEDrAGnFW
TATCbzDdNdxoFkzFHQxr/dLBOMnLbP1wWjR6BOGyJOTVxo9blpOhVMv4AkvmcqFF
mozpWrkCwgcELiWAHq1YFPaWtn2FgNqfWjxO26JbtkzquJITvefaQSXBhkRuZT7L
1KJwrUku6yqGaiJAiSJvRqU=
-----END CERTIFICATE-----

Certificate:
    Data:
        Version: 3 (0x2)
        Serial Number: 1 (0x1)
    Signature Algorithm: sha256WithRSAEncryption
        Issuer: CN=Root
        Validity
            Not Before: Jan  1 12:00:00 2015 GMT
            Not After : Jan  1 12:00:00 2016 GMT
        Subject: CN=Root
        Subject Public Key Info:
            Public Key Algorithm: rsaEncryption
                Public-Key: (2048 bit)
                Modulus:
                    00:a8:a5:0e:06:b7:99:51:ad:fd:57:50:ba:00:3c:
                    ce:4b:a5:f8:a1:6d:00:ae:32:93:30:ec:a3:1b:58:
                    e3:09:5e:4e:61:fa:7f:f1:21:1a:a6:8d:bd:72:21:
                    e6:6d:82:33:7e:20:be:66:54:a6:42:92:18:db:43:
                    ef:09:93:d8:b4:6e:64:78:ce:b4:3b:9f:44:62:9f:
                    73:dd:e9:0f:11:ce:9a:a1:82:dd:32:04:71:f2:46:
                    03:e2:a1:7c:36:2f:78:de:97:b8:7b:da:3a:6a:b8:
                    81:7c:d1:76:17:72:3c:a6:ba:74:4b:38:db:6b:47:
                    d3:52:f1:e0:ad:17:4f:48:fe:2b:7a:a5:28:aa:52:
                    12:4c:f6:c2:4e:23:b5:b2:eb:9c:e1:6b:91:05:b0:
                    a7:3f:64:6f:bc:08:96:78:de:9f:ed:27:5b:d8:33:
                    b6:80:aa:80:40:a7:a3:c4:96:37:71:9a:ef:a6:2b:
                    5d:07:e9:8d:e5:9b:84:4a:ac:db:52:68:b9:80:74:
                    be:ce:a7:c2:fe:b7:45:37:b2:c2:e9:0f:f9:54:15:
                    ab:7e:e9:c6:86:05:4a:26:f8:b6:3f:ec:a7:0a:4e:
                    00:a1:73:3e:f3:db:77:38:0f:bc:37:9b:7c:cb:4d:
                    fc:ab:4b:d1:a2:ff:7d:1d:b1:d2:14:0d:74:bc:a4:
                    8d:11
                Exponent: 65537 (0x10001)
        X509v3 extensions:
            X509v3 Subject Key Identifier: 
                9E:16:CB:63:0C:02:2E:E7:DC:BA:AA:D5:D2:10:B0:E0:F7:2D:14:6D
            X509v3 Authority Key Identifier: 
                keyid:9E:16:CB:63:0C:02:2E:E7:DC:BA:AA:D5:D2:10:B0:E0:F7:2D:14:6D

            Authority Information Access: 
                CA Issuers - URI:http://url-for-aia/Root.cer

            X509v3 CRL Distribution Points: 

                Full Name:
                  URI:http://url-for-crl/Root.crl

            X509v3 Key Usage: critical
                Certificate Sign, CRL Sign
            X509v3 Basic Constraints: critical
                CA:FALSE
    Signature Algorithm: sha256WithRSAEncryption
         17:46:88:e9:36:01:90:63:cd:07:5a:1c:e2:6d:f8:62:7b:ac:
         64:87:bd:e5:1a:e0:5f:53:e1:ab:ab:ff:6b:a6:b6:56:b9:20:
         1e:64:69:80:10:b2:d4:9a:45:67:42:15:83:a7:fc:d2:ff:43:
         03:e1:e9:f5:75:a7:cc:0a:c0:25:c8:bc:37:03:b9:40:b7:c5:
         bd:bc:f3:90:a3:55:b8:c8:db:f0:ed:38:ee:63:e2:3b:8b:a1:
         ec:c1:3b:d1:9c:55:08:ac:5f:05:e3:ed:20:ce:46:49:49:8b:
         ea:48:86:a6:28:40:27:1b:a6:5d:dc:f5:be:7a:f4:7a:9f:6e:
         79:fd:03:b5:cd:51:d3:d9:e6:01:0c:38:fd:8e:d2:b9:be:17:
         27:d6:14:16:34:62:3a:0b:45:42:90:f3:88:cf:6e:8d:19:40:
         b2:6e:10:f9:1f:6c:fb:ed:02:b8:30:ed:83:af:1b:de:eb:12:
         dd:3c:0d:79:d2:de:e5:78:7f:29:2c:ae:d2:ca:e8:45:d4:30:
         ee:d1:f1:41:f5:9e:9f:ce:4c:12:8b:e3:2b:6c:02:13:90:b3:
         b8:d6:50:25:5c:da:17:eb:03:3a:b2:f8:df:77:5b:cb:4a:5f:
         c6:b6:11:21:9c:4f:c4:f8:00:e3:e1:96:db:0c:88:a7:9c:35:
         03:8f:2c:e3
-----BEGIN CERTIFICATE-----
MIIDYjCCAkqgAwIBAgIBATANBgkqhkiG9w0BAQsFADAPMQ0wCwYDVQQDDARSb290
MB4XDTE1MDEwMTEyMDAwMFoXDTE2MDEwMTEyMDAwMFowDzENMAsGA1UEAwwEUm9v
dDCCASIwDQYJKoZIhvcNAQEBBQADggEPADCCAQoCggEBAKilDga3mVGt/VdQugA8
zkul+KFtAK4ykzDsoxtY4wleTmH6f/EhGqaNvXIh5m2CM34gvmZUpkKSGNtD7wmT
2LRuZHjOtDufRGKfc93pDxHOmqGC3TIEcfJGA+KhfDYveN6XuHvaOmq4gXzRdhdy
PKa6dEs422tH01Lx4K0XT0j+K3qlKKpSEkz2wk4jtbLrnOFrkQWwpz9kb7wIlnje
n+0nW9gztoCqgECno8SWN3Ga76YrXQfpjeWbhEqs21JouYB0vs6nwv63RTeywukP
+VQVq37pxoYFSib4tj/spwpOAKFzPvPbdzgPvDebfMtN/KtL0aL/fR2x0hQNdLyk
jRECAwEAAaOByDCBxTAdBgNVHQ4EFgQUnhbLYwwCLufcuqrV0hCw4PctFG0wHwYD
VR0jBBgwFoAUnhbLYwwCLufcuqrV0hCw4PctFG0wNwYIKwYBBQUHAQEEKzApMCcG
CCsGAQUFBzAChhtodHRwOi8vdXJsLWZvci1haWEvUm9vdC5jZXIwLAYDVR0fBCUw
IzAhoB+gHYYbaHR0cDovL3VybC1mb3ItY3JsL1Jvb3QuY3JsMA4GA1UdDwEB/wQE
AwIBBjAMBgNVHRMBAf8EAjAAMA0GCSqGSIb3DQEBCwUAA4IBAQAXRojpNgGQY80H
Whzibfhie6xkh73lGuBfU+Grq/9rprZWuSAeZGmAELLUmkVnQhWDp/zS/0MD4en1
dafMCsAlyLw3A7lAt8W9vPOQo1W4yNvw7TjuY+I7i6HswTvRnFUIrF8F4+0gzkZJ
SYvqSIamKEAnG6Zd3PW+evR6n255/QO1zVHT2eYBDDj9jtK5vhcn1hQWNGI6C0VC
kPOIz26NGUCybhD5H2z77QK4MO2Drxve6xLdPA150t7leH8pLK7SyuhF1DDu0fFB
9Z6fzkwSi+MrbAITkLO41lAlXNoX6wM6svjfd1vLSl/GthEhnE/E+ADj4ZbbDIin
nDUDjyzj
-----END CERTIFICATE-----
