Certificate:
    Data:
        Version: 3 (0x2)
        Serial Number: 2 (0x2)
    Signature Algorithm: sha256WithRSAEncryption
        Issuer: CN=Root
        Validity
            Not Before: Jan  1 12:00:00 2015 GMT
            Not After : Jan  1 12:00:00 2021 GMT
        Subject: CN=I
        Subject Public Key Info:
            Public Key Algorithm: rsaEncryption
                Public-Key: (2048 bit)
                Modulus:
                    00:a7:94:9a:13:a0:38:6f:f9:cd:27:0d:9d:7d:f3:
                    0c:fe:a0:dd:39:23:4d:33:d5:d9:88:c5:23:71:a1:
                    a7:f5:50:c7:c6:38:cb:88:41:87:e8:25:75:14:be:
                    09:ef:4f:b1:48:c7:50:f6:de:05:85:4a:01:7c:6c:
                    e9:e1:4e:18:5f:43:38:cb:42:3a:e3:4a:7d:49:86:
                    f5:30:d8:44:70:4e:c9:77:3d:ba:d2:a4:cc:a5:df:
                    8c:e9:58:f8:2d:a5:b4:7a:7e:23:4e:0f:89:a0:5f:
                    0f:f1:47:95:bd:f4:2f:e9:3b:0e:ba:ef:e7:10:03:
                    0a:94:9d:fe:65:86:49:4d:c2:4f:b6:dc:23:e7:30:
                    e6:10:64:0c:ed:4e:17:aa:1d:56:1d:6f:b8:3f:e5:
                    8c:60:8a:f3:67:5a:04:6d:f3:84:98:01:db:11:c6:
                    e2:c4:fc:0a:5a:33:77:eb:38:35:21:45:c0:b3:30:
                    c2:95:4b:85:73:03:75:e5:9f:fd:a5:72:aa:21:64:
                    cd:26:a6:8d:7a:bc:68:6a:36:ab:fe:a6:16:9c:b9:
                    93:e9:26:cf:cb:3c:9d:a9:26:18:d1:83:61:25:e4:
                    bc:6a:47:51:78:c9:1e:a2:38:10:8e:92:64:a8:aa:
                    70:46:d3:cd:d2:5b:56:c3:98:ca:f1:b4:e0:cf:c9:
                    48:b7
                Exponent: 65537 (0x10001)
        X509v3 extensions:
            X509v3 Subject Key Identifier: 
                40:91:28:21:9D:93:F3:9C:18:1B:FF:00:9C:B2:08:A0:A3:81:7D:2A
            X509v3 Authority Key Identifier: 
                keyid:E5:4E:96:E4:D9:82:36:BD:51:C3:57:BD:E6:DE:3C:C1:46:B4:49:0D

            Authority Information Access: 
                CA Issuers - URI:http://url-for-aia/Root.cer

            X509v3 CRL Distribution Points: 

                Full Name:
                  URI:http://url-for-crl/Root.crl

            X509v3 Key Usage: critical
                Certificate Sign, CRL Sign
            X509v3 Basic Constraints: critical
                CA:TRUE
    Signature Algorithm: sha256WithRSAEncryption
         96:0d:55:2e:09:b5:27:6b:48:e0:88:87:f2:fb:a0:04:99:c2:
         7d:8c:8c:ad:60:ff:dd:6a:69:f3:cc:08:c9:1e:02:29:7a:73:
         e3:ee:ef:9e:c1:52:dd:3e:9d:d4:07:6a:39:0b:0a:a2:6a:1e:
         17:86:b5:8a:e4:53:f2:f7:00:bd:90:95:d2:08:9c:a3:28:2c:
         4d:38:2d:eb:a4:a8:c4:17:44:1d:f6:57:d8:6d:98:06:3b:a9:
         24:82:42:4e:8d:25:c9:5e:96:b6:f6:31:95:6c:49:3e:2d:15:
         37:30:6f:d4:f1:15:ad:c2:49:35:89:76:c6:ac:dc:85:e2:ce:
         d3:ba:cc:fd:fe:51:3a:a0:e6:56:4c:f8:21:b7:5c:f0:2c:88:
         fa:9e:e9:85:76:de:8a:aa:48:d1:3f:03:01:41:6e:55:83:80:
         5a:a0:36:5b:52:41:6e:2f:59:6d:07:fe:15:b1:7b:b7:c6:1b:
         84:61:61:c5:82:84:98:22:20:45:69:d1:36:ea:7f:db:e0:03:
         d6:73:a0:a9:6b:70:f2:9b:98:5e:f2:3e:30:c8:f6:b9:c9:35:
         48:ae:68:21:ea:ec:9f:28:29:d2:88:bb:7e:e4:13:03:f9:79:
         c9:2d:f7:41:90:28:4e:56:fc:c0:26:49:e4:0c:67:50:26:76:
         7d:ba:c1:1c
-----BEGIN CERTIFICATE-----
MIIDYjCCAkqgAwIBAgIBAjANBgkqhkiG9w0BAQsFADAPMQ0wCwYDVQQDDARSb290
MB4XDTE1MDEwMTEyMDAwMFoXDTIxMDEwMTEyMDAwMFowDDEKMAgGA1UEAwwBSTCC
ASIwDQYJKoZIhvcNAQEBBQADggEPADCCAQoCggEBAKeUmhOgOG/5zScNnX3zDP6g
3TkjTTPV2YjFI3Ghp/VQx8Y4y4hBh+gldRS+Ce9PsUjHUPbeBYVKAXxs6eFOGF9D
OMtCOuNKfUmG9TDYRHBOyXc9utKkzKXfjOlY+C2ltHp+I04PiaBfD/FHlb30L+k7
Drrv5xADCpSd/mWGSU3CT7bcI+cw5hBkDO1OF6odVh1vuD/ljGCK82daBG3zhJgB
2xHG4sT8Clozd+s4NSFFwLMwwpVLhXMDdeWf/aVyqiFkzSamjXq8aGo2q/6mFpy5
k+kmz8s8nakmGNGDYSXkvGpHUXjJHqI4EI6SZKiqcEbTzdJbVsOYyvG04M/JSLcC
AwEAAaOByzCByDAdBgNVHQ4EFgQUQJEoIZ2T85wYG/8AnLIIoKOBfSowHwYDVR0j
BBgwFoAU5U6W5NmCNr1Rw1e95t48wUa0SQ0wNwYIKwYBBQUHAQEEKzApMCcGCCsG
AQUFBzAChhtodHRwOi8vdXJsLWZvci1haWEvUm9vdC5jZXIwLAYDVR0fBCUwIzAh
oB+gHYYbaHR0cDovL3VybC1mb3ItY3JsL1Jvb3QuY3JsMA4GA1UdDwEB/wQEAwIB
BjAPBgNVHRMBAf8EBTADAQH/MA0GCSqGSIb3DQEBCwUAA4IBAQCWDVUuCbUna0jg
iIfy+6AEmcJ9jIytYP/damnzzAjJHgIpenPj7u+ewVLdPp3UB2o5Cwqiah4XhrWK
5FPy9wC9kJXSCJyjKCxNOC3rpKjEF0Qd9lfYbZgGO6kkgkJOjSXJXpa29jGVbEk+
LRU3MG/U8RWtwkk1iXbGrNyF4s7Tusz9/lE6oOZWTPght1zwLIj6numFdt6KqkjR
PwMBQW5Vg4BaoDZbUkFuL1ltB/4VsXu3xhuEYWHFgoSYIiBFadE26n/b4APWc6Cp
a3Dym5he8j4wyPa5yTVIrmgh6uyfKCnSiLt+5BMD+XnJLfdBkChOVvzAJknkDGdQ
JnZ9usEc
-----END CERTIFICATE-----
