Certificate:
    Data:
        Version: 3 (0x2)
        Serial Number: 2 (0x2)
    Signature Algorithm: sha256WithRSAEncryption
        Issuer: CN=Root
        Validity
            Not Before: Jan  1 12:00:00 2015 GMT
            Not After : Jan  1 12:00:00 2021 GMT
        Subject: CN=I
        Subject Public Key Info:
            Public Key Algorithm: rsaEncryption
                Public-Key: (2048 bit)
                Modulus:
                    00:ad:aa:76:dc:52:a2:4a:fd:8a:eb:22:f7:e2:32:
                    88:2d:69:bb:cf:74:55:2d:db:bd:9a:00:41:8f:ea:
                    28:b3:4a:ad:00:fc:fd:8b:46:32:13:8c:a8:a7:3b:
                    00:53:60:37:cd:4c:3d:99:02:01:86:3f:f4:1a:b9:
                    31:91:97:55:b5:5c:73:e5:45:80:63:fd:6f:c5:1d:
                    16:c4:58:3d:33:eb:ce:2f:5d:bc:a1:fb:3d:13:d5:
                    d2:34:10:ba:a5:80:49:3e:bb:e4:64:0a:73:84:8b:
                    a6:3f:de:f4:46:c4:93:30:6c:d4:88:8f:a6:f0:e9:
                    7b:c5:f2:e9:18:e0:3d:db:2e:81:5c:af:26:cb:14:
                    f5:9d:51:8f:f5:b6:dc:e6:13:91:77:c8:02:cd:34:
                    67:29:7f:4d:77:ff:68:10:9f:29:b6:6b:0a:85:17:
                    45:65:18:bb:f4:ec:aa:ad:ea:6a:95:be:eb:3c:98:
                    4d:79:3a:20:83:92:49:b0:75:a2:85:dd:0b:78:ee:
                    91:f4:1a:59:2b:96:ca:08:a7:d8:49:de:37:95:15:
                    b7:1b:e7:b7:a2:e7:29:65:33:ca:ca:33:b1:93:ce:
                    a1:b6:23:52:9a:2b:cd:c1:92:24:f1:98:bc:ae:cc:
                    87:26:e0:63:c5:3e:97:48:71:da:5a:a8:b7:89:d6:
                    7c:e3
                Exponent: 65537 (0x10001)
        X509v3 extensions:
            X509v3 Subject Key Identifier: 
                84:BA:05:06:4E:33:9D:11:AA:7A:F1:77:1F:A4:69:7E:4C:2D:D4:3F
            X509v3 Authority Key Identifier: 
                keyid:98:1F:DC:C5:E8:30:8D:5A:BA:9B:0C:EF:AD:CC:B8:AE:D4:F1:D1:63

            Authority Information Access: 
                CA Issuers - URI:http://url-for-aia/Root.cer

            X509v3 CRL Distribution Points: 

                Full Name:
                  URI:http://url-for-crl/Root.crl

            X509v3 Key Usage: critical
                Certificate Sign, CRL Sign
            X509v3 Basic Constraints: critical
                CA:TRUE
    Signature Algorithm: sha256WithRSAEncryption
         54:74:10:33:68:ad:a0:f3:5e:42:ee:63:3c:33:7b:01:4f:aa:
         8e:78:ec:91:51:c7:e0:31:4d:15:22:3f:88:70:f6:3a:8d:60:
         72:e6:92:81:7b:34:40:d6:07:6a:a4:a1:42:84:cb:b3:a8:eb:
         0b:07:6b:06:aa:60:70:4a:86:46:f7:0e:1e:95:c4:5b:ff:4e:
         c9:86:15:ac:d7:44:ff:d6:7d:37:e7:f2:b9:da:7c:c9:b1:a8:
         95:41:73:f9:be:b5:f6:8f:a8:d3:5b:05:6d:bd:55:69:dc:0e:
         4f:c4:b3:45:ac:40:4f:f4:4d:3c:ff:be:9b:47:aa:c8:5f:47:
         53:91:09:c7:2b:92:4d:4a:15:3f:49:04:40:17:e4:13:ab:26:
         60:bb:ba:fc:e6:a0:02:d3:7e:af:9d:37:ae:20:ed:c7:be:1d:
         9c:b6:94:13:73:27:45:2b:eb:0d:b9:64:09:78:97:d8:2f:36:
         fc:79:a8:76:02:5f:e7:2c:60:af:8f:4d:dc:2a:47:54:65:f1:
         c3:23:5e:fe:a1:4c:3e:2c:77:b1:f6:a0:32:3d:70:c0:cb:ab:
         af:d7:cc:a5:19:2f:67:81:f1:19:0a:9c:06:4e:1e:a2:05:96:
         ee:cb:fa:7a:b2:31:c0:54:a3:6c:66:7a:73:b2:76:85:9d:f2:
         c5:bc:8d:f4
-----BEGIN CERTIFICATE-----
MIIDYjCCAkqgAwIBAgIBAjANBgkqhkiG9w0BAQsFADAPMQ0wCwYDVQQDDARSb290
MB4XDTE1MDEwMTEyMDAwMFoXDTIxMDEwMTEyMDAwMFowDDEKMAgGA1UEAwwBSTCC
ASIwDQYJKoZIhvcNAQEBBQADggEPADCCAQoCggEBAK2qdtxSokr9iusi9+IyiC1p
u890VS3bvZoAQY/qKLNKrQD8/YtGMhOMqKc7AFNgN81MPZkCAYY/9Bq5MZGXVbVc
c+VFgGP9b8UdFsRYPTPrzi9dvKH7PRPV0jQQuqWAST675GQKc4SLpj/e9EbEkzBs
1IiPpvDpe8Xy6RjgPdsugVyvJssU9Z1Rj/W23OYTkXfIAs00Zyl/TXf/aBCfKbZr
CoUXRWUYu/Tsqq3qapW+6zyYTXk6IIOSSbB1ooXdC3jukfQaWSuWygin2EneN5UV
txvnt6LnKWUzysozsZPOobYjUporzcGSJPGYvK7MhybgY8U+l0hx2lqot4nWfOMC
AwEAAaOByzCByDAdBgNVHQ4EFgQUhLoFBk4znRGqevF3H6Rpfkwt1D8wHwYDVR0j
BBgwFoAUmB/cxegwjVq6mwzvrcy4rtTx0WMwNwYIKwYBBQUHAQEEKzApMCcGCCsG
AQUFBzAChhtodHRwOi8vdXJsLWZvci1haWEvUm9vdC5jZXIwLAYDVR0fBCUwIzAh
oB+gHYYbaHR0cDovL3VybC1mb3ItY3JsL1Jvb3QuY3JsMA4GA1UdDwEB/wQEAwIB
BjAPBgNVHRMBAf8EBTADAQH/MA0GCSqGSIb3DQEBCwUAA4IBAQBUdBAzaK2g815C
7mM8M3sBT6qOeOyRUcfgMU0VIj+IcPY6jWBy5pKBezRA1gdqpKFChMuzqOsLB2sG
qmBwSoZG9w4elcRb/07JhhWs10T/1n035/K52nzJsaiVQXP5vrX2j6jTWwVtvVVp
3A5PxLNFrEBP9E08/76bR6rIX0dTkQnHK5JNShU/SQRAF+QTqyZgu7r85qAC036v
nTeuIO3Hvh2ctpQTcydFK+sNuWQJeJfYLzb8eah2Al/nLGCvj03cKkdUZfHDI17+
oUw+LHex9qAyPXDAy6uv18ylGS9ngfEZCpwGTh6iBZbuy/p6sjHAVKNsZnpzsnaF
nfLFvI30
-----END CERTIFICATE-----
