Certificate:
    Data:
        Version: 3 (0x2)
        Serial Number: 2 (0x2)
    Signature Algorithm: sha256WithRSAEncryption
        Issuer: CN=Root
        Validity
            Not Before: Jan  1 12:00:00 2015 GMT
            Not After : Jan  1 12:00:00 2016 GMT
        Subject: CN=I
        Subject Public Key Info:
            Public Key Algorithm: rsaEncryption
                Public-Key: (2048 bit)
                Modulus:
                    00:b2:80:e2:cb:c2:ed:80:a5:7e:ac:10:1b:64:e9:
                    57:2b:f2:a7:73:93:a3:f6:42:ef:38:1b:cd:82:d3:
                    51:77:c4:87:76:f5:e5:17:d8:0d:da:2b:07:07:d3:
                    37:88:4c:fd:2f:c0:e0:f1:79:04:fb:e7:b1:b0:80:
                    f1:95:b7:1c:ef:13:ca:c0:05:b5:2d:4a:f2:78:52:
                    d8:53:56:22:cd:f3:82:fb:ac:22:e8:ae:c5:14:35:
                    df:bd:83:f6:90:84:15:c7:b3:dc:ae:6c:16:e9:db:
                    a8:62:fe:66:8a:85:c8:d3:0d:9c:03:f8:ee:71:e9:
                    ab:8b:fe:f9:71:00:09:6a:67:90:c9:d6:43:e5:d8:
                    f4:12:d6:6f:4f:83:f4:00:58:e9:7a:df:11:9c:e7:
                    28:fb:04:83:70:a8:9d:32:80:1c:ac:33:1c:78:0f:
                    a0:26:cc:37:29:08:41:65:1d:1e:95:40:e2:26:da:
                    3e:6d:47:0b:b5:4f:7b:67:7e:72:2b:d3:f4:f0:fd:
                    0c:d7:0d:2a:f1:82:11:2d:c0:f9:2d:d4:a0:bf:be:
                    69:65:ce:3d:e8:a6:b2:8b:76:cb:9c:da:f0:a6:f8:
                    0e:6b:ae:5c:47:ff:b1:0d:cd:ef:fc:d4:27:7b:d9:
                    17:4a:f4:16:08:ae:bc:18:36:2e:8b:24:09:e2:9e:
                    d4:27
                Exponent: 65537 (0x10001)
        X509v3 extensions:
            X509v3 Subject Key Identifier: 
                A4:66:E2:46:F7:3F:A1:73:9D:A2:E2:4E:29:99:DB:2E:36:36:6C:B5
            X509v3 Authority Key Identifier: 
                keyid:A7:58:01:D5:D6:00:71:D8:28:17:20:E0:01:09:EC:A5:39:90:7E:6E

            Authority Information Access: 
                CA Issuers - URI:http://url-for-aia/Root.cer

            X509v3 CRL Distribution Points: 

                Full Name:
                  URI:http://url-for-crl/Root.crl

            X509v3 Key Usage: critical
                Certificate Sign, CRL Sign
            X509v3 Basic Constraints: critical
                CA:TRUE
    Signature Algorithm: sha256WithRSAEncryption
         24:1f:8e:82:17:12:1a:5e:1b:cc:a5:e6:4e:bc:10:92:83:be:
         5c:04:ee:39:a7:ec:93:50:26:96:65:03:f4:2d:a8:93:5f:3b:
         18:fb:b4:ef:88:7d:d4:9e:fb:fa:d8:09:69:a6:79:0c:b0:01:
         32:66:56:43:e9:db:9a:b3:7d:8b:7d:32:a9:08:81:0e:75:fb:
         49:12:35:c6:23:75:5c:06:58:9a:d3:c4:fa:38:1a:8b:20:d2:
         2d:97:81:45:19:11:2e:4b:f4:22:ae:e2:f5:1e:fc:c7:bd:55:
         57:1b:68:f5:95:c4:38:e2:af:82:ee:2d:2a:9f:c7:0b:6b:97:
         d8:8b:02:d6:d7:24:70:31:2f:bf:66:fa:9d:ad:3e:f4:18:23:
         8d:b1:99:10:0d:0c:f2:72:12:90:06:2a:37:68:fd:a8:6f:a0:
         84:c5:01:1d:6b:37:50:21:7c:ca:9c:56:ae:06:39:70:8f:9d:
         06:09:9e:8d:e8:de:7b:64:29:f6:9b:f0:0e:56:20:b0:fb:43:
         3e:9f:a8:0b:a9:ee:50:db:b8:06:56:8b:33:08:58:45:5a:9b:
         3b:3e:d8:a4:38:22:d9:f3:a5:fa:e6:4e:b8:30:4b:2a:2a:ee:
         3f:f7:29:e0:be:ed:40:52:38:ae:ca:01:6a:3b:8a:d8:00:f4:
         f3:54:42:90
-----BEGIN CERTIFICATE-----
MIIDYjCCAkqgAwIBAgIBAjANBgkqhkiG9w0BAQsFADAPMQ0wCwYDVQQDDARSb290
MB4XDTE1MDEwMTEyMDAwMFoXDTE2MDEwMTEyMDAwMFowDDEKMAgGA1UEAwwBSTCC
ASIwDQYJKoZIhvcNAQEBBQADggEPADCCAQoCggEBALKA4svC7YClfqwQG2TpVyvy
p3OTo/ZC7zgbzYLTUXfEh3b15RfYDdorBwfTN4hM/S/A4PF5BPvnsbCA8ZW3HO8T
ysAFtS1K8nhS2FNWIs3zgvusIuiuxRQ1372D9pCEFcez3K5sFunbqGL+ZoqFyNMN
nAP47nHpq4v++XEACWpnkMnWQ+XY9BLWb0+D9ABY6XrfEZznKPsEg3ConTKAHKwz
HHgPoCbMNykIQWUdHpVA4ibaPm1HC7VPe2d+civT9PD9DNcNKvGCES3A+S3UoL++
aWXOPeimsot2y5za8Kb4DmuuXEf/sQ3N7/zUJ3vZF0r0FgiuvBg2LoskCeKe1CcC
AwEAAaOByzCByDAdBgNVHQ4EFgQUpGbiRvc/oXOdouJOKZnbLjY2bLUwHwYDVR0j
BBgwFoAUp1gB1dYAcdgoFyDgAQnspTmQfm4wNwYIKwYBBQUHAQEEKzApMCcGCCsG
AQUFBzAChhtodHRwOi8vdXJsLWZvci1haWEvUm9vdC5jZXIwLAYDVR0fBCUwIzAh
oB+gHYYbaHR0cDovL3VybC1mb3ItY3JsL1Jvb3QuY3JsMA4GA1UdDwEB/wQEAwIB
BjAPBgNVHRMBAf8EBTADAQH/MA0GCSqGSIb3DQEBCwUAA4IBAQAkH46CFxIaXhvM
peZOvBCSg75cBO45p+yTUCaWZQP0LaiTXzsY+7TviH3Unvv62AlppnkMsAEyZlZD
6duas32LfTKpCIEOdftJEjXGI3VcBlia08T6OBqLINItl4FFGREuS/QiruL1HvzH
vVVXG2j1lcQ44q+C7i0qn8cLa5fYiwLW1yRwMS+/ZvqdrT70GCONsZkQDQzychKQ
Bio3aP2ob6CExQEdazdQIXzKnFauBjlwj50GCZ6N6N57ZCn2m/AOViCw+0M+n6gL
qe5Q27gGVoszCFhFWps7PtikOCLZ86X65k64MEsqKu4/9yngvu1AUjiuygFqO4rY
APTzVEKQ
-----END CERTIFICATE-----
