Certificate:
    Data:
        Version: 3 (0x2)
        Serial Number: 3 (0x3)
    Signature Algorithm: sha256WithRSAEncryption
        Issuer: CN=Root
        Validity
            Not Before: Jan  1 12:00:00 2015 GMT
            Not After : Jan  1 12:00:00 2016 GMT
        Subject: CN=I
        Subject Public Key Info:
            Public Key Algorithm: rsaEncryption
                Public-Key: (2048 bit)
                Modulus:
                    00:b2:80:e2:cb:c2:ed:80:a5:7e:ac:10:1b:64:e9:
                    57:2b:f2:a7:73:93:a3:f6:42:ef:38:1b:cd:82:d3:
                    51:77:c4:87:76:f5:e5:17:d8:0d:da:2b:07:07:d3:
                    37:88:4c:fd:2f:c0:e0:f1:79:04:fb:e7:b1:b0:80:
                    f1:95:b7:1c:ef:13:ca:c0:05:b5:2d:4a:f2:78:52:
                    d8:53:56:22:cd:f3:82:fb:ac:22:e8:ae:c5:14:35:
                    df:bd:83:f6:90:84:15:c7:b3:dc:ae:6c:16:e9:db:
                    a8:62:fe:66:8a:85:c8:d3:0d:9c:03:f8:ee:71:e9:
                    ab:8b:fe:f9:71:00:09:6a:67:90:c9:d6:43:e5:d8:
                    f4:12:d6:6f:4f:83:f4:00:58:e9:7a:df:11:9c:e7:
                    28:fb:04:83:70:a8:9d:32:80:1c:ac:33:1c:78:0f:
                    a0:26:cc:37:29:08:41:65:1d:1e:95:40:e2:26:da:
                    3e:6d:47:0b:b5:4f:7b:67:7e:72:2b:d3:f4:f0:fd:
                    0c:d7:0d:2a:f1:82:11:2d:c0:f9:2d:d4:a0:bf:be:
                    69:65:ce:3d:e8:a6:b2:8b:76:cb:9c:da:f0:a6:f8:
                    0e:6b:ae:5c:47:ff:b1:0d:cd:ef:fc:d4:27:7b:d9:
                    17:4a:f4:16:08:ae:bc:18:36:2e:8b:24:09:e2:9e:
                    d4:27
                Exponent: 65537 (0x10001)
        X509v3 extensions:
            X509v3 Subject Key Identifier: 
                A4:66:E2:46:F7:3F:A1:73:9D:A2:E2:4E:29:99:DB:2E:36:36:6C:B5
            X509v3 Authority Key Identifier: 
                keyid:A7:58:01:D5:D6:00:71:D8:28:17:20:E0:01:09:EC:A5:39:90:7E:6E

            Authority Information Access: 
                CA Issuers - URI:http://url-for-aia/Root.cer

            X509v3 CRL Distribution Points: 

                Full Name:
                  URI:http://url-for-crl/Root.crl

            X509v3 Key Usage: critical
                Certificate Sign, CRL Sign
            X509v3 Basic Constraints: critical
                CA:TRUE
    Signature Algorithm: sha256WithRSAEncryption
         84:e9:fb:28:09:4e:4e:1f:1c:ea:c4:d2:ee:54:fa:fc:eb:07:
         55:76:e8:ae:e2:f4:c8:a3:57:21:0e:e1:a8:3e:47:fe:57:88:
         3d:9a:73:71:0b:78:d6:77:32:6b:eb:9e:a8:c1:0a:11:4e:14:
         c8:3b:e9:61:dc:7b:24:4c:44:0e:d5:23:77:9c:d3:99:98:ff:
         56:d3:00:f8:a5:01:d4:84:ba:9e:34:3f:25:06:b7:a9:d6:d4:
         dd:cb:42:e5:12:4b:fc:b2:fe:3e:40:f7:d6:b6:dd:89:89:7b:
         06:b5:d1:02:d7:74:4a:48:5d:3d:f9:13:cd:6b:5a:76:af:ac:
         1b:09:d0:d2:94:e3:74:30:2f:a8:51:aa:37:6c:75:1b:7b:0d:
         2c:ee:34:f1:b4:17:6a:c1:fb:17:16:02:e5:3d:9b:4a:27:27:
         48:80:6d:cd:b7:f0:c2:97:da:f5:b2:35:c8:c6:0f:e4:28:a3:
         d3:47:e3:33:42:d1:1f:38:bb:e0:26:36:bd:7a:b7:27:8e:fc:
         e2:5a:8f:dd:3f:69:4e:99:6f:89:cc:40:f6:59:92:e4:13:89:
         7b:fe:06:7d:c0:1f:d6:bc:9d:69:e5:53:bd:9f:6f:e4:c9:a2:
         38:65:b7:af:15:49:f1:e4:68:e1:09:01:d2:bd:97:ff:4a:56:
         aa:c9:5b:b0
-----BEGIN CERTIFICATE-----
MIIDYjCCAkqgAwIBAgIBAzANBgkqhkiG9w0BAQsFADAPMQ0wCwYDVQQDDARSb290
MB4XDTE1MDEwMTEyMDAwMFoXDTE2MDEwMTEyMDAwMFowDDEKMAgGA1UEAwwBSTCC
ASIwDQYJKoZIhvcNAQEBBQADggEPADCCAQoCggEBALKA4svC7YClfqwQG2TpVyvy
p3OTo/ZC7zgbzYLTUXfEh3b15RfYDdorBwfTN4hM/S/A4PF5BPvnsbCA8ZW3HO8T
ysAFtS1K8nhS2FNWIs3zgvusIuiuxRQ1372D9pCEFcez3K5sFunbqGL+ZoqFyNMN
nAP47nHpq4v++XEACWpnkMnWQ+XY9BLWb0+D9ABY6XrfEZznKPsEg3ConTKAHKwz
HHgPoCbMNykIQWUdHpVA4ibaPm1HC7VPe2d+civT9PD9DNcNKvGCES3A+S3UoL++
aWXOPeimsot2y5za8Kb4DmuuXEf/sQ3N7/zUJ3vZF0r0FgiuvBg2LoskCeKe1CcC
AwEAAaOByzCByDAdBgNVHQ4EFgQUpGbiRvc/oXOdouJOKZnbLjY2bLUwHwYDVR0j
BBgwFoAUp1gB1dYAcdgoFyDgAQnspTmQfm4wNwYIKwYBBQUHAQEEKzApMCcGCCsG
AQUFBzAChhtodHRwOi8vdXJsLWZvci1haWEvUm9vdC5jZXIwLAYDVR0fBCUwIzAh
oB+gHYYbaHR0cDovL3VybC1mb3ItY3JsL1Jvb3QuY3JsMA4GA1UdDwEB/wQEAwIB
BjAPBgNVHRMBAf8EBTADAQH/MA0GCSqGSIb3DQEBCwUAA4IBAQCE6fsoCU5OHxzq
xNLuVPr86wdVduiu4vTIo1chDuGoPkf+V4g9mnNxC3jWdzJr656owQoRThTIO+lh
3HskTEQO1SN3nNOZmP9W0wD4pQHUhLqeND8lBrep1tTdy0LlEkv8sv4+QPfWtt2J
iXsGtdEC13RKSF09+RPNa1p2r6wbCdDSlON0MC+oUao3bHUbew0s7jTxtBdqwfsX
FgLlPZtKJydIgG3Nt/DCl9r1sjXIxg/kKKPTR+MzQtEfOLvgJja9ercnjvziWo/d
P2lOmW+JzED2WZLkE4l7/gZ9wB/WvJ1p5VO9n2/kyaI4ZbevFUnx5GjhCQHSvZf/
SlaqyVuw
-----END CERTIFICATE-----
