Certificate:
    Data:
        Version: 3 (0x2)
        Serial Number: 3 (0x3)
    Signature Algorithm: sha256WithRSAEncryption
        Issuer: CN=Root
        Validity
            Not Before: Jan  1 12:00:00 2015 GMT
            Not After : Jan  1 12:00:00 2021 GMT
        Subject: CN=I
        Subject Public Key Info:
            Public Key Algorithm: rsaEncryption
                Public-Key: (2048 bit)
                Modulus:
                    00:ad:aa:76:dc:52:a2:4a:fd:8a:eb:22:f7:e2:32:
                    88:2d:69:bb:cf:74:55:2d:db:bd:9a:00:41:8f:ea:
                    28:b3:4a:ad:00:fc:fd:8b:46:32:13:8c:a8:a7:3b:
                    00:53:60:37:cd:4c:3d:99:02:01:86:3f:f4:1a:b9:
                    31:91:97:55:b5:5c:73:e5:45:80:63:fd:6f:c5:1d:
                    16:c4:58:3d:33:eb:ce:2f:5d:bc:a1:fb:3d:13:d5:
                    d2:34:10:ba:a5:80:49:3e:bb:e4:64:0a:73:84:8b:
                    a6:3f:de:f4:46:c4:93:30:6c:d4:88:8f:a6:f0:e9:
                    7b:c5:f2:e9:18:e0:3d:db:2e:81:5c:af:26:cb:14:
                    f5:9d:51:8f:f5:b6:dc:e6:13:91:77:c8:02:cd:34:
                    67:29:7f:4d:77:ff:68:10:9f:29:b6:6b:0a:85:17:
                    45:65:18:bb:f4:ec:aa:ad:ea:6a:95:be:eb:3c:98:
                    4d:79:3a:20:83:92:49:b0:75:a2:85:dd:0b:78:ee:
                    91:f4:1a:59:2b:96:ca:08:a7:d8:49:de:37:95:15:
                    b7:1b:e7:b7:a2:e7:29:65:33:ca:ca:33:b1:93:ce:
                    a1:b6:23:52:9a:2b:cd:c1:92:24:f1:98:bc:ae:cc:
                    87:26:e0:63:c5:3e:97:48:71:da:5a:a8:b7:89:d6:
                    7c:e3
                Exponent: 65537 (0x10001)
        X509v3 extensions:
            X509v3 Subject Key Identifier: 
                84:BA:05:06:4E:33:9D:11:AA:7A:F1:77:1F:A4:69:7E:4C:2D:D4:3F
            X509v3 Authority Key Identifier: 
                keyid:98:1F:DC:C5:E8:30:8D:5A:BA:9B:0C:EF:AD:CC:B8:AE:D4:F1:D1:63

            Authority Information Access: 
                CA Issuers - URI:http://url-for-aia/Root.cer

            X509v3 CRL Distribution Points: 

                Full Name:
                  URI:http://url-for-crl/Root.crl

            X509v3 Key Usage: critical
                Certificate Sign, CRL Sign
            X509v3 Basic Constraints: critical
                CA:TRUE
    Signature Algorithm: sha256WithRSAEncryption
         c9:b8:08:55:cd:6e:99:8f:1e:03:b6:00:7b:5f:65:63:6b:1d:
         f1:27:84:0b:de:63:91:d2:bd:8a:28:ea:b0:f3:d6:a0:f6:11:
         89:1b:a3:77:1f:f6:da:64:fd:36:24:9f:db:1c:b9:a1:f9:f1:
         3f:ac:44:ed:08:4b:a2:7f:af:29:a7:01:7d:b9:88:ca:87:49:
         a9:f1:9a:1d:3c:2e:ec:6b:a4:75:3e:29:29:2d:59:10:eb:39:
         3a:9c:66:05:34:e9:c4:e9:37:0d:0f:74:be:f0:05:8c:0e:48:
         e8:2d:c8:fa:81:01:11:b3:48:b3:5d:ba:a5:d6:30:bc:85:78:
         70:a4:24:fd:36:ac:32:bf:17:5e:72:0a:1f:51:11:ba:c9:f2:
         53:39:a1:4d:17:2e:de:f7:a4:33:ba:ce:d7:3c:f5:c0:bd:16:
         22:48:f4:4e:a1:61:a6:62:b1:28:96:e5:9e:29:8f:b6:d3:53:
         5a:3a:16:dc:3c:31:20:53:72:3d:cd:7a:e4:aa:0a:8d:83:0f:
         68:74:1b:d5:22:87:31:a3:01:fc:18:7e:f5:35:cd:68:c8:ae:
         71:e0:50:89:7d:96:e3:dd:df:62:a0:71:f1:56:5f:f6:79:11:
         6f:28:a6:84:1f:63:a1:29:3e:c3:ef:1a:08:18:f8:95:6b:d7:
         b6:a5:60:f5
-----BEGIN CERTIFICATE-----
MIIDYjCCAkqgAwIBAgIBAzANBgkqhkiG9w0BAQsFADAPMQ0wCwYDVQQDDARSb290
MB4XDTE1MDEwMTEyMDAwMFoXDTIxMDEwMTEyMDAwMFowDDEKMAgGA1UEAwwBSTCC
ASIwDQYJKoZIhvcNAQEBBQADggEPADCCAQoCggEBAK2qdtxSokr9iusi9+IyiC1p
u890VS3bvZoAQY/qKLNKrQD8/YtGMhOMqKc7AFNgN81MPZkCAYY/9Bq5MZGXVbVc
c+VFgGP9b8UdFsRYPTPrzi9dvKH7PRPV0jQQuqWAST675GQKc4SLpj/e9EbEkzBs
1IiPpvDpe8Xy6RjgPdsugVyvJssU9Z1Rj/W23OYTkXfIAs00Zyl/TXf/aBCfKbZr
CoUXRWUYu/Tsqq3qapW+6zyYTXk6IIOSSbB1ooXdC3jukfQaWSuWygin2EneN5UV
txvnt6LnKWUzysozsZPOobYjUporzcGSJPGYvK7MhybgY8U+l0hx2lqot4nWfOMC
AwEAAaOByzCByDAdBgNVHQ4EFgQUhLoFBk4znRGqevF3H6Rpfkwt1D8wHwYDVR0j
BBgwFoAUmB/cxegwjVq6mwzvrcy4rtTx0WMwNwYIKwYBBQUHAQEEKzApMCcGCCsG
AQUFBzAChhtodHRwOi8vdXJsLWZvci1haWEvUm9vdC5jZXIwLAYDVR0fBCUwIzAh
oB+gHYYbaHR0cDovL3VybC1mb3ItY3JsL1Jvb3QuY3JsMA4GA1UdDwEB/wQEAwIB
BjAPBgNVHRMBAf8EBTADAQH/MA0GCSqGSIb3DQEBCwUAA4IBAQDJuAhVzW6Zjx4D
tgB7X2Vjax3xJ4QL3mOR0r2KKOqw89ag9hGJG6N3H/baZP02JJ/bHLmh+fE/rETt
CEuif68ppwF9uYjKh0mp8ZodPC7sa6R1PikpLVkQ6zk6nGYFNOnE6TcND3S+8AWM
DkjoLcj6gQERs0izXbql1jC8hXhwpCT9NqwyvxdecgofURG6yfJTOaFNFy7e96Qz
us7XPPXAvRYiSPROoWGmYrEoluWeKY+201NaOhbcPDEgU3I9zXrkqgqNgw9odBvV
IocxowH8GH71Nc1oyK5x4FCJfZbj3d9ioHHxVl/2eRFvKKaEH2OhKT7D7xoIGPiV
a9e2pWD1
-----END CERTIFICATE-----
