Certificate:
    Data:
        Version: 3 (0x2)
        Serial Number: 3 (0x3)
    Signature Algorithm: sha256WithRSAEncryption
        Issuer: CN=Root
        Validity
            Not Before: Jan  1 12:00:00 2015 GMT
            Not After : Jan  1 12:00:00 2021 GMT
        Subject: CN=I
        Subject Public Key Info:
            Public Key Algorithm: rsaEncryption
                Public-Key: (2048 bit)
                Modulus:
                    00:a7:94:9a:13:a0:38:6f:f9:cd:27:0d:9d:7d:f3:
                    0c:fe:a0:dd:39:23:4d:33:d5:d9:88:c5:23:71:a1:
                    a7:f5:50:c7:c6:38:cb:88:41:87:e8:25:75:14:be:
                    09:ef:4f:b1:48:c7:50:f6:de:05:85:4a:01:7c:6c:
                    e9:e1:4e:18:5f:43:38:cb:42:3a:e3:4a:7d:49:86:
                    f5:30:d8:44:70:4e:c9:77:3d:ba:d2:a4:cc:a5:df:
                    8c:e9:58:f8:2d:a5:b4:7a:7e:23:4e:0f:89:a0:5f:
                    0f:f1:47:95:bd:f4:2f:e9:3b:0e:ba:ef:e7:10:03:
                    0a:94:9d:fe:65:86:49:4d:c2:4f:b6:dc:23:e7:30:
                    e6:10:64:0c:ed:4e:17:aa:1d:56:1d:6f:b8:3f:e5:
                    8c:60:8a:f3:67:5a:04:6d:f3:84:98:01:db:11:c6:
                    e2:c4:fc:0a:5a:33:77:eb:38:35:21:45:c0:b3:30:
                    c2:95:4b:85:73:03:75:e5:9f:fd:a5:72:aa:21:64:
                    cd:26:a6:8d:7a:bc:68:6a:36:ab:fe:a6:16:9c:b9:
                    93:e9:26:cf:cb:3c:9d:a9:26:18:d1:83:61:25:e4:
                    bc:6a:47:51:78:c9:1e:a2:38:10:8e:92:64:a8:aa:
                    70:46:d3:cd:d2:5b:56:c3:98:ca:f1:b4:e0:cf:c9:
                    48:b7
                Exponent: 65537 (0x10001)
        X509v3 extensions:
            X509v3 Subject Key Identifier: 
                40:91:28:21:9D:93:F3:9C:18:1B:FF:00:9C:B2:08:A0:A3:81:7D:2A
            X509v3 Authority Key Identifier: 
                keyid:E5:4E:96:E4:D9:82:36:BD:51:C3:57:BD:E6:DE:3C:C1:46:B4:49:0D

            Authority Information Access: 
                CA Issuers - URI:http://url-for-aia/Root.cer

            X509v3 CRL Distribution Points: 

                Full Name:
                  URI:http://url-for-crl/Root.crl

            X509v3 Key Usage: critical
                Certificate Sign, CRL Sign
            X509v3 Basic Constraints: critical
                CA:TRUE
    Signature Algorithm: sha256WithRSAEncryption
         c2:83:63:7b:e6:d6:2b:b3:a7:f1:81:47:38:dc:65:9a:fc:3d:
         1a:a7:2b:02:6c:98:32:6b:50:93:a9:cf:d1:03:12:b4:d7:b7:
         15:49:a4:12:9e:95:c6:2b:ad:64:bc:16:4a:d9:b5:4b:3b:aa:
         d9:d5:39:8d:ec:a6:1d:79:32:53:0a:66:41:c8:78:e4:74:d7:
         e3:59:93:2e:2a:52:97:91:56:de:59:13:42:fa:a7:5b:80:82:
         42:82:8c:c8:a2:90:89:45:4f:96:e2:88:3b:b5:52:70:22:3a:
         f2:5d:2d:4f:2d:12:81:15:d8:10:3c:a1:72:19:07:86:2a:c4:
         ac:79:2d:0f:a4:fc:8f:d5:18:eb:fc:e4:7e:a8:15:bb:1b:50:
         5a:64:56:72:c3:96:e2:35:f7:03:54:4f:4a:0f:42:b6:53:61:
         29:4f:f7:0f:7b:a9:d0:72:0b:43:18:08:4d:6c:35:4b:89:c3:
         c4:4f:84:e1:c4:85:17:b4:cc:fa:a9:40:ad:aa:66:70:d6:ed:
         f5:7a:7a:1b:bf:13:b9:68:b7:8a:23:14:29:2a:5a:af:0e:54:
         28:87:31:7e:b7:34:ab:7f:ff:83:9d:b8:3a:ba:91:f4:93:70:
         0e:8d:50:2f:67:d3:49:27:bd:db:25:d7:80:f4:58:8b:d3:01:
         29:39:a9:2c
-----BEGIN CERTIFICATE-----
MIIDYjCCAkqgAwIBAgIBAzANBgkqhkiG9w0BAQsFADAPMQ0wCwYDVQQDDARSb290
MB4XDTE1MDEwMTEyMDAwMFoXDTIxMDEwMTEyMDAwMFowDDEKMAgGA1UEAwwBSTCC
ASIwDQYJKoZIhvcNAQEBBQADggEPADCCAQoCggEBAKeUmhOgOG/5zScNnX3zDP6g
3TkjTTPV2YjFI3Ghp/VQx8Y4y4hBh+gldRS+Ce9PsUjHUPbeBYVKAXxs6eFOGF9D
OMtCOuNKfUmG9TDYRHBOyXc9utKkzKXfjOlY+C2ltHp+I04PiaBfD/FHlb30L+k7
Drrv5xADCpSd/mWGSU3CT7bcI+cw5hBkDO1OF6odVh1vuD/ljGCK82daBG3zhJgB
2xHG4sT8Clozd+s4NSFFwLMwwpVLhXMDdeWf/aVyqiFkzSamjXq8aGo2q/6mFpy5
k+kmz8s8nakmGNGDYSXkvGpHUXjJHqI4EI6SZKiqcEbTzdJbVsOYyvG04M/JSLcC
AwEAAaOByzCByDAdBgNVHQ4EFgQUQJEoIZ2T85wYG/8AnLIIoKOBfSowHwYDVR0j
BBgwFoAU5U6W5NmCNr1Rw1e95t48wUa0SQ0wNwYIKwYBBQUHAQEEKzApMCcGCCsG
AQUFBzAChhtodHRwOi8vdXJsLWZvci1haWEvUm9vdC5jZXIwLAYDVR0fBCUwIzAh
oB+gHYYbaHR0cDovL3VybC1mb3ItY3JsL1Jvb3QuY3JsMA4GA1UdDwEB/wQEAwIB
BjAPBgNVHRMBAf8EBTADAQH/MA0GCSqGSIb3DQEBCwUAA4IBAQDCg2N75tYrs6fx
gUc43GWa/D0apysCbJgya1CTqc/RAxK017cVSaQSnpXGK61kvBZK2bVLO6rZ1TmN
7KYdeTJTCmZByHjkdNfjWZMuKlKXkVbeWRNC+qdbgIJCgozIopCJRU+W4og7tVJw
IjryXS1PLRKBFdgQPKFyGQeGKsSseS0PpPyP1Rjr/OR+qBW7G1BaZFZyw5biNfcD
VE9KD0K2U2EpT/cPe6nQcgtDGAhNbDVLicPET4ThxIUXtMz6qUCtqmZw1u31enob
vxO5aLeKIxQpKlqvDlQohzF+tzSrf/+Dnbg6upH0k3AOjVAvZ9NJJ73bJdeA9FiL
0wEpOaks
-----END CERTIFICATE-----
