Certificate:
    Data:
        Version: 3 (0x2)
        Serial Number: 4 (0x4)
    Signature Algorithm: sha256WithRSAEncryption
        Issuer: CN=Root
        Validity
            Not Before: Jan  1 12:00:00 2015 GMT
            Not After : Jan  1 12:00:00 2021 GMT
        Subject: CN=I
        Subject Public Key Info:
            Public Key Algorithm: rsaEncryption
                Public-Key: (2048 bit)
                Modulus:
                    00:ad:aa:76:dc:52:a2:4a:fd:8a:eb:22:f7:e2:32:
                    88:2d:69:bb:cf:74:55:2d:db:bd:9a:00:41:8f:ea:
                    28:b3:4a:ad:00:fc:fd:8b:46:32:13:8c:a8:a7:3b:
                    00:53:60:37:cd:4c:3d:99:02:01:86:3f:f4:1a:b9:
                    31:91:97:55:b5:5c:73:e5:45:80:63:fd:6f:c5:1d:
                    16:c4:58:3d:33:eb:ce:2f:5d:bc:a1:fb:3d:13:d5:
                    d2:34:10:ba:a5:80:49:3e:bb:e4:64:0a:73:84:8b:
                    a6:3f:de:f4:46:c4:93:30:6c:d4:88:8f:a6:f0:e9:
                    7b:c5:f2:e9:18:e0:3d:db:2e:81:5c:af:26:cb:14:
                    f5:9d:51:8f:f5:b6:dc:e6:13:91:77:c8:02:cd:34:
                    67:29:7f:4d:77:ff:68:10:9f:29:b6:6b:0a:85:17:
                    45:65:18:bb:f4:ec:aa:ad:ea:6a:95:be:eb:3c:98:
                    4d:79:3a:20:83:92:49:b0:75:a2:85:dd:0b:78:ee:
                    91:f4:1a:59:2b:96:ca:08:a7:d8:49:de:37:95:15:
                    b7:1b:e7:b7:a2:e7:29:65:33:ca:ca:33:b1:93:ce:
                    a1:b6:23:52:9a:2b:cd:c1:92:24:f1:98:bc:ae:cc:
                    87:26:e0:63:c5:3e:97:48:71:da:5a:a8:b7:89:d6:
                    7c:e3
                Exponent: 65537 (0x10001)
        X509v3 extensions:
            X509v3 Subject Key Identifier: 
                84:BA:05:06:4E:33:9D:11:AA:7A:F1:77:1F:A4:69:7E:4C:2D:D4:3F
            X509v3 Authority Key Identifier: 
                keyid:98:1F:DC:C5:E8:30:8D:5A:BA:9B:0C:EF:AD:CC:B8:AE:D4:F1:D1:63

            Authority Information Access: 
                CA Issuers - URI:http://url-for-aia/Root.cer

            X509v3 CRL Distribution Points: 

                Full Name:
                  URI:http://url-for-crl/Root.crl

            X509v3 Key Usage: critical
                Certificate Sign, CRL Sign
            X509v3 Basic Constraints: critical
                CA:TRUE
    Signature Algorithm: sha256WithRSAEncryption
         5e:ed:e2:76:4f:f0:ad:00:c5:37:64:c6:b2:ad:de:8f:90:68:
         de:96:60:f4:ef:bb:09:0b:df:c8:98:f0:ad:27:79:51:b5:c3:
         2d:01:f5:fc:3c:4e:a7:4a:b2:c5:b4:b0:52:c3:e7:e1:18:41:
         4f:34:62:e5:79:b0:86:f8:83:4f:e9:b2:11:67:16:5d:9d:2c:
         d5:f6:d0:ca:61:d5:44:67:12:24:0f:8e:37:f1:db:77:4c:a2:
         ad:1c:8a:1f:54:e7:13:7d:f0:b8:e7:c7:21:46:be:7b:5a:f5:
         23:53:cc:fa:09:cf:b7:a9:29:aa:84:94:69:3e:7b:7b:a3:5d:
         f6:8f:5e:42:78:36:9c:34:b0:5f:50:d6:0c:53:ff:22:1b:b8:
         90:5d:ec:eb:1d:2e:28:16:f3:3c:fe:da:a9:77:0b:e1:d0:a7:
         1a:d2:54:e8:3c:a3:3b:79:b8:5c:30:ec:b4:1f:f1:f1:ff:d6:
         cc:b8:18:ae:6c:ce:94:4d:fe:00:fc:9f:4e:11:6a:ec:de:33:
         67:3a:e6:46:40:de:0e:18:6c:6f:79:f7:fc:93:07:f4:90:8b:
         5e:44:27:8f:fe:1f:e2:91:4c:56:7d:27:df:f2:fc:2f:9a:96:
         71:8b:40:9a:73:d6:73:41:74:2e:40:c6:eb:17:9c:23:0a:05:
         9a:9c:47:37
-----BEGIN CERTIFICATE-----
MIIDYjCCAkqgAwIBAgIBBDANBgkqhkiG9w0BAQsFADAPMQ0wCwYDVQQDDARSb290
MB4XDTE1MDEwMTEyMDAwMFoXDTIxMDEwMTEyMDAwMFowDDEKMAgGA1UEAwwBSTCC
ASIwDQYJKoZIhvcNAQEBBQADggEPADCCAQoCggEBAK2qdtxSokr9iusi9+IyiC1p
u890VS3bvZoAQY/qKLNKrQD8/YtGMhOMqKc7AFNgN81MPZkCAYY/9Bq5MZGXVbVc
c+VFgGP9b8UdFsRYPTPrzi9dvKH7PRPV0jQQuqWAST675GQKc4SLpj/e9EbEkzBs
1IiPpvDpe8Xy6RjgPdsugVyvJssU9Z1Rj/W23OYTkXfIAs00Zyl/TXf/aBCfKbZr
CoUXRWUYu/Tsqq3qapW+6zyYTXk6IIOSSbB1ooXdC3jukfQaWSuWygin2EneN5UV
txvnt6LnKWUzysozsZPOobYjUporzcGSJPGYvK7MhybgY8U+l0hx2lqot4nWfOMC
AwEAAaOByzCByDAdBgNVHQ4EFgQUhLoFBk4znRGqevF3H6Rpfkwt1D8wHwYDVR0j
BBgwFoAUmB/cxegwjVq6mwzvrcy4rtTx0WMwNwYIKwYBBQUHAQEEKzApMCcGCCsG
AQUFBzAChhtodHRwOi8vdXJsLWZvci1haWEvUm9vdC5jZXIwLAYDVR0fBCUwIzAh
oB+gHYYbaHR0cDovL3VybC1mb3ItY3JsL1Jvb3QuY3JsMA4GA1UdDwEB/wQEAwIB
BjAPBgNVHRMBAf8EBTADAQH/MA0GCSqGSIb3DQEBCwUAA4IBAQBe7eJ2T/CtAMU3
ZMayrd6PkGjelmD077sJC9/ImPCtJ3lRtcMtAfX8PE6nSrLFtLBSw+fhGEFPNGLl
ebCG+INP6bIRZxZdnSzV9tDKYdVEZxIkD4438dt3TKKtHIofVOcTffC458chRr57
WvUjU8z6Cc+3qSmqhJRpPnt7o132j15CeDacNLBfUNYMU/8iG7iQXezrHS4oFvM8
/tqpdwvh0Kca0lToPKM7ebhcMOy0H/Hx/9bMuBiubM6UTf4A/J9OEWrs3jNnOuZG
QN4OGGxveff8kwf0kIteRCeP/h/ikUxWfSff8vwvmpZxi0Cac9ZzQXQuQMbrF5wj
CgWanEc3
-----END CERTIFICATE-----
