Certificate:
    Data:
        Version: 3 (0x2)
        Serial Number: 4 (0x4)
    Signature Algorithm: sha256WithRSAEncryption
        Issuer: CN=Root
        Validity
            Not Before: Jan  1 12:00:00 2015 GMT
            Not After : Jan  1 12:00:00 2021 GMT
        Subject: CN=I
        Subject Public Key Info:
            Public Key Algorithm: rsaEncryption
                Public-Key: (2048 bit)
                Modulus:
                    00:a7:94:9a:13:a0:38:6f:f9:cd:27:0d:9d:7d:f3:
                    0c:fe:a0:dd:39:23:4d:33:d5:d9:88:c5:23:71:a1:
                    a7:f5:50:c7:c6:38:cb:88:41:87:e8:25:75:14:be:
                    09:ef:4f:b1:48:c7:50:f6:de:05:85:4a:01:7c:6c:
                    e9:e1:4e:18:5f:43:38:cb:42:3a:e3:4a:7d:49:86:
                    f5:30:d8:44:70:4e:c9:77:3d:ba:d2:a4:cc:a5:df:
                    8c:e9:58:f8:2d:a5:b4:7a:7e:23:4e:0f:89:a0:5f:
                    0f:f1:47:95:bd:f4:2f:e9:3b:0e:ba:ef:e7:10:03:
                    0a:94:9d:fe:65:86:49:4d:c2:4f:b6:dc:23:e7:30:
                    e6:10:64:0c:ed:4e:17:aa:1d:56:1d:6f:b8:3f:e5:
                    8c:60:8a:f3:67:5a:04:6d:f3:84:98:01:db:11:c6:
                    e2:c4:fc:0a:5a:33:77:eb:38:35:21:45:c0:b3:30:
                    c2:95:4b:85:73:03:75:e5:9f:fd:a5:72:aa:21:64:
                    cd:26:a6:8d:7a:bc:68:6a:36:ab:fe:a6:16:9c:b9:
                    93:e9:26:cf:cb:3c:9d:a9:26:18:d1:83:61:25:e4:
                    bc:6a:47:51:78:c9:1e:a2:38:10:8e:92:64:a8:aa:
                    70:46:d3:cd:d2:5b:56:c3:98:ca:f1:b4:e0:cf:c9:
                    48:b7
                Exponent: 65537 (0x10001)
        X509v3 extensions:
            X509v3 Subject Key Identifier: 
                40:91:28:21:9D:93:F3:9C:18:1B:FF:00:9C:B2:08:A0:A3:81:7D:2A
            X509v3 Authority Key Identifier: 
                keyid:E5:4E:96:E4:D9:82:36:BD:51:C3:57:BD:E6:DE:3C:C1:46:B4:49:0D

            Authority Information Access: 
                CA Issuers - URI:http://url-for-aia/Root.cer

            X509v3 CRL Distribution Points: 

                Full Name:
                  URI:http://url-for-crl/Root.crl

            X509v3 Key Usage: critical
                Certificate Sign, CRL Sign
            X509v3 Basic Constraints: critical
                CA:TRUE
    Signature Algorithm: sha256WithRSAEncryption
         b1:46:b0:1d:f8:a1:ea:4c:fc:b3:48:41:66:45:97:39:88:ca:
         d6:0c:d0:ee:8e:47:40:f0:26:a2:87:af:00:20:a2:39:7f:57:
         fd:f0:4f:13:b9:6c:0b:ad:5a:6e:ef:d5:e9:6d:54:7c:d3:92:
         19:e9:f8:0f:23:0c:87:51:b7:54:d4:b7:29:0a:f5:f6:6a:e1:
         a2:1f:39:17:83:10:9f:52:b2:de:ac:02:a7:6a:04:88:15:bb:
         f5:b3:0a:63:cf:db:b9:4a:53:c9:c1:f0:62:e0:90:a0:a8:3b:
         8c:97:eb:cc:a4:e5:93:e6:1a:d4:25:ac:96:7a:a5:fb:ae:b2:
         ce:2a:07:8f:58:e6:bd:e6:ac:03:38:5a:03:e0:93:e0:3e:fd:
         11:90:93:86:3f:ca:8c:71:23:9c:af:24:95:20:c1:0e:bd:97:
         dd:d7:85:8d:98:9b:b9:6d:b2:f9:4d:6a:e3:d0:3c:ea:b4:27:
         59:cd:38:40:31:67:18:3e:a4:48:f6:9b:d4:20:23:20:1b:0b:
         b1:57:51:17:79:66:bd:31:b5:01:29:b9:98:87:d1:86:71:34:
         fc:78:a0:25:fd:49:25:41:09:88:15:53:2d:33:c1:7f:5d:d7:
         66:2d:12:eb:90:d8:96:26:ee:7a:6c:50:f1:d9:90:0b:11:8d:
         ff:7a:48:87
-----BEGIN CERTIFICATE-----
MIIDYjCCAkqgAwIBAgIBBDANBgkqhkiG9w0BAQsFADAPMQ0wCwYDVQQDDARSb290
MB4XDTE1MDEwMTEyMDAwMFoXDTIxMDEwMTEyMDAwMFowDDEKMAgGA1UEAwwBSTCC
ASIwDQYJKoZIhvcNAQEBBQADggEPADCCAQoCggEBAKeUmhOgOG/5zScNnX3zDP6g
3TkjTTPV2YjFI3Ghp/VQx8Y4y4hBh+gldRS+Ce9PsUjHUPbeBYVKAXxs6eFOGF9D
OMtCOuNKfUmG9TDYRHBOyXc9utKkzKXfjOlY+C2ltHp+I04PiaBfD/FHlb30L+k7
Drrv5xADCpSd/mWGSU3CT7bcI+cw5hBkDO1OF6odVh1vuD/ljGCK82daBG3zhJgB
2xHG4sT8Clozd+s4NSFFwLMwwpVLhXMDdeWf/aVyqiFkzSamjXq8aGo2q/6mFpy5
k+kmz8s8nakmGNGDYSXkvGpHUXjJHqI4EI6SZKiqcEbTzdJbVsOYyvG04M/JSLcC
AwEAAaOByzCByDAdBgNVHQ4EFgQUQJEoIZ2T85wYG/8AnLIIoKOBfSowHwYDVR0j
BBgwFoAU5U6W5NmCNr1Rw1e95t48wUa0SQ0wNwYIKwYBBQUHAQEEKzApMCcGCCsG
AQUFBzAChhtodHRwOi8vdXJsLWZvci1haWEvUm9vdC5jZXIwLAYDVR0fBCUwIzAh
oB+gHYYbaHR0cDovL3VybC1mb3ItY3JsL1Jvb3QuY3JsMA4GA1UdDwEB/wQEAwIB
BjAPBgNVHRMBAf8EBTADAQH/MA0GCSqGSIb3DQEBCwUAA4IBAQCxRrAd+KHqTPyz
SEFmRZc5iMrWDNDujkdA8Caih68AIKI5f1f98E8TuWwLrVpu79XpbVR805IZ6fgP
IwyHUbdU1LcpCvX2auGiHzkXgxCfUrLerAKnagSIFbv1swpjz9u5SlPJwfBi4JCg
qDuMl+vMpOWT5hrUJayWeqX7rrLOKgePWOa95qwDOFoD4JPgPv0RkJOGP8qMcSOc
rySVIMEOvZfd14WNmJu5bbL5TWrj0DzqtCdZzThAMWcYPqRI9pvUICMgGwuxV1EX
eWa9MbUBKbmYh9GGcTT8eKAl/UklQQmIFVMtM8F/XddmLRLrkNiWJu56bFDx2ZAL
EY3/ekiH
-----END CERTIFICATE-----
