Certificate:
    Data:
        Version: 3 (0x2)
        Serial Number: 4 (0x4)
    Signature Algorithm: sha256WithRSAEncryption
        Issuer: CN=Root
        Validity
            Not Before: Jan  1 12:00:00 2015 GMT
            Not After : Jan  1 12:00:00 2016 GMT
        Subject: CN=I
        Subject Public Key Info:
            Public Key Algorithm: rsaEncryption
                Public-Key: (2048 bit)
                Modulus:
                    00:b2:80:e2:cb:c2:ed:80:a5:7e:ac:10:1b:64:e9:
                    57:2b:f2:a7:73:93:a3:f6:42:ef:38:1b:cd:82:d3:
                    51:77:c4:87:76:f5:e5:17:d8:0d:da:2b:07:07:d3:
                    37:88:4c:fd:2f:c0:e0:f1:79:04:fb:e7:b1:b0:80:
                    f1:95:b7:1c:ef:13:ca:c0:05:b5:2d:4a:f2:78:52:
                    d8:53:56:22:cd:f3:82:fb:ac:22:e8:ae:c5:14:35:
                    df:bd:83:f6:90:84:15:c7:b3:dc:ae:6c:16:e9:db:
                    a8:62:fe:66:8a:85:c8:d3:0d:9c:03:f8:ee:71:e9:
                    ab:8b:fe:f9:71:00:09:6a:67:90:c9:d6:43:e5:d8:
                    f4:12:d6:6f:4f:83:f4:00:58:e9:7a:df:11:9c:e7:
                    28:fb:04:83:70:a8:9d:32:80:1c:ac:33:1c:78:0f:
                    a0:26:cc:37:29:08:41:65:1d:1e:95:40:e2:26:da:
                    3e:6d:47:0b:b5:4f:7b:67:7e:72:2b:d3:f4:f0:fd:
                    0c:d7:0d:2a:f1:82:11:2d:c0:f9:2d:d4:a0:bf:be:
                    69:65:ce:3d:e8:a6:b2:8b:76:cb:9c:da:f0:a6:f8:
                    0e:6b:ae:5c:47:ff:b1:0d:cd:ef:fc:d4:27:7b:d9:
                    17:4a:f4:16:08:ae:bc:18:36:2e:8b:24:09:e2:9e:
                    d4:27
                Exponent: 65537 (0x10001)
        X509v3 extensions:
            X509v3 Subject Key Identifier: 
                A4:66:E2:46:F7:3F:A1:73:9D:A2:E2:4E:29:99:DB:2E:36:36:6C:B5
            X509v3 Authority Key Identifier: 
                keyid:A7:58:01:D5:D6:00:71:D8:28:17:20:E0:01:09:EC:A5:39:90:7E:6E

            Authority Information Access: 
                CA Issuers - URI:http://url-for-aia/Root.cer

            X509v3 CRL Distribution Points: 

                Full Name:
                  URI:http://url-for-crl/Root.crl

            X509v3 Key Usage: critical
                Certificate Sign, CRL Sign
            X509v3 Basic Constraints: critical
                CA:TRUE
    Signature Algorithm: sha256WithRSAEncryption
         91:5a:ce:ad:61:f3:92:5b:39:09:96:fd:0d:86:7f:29:0d:a0:
         2b:95:a8:58:74:7d:e4:bd:c8:63:54:cc:a6:cc:0e:4c:a4:da:
         c7:11:17:d8:0e:11:d2:a9:9d:81:02:6a:3e:f0:62:e1:93:5f:
         a8:53:81:4c:82:a9:48:3f:cd:b3:c3:a2:4a:10:8e:f3:e6:a3:
         40:c2:54:ee:ce:e5:dd:66:3a:34:ff:bd:b3:dd:8d:37:da:34:
         77:cb:85:c6:9f:fb:cb:41:e9:60:46:76:35:62:71:a6:16:4f:
         88:d3:42:0a:69:3d:95:cc:85:08:ae:a8:73:0a:39:74:4c:d0:
         74:d2:cd:8a:d0:0d:3f:ab:ff:47:a1:a2:bb:ea:e5:7b:a2:ed:
         c0:33:ca:17:cb:5f:2b:de:06:c6:0c:4d:5d:ca:3b:16:a2:ad:
         86:bd:c8:74:5e:08:19:ec:a7:cf:71:83:96:8b:e9:cb:d6:5d:
         35:88:0a:96:36:d3:6c:f7:56:40:a5:e2:9a:e2:f5:e6:8c:98:
         be:27:dc:f1:f8:07:f0:d0:f0:0d:71:dc:5a:9b:7f:44:17:ad:
         31:c8:d2:e1:cc:e3:dc:50:a2:f5:40:2f:47:3a:00:04:e6:23:
         cf:17:3b:f6:d2:01:f2:5f:88:ff:88:99:87:78:8d:d6:1f:45:
         a6:21:38:cd
-----BEGIN CERTIFICATE-----
MIIDYjCCAkqgAwIBAgIBBDANBgkqhkiG9w0BAQsFADAPMQ0wCwYDVQQDDARSb290
MB4XDTE1MDEwMTEyMDAwMFoXDTE2MDEwMTEyMDAwMFowDDEKMAgGA1UEAwwBSTCC
ASIwDQYJKoZIhvcNAQEBBQADggEPADCCAQoCggEBALKA4svC7YClfqwQG2TpVyvy
p3OTo/ZC7zgbzYLTUXfEh3b15RfYDdorBwfTN4hM/S/A4PF5BPvnsbCA8ZW3HO8T
ysAFtS1K8nhS2FNWIs3zgvusIuiuxRQ1372D9pCEFcez3K5sFunbqGL+ZoqFyNMN
nAP47nHpq4v++XEACWpnkMnWQ+XY9BLWb0+D9ABY6XrfEZznKPsEg3ConTKAHKwz
HHgPoCbMNykIQWUdHpVA4ibaPm1HC7VPe2d+civT9PD9DNcNKvGCES3A+S3UoL++
aWXOPeimsot2y5za8Kb4DmuuXEf/sQ3N7/zUJ3vZF0r0FgiuvBg2LoskCeKe1CcC
AwEAAaOByzCByDAdBgNVHQ4EFgQUpGbiRvc/oXOdouJOKZnbLjY2bLUwHwYDVR0j
BBgwFoAUp1gB1dYAcdgoFyDgAQnspTmQfm4wNwYIKwYBBQUHAQEEKzApMCcGCCsG
AQUFBzAChhtodHRwOi8vdXJsLWZvci1haWEvUm9vdC5jZXIwLAYDVR0fBCUwIzAh
oB+gHYYbaHR0cDovL3VybC1mb3ItY3JsL1Jvb3QuY3JsMA4GA1UdDwEB/wQEAwIB
BjAPBgNVHRMBAf8EBTADAQH/MA0GCSqGSIb3DQEBCwUAA4IBAQCRWs6tYfOSWzkJ
lv0Nhn8pDaArlahYdH3kvchjVMymzA5MpNrHERfYDhHSqZ2BAmo+8GLhk1+oU4FM
gqlIP82zw6JKEI7z5qNAwlTuzuXdZjo0/72z3Y032jR3y4XGn/vLQelgRnY1YnGm
Fk+I00IKaT2VzIUIrqhzCjl0TNB00s2K0A0/q/9HoaK76uV7ou3AM8oXy18r3gbG
DE1dyjsWoq2Gvch0XggZ7KfPcYOWi+nL1l01iAqWNtNs91ZApeKa4vXmjJi+J9zx
+Afw0PANcdxam39EF60xyNLhzOPcUKL1QC9HOgAE5iPPFzv20gHyX4j/iJmHeI3W
H0WmITjN
-----END CERTIFICATE-----
