Certificate:
    Data:
        Version: 3 (0x2)
        Serial Number: 1 (0x1)
    Signature Algorithm: sha256WithRSAEncryption
        Issuer: CN=Root
        Validity
            Not Before: Jan  1 12:00:00 2015 GMT
            Not After : Jan  1 12:00:00 2021 GMT
        Subject: CN=Root
        Subject Public Key Info:
            Public Key Algorithm: rsaEncryption
                Public-Key: (2048 bit)
                Modulus:
                    00:e0:76:77:42:80:12:21:1a:78:ca:6b:2d:b4:92:
                    2a:2e:5d:8b:15:4b:d2:6a:55:6c:7d:a2:ec:db:ba:
                    c5:54:63:17:bd:a6:a2:6d:a8:46:9a:e1:40:d8:38:
                    97:b7:05:df:41:d5:8d:32:0c:76:71:e6:a2:b6:ff:
                    17:37:ef:66:e4:c5:05:15:de:a1:c8:d9:68:48:d2:
                    92:fb:5a:3e:5d:89:d1:3f:8a:15:a4:37:82:18:fd:
                    79:58:8a:47:39:15:57:d5:de:45:66:21:af:80:7b:
                    21:53:be:0b:94:03:e1:4e:a3:32:28:6f:76:9c:ab:
                    0f:74:df:54:f8:eb:f4:87:c9:a0:0f:21:75:b4:4c:
                    e7:73:7d:53:78:e5:88:95:90:62:28:47:08:a9:73:
                    55:dc:ab:b5:d0:f4:c0:cb:68:b7:e4:d7:3f:62:ef:
                    89:c5:27:e0:1d:5f:a8:88:f2:a1:dd:15:8a:62:ae:
                    7b:7f:46:da:2f:a6:ef:37:6a:fe:8a:db:e4:91:db:
                    ec:e4:e8:c0:7c:bb:96:ff:43:e6:02:9e:e4:07:d6:
                    ca:b9:6d:a0:ba:d9:f9:70:c5:d8:15:10:d8:a1:61:
                    b7:d4:44:04:67:e5:d2:b9:80:d1:86:c4:e5:40:c5:
                    02:c5:83:16:7d:7b:db:af:95:66:9b:fb:42:9c:c8:
                    51:5b
                Exponent: 65537 (0x10001)
        X509v3 extensions:
            X509v3 Subject Key Identifier: 
                98:1F:DC:C5:E8:30:8D:5A:BA:9B:0C:EF:AD:CC:B8:AE:D4:F1:D1:63
            X509v3 Authority Key Identifier: 
                keyid:98:1F:DC:C5:E8:30:8D:5A:BA:9B:0C:EF:AD:CC:B8:AE:D4:F1:D1:63

            Authority Information Access: 
                CA Issuers - URI:http://url-for-aia/Root.cer

            X509v3 CRL Distribution Points: 

                Full Name:
                  URI:http://url-for-crl/Root.crl

            X509v3 Key Usage: critical
                Certificate Sign, CRL Sign
            X509v3 Basic Constraints: critical
                CA:TRUE
    Signature Algorithm: sha256WithRSAEncryption
         bf:ee:de:10:57:08:17:93:3a:c7:4e:74:db:d8:6d:7e:b5:f2:
         1f:45:3c:5b:70:b1:0f:a4:d2:da:29:4a:49:a5:8d:7e:28:7e:
         04:9d:a6:a0:6d:47:5d:05:4e:f6:b6:3a:73:66:05:d6:bd:52:
         6d:1e:2e:3f:f1:37:e2:c0:95:c5:25:ca:dd:4c:32:bb:f4:22:
         3b:41:4d:0b:31:9c:1a:eb:84:95:90:4e:4e:2f:8a:2d:22:43:
         41:37:56:4a:0f:d8:6f:ff:54:2b:af:5b:f0:ac:3c:36:39:a3:
         8f:02:7d:ff:45:25:a0:b9:57:61:15:f3:3a:67:49:da:b8:f4:
         e5:7d:12:89:08:42:67:14:be:6a:a0:10:27:10:f0:21:78:1d:
         cf:07:d0:50:7a:0e:7a:a2:00:5a:c1:dc:b9:d5:2a:ba:bb:7a:
         99:5c:57:d1:14:1b:10:c9:51:9d:82:7b:fe:05:7e:87:fe:05:
         55:52:3d:88:6a:44:bd:8c:61:f0:0c:5c:de:f6:85:1d:41:a9:
         10:fa:89:3c:8c:69:f6:99:69:69:b9:18:a5:40:7d:7e:52:04:
         f8:92:91:be:02:7a:25:42:c8:e4:d3:dd:da:60:82:f2:f3:2c:
         9f:d9:cb:4c:13:a2:ea:a1:39:b0:35:37:3a:4d:e1:89:9f:24:
         f3:b2:30:1f
-----BEGIN CERTIFICATE-----
MIIDZTCCAk2gAwIBAgIBATANBgkqhkiG9w0BAQsFADAPMQ0wCwYDVQQDDARSb290
MB4XDTE1MDEwMTEyMDAwMFoXDTIxMDEwMTEyMDAwMFowDzENMAsGA1UEAwwEUm9v
dDCCASIwDQYJKoZIhvcNAQEBBQADggEPADCCAQoCggEBAOB2d0KAEiEaeMprLbSS
Ki5dixVL0mpVbH2i7Nu6xVRjF72mom2oRprhQNg4l7cF30HVjTIMdnHmorb/Fzfv
ZuTFBRXeocjZaEjSkvtaPl2J0T+KFaQ3ghj9eViKRzkVV9XeRWYhr4B7IVO+C5QD
4U6jMihvdpyrD3TfVPjr9IfJoA8hdbRM53N9U3jliJWQYihHCKlzVdyrtdD0wMto
t+TXP2LvicUn4B1fqIjyod0VimKue39G2i+m7zdq/orb5JHb7OTowHy7lv9D5gKe
5AfWyrltoLrZ+XDF2BUQ2KFht9REBGfl0rmA0YbE5UDFAsWDFn1726+VZpv7QpzI
UVsCAwEAAaOByzCByDAdBgNVHQ4EFgQUmB/cxegwjVq6mwzvrcy4rtTx0WMwHwYD
VR0jBBgwFoAUmB/cxegwjVq6mwzvrcy4rtTx0WMwNwYIKwYBBQUHAQEEKzApMCcG
CCsGAQUFBzAChhtodHRwOi8vdXJsLWZvci1haWEvUm9vdC5jZXIwLAYDVR0fBCUw
IzAhoB+gHYYbaHR0cDovL3VybC1mb3ItY3JsL1Jvb3QuY3JsMA4GA1UdDwEB/wQE
AwIBBjAPBgNVHRMBAf8EBTADAQH/MA0GCSqGSIb3DQEBCwUAA4IBAQC/7t4QVwgX
kzrHTnTb2G1+tfIfRTxbcLEPpNLaKUpJpY1+KH4EnaagbUddBU72tjpzZgXWvVJt
Hi4/8TfiwJXFJcrdTDK79CI7QU0LMZwa64SVkE5OL4otIkNBN1ZKD9hv/1Qrr1vw
rDw2OaOPAn3/RSWguVdhFfM6Z0nauPTlfRKJCEJnFL5qoBAnEPAheB3PB9BQeg56
ogBawdy51Sq6u3qZXFfRFBsQyVGdgnv+BX6H/gVVUj2IakS9jGHwDFze9oUdQakQ
+ok8jGn2mWlpuRilQH1+UgT4kpG+AnolQsjk093aYILy8yyf2ctME6LqoTmwNTc6
TeGJnyTzsjAf
-----END CERTIFICATE-----
