Certificate:
    Data:
        Version: 3 (0x2)
        Serial Number: 1 (0x1)
    Signature Algorithm: sha256WithRSAEncryption
        Issuer: CN=Root
        Validity
            Not Before: Jan  1 12:00:00 2015 GMT
            Not After : Jan  1 12:00:00 2021 GMT
        Subject: CN=Root
        Subject Public Key Info:
            Public Key Algorithm: rsaEncryption
                Public-Key: (2048 bit)
                Modulus:
                    00:c5:4d:a6:fe:7f:c0:31:03:69:d9:4b:40:aa:ea:
                    7f:d8:a9:ba:5e:7f:05:a9:b1:14:38:11:fd:35:c9:
                    21:06:4b:ae:91:51:ff:9b:fa:de:78:7b:ec:7f:85:
                    49:18:91:97:3d:73:1f:71:2d:41:cf:9e:a7:26:d7:
                    0a:11:51:79:0c:0d:40:18:8e:4d:8b:03:42:a9:25:
                    e4:e7:26:d9:d9:da:13:27:dd:ad:02:27:b3:53:07:
                    8b:32:1d:1a:bd:6a:73:59:02:58:3d:8d:dc:e3:8d:
                    ee:9a:e5:b7:56:5f:b0:5e:a6:f9:cc:0f:13:9e:6f:
                    cf:73:77:84:23:8a:6b:6c:a5:cd:d8:19:1d:c5:8c:
                    d2:e3:a5:bc:4e:26:10:49:dc:95:5e:b6:8d:73:7e:
                    f1:e9:70:11:72:85:ab:b7:29:be:72:13:d0:18:8d:
                    ab:4c:67:22:7a:03:2e:0c:f8:47:27:af:f8:a1:87:
                    b2:99:36:65:9d:00:a6:70:87:64:bc:dc:86:c3:0a:
                    73:06:12:d9:56:9c:72:cf:63:88:85:e7:46:0b:33:
                    91:8e:4c:76:ab:b7:e0:3a:41:a7:a0:d4:92:d7:c9:
                    11:d1:c8:77:c1:a9:69:69:57:eb:91:a4:49:a2:57:
                    15:f1:9d:7d:fa:f9:f0:98:be:4b:0b:1b:d7:92:e4:
                    50:47
                Exponent: 65537 (0x10001)
        X509v3 extensions:
            X509v3 Subject Key Identifier: 
                E5:4E:96:E4:D9:82:36:BD:51:C3:57:BD:E6:DE:3C:C1:46:B4:49:0D
            X509v3 Authority Key Identifier: 
                keyid:E5:4E:96:E4:D9:82:36:BD:51:C3:57:BD:E6:DE:3C:C1:46:B4:49:0D

            Authority Information Access: 
                CA Issuers - URI:http://url-for-aia/Root.cer

            X509v3 CRL Distribution Points: 

                Full Name:
                  URI:http://url-for-crl/Root.crl

            X509v3 Key Usage: critical
                Certificate Sign, CRL Sign
            X509v3 Basic Constraints: critical
                CA:TRUE
    Signature Algorithm: sha256WithRSAEncryption
         5f:d4:9c:32:27:c2:19:48:51:1a:59:b3:16:7b:55:ec:c5:39:
         e6:3b:08:0b:31:60:0b:8b:50:57:26:b9:67:12:f8:5b:95:ca:
         f7:b9:88:28:65:50:ab:c6:60:9a:29:05:92:e6:b6:72:02:f4:
         e2:95:b8:d9:29:fc:61:62:a4:1f:1e:0b:22:a7:80:5e:08:2c:
         a2:c5:1c:20:47:cc:dc:6c:8e:95:c1:34:a0:c8:35:f1:48:f6:
         96:a6:ee:e4:cb:58:55:b2:6e:a5:25:c8:a9:b8:6d:bb:50:dd:
         0b:3b:83:f2:84:4b:b8:14:30:2c:38:a5:67:89:dd:be:d6:45:
         80:23:7c:87:02:96:39:22:87:58:ce:fa:7e:0d:2e:60:54:ca:
         9a:01:70:39:eb:6d:8f:82:d0:68:46:ee:3a:9a:54:df:d8:74:
         4c:3a:5e:96:d8:4b:c7:86:04:d0:b7:96:f9:b3:c1:a3:a7:95:
         b8:d7:7e:8b:f1:2a:b7:e0:8c:fb:ce:15:d1:cc:81:4f:40:96:
         18:a8:aa:d7:97:3d:27:60:1f:ac:60:92:d1:b0:53:77:73:d7:
         85:c8:6c:8a:36:8f:6a:2d:e7:6a:16:d5:f9:a3:42:e3:84:32:
         ee:d3:e9:18:41:b6:07:30:87:03:b0:54:c3:2a:49:bc:00:13:
         d1:79:5e:06
-----BEGIN CERTIFICATE-----
MIIDZTCCAk2gAwIBAgIBATANBgkqhkiG9w0BAQsFADAPMQ0wCwYDVQQDDARSb290
MB4XDTE1MDEwMTEyMDAwMFoXDTIxMDEwMTEyMDAwMFowDzENMAsGA1UEAwwEUm9v
dDCCASIwDQYJKoZIhvcNAQEBBQADggEPADCCAQoCggEBAMVNpv5/wDEDadlLQKrq
f9ipul5/BamxFDgR/TXJIQZLrpFR/5v63nh77H+FSRiRlz1zH3EtQc+epybXChFR
eQwNQBiOTYsDQqkl5Ocm2dnaEyfdrQIns1MHizIdGr1qc1kCWD2N3OON7prlt1Zf
sF6m+cwPE55vz3N3hCOKa2ylzdgZHcWM0uOlvE4mEEnclV62jXN+8elwEXKFq7cp
vnIT0BiNq0xnInoDLgz4Ryev+KGHspk2ZZ0ApnCHZLzchsMKcwYS2Vaccs9jiIXn
RgszkY5Mdqu34DpBp6DUktfJEdHId8GpaWlX65GkSaJXFfGdffr58Ji+Swsb15Lk
UEcCAwEAAaOByzCByDAdBgNVHQ4EFgQU5U6W5NmCNr1Rw1e95t48wUa0SQ0wHwYD
VR0jBBgwFoAU5U6W5NmCNr1Rw1e95t48wUa0SQ0wNwYIKwYBBQUHAQEEKzApMCcG
CCsGAQUFBzAChhtodHRwOi8vdXJsLWZvci1haWEvUm9vdC5jZXIwLAYDVR0fBCUw
IzAhoB+gHYYbaHR0cDovL3VybC1mb3ItY3JsL1Jvb3QuY3JsMA4GA1UdDwEB/wQE
AwIBBjAPBgNVHRMBAf8EBTADAQH/MA0GCSqGSIb3DQEBCwUAA4IBAQBf1JwyJ8IZ
SFEaWbMWe1XsxTnmOwgLMWALi1BXJrlnEvhblcr3uYgoZVCrxmCaKQWS5rZyAvTi
lbjZKfxhYqQfHgsip4BeCCyixRwgR8zcbI6VwTSgyDXxSPaWpu7ky1hVsm6lJcip
uG27UN0LO4PyhEu4FDAsOKVnid2+1kWAI3yHApY5IodYzvp+DS5gVMqaAXA5622P
gtBoRu46mlTf2HRMOl6W2EvHhgTQt5b5s8Gjp5W4136L8Sq34Iz7zhXRzIFPQJYY
qKrXlz0nYB+sYJLRsFN3c9eFyGyKNo9qLedqFtX5o0LjhDLu0+kYQbYHMIcDsFTD
Kkm8ABPReV4G
-----END CERTIFICATE-----
