Certificate:
    Data:
        Version: 3 (0x2)
        Serial Number: 1 (0x1)
    Signature Algorithm: sha256WithRSAEncryption
        Issuer: CN=I
        Validity
            Not Before: Jan  1 12:00:00 2015 GMT
            Not After : Jan  1 12:00:00 2021 GMT
        Subject: CN=target
        Subject Public Key Info:
            Public Key Algorithm: rsaEncryption
                Public-Key: (2048 bit)
                Modulus:
                    00:ba:f4:30:40:ee:e8:c3:44:66:c1:07:f4:27:30:
                    bc:76:aa:df:c1:f9:84:f8:2d:60:d8:a3:96:8c:9e:
                    e6:9d:ea:d9:98:dc:64:01:3e:ae:9f:82:23:52:64:
                    60:75:98:9c:2d:ea:55:a3:80:42:be:31:9d:51:49:
                    a6:ea:e3:9d:a8:cc:89:93:36:3a:a3:33:5c:56:e9:
                    4b:f0:cf:81:bd:5e:52:05:44:34:ad:25:af:61:b5:
                    da:d5:30:e9:18:e0:23:64:1c:08:d2:8f:43:8f:84:
                    3b:62:7e:2e:e8:71:8a:0b:9a:4d:0e:20:90:14:77:
                    40:83:39:92:93:66:44:7f:c9:94:e0:ba:7b:82:95:
                    4d:bf:3a:72:8f:00:4c:62:dc:72:a7:43:43:53:0b:
                    bb:52:b5:3f:42:5b:3b:6a:89:a2:ed:c9:27:0b:49:
                    74:51:da:0e:53:72:87:7c:4c:30:26:a4:ca:53:59:
                    8e:4f:75:b7:c8:1e:7b:77:35:d8:5e:f7:9f:f4:1b:
                    77:31:19:4f:4b:f9:1f:e6:c0:84:9c:21:b0:5f:1d:
                    5e:24:14:35:ee:80:98:8d:eb:77:06:6f:27:61:fc:
                    ac:3b:99:f5:d9:86:85:ee:e1:79:90:62:05:b6:58:
                    a2:9e:31:34:d7:b9:38:39:3b:91:92:37:de:68:e0:
                    4b:85
                Exponent: 65537 (0x10001)
        X509v3 extensions:
            X509v3 Subject Key Identifier: 
                F4:04:58:42:C7:F3:33:C8:D7:AE:12:EC:87:E9:98:48:2D:E9:33:1E
            X509v3 Authority Key Identifier: 
                keyid:40:91:28:21:9D:93:F3:9C:18:1B:FF:00:9C:B2:08:A0:A3:81:7D:2A

            Authority Information Access: 
                CA Issuers - URI:http://url-for-aia/I.cer

            X509v3 CRL Distribution Points: 

                Full Name:
                  URI:http://url-for-crl/I.crl

            X509v3 Key Usage: critical
                Digital Signature, Key Encipherment
            X509v3 Extended Key Usage: 
                TLS Web Server Authentication, TLS Web Client Authentication
    Signature Algorithm: sha256WithRSAEncryption
         0f:eb:81:92:ea:ac:d4:ac:84:d7:a2:b0:b0:55:78:47:37:af:
         e5:0d:97:a6:ff:67:ff:e7:3b:71:8b:0d:67:84:b5:d2:4f:8f:
         5f:2b:26:f7:92:66:1d:8a:5d:b6:25:24:6f:84:2f:bc:ea:30:
         1d:f8:34:84:12:ea:69:05:76:d5:61:dd:eb:d3:70:3b:68:58:
         87:f9:c6:cf:04:6e:8a:e5:02:94:39:9d:a1:45:50:92:00:20:
         98:d6:6f:a4:45:08:83:f8:3a:f0:67:aa:67:01:79:c9:bc:89:
         8e:77:68:15:20:00:d0:3d:80:d4:c4:e1:7a:73:cd:16:18:bd:
         7c:a4:5c:2f:5c:c9:d7:2e:63:e8:38:63:b5:f4:6a:11:c9:1f:
         8e:3b:44:9a:51:d0:d8:8d:a6:33:ab:12:4c:76:27:36:67:ec:
         15:2e:93:79:e5:33:b5:7a:74:c6:ac:c2:82:79:4f:cf:96:79:
         20:81:4f:aa:12:25:03:9c:0c:45:83:65:5e:45:e1:01:00:a2:
         b7:a4:27:00:4f:ad:c1:2a:e6:66:46:16:44:0e:9d:c4:32:73:
         72:ae:f9:2b:d9:71:0a:d6:ca:56:a8:9b:8b:c2:44:b5:fe:48:
         54:c9:b8:60:d8:5d:c2:2f:2c:34:73:66:54:5c:c3:c9:8d:c6:
         c7:a8:76:d8
-----BEGIN CERTIFICATE-----
MIIDbDCCAlSgAwIBAgIBATANBgkqhkiG9w0BAQsFADAMMQowCAYDVQQDDAFJMB4X
DTE1MDEwMTEyMDAwMFoXDTIxMDEwMTEyMDAwMFowETEPMA0GA1UEAwwGdGFyZ2V0
MIIBIjANBgkqhkiG9w0BAQEFAAOCAQ8AMIIBCgKCAQEAuvQwQO7ow0RmwQf0JzC8
dqrfwfmE+C1g2KOWjJ7mnerZmNxkAT6un4IjUmRgdZicLepVo4BCvjGdUUmm6uOd
qMyJkzY6ozNcVulL8M+BvV5SBUQ0rSWvYbXa1TDpGOAjZBwI0o9Dj4Q7Yn4u6HGK
C5pNDiCQFHdAgzmSk2ZEf8mU4Lp7gpVNvzpyjwBMYtxyp0NDUwu7UrU/Qls7aomi
7cknC0l0UdoOU3KHfEwwJqTKU1mOT3W3yB57dzXYXvef9Bt3MRlPS/kf5sCEnCGw
Xx1eJBQ17oCYjet3Bm8nYfysO5n12YaF7uF5kGIFtliinjE017k4OTuRkjfeaOBL
hQIDAQABo4HTMIHQMB0GA1UdDgQWBBT0BFhCx/MzyNeuEuyH6ZhILekzHjAfBgNV
HSMEGDAWgBRAkSghnZPznBgb/wCcsgigo4F9KjA0BggrBgEFBQcBAQQoMCYwJAYI
KwYBBQUHMAKGGGh0dHA6Ly91cmwtZm9yLWFpYS9JLmNlcjApBgNVHR8EIjAgMB6g
HKAahhhodHRwOi8vdXJsLWZvci1jcmwvSS5jcmwwDgYDVR0PAQH/BAQDAgWgMB0G
A1UdJQQWMBQGCCsGAQUFBwMBBggrBgEFBQcDAjANBgkqhkiG9w0BAQsFAAOCAQEA
D+uBkuqs1KyE16KwsFV4Rzev5Q2Xpv9n/+c7cYsNZ4S10k+PXysm95JmHYpdtiUk
b4QvvOowHfg0hBLqaQV21WHd69NwO2hYh/nGzwRuiuUClDmdoUVQkgAgmNZvpEUI
g/g68GeqZwF5ybyJjndoFSAA0D2A1MThenPNFhi9fKRcL1zJ1y5j6DhjtfRqEckf
jjtEmlHQ2I2mM6sSTHYnNmfsFS6TeeUztXp0xqzCgnlPz5Z5IIFPqhIlA5wMRYNl
XkXhAQCit6QnAE+twSrmZkYWRA6dxDJzcq75K9lxCtbKVqibi8JEtf5IVMm4YNhd
wi8sNHNmVFzDyY3Gx6h22A==
-----END CERTIFICATE-----
