Certificate:
    Data:
        Version: 3 (0x2)
        Serial Number: 8 (0x8)
    Signature Algorithm: sha256WithRSAEncryption
        Issuer: CN=I
        Validity
            Not Before: Jan  1 12:00:00 2015 GMT
            Not After : Jan  1 12:00:00 2021 GMT
        Subject: CN=target
        Subject Public Key Info:
            Public Key Algorithm: rsaEncryption
                Public-Key: (2048 bit)
                Modulus:
                    00:c8:03:32:ae:0e:d4:6b:f1:27:56:39:2f:62:ae:
                    56:60:79:57:73:86:89:35:8c:07:ba:b5:d1:55:c7:
                    a8:fc:91:d7:c9:20:4d:93:bd:7b:5d:40:73:d2:af:
                    69:91:3b:69:49:58:4c:bb:6f:a9:a3:bc:51:9b:1c:
                    7d:06:fa:67:3f:50:09:9e:1e:4d:08:8f:12:0a:1a:
                    be:8c:26:45:b7:2d:73:2d:3e:d8:fe:31:3f:c3:42:
                    bd:90:44:2b:05:7f:53:68:51:ef:59:88:6c:0e:7d:
                    e3:cd:7b:65:08:5f:7f:4f:85:11:0b:8d:ce:27:e3:
                    69:7f:1d:24:6c:ea:12:6e:d0:6a:13:31:d5:8c:d4:
                    f4:b1:3a:df:20:cb:f4:1f:05:71:6d:17:ee:37:28:
                    c7:b8:b0:d5:5a:12:cd:7e:40:65:fa:33:49:c6:83:
                    bd:bb:37:0b:3b:a7:0c:c5:0b:99:ed:b7:d2:9a:ba:
                    ba:f8:d7:8c:23:ed:12:ad:ac:b3:29:a3:70:71:5c:
                    42:7b:e5:46:8c:1f:95:0d:cc:22:24:3a:d8:4e:91:
                    42:1e:c9:a5:77:c2:49:b7:04:68:9c:5e:bb:48:e8:
                    1b:03:dd:28:69:5f:1a:43:2b:75:0f:86:c1:b0:af:
                    98:b8:c8:0c:a6:2a:25:d7:73:4d:85:63:df:75:1f:
                    39:4b
                Exponent: 65537 (0x10001)
        X509v3 extensions:
            X509v3 Subject Key Identifier: 
                6D:14:70:82:6B:4A:03:46:1B:B4:E3:B1:BC:40:78:FF:7B:28:45:55
            X509v3 Authority Key Identifier: 
                keyid:40:91:28:21:9D:93:F3:9C:18:1B:FF:00:9C:B2:08:A0:A3:81:7D:2A

            Authority Information Access: 
                CA Issuers - URI:file:///dev/null
                CA Issuers - URI:http://url-for-aia2/I2.foo

            X509v3 CRL Distribution Points: 

                Full Name:
                  URI:http://url-for-crl/I.crl

            X509v3 Key Usage: critical
                Digital Signature, Key Encipherment
            X509v3 Extended Key Usage: 
                TLS Web Server Authentication, TLS Web Client Authentication
    Signature Algorithm: sha256WithRSAEncryption
         90:dd:9e:1e:9a:20:5e:bc:dd:ea:be:35:6d:73:5e:9e:17:d7:
         06:92:2c:d6:05:3d:a5:90:5a:f0:b5:55:d6:1e:d6:78:8d:aa:
         8b:94:8f:2e:68:64:09:72:ff:a5:95:61:49:33:79:67:4d:1d:
         53:3b:59:16:82:bc:1b:27:05:7e:f2:41:80:09:e0:b2:92:85:
         a0:fa:32:f2:99:49:ce:63:5a:c2:f4:89:d0:0f:39:a1:0f:b1:
         61:0c:fd:a7:b1:d4:8f:a4:b1:9a:4f:da:81:ec:41:ee:c1:5b:
         1b:3e:df:8e:0f:1c:aa:a6:63:0f:6b:e5:0a:36:a3:e1:72:3c:
         74:49:cd:2b:eb:f5:d0:c8:87:c0:22:3a:51:7b:58:3b:6c:4b:
         6a:70:74:be:1c:68:49:7b:9d:62:ef:4a:e8:d2:3f:5a:ec:5f:
         48:80:55:e0:10:b9:67:8c:12:3c:a2:3b:6a:f6:47:8a:59:30:
         f9:67:92:59:da:ed:1e:b7:30:ef:2d:bf:53:c2:dd:08:a1:e0:
         fd:78:4e:fa:36:59:ca:53:f8:62:c1:c4:56:c1:56:73:74:8e:
         c9:ca:07:14:5e:d4:be:be:b2:38:6a:d4:74:e5:60:7c:e7:d4:
         8d:30:25:e2:da:85:c9:85:69:46:99:40:56:65:ca:40:59:59:
         98:9c:18:04
-----BEGIN CERTIFICATE-----
MIIDjDCCAnSgAwIBAgIBCDANBgkqhkiG9w0BAQsFADAMMQowCAYDVQQDDAFJMB4X
DTE1MDEwMTEyMDAwMFoXDTIxMDEwMTEyMDAwMFowETEPMA0GA1UEAwwGdGFyZ2V0
MIIBIjANBgkqhkiG9w0BAQEFAAOCAQ8AMIIBCgKCAQEAyAMyrg7Ua/EnVjkvYq5W
YHlXc4aJNYwHurXRVceo/JHXySBNk717XUBz0q9pkTtpSVhMu2+po7xRmxx9Bvpn
P1AJnh5NCI8SChq+jCZFty1zLT7Y/jE/w0K9kEQrBX9TaFHvWYhsDn3jzXtlCF9/
T4URC43OJ+Npfx0kbOoSbtBqEzHVjNT0sTrfIMv0HwVxbRfuNyjHuLDVWhLNfkBl
+jNJxoO9uzcLO6cMxQuZ7bfSmrq6+NeMI+0SrayzKaNwcVxCe+VGjB+VDcwiJDrY
TpFCHsmld8JJtwRonF67SOgbA90oaV8aQyt1D4bBsK+YuMgMpiol13NNhWPfdR85
SwIDAQABo4HzMIHwMB0GA1UdDgQWBBRtFHCCa0oDRhu047G8QHj/eyhFVTAfBgNV
HSMEGDAWgBRAkSghnZPznBgb/wCcsgigo4F9KjBUBggrBgEFBQcBAQRIMEYwHAYI
KwYBBQUHMAKGEGZpbGU6Ly8vZGV2L251bGwwJgYIKwYBBQUHMAKGGmh0dHA6Ly91
cmwtZm9yLWFpYTIvSTIuZm9vMCkGA1UdHwQiMCAwHqAcoBqGGGh0dHA6Ly91cmwt
Zm9yLWNybC9JLmNybDAOBgNVHQ8BAf8EBAMCBaAwHQYDVR0lBBYwFAYIKwYBBQUH
AwEGCCsGAQUFBwMCMA0GCSqGSIb3DQEBCwUAA4IBAQCQ3Z4emiBevN3qvjVtc16e
F9cGkizWBT2lkFrwtVXWHtZ4jaqLlI8uaGQJcv+llWFJM3lnTR1TO1kWgrwbJwV+
8kGACeCykoWg+jLymUnOY1rC9InQDzmhD7FhDP2nsdSPpLGaT9qB7EHuwVsbPt+O
DxyqpmMPa+UKNqPhcjx0Sc0r6/XQyIfAIjpRe1g7bEtqcHS+HGhJe51i70ro0j9a
7F9IgFXgELlnjBI8ojtq9keKWTD5Z5JZ2u0etzDvLb9Twt0IoeD9eE76NlnKU/hi
wcRWwVZzdI7JygcUXtS+vrI4atR05WB859SNMCXi2oXJhWlGmUBWZcpAWVmYnBgE
-----END CERTIFICATE-----
