Certificate:
    Data:
        Version: 3 (0x2)
        Serial Number: 9 (0x9)
    Signature Algorithm: sha256WithRSAEncryption
        Issuer: CN=I
        Validity
            Not Before: Jan  1 12:00:00 2015 GMT
            Not After : Jan  1 12:00:00 2021 GMT
        Subject: CN=target
        Subject Public Key Info:
            Public Key Algorithm: rsaEncryption
                Public-Key: (2048 bit)
                Modulus:
                    00:b3:04:b7:2a:7f:85:9a:b4:30:29:77:0b:50:c8:
                    1f:b3:0d:98:9b:f7:4f:ab:32:79:11:fd:73:f7:c4:
                    af:28:f8:c7:15:66:50:2e:26:ab:76:ca:72:f2:d9:
                    7f:1a:ee:64:e8:f2:87:4f:8d:32:09:1d:e8:14:fc:
                    18:c5:13:f5:d7:74:94:61:8b:5f:e0:67:0a:84:fa:
                    8b:2c:7e:8d:47:5b:7e:91:98:ef:14:58:b0:77:07:
                    c7:78:12:6c:e1:60:82:f4:fb:44:c3:64:7c:59:52:
                    f7:bb:ca:a0:28:4e:da:a0:53:95:80:d5:fd:1f:a6:
                    d7:8b:27:2a:f0:fc:67:e9:b2:c6:54:97:a2:9b:92:
                    b6:4f:c1:c8:82:2b:a4:ff:2a:d0:c2:7c:83:8d:b2:
                    0c:29:a1:d9:86:b2:a0:f1:8a:50:fa:e7:e6:a6:f0:
                    fa:52:85:28:98:da:53:05:d8:62:1e:33:8a:c2:89:
                    e3:e8:98:f1:64:1a:bc:8d:c0:90:54:7b:8d:c4:00:
                    77:52:fe:14:f3:79:0f:34:e9:6f:b2:b0:e1:e1:e5:
                    b5:77:71:c8:f3:cf:3e:38:4c:d4:b0:bf:aa:74:45:
                    22:7e:18:23:ab:39:b0:a4:09:e3:35:73:8e:4e:91:
                    b6:c1:77:4f:39:b6:e4:24:95:92:5b:0b:6e:3f:ee:
                    f9:cf
                Exponent: 65537 (0x10001)
        X509v3 extensions:
            X509v3 Subject Key Identifier: 
                11:AD:0A:17:B2:9E:A2:12:F6:B2:82:F7:92:A9:01:AD:9C:D3:98:3B
            X509v3 Authority Key Identifier: 
                keyid:40:91:28:21:9D:93:F3:9C:18:1B:FF:00:9C:B2:08:A0:A3:81:7D:2A

            Authority Information Access: 
                CA Issuers - URI:foobar
                CA Issuers - URI:http://url-for-aia2/I2.foo

            X509v3 CRL Distribution Points: 

                Full Name:
                  URI:http://url-for-crl/I.crl

            X509v3 Key Usage: critical
                Digital Signature, Key Encipherment
            X509v3 Extended Key Usage: 
                TLS Web Server Authentication, TLS Web Client Authentication
    Signature Algorithm: sha256WithRSAEncryption
         11:05:b5:d9:cd:93:1b:2e:e1:6a:71:d1:e1:a5:53:7f:b6:75:
         6f:ac:4a:56:f9:1b:f0:cc:ef:5d:37:56:23:72:75:c5:bb:cb:
         b7:3e:04:e3:e7:de:af:97:e1:6a:6e:86:f1:55:6b:42:95:a3:
         16:fa:2f:38:cb:c0:0e:a9:eb:af:91:55:49:d6:65:21:25:83:
         2a:50:06:68:c4:e7:2d:09:da:0b:8f:d1:ce:30:21:74:66:02:
         17:3a:6c:5b:67:d7:20:64:69:a7:83:60:bb:08:9e:2f:ae:38:
         9e:8e:83:9e:5a:24:a8:65:0f:9f:b0:bb:ae:db:4f:ba:b4:4e:
         80:53:9e:4a:a7:23:ac:7f:db:f1:0e:8b:d9:7c:6c:bd:6c:8e:
         b3:07:29:d8:9d:88:33:1f:40:ec:33:8b:a7:52:96:cf:e9:8d:
         15:48:57:cb:77:df:bd:f5:31:ee:64:bc:55:89:48:1b:26:56:
         73:a8:a5:88:fc:61:5f:d1:9a:28:0f:f7:69:88:0a:87:b0:a9:
         ca:f4:e4:b2:31:11:b2:b2:15:88:7d:0c:8a:29:5a:ad:1a:29:
         74:13:06:2f:45:c0:48:83:60:89:fd:8c:7f:a3:4d:9e:5d:1c:
         a9:61:19:fd:d5:a0:7e:a3:b7:59:a6:bb:bd:72:f2:da:ea:0b:
         05:05:56:e1
-----BEGIN CERTIFICATE-----
MIIDgjCCAmqgAwIBAgIBCTANBgkqhkiG9w0BAQsFADAMMQowCAYDVQQDDAFJMB4X
DTE1MDEwMTEyMDAwMFoXDTIxMDEwMTEyMDAwMFowETEPMA0GA1UEAwwGdGFyZ2V0
MIIBIjANBgkqhkiG9w0BAQEFAAOCAQ8AMIIBCgKCAQEAswS3Kn+FmrQwKXcLUMgf
sw2Ym/dPqzJ5Ef1z98SvKPjHFWZQLiardspy8tl/Gu5k6PKHT40yCR3oFPwYxRP1
13SUYYtf4GcKhPqLLH6NR1t+kZjvFFiwdwfHeBJs4WCC9PtEw2R8WVL3u8qgKE7a
oFOVgNX9H6bXiycq8Pxn6bLGVJeim5K2T8HIgiuk/yrQwnyDjbIMKaHZhrKg8YpQ
+ufmpvD6UoUomNpTBdhiHjOKwonj6JjxZBq8jcCQVHuNxAB3Uv4U83kPNOlvsrDh
4eW1d3HI888+OEzUsL+qdEUifhgjqzmwpAnjNXOOTpG2wXdPObbkJJWSWwtuP+75
zwIDAQABo4HpMIHmMB0GA1UdDgQWBBQRrQoXsp6iEvaygveSqQGtnNOYOzAfBgNV
HSMEGDAWgBRAkSghnZPznBgb/wCcsgigo4F9KjBKBggrBgEFBQcBAQQ+MDwwEgYI
KwYBBQUHMAKGBmZvb2JhcjAmBggrBgEFBQcwAoYaaHR0cDovL3VybC1mb3ItYWlh
Mi9JMi5mb28wKQYDVR0fBCIwIDAeoBygGoYYaHR0cDovL3VybC1mb3ItY3JsL0ku
Y3JsMA4GA1UdDwEB/wQEAwIFoDAdBgNVHSUEFjAUBggrBgEFBQcDAQYIKwYBBQUH
AwIwDQYJKoZIhvcNAQELBQADggEBABEFtdnNkxsu4Wpx0eGlU3+2dW+sSlb5G/DM
7103ViNydcW7y7c+BOPn3q+X4WpuhvFVa0KVoxb6LzjLwA6p66+RVUnWZSElgypQ
BmjE5y0J2guP0c4wIXRmAhc6bFtn1yBkaaeDYLsIni+uOJ6Og55aJKhlD5+wu67b
T7q0ToBTnkqnI6x/2/EOi9l8bL1sjrMHKdidiDMfQOwzi6dSls/pjRVIV8t33731
Me5kvFWJSBsmVnOopYj8YV/RmigP92mICoewqcr05LIxEbKyFYh9DIopWq0aKXQT
Bi9FwEiDYIn9jH+jTZ5dHKlhGf3VoH6jt1mmu71y8trqCwUFVuE=
-----END CERTIFICATE-----
