Certificate:
    Data:
        Version: 3 (0x2)
        Serial Number: 6 (0x6)
    Signature Algorithm: sha256WithRSAEncryption
        Issuer: CN=I
        Validity
            Not Before: Jan  1 12:00:00 2015 GMT
            Not After : Jan  1 12:00:00 2021 GMT
        Subject: CN=target
        Subject Public Key Info:
            Public Key Algorithm: rsaEncryption
                Public-Key: (2048 bit)
                Modulus:
                    00:ee:22:a3:0e:ba:89:a9:fc:95:d9:52:63:da:11:
                    41:eb:fe:16:b2:fb:28:bc:f0:46:43:3b:6d:72:04:
                    33:d1:8c:ab:4c:1a:dc:af:68:7d:a4:61:a4:44:dc:
                    1f:1f:8f:cf:e5:8b:e5:fa:ec:12:92:19:18:e1:ec:
                    a3:52:7c:06:c5:a6:9c:f6:af:0b:40:3c:44:cb:64:
                    a1:8b:60:65:5f:f0:e0:b7:cf:86:38:5a:2d:36:12:
                    0b:f9:c2:b3:c4:ed:36:13:67:b6:c3:9a:43:97:e5:
                    44:dc:5d:62:ed:37:da:c7:66:73:fc:67:0e:32:9a:
                    5f:db:b1:8a:4a:12:a4:a5:47:24:84:b3:0d:3b:32:
                    bb:98:e9:24:db:58:41:4e:ef:51:a6:07:00:ed:e2:
                    5d:22:43:b4:48:7f:82:f8:e4:c5:98:7f:4b:df:b0:
                    9a:e1:78:65:c5:65:bf:7e:09:75:96:e4:9c:93:40:
                    95:76:02:ae:dd:d0:cf:42:4d:53:c6:45:6c:80:cf:
                    a9:0c:f6:f5:b6:b2:f7:fd:47:68:53:5d:39:8c:3d:
                    2b:e3:eb:7e:0a:b6:c9:19:f4:70:3b:df:4b:c0:ad:
                    27:df:b2:80:a7:1b:4f:cf:2a:51:1a:f4:10:b8:1a:
                    ff:0f:36:e5:be:4e:b6:89:73:ca:56:5f:3b:89:48:
                    d0:c7
                Exponent: 65537 (0x10001)
        X509v3 extensions:
            X509v3 Subject Key Identifier: 
                A7:CF:5E:6D:C8:A0:41:B5:7B:39:EA:C3:A5:F9:13:14:80:1E:3C:81
            X509v3 Authority Key Identifier: 
                keyid:40:91:28:21:9D:93:F3:9C:18:1B:FF:00:9C:B2:08:A0:A3:81:7D:2A

            Authority Information Access: 
                CA Issuers - URI:file:///dev/null

            X509v3 CRL Distribution Points: 

                Full Name:
                  URI:http://url-for-crl/I.crl

            X509v3 Key Usage: critical
                Digital Signature, Key Encipherment
            X509v3 Extended Key Usage: 
                TLS Web Server Authentication, TLS Web Client Authentication
    Signature Algorithm: sha256WithRSAEncryption
         28:b6:d2:18:91:33:ed:df:67:ec:f5:c1:c7:37:25:1c:ec:95:
         71:d9:ec:80:4c:e9:8b:d5:66:15:c2:19:e3:47:da:a7:b5:bb:
         df:59:84:2f:07:96:c5:80:26:d7:d6:df:ce:cd:0b:28:fc:de:
         c9:cc:b0:43:76:83:46:02:b1:f0:d0:3d:2e:6b:52:be:24:54:
         ab:03:72:ee:a6:8c:cf:17:81:0b:c3:29:2f:da:ed:7a:e8:43:
         90:57:97:56:6b:f9:76:25:93:ed:b7:a0:53:f1:ff:83:7e:53:
         0c:ca:bb:a6:16:25:4d:fc:b6:cd:54:5a:fa:f8:12:a5:8c:46:
         5a:64:e8:ba:f8:26:2e:15:8d:fa:00:e7:96:f7:47:73:5c:0c:
         30:68:4b:db:0b:92:31:2d:1a:a0:14:77:10:dc:cb:07:ef:f1:
         30:76:fa:dd:41:e4:b1:a3:d3:aa:c2:20:f7:77:f4:72:41:5b:
         38:96:ce:e6:72:60:ff:63:d2:25:8b:99:cd:f6:34:34:73:67:
         9a:cc:da:d3:76:da:ef:fb:d5:4a:cf:fe:34:27:fb:32:96:5b:
         bf:b7:72:87:a7:f2:1e:7a:fc:e8:9d:ee:f6:94:44:88:63:47:
         ec:e9:e8:61:74:9d:28:bd:2c:fd:b7:b3:b2:ed:68:c8:d6:ff:
         53:93:61:36
-----BEGIN CERTIFICATE-----
MIIDZDCCAkygAwIBAgIBBjANBgkqhkiG9w0BAQsFADAMMQowCAYDVQQDDAFJMB4X
DTE1MDEwMTEyMDAwMFoXDTIxMDEwMTEyMDAwMFowETEPMA0GA1UEAwwGdGFyZ2V0
MIIBIjANBgkqhkiG9w0BAQEFAAOCAQ8AMIIBCgKCAQEA7iKjDrqJqfyV2VJj2hFB
6/4WsvsovPBGQzttcgQz0YyrTBrcr2h9pGGkRNwfH4/P5Yvl+uwSkhkY4eyjUnwG
xaac9q8LQDxEy2Shi2BlX/Dgt8+GOFotNhIL+cKzxO02E2e2w5pDl+VE3F1i7Tfa
x2Zz/GcOMppf27GKShKkpUckhLMNOzK7mOkk21hBTu9RpgcA7eJdIkO0SH+C+OTF
mH9L37Ca4XhlxWW/fgl1luSck0CVdgKu3dDPQk1TxkVsgM+pDPb1trL3/UdoU105
jD0r4+t+CrbJGfRwO99LwK0n37KApxtPzypRGvQQuBr/Dzblvk62iXPKVl87iUjQ
xwIDAQABo4HLMIHIMB0GA1UdDgQWBBSnz15tyKBBtXs56sOl+RMUgB48gTAfBgNV
HSMEGDAWgBRAkSghnZPznBgb/wCcsgigo4F9KjAsBggrBgEFBQcBAQQgMB4wHAYI
KwYBBQUHMAKGEGZpbGU6Ly8vZGV2L251bGwwKQYDVR0fBCIwIDAeoBygGoYYaHR0
cDovL3VybC1mb3ItY3JsL0kuY3JsMA4GA1UdDwEB/wQEAwIFoDAdBgNVHSUEFjAU
BggrBgEFBQcDAQYIKwYBBQUHAwIwDQYJKoZIhvcNAQELBQADggEBACi20hiRM+3f
Z+z1wcc3JRzslXHZ7IBM6YvVZhXCGeNH2qe1u99ZhC8HlsWAJtfW387NCyj83snM
sEN2g0YCsfDQPS5rUr4kVKsDcu6mjM8XgQvDKS/a7XroQ5BXl1Zr+XYlk+23oFPx
/4N+UwzKu6YWJU38ts1UWvr4EqWMRlpk6Lr4Ji4VjfoA55b3R3NcDDBoS9sLkjEt
GqAUdxDcywfv8TB2+t1B5LGj06rCIPd39HJBWziWzuZyYP9j0iWLmc32NDRzZ5rM
2tN22u/71UrP/jQn+zKWW7+3coen8h56/Oid7vaURIhjR+zp6GF0nSi9LP23s7Lt
aMjW/1OTYTY=
-----END CERTIFICATE-----
