Certificate:
    Data:
        Version: 3 (0x2)
        Serial Number: 9 (0x9)
    Signature Algorithm: sha256WithRSAEncryption
        Issuer: CN=I
        Validity
            Not Before: Jan  1 12:00:00 2015 GMT
            Not After : Jan  1 12:00:00 2021 GMT
        Subject: CN=target
        Subject Public Key Info:
            Public Key Algorithm: rsaEncryption
                Public-Key: (2048 bit)
                Modulus:
                    00:9d:3f:f0:25:34:e1:e0:c3:a7:5a:2b:72:6d:e1:
                    35:3a:99:eb:b4:12:7b:aa:2b:bc:a6:df:82:01:b1:
                    e9:8a:39:3a:b1:c5:0f:07:94:0a:97:c9:b0:4e:11:
                    11:35:02:65:96:36:65:dc:6f:26:00:1e:1e:38:15:
                    7c:ca:08:2b:66:89:a0:c3:38:ff:03:d5:e3:9d:c0:
                    98:55:fb:45:d7:57:17:84:6c:6a:af:72:4f:1d:28:
                    0c:95:77:35:dd:b1:42:66:96:bd:f9:ec:6e:d6:c3:
                    c2:23:1d:c4:55:43:ae:b2:12:29:22:7b:33:5a:55:
                    8f:d1:24:ce:e3:e1:b9:42:e4:18:ab:64:48:75:f7:
                    4d:9e:cf:a0:b9:29:32:71:8c:2b:32:d6:5a:f3:c2:
                    8d:25:2c:a6:db:d5:fe:b1:46:20:ed:92:be:3a:0f:
                    93:e7:45:ba:36:80:33:36:0c:df:bd:d0:c9:82:db:
                    51:96:33:f7:78:9e:b0:7b:4f:04:31:aa:2a:a8:1b:
                    90:4f:dd:58:16:33:3a:09:4d:1e:c8:18:9f:62:bf:
                    21:4d:89:eb:a6:0e:25:3b:ae:f0:78:1f:9a:de:bc:
                    17:06:73:16:7f:49:3b:4c:b3:a8:9e:a3:8d:79:d6:
                    de:6b:24:67:75:d3:f0:15:d0:91:a0:9c:ff:d7:fa:
                    09:41
                Exponent: 65537 (0x10001)
        X509v3 extensions:
            X509v3 Subject Key Identifier: 
                6E:CC:5D:F5:E6:D9:A6:B7:8C:4B:CB:A4:A7:C5:70:66:DA:FA:0E:E6
            X509v3 Authority Key Identifier: 
                keyid:84:BA:05:06:4E:33:9D:11:AA:7A:F1:77:1F:A4:69:7E:4C:2D:D4:3F

            Authority Information Access: 
                CA Issuers - URI:foobar
                CA Issuers - URI:http://url-for-aia2/I2.foo

            X509v3 CRL Distribution Points: 

                Full Name:
                  URI:http://url-for-crl/I.crl

            X509v3 Key Usage: critical
                Digital Signature, Key Encipherment
            X509v3 Extended Key Usage: 
                TLS Web Server Authentication, TLS Web Client Authentication
            X509v3 Subject Alternative Name: 
                DNS:target
    Signature Algorithm: sha256WithRSAEncryption
         58:8b:4c:19:cb:8f:e1:77:47:86:03:f4:27:e8:2c:ff:e6:b3:
         34:df:9c:97:90:d9:a2:f4:a6:ca:be:aa:0b:5a:03:84:c6:d2:
         c0:ce:31:c5:8b:30:3a:48:9a:21:42:61:b6:21:96:90:b1:f7:
         6e:8a:02:d5:fd:ba:2e:4e:22:12:0d:ad:b1:8d:4a:4b:16:ea:
         86:8c:04:65:fd:9c:55:09:17:f2:cb:f3:b6:94:bc:c5:fb:8e:
         f3:8c:d9:48:95:7f:b8:3d:50:f0:eb:20:fd:93:89:c6:21:09:
         39:26:e2:68:d2:34:3f:27:d0:25:5f:b6:e4:7a:ff:8c:da:3c:
         38:7c:f7:51:97:ad:83:3a:69:98:8b:8a:df:f8:ba:e7:0b:a2:
         f6:eb:5d:c7:db:7d:8e:00:3c:ae:18:2b:66:77:50:9b:8c:d5:
         2e:ef:15:e0:eb:da:de:78:78:73:d0:ba:bb:d8:2e:0a:03:f3:
         05:7b:3b:bc:09:a1:4d:3c:f7:29:63:e1:f5:6b:2f:3c:45:a9:
         9f:5b:6d:13:82:e6:e1:f1:c1:56:b3:bf:dd:ac:ef:ab:d1:f9:
         de:dc:32:ce:50:2d:8c:b6:30:f9:13:f8:1f:a2:2e:ea:43:8c:
         50:d8:d2:b1:a8:af:0a:c4:ef:4c:2f:61:3c:8c:af:34:a2:80:
         d5:fe:21:2b
-----BEGIN CERTIFICATE-----
MIIDlTCCAn2gAwIBAgIBCTANBgkqhkiG9w0BAQsFADAMMQowCAYDVQQDDAFJMB4X
DTE1MDEwMTEyMDAwMFoXDTIxMDEwMTEyMDAwMFowETEPMA0GA1UEAwwGdGFyZ2V0
MIIBIjANBgkqhkiG9w0BAQEFAAOCAQ8AMIIBCgKCAQEAnT/wJTTh4MOnWitybeE1
OpnrtBJ7qiu8pt+CAbHpijk6scUPB5QKl8mwThERNQJlljZl3G8mAB4eOBV8yggr
Zomgwzj/A9XjncCYVftF11cXhGxqr3JPHSgMlXc13bFCZpa9+exu1sPCIx3EVUOu
shIpInszWlWP0STO4+G5QuQYq2RIdfdNns+guSkycYwrMtZa88KNJSym29X+sUYg
7ZK+Og+T50W6NoAzNgzfvdDJgttRljP3eJ6we08EMaoqqBuQT91YFjM6CU0eyBif
Yr8hTYnrpg4lO67weB+a3rwXBnMWf0k7TLOonqONedbeayRnddPwFdCRoJz/1/oJ
QQIDAQABo4H8MIH5MB0GA1UdDgQWBBRuzF315tmmt4xLy6SnxXBm2voO5jAfBgNV
HSMEGDAWgBSEugUGTjOdEap68XcfpGl+TC3UPzBKBggrBgEFBQcBAQQ+MDwwEgYI
KwYBBQUHMAKGBmZvb2JhcjAmBggrBgEFBQcwAoYaaHR0cDovL3VybC1mb3ItYWlh
Mi9JMi5mb28wKQYDVR0fBCIwIDAeoBygGoYYaHR0cDovL3VybC1mb3ItY3JsL0ku
Y3JsMA4GA1UdDwEB/wQEAwIFoDAdBgNVHSUEFjAUBggrBgEFBQcDAQYIKwYBBQUH
AwIwEQYDVR0RBAowCIIGdGFyZ2V0MA0GCSqGSIb3DQEBCwUAA4IBAQBYi0wZy4/h
d0eGA/Qn6Cz/5rM035yXkNmi9KbKvqoLWgOExtLAzjHFizA6SJohQmG2IZaQsfdu
igLV/bouTiISDa2xjUpLFuqGjARl/ZxVCRfyy/O2lLzF+47zjNlIlX+4PVDw6yD9
k4nGIQk5JuJo0jQ/J9AlX7bkev+M2jw4fPdRl62DOmmYi4rf+LrnC6L2613H232O
ADyuGCtmd1CbjNUu7xXg69reeHhz0Lq72C4KA/MFezu8CaFNPPcpY+H1ay88Ramf
W20Tgubh8cFWs7/drO+r0fne3DLOUC2MtjD5E/gfoi7qQ4xQ2NKxqK8KxO9ML2E8
jK80ooDV/iEr
-----END CERTIFICATE-----
