Certificate:
    Data:
        Version: 3 (0x2)
        Serial Number: 4 (0x4)
    Signature Algorithm: sha256WithRSAEncryption
        Issuer: CN=I
        Validity
            Not Before: Jan  1 12:00:00 2015 GMT
            Not After : Jan  1 12:00:00 2021 GMT
        Subject: CN=target
        Subject Public Key Info:
            Public Key Algorithm: rsaEncryption
                Public-Key: (2048 bit)
                Modulus:
                    00:ab:6d:a7:ab:5c:a3:04:f8:18:44:5a:e6:16:3b:
                    37:be:ec:13:da:6e:5c:55:4e:19:e9:14:d9:f5:0e:
                    2e:56:bb:52:bb:58:f0:f7:89:e8:a8:85:47:02:f7:
                    51:1c:b8:29:ce:1b:2c:0a:4e:de:8e:c5:d9:a1:aa:
                    0f:a3:fd:51:61:fb:7f:e4:e9:05:49:b2:58:6d:10:
                    fe:11:60:13:24:98:69:17:d1:56:60:93:da:6b:26:
                    8b:d7:c3:dc:e5:4f:c0:d1:cd:e5:80:21:3c:68:b0:
                    2e:fc:bf:06:9e:2e:0d:26:bf:12:f3:4a:f0:98:9d:
                    d8:b0:24:3b:27:46:bf:ca:45:29:96:71:00:48:83:
                    08:29:22:68:a8:2d:ba:90:38:4b:50:d9:ab:5f:f2:
                    89:08:ee:43:ac:e0:ca:2b:2a:45:70:08:23:3b:be:
                    fe:6f:1d:81:a6:6b:df:19:31:d2:a2:58:b2:87:8c:
                    83:ff:ff:5d:47:4d:50:a7:07:3a:b7:1e:f0:b0:6d:
                    57:5b:d0:45:06:a5:0e:97:fd:ff:d5:62:71:9f:0d:
                    bb:35:f0:b8:d1:92:09:42:c9:dd:64:c8:17:8f:3f:
                    b3:36:dd:ea:5c:58:8e:d6:a4:ed:c1:8e:9f:01:1e:
                    fd:15:a4:45:97:b8:56:db:85:84:a5:33:82:c1:da:
                    82:15
                Exponent: 65537 (0x10001)
        X509v3 extensions:
            X509v3 Subject Key Identifier: 
                13:C9:D0:AB:5F:EF:0C:5E:23:88:F5:C4:44:2C:0A:3F:3B:13:21:C2
            X509v3 Authority Key Identifier: 
                keyid:84:BA:05:06:4E:33:9D:11:AA:7A:F1:77:1F:A4:69:7E:4C:2D:D4:3F

            Authority Information Access: 
                CA Issuers - URI:http://url-for-aia/I.cer
                CA Issuers - URI:http://url-for-aia2/I2.foo
                CA Issuers - URI:http://url-for-aia3/I3.foo

            X509v3 CRL Distribution Points: 

                Full Name:
                  URI:http://url-for-crl/I.crl

            X509v3 Key Usage: critical
                Digital Signature, Key Encipherment
            X509v3 Extended Key Usage: 
                TLS Web Server Authentication, TLS Web Client Authentication
            X509v3 Subject Alternative Name: 
                DNS:target
    Signature Algorithm: sha256WithRSAEncryption
         11:88:ca:4b:ea:92:84:28:28:21:ff:a6:22:d3:c3:ab:d0:cd:
         b1:6d:bc:db:4c:0a:80:d0:f9:f0:36:6b:41:9d:1e:fc:75:5a:
         61:56:66:62:93:9f:ba:77:f5:e1:aa:0d:72:14:ea:07:3b:2d:
         bd:7d:18:f5:b5:82:e6:28:79:b1:c0:c9:41:26:24:58:fd:73:
         4e:6a:ec:b2:b0:52:59:c5:7f:a4:9b:26:2a:5a:43:b2:cb:d4:
         0f:ea:ce:7b:da:e9:f7:0c:10:1b:02:ac:62:4b:03:56:3f:a7:
         29:d1:93:89:45:2f:24:d0:52:54:a6:56:5a:76:e3:06:b1:12:
         49:78:cd:a9:30:a0:9c:48:18:35:7f:28:5d:e9:00:8f:f7:69:
         1a:93:aa:1c:1a:bf:2a:79:68:11:1b:c1:fb:7f:bf:8b:2b:df:
         09:32:69:d5:19:32:bf:ce:12:09:7b:39:57:75:c7:15:9f:b3:
         f4:f6:f2:3c:c0:bd:99:c3:57:ab:55:db:55:01:cd:73:f9:52:
         4c:ae:15:86:24:ad:85:57:a8:a5:2c:80:9a:7a:ed:f6:e8:20:
         18:34:8f:bf:b9:00:3d:8e:0c:4b:dc:59:3d:86:62:dc:09:f2:
         03:cd:c0:8c:cd:b9:1d:17:88:ea:44:2c:52:40:89:19:0f:d4:
         a7:15:ae:67
-----BEGIN CERTIFICATE-----
MIID0jCCArqgAwIBAgIBBDANBgkqhkiG9w0BAQsFADAMMQowCAYDVQQDDAFJMB4X
DTE1MDEwMTEyMDAwMFoXDTIxMDEwMTEyMDAwMFowETEPMA0GA1UEAwwGdGFyZ2V0
MIIBIjANBgkqhkiG9w0BAQEFAAOCAQ8AMIIBCgKCAQEAq22nq1yjBPgYRFrmFjs3
vuwT2m5cVU4Z6RTZ9Q4uVrtSu1jw94noqIVHAvdRHLgpzhssCk7ejsXZoaoPo/1R
Yft/5OkFSbJYbRD+EWATJJhpF9FWYJPaayaL18Pc5U/A0c3lgCE8aLAu/L8Gni4N
Jr8S80rwmJ3YsCQ7J0a/ykUplnEASIMIKSJoqC26kDhLUNmrX/KJCO5DrODKKypF
cAgjO77+bx2BpmvfGTHSoliyh4yD//9dR01Qpwc6tx7wsG1XW9BFBqUOl/3/1WJx
nw27NfC40ZIJQsndZMgXjz+zNt3qXFiO1qTtwY6fAR79FaRFl7hW24WEpTOCwdqC
FQIDAQABo4IBODCCATQwHQYDVR0OBBYEFBPJ0Ktf7wxeI4j1xEQsCj87EyHCMB8G
A1UdIwQYMBaAFIS6BQZOM50Rqnrxdx+kaX5MLdQ/MIGEBggrBgEFBQcBAQR4MHYw
JAYIKwYBBQUHMAKGGGh0dHA6Ly91cmwtZm9yLWFpYS9JLmNlcjAmBggrBgEFBQcw
AoYaaHR0cDovL3VybC1mb3ItYWlhMi9JMi5mb28wJgYIKwYBBQUHMAKGGmh0dHA6
Ly91cmwtZm9yLWFpYTMvSTMuZm9vMCkGA1UdHwQiMCAwHqAcoBqGGGh0dHA6Ly91
cmwtZm9yLWNybC9JLmNybDAOBgNVHQ8BAf8EBAMCBaAwHQYDVR0lBBYwFAYIKwYB
BQUHAwEGCCsGAQUFBwMCMBEGA1UdEQQKMAiCBnRhcmdldDANBgkqhkiG9w0BAQsF
AAOCAQEAEYjKS+qShCgoIf+mItPDq9DNsW2820wKgND58DZrQZ0e/HVaYVZmYpOf
unf14aoNchTqBzstvX0Y9bWC5ih5scDJQSYkWP1zTmrssrBSWcV/pJsmKlpDssvU
D+rOe9rp9wwQGwKsYksDVj+nKdGTiUUvJNBSVKZWWnbjBrESSXjNqTCgnEgYNX8o
XekAj/dpGpOqHBq/KnloERvB+3+/iyvfCTJp1Rkyv84SCXs5V3XHFZ+z9PbyPMC9
mcNXq1XbVQHNc/lSTK4VhiSthVeopSyAmnrt9uggGDSPv7kAPY4MS9xZPYZi3Any
A83AjM25HReI6kQsUkCJGQ/UpxWuZw==
-----END CERTIFICATE-----
