Certificate:
    Data:
        Version: 3 (0x2)
        Serial Number: 3 (0x3)
    Signature Algorithm: sha256WithRSAEncryption
        Issuer: CN=I
        Validity
            Not Before: Jan  1 12:00:00 2015 GMT
            Not After : Jan  1 12:00:00 2021 GMT
        Subject: CN=target
        Subject Public Key Info:
            Public Key Algorithm: rsaEncryption
                Public-Key: (2048 bit)
                Modulus:
                    00:ab:cb:9a:c2:db:b8:1c:3d:1a:b7:37:e8:97:9c:
                    51:f4:8a:61:67:1d:37:8a:88:fe:8a:65:24:54:51:
                    18:be:9c:13:83:0c:91:0b:52:32:c6:6d:4c:8a:48:
                    10:06:83:da:81:db:10:2a:77:81:16:d0:85:cd:04:
                    ce:06:56:3d:53:29:e3:11:6d:25:d9:bd:81:df:50:
                    bb:42:0c:c4:6a:3b:6c:5c:e5:47:54:25:8b:21:cb:
                    22:00:8e:31:75:c0:21:29:89:e7:76:5a:2c:97:56:
                    87:29:ab:35:16:23:41:0d:25:d0:62:7d:91:0e:02:
                    9c:9a:7b:a3:fa:b6:d9:16:75:36:ea:62:cc:61:ab:
                    ae:15:9d:71:ff:5a:90:af:b4:a0:b2:d2:99:3b:2d:
                    92:45:64:44:fd:07:d8:86:c7:47:bf:d4:b5:35:07:
                    46:a7:93:4f:e9:2b:71:9e:a4:76:78:42:b7:17:1e:
                    2b:0e:b1:f2:f5:1a:99:d5:ce:d2:9d:f6:99:0a:20:
                    03:19:4e:f9:e0:45:68:75:e6:08:63:95:f5:34:21:
                    78:d6:68:06:b4:c8:cb:e3:77:6c:61:ef:c3:12:e8:
                    71:87:e2:99:2e:5a:2f:b8:d9:d8:51:aa:af:20:47:
                    c8:cd:eb:73:11:8e:a2:4b:fa:4e:8c:3c:d2:5e:1d:
                    17:5f
                Exponent: 65537 (0x10001)
        X509v3 extensions:
            X509v3 Subject Key Identifier: 
                E8:D5:6F:99:50:16:68:CA:BF:06:34:2A:8B:0A:E2:25:88:40:CF:15
            X509v3 Authority Key Identifier: 
                keyid:40:91:28:21:9D:93:F3:9C:18:1B:FF:00:9C:B2:08:A0:A3:81:7D:2A

            Authority Information Access: 
                CA Issuers - URI:http://url-for-aia/I.cer
                CA Issuers - URI:http://url-for-aia2/I2.foo

            X509v3 CRL Distribution Points: 

                Full Name:
                  URI:http://url-for-crl/I.crl

            X509v3 Key Usage: critical
                Digital Signature, Key Encipherment
            X509v3 Extended Key Usage: 
                TLS Web Server Authentication, TLS Web Client Authentication
    Signature Algorithm: sha256WithRSAEncryption
         64:0c:e5:4b:4a:6f:ec:3f:49:37:89:ce:54:6b:72:8a:a9:f1:
         db:1a:c3:d7:84:9f:d5:29:73:12:ba:a3:03:99:5d:45:b5:62:
         f6:7e:83:74:f9:ff:d8:49:15:76:7d:65:eb:ad:11:bd:b2:b5:
         77:15:d3:c2:5f:ad:ca:c2:24:e4:92:8b:5d:10:65:07:6e:99:
         4e:e5:16:f0:8a:62:ba:91:50:bd:a2:1b:12:c9:d8:a1:c0:49:
         a1:3a:5d:3c:75:87:4e:07:0d:ce:6f:27:90:94:3d:10:cd:aa:
         b0:6d:37:ac:97:3a:af:45:f3:86:94:b3:d8:ae:d4:49:27:d6:
         e2:7e:d7:e1:54:1f:e8:85:86:cd:02:d1:83:ae:c4:2a:63:6b:
         33:87:ad:70:3b:81:87:a8:2c:30:d1:28:04:cc:a3:5c:75:d0:
         08:86:67:99:10:5f:be:94:5d:4f:ed:d7:2e:eb:bf:85:61:a1:
         58:be:8a:61:08:a8:43:38:32:b7:33:09:09:03:61:4d:4d:55:
         dc:e2:1b:f4:be:3d:d0:76:b0:00:df:72:48:57:f9:1c:3e:bd:
         83:7a:47:fd:09:53:16:f7:00:32:8f:94:16:0a:ef:19:26:4d:
         b0:b8:6c:02:f8:51:5e:27:6a:c5:1e:62:c2:5b:5e:c2:a1:d4:
         82:56:90:fe
-----BEGIN CERTIFICATE-----
MIIDlDCCAnygAwIBAgIBAzANBgkqhkiG9w0BAQsFADAMMQowCAYDVQQDDAFJMB4X
DTE1MDEwMTEyMDAwMFoXDTIxMDEwMTEyMDAwMFowETEPMA0GA1UEAwwGdGFyZ2V0
MIIBIjANBgkqhkiG9w0BAQEFAAOCAQ8AMIIBCgKCAQEAq8uawtu4HD0atzfol5xR
9IphZx03ioj+imUkVFEYvpwTgwyRC1Iyxm1MikgQBoPagdsQKneBFtCFzQTOBlY9
UynjEW0l2b2B31C7QgzEajtsXOVHVCWLIcsiAI4xdcAhKYnndlosl1aHKas1FiNB
DSXQYn2RDgKcmnuj+rbZFnU26mLMYauuFZ1x/1qQr7SgstKZOy2SRWRE/QfYhsdH
v9S1NQdGp5NP6StxnqR2eEK3Fx4rDrHy9RqZ1c7SnfaZCiADGU754EVodeYIY5X1
NCF41mgGtMjL43dsYe/DEuhxh+KZLlovuNnYUaqvIEfIzetzEY6iS/pOjDzSXh0X
XwIDAQABo4H7MIH4MB0GA1UdDgQWBBTo1W+ZUBZoyr8GNCqLCuIliEDPFTAfBgNV
HSMEGDAWgBRAkSghnZPznBgb/wCcsgigo4F9KjBcBggrBgEFBQcBAQRQME4wJAYI
KwYBBQUHMAKGGGh0dHA6Ly91cmwtZm9yLWFpYS9JLmNlcjAmBggrBgEFBQcwAoYa
aHR0cDovL3VybC1mb3ItYWlhMi9JMi5mb28wKQYDVR0fBCIwIDAeoBygGoYYaHR0
cDovL3VybC1mb3ItY3JsL0kuY3JsMA4GA1UdDwEB/wQEAwIFoDAdBgNVHSUEFjAU
BggrBgEFBQcDAQYIKwYBBQUHAwIwDQYJKoZIhvcNAQELBQADggEBAGQM5UtKb+w/
STeJzlRrcoqp8dsaw9eEn9UpcxK6owOZXUW1YvZ+g3T5/9hJFXZ9ZeutEb2ytXcV
08JfrcrCJOSSi10QZQdumU7lFvCKYrqRUL2iGxLJ2KHASaE6XTx1h04HDc5vJ5CU
PRDNqrBtN6yXOq9F84aUs9iu1Ekn1uJ+1+FUH+iFhs0C0YOuxCpjazOHrXA7gYeo
LDDRKATMo1x10AiGZ5kQX76UXU/t1y7rv4VhoVi+imEIqEM4MrczCQkDYU1NVdzi
G/S+PdB2sADfckhX+Rw+vYN6R/0JUxb3ADKPlBYK7xkmTbC4bAL4UV4nasUeYsJb
XsKh1IJWkP4=
-----END CERTIFICATE-----
