Certificate:
    Data:
        Version: 3 (0x2)
        Serial Number: 1 (0x1)
    Signature Algorithm: sha256WithRSAEncryption
        Issuer: CN=I
        Validity
            Not Before: Jan  1 12:00:00 2015 GMT
            Not After : Jan  1 12:00:00 2021 GMT
        Subject: CN=target
        Subject Public Key Info:
            Public Key Algorithm: rsaEncryption
                Public-Key: (2048 bit)
                Modulus:
                    00:e6:20:5f:6c:8f:17:bb:ad:da:b9:19:22:1e:19:
                    dc:04:47:cd:0b:e9:72:33:6f:5e:c6:91:aa:7e:6e:
                    8b:9a:9d:6a:41:47:3f:67:8e:da:bf:ec:76:d9:e7:
                    91:58:9a:9a:ab:b5:47:5f:90:c1:c3:31:de:ae:17:
                    09:b4:6a:b9:07:1a:82:a1:0a:76:df:69:91:5a:01:
                    ed:ec:bd:1f:cc:9e:c5:27:54:1d:48:f5:16:e0:11:
                    3d:f0:8c:a6:91:ec:41:35:c0:ea:5f:61:d8:14:a5:
                    b5:48:7a:fd:fd:f8:9e:30:50:bb:73:70:4b:bb:52:
                    a8:73:18:90:75:3a:1d:42:7b:d7:0c:26:fd:83:26:
                    43:47:f6:a8:2e:46:6d:01:96:2d:12:5a:d7:ec:cb:
                    46:fe:22:c1:3c:a0:8b:43:d6:92:be:ba:0c:05:01:
                    59:0d:ea:32:ee:d2:fe:63:76:17:f4:a4:c3:74:85:
                    1e:2f:15:fe:01:b8:1a:27:4f:96:20:55:c2:6e:a4:
                    b0:3e:ef:ac:07:b9:2f:e3:55:1b:1f:ab:2d:5d:aa:
                    fc:95:85:9f:ee:e3:25:ee:df:b3:3a:2f:69:04:bb:
                    e7:37:54:56:3a:02:d2:12:79:05:56:a5:03:3c:47:
                    f0:12:56:3d:3b:ff:f3:28:8f:73:96:93:38:21:5f:
                    98:3b
                Exponent: 65537 (0x10001)
        X509v3 extensions:
            X509v3 Subject Key Identifier: 
                EF:EB:BB:51:07:08:E2:B1:D5:35:CC:96:47:4C:E6:3E:00:0D:8C:AE
            X509v3 Authority Key Identifier: 
                keyid:84:BA:05:06:4E:33:9D:11:AA:7A:F1:77:1F:A4:69:7E:4C:2D:D4:3F

            Authority Information Access: 
                CA Issuers - URI:http://url-for-aia/I.cer

            X509v3 CRL Distribution Points: 

                Full Name:
                  URI:http://url-for-crl/I.crl

            X509v3 Key Usage: critical
                Digital Signature, Key Encipherment
            X509v3 Extended Key Usage: 
                TLS Web Server Authentication, TLS Web Client Authentication
            X509v3 Subject Alternative Name: 
                DNS:target
    Signature Algorithm: sha256WithRSAEncryption
         91:15:64:f2:07:45:63:3c:8b:07:28:31:76:22:df:a1:1e:cd:
         a0:a1:8f:9c:62:99:f2:22:f6:22:fb:e4:74:ef:77:17:50:16:
         05:99:46:c5:79:66:19:62:ea:57:38:0c:f2:0d:55:2a:95:7e:
         10:4f:b4:a9:3a:c7:61:af:37:cd:b5:70:85:c0:9e:db:3a:ca:
         70:96:ca:2c:7f:e6:c4:47:f3:42:ae:c3:64:14:31:23:4e:7d:
         24:9b:23:6d:87:69:02:b9:1f:1c:e0:b6:8d:e5:ad:5c:13:f4:
         9f:a3:d8:3b:08:48:24:e5:df:bf:15:03:a4:5a:c7:8d:39:1c:
         6d:1c:45:db:3c:ac:63:39:71:fd:33:4c:b7:3c:ec:5c:de:c8:
         a5:41:d9:75:52:c9:45:cc:b7:fa:14:9f:ba:d1:04:aa:9d:ea:
         23:93:e2:c6:35:33:e8:f8:2e:6a:13:e5:ce:f0:ed:8a:b0:5b:
         31:1a:56:91:15:2a:d8:e6:d4:bb:70:91:9d:8d:37:53:09:9a:
         af:af:84:67:2c:59:c3:2e:da:56:a6:1f:9b:75:c6:80:b0:f4:
         95:a7:78:15:e3:b5:e9:06:f9:01:63:5b:bf:2f:dd:ff:65:b9:
         cc:9b:90:a6:de:90:e3:32:f7:48:bf:3b:fa:a0:c3:98:15:58:
         53:ad:ad:28
-----BEGIN CERTIFICATE-----
MIIDfzCCAmegAwIBAgIBATANBgkqhkiG9w0BAQsFADAMMQowCAYDVQQDDAFJMB4X
DTE1MDEwMTEyMDAwMFoXDTIxMDEwMTEyMDAwMFowETEPMA0GA1UEAwwGdGFyZ2V0
MIIBIjANBgkqhkiG9w0BAQEFAAOCAQ8AMIIBCgKCAQEA5iBfbI8Xu63auRkiHhnc
BEfNC+lyM29expGqfm6Lmp1qQUc/Z47av+x22eeRWJqaq7VHX5DBwzHerhcJtGq5
BxqCoQp232mRWgHt7L0fzJ7FJ1QdSPUW4BE98IymkexBNcDqX2HYFKW1SHr9/fie
MFC7c3BLu1KocxiQdTodQnvXDCb9gyZDR/aoLkZtAZYtElrX7MtG/iLBPKCLQ9aS
vroMBQFZDeoy7tL+Y3YX9KTDdIUeLxX+AbgaJ0+WIFXCbqSwPu+sB7kv41UbH6st
Xar8lYWf7uMl7t+zOi9pBLvnN1RWOgLSEnkFVqUDPEfwElY9O//zKI9zlpM4IV+Y
OwIDAQABo4HmMIHjMB0GA1UdDgQWBBTv67tRBwjisdU1zJZHTOY+AA2MrjAfBgNV
HSMEGDAWgBSEugUGTjOdEap68XcfpGl+TC3UPzA0BggrBgEFBQcBAQQoMCYwJAYI
KwYBBQUHMAKGGGh0dHA6Ly91cmwtZm9yLWFpYS9JLmNlcjApBgNVHR8EIjAgMB6g
HKAahhhodHRwOi8vdXJsLWZvci1jcmwvSS5jcmwwDgYDVR0PAQH/BAQDAgWgMB0G
A1UdJQQWMBQGCCsGAQUFBwMBBggrBgEFBQcDAjARBgNVHREECjAIggZ0YXJnZXQw
DQYJKoZIhvcNAQELBQADggEBAJEVZPIHRWM8iwcoMXYi36EezaChj5ximfIi9iL7
5HTvdxdQFgWZRsV5Zhli6lc4DPINVSqVfhBPtKk6x2GvN821cIXAnts6ynCWyix/
5sRH80Kuw2QUMSNOfSSbI22HaQK5Hxzgto3lrVwT9J+j2DsISCTl378VA6Rax405
HG0cRds8rGM5cf0zTLc87FzeyKVB2XVSyUXMt/oUn7rRBKqd6iOT4sY1M+j4LmoT
5c7w7YqwWzEaVpEVKtjm1LtwkZ2NN1MJmq+vhGcsWcMu2lamH5t1xoCw9JWneBXj
tekG+QFjW78v3f9lucybkKbekOMy90i/O/qgw5gVWFOtrSg=
-----END CERTIFICATE-----
