Certificate:
    Data:
        Version: 3 (0x2)
        Serial Number: 1 (0x1)
    Signature Algorithm: sha256WithRSAEncryption
        Issuer: CN=I
        Validity
            Not Before: Jan  1 12:00:00 2015 GMT
            Not After : Jan  1 12:00:00 2016 GMT
        Subject: CN=target
        Subject Public Key Info:
            Public Key Algorithm: rsaEncryption
                Public-Key: (2048 bit)
                Modulus:
                    00:bc:98:17:cf:5b:06:da:5d:7b:50:6b:c3:d5:d1:
                    c0:0a:0f:81:ef:1c:a6:31:1b:0f:75:66:71:70:73:
                    fa:69:1a:a7:bd:e7:3f:b3:50:34:9e:39:36:eb:e7:
                    64:0c:f0:61:3a:90:35:f5:26:e5:9b:ed:d6:6e:06:
                    01:ae:c8:1d:1b:e7:c0:54:00:17:32:87:81:55:64:
                    e6:27:72:47:d8:ed:fe:f9:9d:c0:b3:4f:a6:79:90:
                    61:48:6b:18:3f:c7:f8:b5:ec:d8:e2:cb:64:d0:6b:
                    c9:63:9d:58:9a:17:bf:87:08:18:18:81:af:1f:ec:
                    fe:db:5a:31:4f:c1:af:a0:84:86:bb:f9:87:eb:fa:
                    58:1a:d7:bc:4f:52:e7:29:52:5c:fc:6a:72:ca:46:
                    3f:89:f2:d3:4c:02:b4:fb:73:be:85:f5:3d:aa:2d:
                    4d:92:1f:27:e0:9a:59:74:83:74:12:ce:e9:02:ee:
                    fd:b1:f7:35:59:41:c2:53:3c:60:24:79:a6:46:8e:
                    99:65:a5:91:ee:52:df:1a:b5:4e:22:3c:b2:be:cf:
                    b6:0f:d3:28:fe:2e:b7:23:87:4e:4f:b3:4a:e0:33:
                    b4:e1:ff:78:89:9f:60:7f:ac:e3:3d:a9:7d:ce:a6:
                    8c:c3:59:56:10:51:fc:b3:f2:a1:a9:3e:7d:1f:1e:
                    2e:37
                Exponent: 65537 (0x10001)
        X509v3 extensions:
            X509v3 Subject Key Identifier: 
                7B:FF:76:7A:1E:BC:68:80:7E:C7:56:AB:B2:24:6B:45:65:48:B2:21
            X509v3 Authority Key Identifier: 
                keyid:A4:66:E2:46:F7:3F:A1:73:9D:A2:E2:4E:29:99:DB:2E:36:36:6C:B5

            Authority Information Access: 
                CA Issuers - URI:http://url-for-aia/I.cer

            X509v3 CRL Distribution Points: 

                Full Name:
                  URI:http://url-for-crl/I.crl

            X509v3 Key Usage: critical
                Digital Signature, Key Encipherment
            X509v3 Extended Key Usage: 
                TLS Web Server Authentication, TLS Web Client Authentication
    Signature Algorithm: sha256WithRSAEncryption
         81:f3:ab:93:d6:70:1a:5c:e7:2c:02:7d:3f:6d:f1:58:47:f1:
         84:2e:07:ff:63:74:df:2b:ad:0c:a2:bc:36:e5:fb:eb:1b:f9:
         f2:38:90:5b:9d:fd:9b:c7:dd:ca:b7:d2:27:5a:ef:19:e2:c0:
         1f:a3:ea:bc:7a:f8:b9:b5:d6:16:15:e7:25:58:1c:8b:69:d5:
         69:d6:15:d1:85:4d:ba:21:3b:e8:06:46:5f:b1:4a:b1:fe:da:
         59:26:bb:5d:11:96:e2:7b:e2:19:3c:11:58:67:5c:fd:91:a3:
         9e:84:ff:50:34:27:ba:95:a5:7c:c7:7b:63:ad:2b:72:8c:d7:
         e2:3c:3e:c0:e8:9e:43:40:70:20:46:8c:1d:69:2f:8d:c8:1c:
         0d:44:9f:f0:e8:07:69:cf:08:1c:7f:ff:0c:bb:36:8e:3d:e0:
         d8:14:8f:b9:9e:12:d9:28:c2:2c:39:3a:2d:a7:01:5d:d4:3a:
         ca:b7:a0:66:68:be:28:c6:dc:a1:69:a6:ba:ed:04:82:2d:3d:
         45:42:cf:b7:58:4f:a3:1a:50:66:2d:c0:07:e6:4f:05:de:49:
         57:b8:81:e6:99:77:4c:0b:e8:19:4c:7a:c2:8a:a9:4b:92:63:
         15:91:8e:a0:fa:ce:fa:19:a5:05:4b:a0:f3:de:60:48:37:e2:
         92:16:06:e7
-----BEGIN CERTIFICATE-----
MIIDbDCCAlSgAwIBAgIBATANBgkqhkiG9w0BAQsFADAMMQowCAYDVQQDDAFJMB4X
DTE1MDEwMTEyMDAwMFoXDTE2MDEwMTEyMDAwMFowETEPMA0GA1UEAwwGdGFyZ2V0
MIIBIjANBgkqhkiG9w0BAQEFAAOCAQ8AMIIBCgKCAQEAvJgXz1sG2l17UGvD1dHA
Cg+B7xymMRsPdWZxcHP6aRqnvec/s1A0njk26+dkDPBhOpA19Sblm+3WbgYBrsgd
G+fAVAAXMoeBVWTmJ3JH2O3++Z3As0+meZBhSGsYP8f4tezY4stk0GvJY51Ymhe/
hwgYGIGvH+z+21oxT8GvoISGu/mH6/pYGte8T1LnKVJc/GpyykY/ifLTTAK0+3O+
hfU9qi1Nkh8n4JpZdIN0Es7pAu79sfc1WUHCUzxgJHmmRo6ZZaWR7lLfGrVOIjyy
vs+2D9Mo/i63I4dOT7NK4DO04f94iZ9gf6zjPal9zqaMw1lWEFH8s/KhqT59Hx4u
NwIDAQABo4HTMIHQMB0GA1UdDgQWBBR7/3Z6HrxogH7HVquyJGtFZUiyITAfBgNV
HSMEGDAWgBSkZuJG9z+hc52i4k4pmdsuNjZstTA0BggrBgEFBQcBAQQoMCYwJAYI
KwYBBQUHMAKGGGh0dHA6Ly91cmwtZm9yLWFpYS9JLmNlcjApBgNVHR8EIjAgMB6g
HKAahhhodHRwOi8vdXJsLWZvci1jcmwvSS5jcmwwDgYDVR0PAQH/BAQDAgWgMB0G
A1UdJQQWMBQGCCsGAQUFBwMBBggrBgEFBQcDAjANBgkqhkiG9w0BAQsFAAOCAQEA
gfOrk9ZwGlznLAJ9P23xWEfxhC4H/2N03yutDKK8NuX76xv58jiQW539m8fdyrfS
J1rvGeLAH6PqvHr4ubXWFhXnJVgci2nVadYV0YVNuiE76AZGX7FKsf7aWSa7XRGW
4nviGTwRWGdc/ZGjnoT/UDQnupWlfMd7Y60rcozX4jw+wOieQ0BwIEaMHWkvjcgc
DUSf8OgHac8IHH//DLs2jj3g2BSPuZ4S2SjCLDk6LacBXdQ6yregZmi+KMbcoWmm
uu0Egi09RULPt1hPoxpQZi3AB+ZPBd5JV7iB5pl3TAvoGUx6woqpS5JjFZGOoPrO
+hmlBUug895gSDfikhYG5w==
-----END CERTIFICATE-----
