Certificate:
    Data:
        Version: 3 (0x2)
        Serial Number: 8 (0x8)
    Signature Algorithm: sha256WithRSAEncryption
        Issuer: CN=I
        Validity
            Not Before: Jan  1 12:00:00 2015 GMT
            Not After : Jan  1 12:00:00 2021 GMT
        Subject: CN=target
        Subject Public Key Info:
            Public Key Algorithm: rsaEncryption
                Public-Key: (2048 bit)
                Modulus:
                    00:b2:4e:8e:4e:eb:87:1c:99:f2:14:5d:b0:e0:b6:
                    83:01:1a:a7:39:0b:7d:35:ef:d7:4f:b2:76:84:46:
                    b9:10:fb:5a:ed:08:ed:2a:32:41:72:cb:3b:2b:25:
                    2d:e6:44:1b:04:71:c6:58:73:8d:1b:a8:1f:dd:56:
                    0f:c7:4c:1d:03:91:01:fa:a9:43:ed:95:a9:f0:8e:
                    28:b2:ed:f2:78:84:cc:9a:d2:d6:5e:9e:44:be:70:
                    29:29:d0:44:80:93:ee:37:72:8c:52:aa:3a:76:5b:
                    74:46:09:39:22:51:c7:92:70:d7:b1:2c:1f:74:db:
                    e6:77:f4:b2:84:1c:d8:c1:ff:75:48:fb:6a:a4:43:
                    c1:cb:02:07:f9:d3:1a:46:52:c7:9a:60:f6:ed:5a:
                    1f:36:81:fe:a0:56:f9:bd:dd:3a:4a:a7:a0:13:06:
                    c6:9c:d3:f4:92:e1:0f:fe:2d:41:70:05:7d:2b:e0:
                    8b:5e:f7:5e:fc:4d:50:0d:36:bf:36:35:6e:ed:66:
                    c5:0e:b8:73:98:8e:7d:a1:80:1f:cd:37:c9:44:6d:
                    f2:1b:29:06:f0:51:90:55:2e:a0:ef:43:41:e5:fb:
                    f8:5b:16:d6:a6:70:2a:24:9b:3a:a2:d1:85:f3:31:
                    7f:dc:56:ef:28:cd:cc:e3:ca:2a:e1:ed:78:cc:56:
                    57:69
                Exponent: 65537 (0x10001)
        X509v3 extensions:
            X509v3 Subject Key Identifier: 
                B5:51:F6:D3:5D:24:43:E0:10:85:9D:4C:5F:DA:EB:69:00:3B:B8:FE
            X509v3 Authority Key Identifier: 
                keyid:84:BA:05:06:4E:33:9D:11:AA:7A:F1:77:1F:A4:69:7E:4C:2D:D4:3F

            Authority Information Access: 
                CA Issuers - URI:file:///dev/null
                CA Issuers - URI:http://url-for-aia2/I2.foo

            X509v3 CRL Distribution Points: 

                Full Name:
                  URI:http://url-for-crl/I.crl

            X509v3 Key Usage: critical
                Digital Signature, Key Encipherment
            X509v3 Extended Key Usage: 
                TLS Web Server Authentication, TLS Web Client Authentication
            X509v3 Subject Alternative Name: 
                DNS:target
    Signature Algorithm: sha256WithRSAEncryption
         34:75:8e:0a:28:46:43:e1:8f:d3:23:62:85:bc:e9:ea:2f:d2:
         27:de:4b:03:6b:36:02:e0:aa:2a:33:4e:3c:5c:51:38:9e:9b:
         9a:d9:0c:b3:73:75:c0:e4:d9:f1:cc:5c:fa:39:7a:a7:4b:1c:
         88:51:72:6e:f6:c1:d8:75:64:2a:a1:16:99:1c:cb:c1:7f:be:
         be:0b:62:25:13:96:3f:56:41:7e:cd:e2:05:fd:f8:06:fc:3d:
         9f:b3:92:b2:7a:87:e0:b5:d5:50:8e:95:c3:3d:bf:78:28:01:
         37:28:e7:d7:d5:67:99:4b:0d:23:93:04:7f:1b:11:c7:22:08:
         c2:67:06:9b:bf:b0:d8:e2:c4:72:85:39:23:f4:46:77:20:ce:
         72:f3:17:07:d9:e4:1d:53:0f:ea:c6:10:be:23:b7:25:06:c5:
         bb:52:f7:f0:df:35:b0:37:9e:d2:94:26:85:e6:8a:ab:dc:e7:
         6c:13:a5:7a:ad:01:c4:c3:7b:d7:24:39:2f:55:f4:92:52:2b:
         74:46:d9:af:2a:01:40:5b:94:75:bc:c2:d1:d3:7e:4d:fd:36:
         50:e5:8f:f3:54:17:3c:d8:b4:2c:e3:be:d9:0d:a3:e9:39:a9:
         8a:26:dc:80:ab:fe:ce:f2:5c:29:4b:ea:98:55:44:25:93:36:
         31:6e:24:d5
-----BEGIN CERTIFICATE-----
MIIDoTCCAomgAwIBAgIBCDANBgkqhkiG9w0BAQsFADAMMQowCAYDVQQDDAFJMB4X
DTE1MDEwMTEyMDAwMFoXDTIxMDEwMTEyMDAwMFowETEPMA0GA1UEAwwGdGFyZ2V0
MIIBIjANBgkqhkiG9w0BAQEFAAOCAQ8AMIIBCgKCAQEAsk6OTuuHHJnyFF2w4LaD
ARqnOQt9Ne/XT7J2hEa5EPta7QjtKjJBcss7KyUt5kQbBHHGWHONG6gf3VYPx0wd
A5EB+qlD7ZWp8I4osu3yeITMmtLWXp5EvnApKdBEgJPuN3KMUqo6dlt0Rgk5IlHH
knDXsSwfdNvmd/SyhBzYwf91SPtqpEPBywIH+dMaRlLHmmD27VofNoH+oFb5vd06
SqegEwbGnNP0kuEP/i1BcAV9K+CLXvde/E1QDTa/NjVu7WbFDrhzmI59oYAfzTfJ
RG3yGykG8FGQVS6g70NB5fv4WxbWpnAqJJs6otGF8zF/3FbvKM3M48oq4e14zFZX
aQIDAQABo4IBBzCCAQMwHQYDVR0OBBYEFLVR9tNdJEPgEIWdTF/a62kAO7j+MB8G
A1UdIwQYMBaAFIS6BQZOM50Rqnrxdx+kaX5MLdQ/MFQGCCsGAQUFBwEBBEgwRjAc
BggrBgEFBQcwAoYQZmlsZTovLy9kZXYvbnVsbDAmBggrBgEFBQcwAoYaaHR0cDov
L3VybC1mb3ItYWlhMi9JMi5mb28wKQYDVR0fBCIwIDAeoBygGoYYaHR0cDovL3Vy
bC1mb3ItY3JsL0kuY3JsMA4GA1UdDwEB/wQEAwIFoDAdBgNVHSUEFjAUBggrBgEF
BQcDAQYIKwYBBQUHAwIwEQYDVR0RBAowCIIGdGFyZ2V0MA0GCSqGSIb3DQEBCwUA
A4IBAQA0dY4KKEZD4Y/TI2KFvOnqL9In3ksDazYC4KoqM048XFE4npua2Qyzc3XA
5NnxzFz6OXqnSxyIUXJu9sHYdWQqoRaZHMvBf76+C2IlE5Y/VkF+zeIF/fgG/D2f
s5KyeofgtdVQjpXDPb94KAE3KOfX1WeZSw0jkwR/GxHHIgjCZwabv7DY4sRyhTkj
9EZ3IM5y8xcH2eQdUw/qxhC+I7clBsW7Uvfw3zWwN57SlCaF5oqr3OdsE6V6rQHE
w3vXJDkvVfSSUit0RtmvKgFAW5R1vMLR035N/TZQ5Y/zVBc82LQs477ZDaPpOamK
JtyAq/7O8lwpS+qYVUQlkzYxbiTV
-----END CERTIFICATE-----
