Certificate:
    Data:
        Version: 3 (0x2)
        Serial Number: 6 (0x6)
    Signature Algorithm: sha256WithRSAEncryption
        Issuer: CN=I
        Validity
            Not Before: Jan  1 12:00:00 2015 GMT
            Not After : Jan  1 12:00:00 2016 GMT
        Subject: CN=target
        Subject Public Key Info:
            Public Key Algorithm: rsaEncryption
                Public-Key: (2048 bit)
                Modulus:
                    00:95:e3:c7:51:de:15:eb:d1:de:10:91:aa:8a:96:
                    74:ba:7e:34:dc:7e:05:45:4e:6e:fc:0c:d9:bc:10:
                    af:cd:4d:df:b4:25:29:e7:3d:cd:3d:de:e6:e3:d9:
                    9c:fd:ea:14:03:01:a3:76:bd:d1:5b:70:31:3d:12:
                    1a:4b:ec:df:5f:1f:51:74:ed:3c:26:10:a7:35:88:
                    d3:02:22:d0:25:17:46:fa:b0:a9:ce:96:aa:8e:67:
                    c8:8e:8e:13:d9:0f:88:d4:61:d4:b7:07:1e:ca:26:
                    5f:e2:a5:17:96:0a:6f:27:97:c2:5e:28:29:37:7c:
                    1c:c7:ad:82:2b:2d:77:94:5e:85:00:b9:91:68:a2:
                    c6:27:b5:ea:83:8b:b7:ed:83:73:8b:c1:73:a7:40:
                    72:44:51:09:58:e9:eb:ec:80:0a:12:c6:8e:45:18:
                    ce:9c:a0:2a:5f:14:0c:59:be:14:16:49:14:82:d6:
                    40:6a:45:0a:7c:0c:3f:f3:53:cb:45:13:18:4e:0b:
                    c5:95:3c:de:e0:43:fe:5a:dc:ea:b5:44:f7:e7:6d:
                    43:47:76:82:21:0a:60:cf:3e:28:f5:0f:c4:1a:41:
                    62:12:30:8d:5d:92:44:91:5b:e1:cb:7f:2f:eb:12:
                    9c:13:c5:87:d5:09:72:3d:b2:79:c1:a9:df:49:ba:
                    fd:cd
                Exponent: 65537 (0x10001)
        X509v3 extensions:
            X509v3 Subject Key Identifier: 
                82:52:F8:B3:52:A5:B3:49:4C:94:2B:57:7B:20:5D:41:1C:67:B9:00
            X509v3 Authority Key Identifier: 
                keyid:A4:66:E2:46:F7:3F:A1:73:9D:A2:E2:4E:29:99:DB:2E:36:36:6C:B5

            Authority Information Access: 
                CA Issuers - URI:file:///dev/null

            X509v3 CRL Distribution Points: 

                Full Name:
                  URI:http://url-for-crl/I.crl

            X509v3 Key Usage: critical
                Digital Signature, Key Encipherment
            X509v3 Extended Key Usage: 
                TLS Web Server Authentication, TLS Web Client Authentication
    Signature Algorithm: sha256WithRSAEncryption
         ae:95:9b:14:87:8a:f4:90:86:4f:07:95:89:88:3c:fd:4b:92:
         01:8b:00:4d:c4:45:b7:67:54:d8:19:0b:10:f6:c2:be:45:5b:
         63:f1:42:57:1a:5a:bd:f8:fc:ee:d6:d5:dc:0c:ee:73:a8:5e:
         f2:d4:5b:f3:56:1b:28:d2:94:bc:3b:7d:a9:d5:4c:fb:5d:2f:
         4d:f2:04:3b:e5:12:ba:4d:9b:02:5e:6d:7e:aa:58:e6:45:3a:
         6f:66:10:b4:17:d1:3c:b4:c0:1d:42:f5:a7:61:00:9d:94:3f:
         3c:30:94:af:fe:ee:68:a7:ac:5b:d4:9a:3e:97:35:91:65:61:
         d0:cb:0d:e6:af:0f:08:97:2f:0a:e4:97:3f:39:7a:8a:ca:9e:
         87:22:82:ef:c3:3e:ee:44:9a:37:95:85:76:39:37:7e:63:06:
         b9:bd:70:ae:c0:8f:ff:6e:a2:a9:95:c2:be:91:0b:9f:70:de:
         4f:5b:3b:8a:c2:37:02:aa:52:ca:9d:d6:aa:48:0c:66:97:58:
         0e:48:f5:ab:c5:94:76:8a:c6:d9:06:20:62:72:0f:71:29:c3:
         c5:16:57:45:12:d0:a7:7a:aa:9a:31:b4:f8:46:b6:f4:44:16:
         9a:5d:7d:dc:32:bf:53:77:79:4b:66:79:e5:9c:7a:30:41:6f:
         3f:b1:21:dc
-----BEGIN CERTIFICATE-----
MIIDZDCCAkygAwIBAgIBBjANBgkqhkiG9w0BAQsFADAMMQowCAYDVQQDDAFJMB4X
DTE1MDEwMTEyMDAwMFoXDTE2MDEwMTEyMDAwMFowETEPMA0GA1UEAwwGdGFyZ2V0
MIIBIjANBgkqhkiG9w0BAQEFAAOCAQ8AMIIBCgKCAQEAlePHUd4V69HeEJGqipZ0
un403H4FRU5u/AzZvBCvzU3ftCUp5z3NPd7m49mc/eoUAwGjdr3RW3AxPRIaS+zf
Xx9RdO08JhCnNYjTAiLQJRdG+rCpzpaqjmfIjo4T2Q+I1GHUtwceyiZf4qUXlgpv
J5fCXigpN3wcx62CKy13lF6FALmRaKLGJ7Xqg4u37YNzi8Fzp0ByRFEJWOnr7IAK
EsaORRjOnKAqXxQMWb4UFkkUgtZAakUKfAw/81PLRRMYTgvFlTze4EP+WtzqtUT3
521DR3aCIQpgzz4o9Q/EGkFiEjCNXZJEkVvhy38v6xKcE8WH1QlyPbJ5wanfSbr9
zQIDAQABo4HLMIHIMB0GA1UdDgQWBBSCUvizUqWzSUyUK1d7IF1BHGe5ADAfBgNV
HSMEGDAWgBSkZuJG9z+hc52i4k4pmdsuNjZstTAsBggrBgEFBQcBAQQgMB4wHAYI
KwYBBQUHMAKGEGZpbGU6Ly8vZGV2L251bGwwKQYDVR0fBCIwIDAeoBygGoYYaHR0
cDovL3VybC1mb3ItY3JsL0kuY3JsMA4GA1UdDwEB/wQEAwIFoDAdBgNVHSUEFjAU
BggrBgEFBQcDAQYIKwYBBQUHAwIwDQYJKoZIhvcNAQELBQADggEBAK6VmxSHivSQ
hk8HlYmIPP1LkgGLAE3ERbdnVNgZCxD2wr5FW2PxQlcaWr34/O7W1dwM7nOoXvLU
W/NWGyjSlLw7fanVTPtdL03yBDvlErpNmwJebX6qWOZFOm9mELQX0Ty0wB1C9adh
AJ2UPzwwlK/+7minrFvUmj6XNZFlYdDLDeavDwiXLwrklz85eorKnocigu/DPu5E
mjeVhXY5N35jBrm9cK7Aj/9uoqmVwr6RC59w3k9bO4rCNwKqUsqd1qpIDGaXWA5I
9avFlHaKxtkGIGJyD3Epw8UWV0US0Kd6qpoxtPhGtvREFppdfdwyv1N3eUtmeeWc
ejBBbz+xIdw=
-----END CERTIFICATE-----
