Certificate:
    Data:
        Version: 3 (0x2)
        Serial Number: 7 (0x7)
    Signature Algorithm: sha256WithRSAEncryption
        Issuer: CN=I
        Validity
            Not Before: Jan  1 12:00:00 2015 GMT
            Not After : Jan  1 12:00:00 2021 GMT
        Subject: CN=target
        Subject Public Key Info:
            Public Key Algorithm: rsaEncryption
                Public-Key: (2048 bit)
                Modulus:
                    00:a2:bc:d6:77:b0:d2:ca:cf:ec:a9:ae:5a:5d:88:
                    50:50:12:9e:76:62:86:dc:61:78:d8:13:b3:e0:4f:
                    a8:d3:54:57:b5:ce:bf:75:c7:56:27:d2:8e:61:9c:
                    48:cb:3e:d2:bb:17:69:63:ca:eb:a4:56:bd:90:32:
                    28:bb:0a:ae:9d:4d:60:40:16:3b:4c:ca:4e:da:55:
                    d2:84:16:ae:c5:66:eb:bb:8b:3d:33:05:dc:e8:f3:
                    db:4d:4f:87:5c:eb:11:28:bc:ed:c8:fe:9d:b1:8a:
                    eb:c3:79:d0:e6:99:41:52:ec:68:97:48:78:4a:c3:
                    e1:b6:ec:38:1e:38:5b:fe:1b:f5:b4:76:94:d0:f3:
                    89:50:da:97:0b:f3:5e:86:bd:26:72:de:bb:41:92:
                    a4:a1:bf:77:55:aa:b1:f3:95:6f:c2:ac:bf:ad:8a:
                    a6:c4:2b:5e:ed:55:55:a6:c4:fe:6c:68:dd:ea:54:
                    3f:46:b2:98:e7:fa:54:fa:be:65:7a:5f:4f:c8:45:
                    d4:5d:7b:a0:56:35:83:d8:f0:e9:7f:63:0f:87:b6:
                    82:bc:2f:53:5d:01:f2:94:bf:12:37:84:e6:a0:63:
                    8c:8a:bc:a1:c9:1f:3c:1e:fb:95:60:41:47:bf:60:
                    1a:f3:7c:99:7d:66:75:99:5d:c2:ca:53:c1:8b:99:
                    59:37
                Exponent: 65537 (0x10001)
        X509v3 extensions:
            X509v3 Subject Key Identifier: 
                09:96:BA:42:0D:69:29:BC:6A:FB:3C:58:30:08:12:31:BF:5B:C0:CB
            X509v3 Authority Key Identifier: 
                keyid:40:91:28:21:9D:93:F3:9C:18:1B:FF:00:9C:B2:08:A0:A3:81:7D:2A

            Authority Information Access: 
                CA Issuers - URI:foobar

            X509v3 CRL Distribution Points: 

                Full Name:
                  URI:http://url-for-crl/I.crl

            X509v3 Key Usage: critical
                Digital Signature, Key Encipherment
            X509v3 Extended Key Usage: 
                TLS Web Server Authentication, TLS Web Client Authentication
    Signature Algorithm: sha256WithRSAEncryption
         40:71:3c:29:92:1a:64:8e:7f:5b:3f:89:2f:33:b6:5f:9f:a7:
         de:3a:c8:30:97:4d:67:96:c1:28:e0:7e:49:bb:07:05:09:d3:
         47:62:4f:79:8b:e7:12:ad:59:ff:84:4f:e8:a8:49:99:93:47:
         e8:14:85:ff:dc:de:4c:e7:e5:69:c8:3c:93:5f:11:d1:0b:e0:
         98:e3:41:5b:25:5a:90:dd:c1:ce:d9:5c:de:fb:0a:74:fc:fd:
         52:49:55:cc:cc:85:f3:00:e9:48:5f:72:06:8e:82:4d:54:62:
         d2:fe:a3:8c:6d:87:6e:30:d7:26:34:d2:db:ec:cf:7e:e6:38:
         0c:b0:c9:0b:16:09:e1:15:3d:ed:63:87:9d:63:a6:3f:78:29:
         1a:71:c0:6e:c4:0c:9f:ad:3f:29:0a:7d:7f:3a:09:36:ee:1f:
         4e:9f:d9:95:0f:c9:21:e4:92:ae:eb:76:bb:b9:41:ca:e3:86:
         92:54:c7:48:c9:89:d5:0a:5a:f4:b0:48:8a:ef:bd:99:03:dd:
         93:bc:22:ee:97:78:79:3a:1e:d1:2c:b2:d7:59:d6:79:a3:f9:
         28:47:e8:9a:fe:21:4b:f4:d8:a7:8b:de:9a:49:d6:6b:86:2c:
         8f:ad:76:70:e1:f2:12:ad:26:85:c4:4a:d5:48:58:61:fa:79:
         42:9c:03:6f
-----BEGIN CERTIFICATE-----
MIIDWjCCAkKgAwIBAgIBBzANBgkqhkiG9w0BAQsFADAMMQowCAYDVQQDDAFJMB4X
DTE1MDEwMTEyMDAwMFoXDTIxMDEwMTEyMDAwMFowETEPMA0GA1UEAwwGdGFyZ2V0
MIIBIjANBgkqhkiG9w0BAQEFAAOCAQ8AMIIBCgKCAQEAorzWd7DSys/sqa5aXYhQ
UBKedmKG3GF42BOz4E+o01RXtc6/dcdWJ9KOYZxIyz7SuxdpY8rrpFa9kDIouwqu
nU1gQBY7TMpO2lXShBauxWbru4s9MwXc6PPbTU+HXOsRKLztyP6dsYrrw3nQ5plB
Uuxol0h4SsPhtuw4Hjhb/hv1tHaU0POJUNqXC/Nehr0mct67QZKkob93Vaqx85Vv
wqy/rYqmxCte7VVVpsT+bGjd6lQ/RrKY5/pU+r5lel9PyEXUXXugVjWD2PDpf2MP
h7aCvC9TXQHylL8SN4TmoGOMiryhyR88HvuVYEFHv2Aa83yZfWZ1mV3CylPBi5lZ
NwIDAQABo4HBMIG+MB0GA1UdDgQWBBQJlrpCDWkpvGr7PFgwCBIxv1vAyzAfBgNV
HSMEGDAWgBRAkSghnZPznBgb/wCcsgigo4F9KjAiBggrBgEFBQcBAQQWMBQwEgYI
KwYBBQUHMAKGBmZvb2JhcjApBgNVHR8EIjAgMB6gHKAahhhodHRwOi8vdXJsLWZv
ci1jcmwvSS5jcmwwDgYDVR0PAQH/BAQDAgWgMB0GA1UdJQQWMBQGCCsGAQUFBwMB
BggrBgEFBQcDAjANBgkqhkiG9w0BAQsFAAOCAQEAQHE8KZIaZI5/Wz+JLzO2X5+n
3jrIMJdNZ5bBKOB+SbsHBQnTR2JPeYvnEq1Z/4RP6KhJmZNH6BSF/9zeTOflacg8
k18R0QvgmONBWyVakN3Bztlc3vsKdPz9UklVzMyF8wDpSF9yBo6CTVRi0v6jjG2H
bjDXJjTS2+zPfuY4DLDJCxYJ4RU97WOHnWOmP3gpGnHAbsQMn60/KQp9fzoJNu4f
Tp/ZlQ/JIeSSrut2u7lByuOGklTHSMmJ1Qpa9LBIiu+9mQPdk7wi7pd4eToe0Syy
11nWeaP5KEfomv4hS/TYp4vemknWa4Ysj612cOHyEq0mhcRK1UhYYfp5QpwDbw==
-----END CERTIFICATE-----
