Certificate:
    Data:
        Version: 3 (0x2)
        Serial Number: 5 (0x5)
    Signature Algorithm: sha256WithRSAEncryption
        Issuer: CN=I
        Validity
            Not Before: Jan  1 12:00:00 2015 GMT
            Not After : Jan  1 12:00:00 2016 GMT
        Subject: CN=target
        Subject Public Key Info:
            Public Key Algorithm: rsaEncryption
                Public-Key: (2048 bit)
                Modulus:
                    00:cd:b6:44:0e:5c:1c:cf:03:89:04:19:c9:c0:e5:
                    0d:86:bc:44:e1:54:31:33:24:2a:9f:50:9e:68:a5:
                    d2:17:1b:e1:96:1b:31:40:e2:05:4f:8b:c3:0c:41:
                    d0:66:8a:8b:03:a6:4a:64:40:f4:8b:f9:a1:f4:84:
                    18:fc:93:6c:7c:80:37:e2:a6:f6:93:bb:9d:14:63:
                    63:b8:66:b0:71:b9:2c:9d:f4:4d:55:41:e3:04:ad:
                    1f:ff:56:13:a5:7a:97:fd:12:ec:21:d4:99:85:77:
                    ec:bd:d1:13:12:2f:e3:ac:1f:34:0e:ff:cf:00:05:
                    b0:c2:40:e0:a6:ba:48:1a:a4:0b:37:7a:e5:ea:d6:
                    bf:15:e2:21:f3:6b:23:c9:16:26:44:c9:cc:61:4c:
                    77:d4:e2:5d:04:0e:2b:f5:38:49:14:11:4b:d2:91:
                    45:d3:b9:cd:3b:df:f7:99:fd:3c:ae:ce:f2:76:e7:
                    80:b0:7d:b1:cd:9f:29:67:8a:61:c7:ae:1c:15:fb:
                    46:76:d8:1c:0e:fc:82:29:85:da:4d:ae:24:1c:63:
                    36:bb:e0:43:1a:73:7f:ac:e5:81:a5:0c:aa:bb:32:
                    96:41:48:f4:4d:2d:f6:a2:c7:9f:d0:94:72:29:05:
                    ee:7d:69:1f:4a:ea:7f:a8:77:d4:75:c6:66:67:2e:
                    f5:d1
                Exponent: 65537 (0x10001)
        X509v3 extensions:
            X509v3 Subject Key Identifier: 
                78:F9:75:F9:80:E3:8F:14:93:E7:8D:DC:DF:D5:72:81:19:88:83:6F
            X509v3 Authority Key Identifier: 
                keyid:A4:66:E2:46:F7:3F:A1:73:9D:A2:E2:4E:29:99:DB:2E:36:36:6C:B5

            Authority Information Access: 
                CA Issuers - URI:http://url-for-aia/I.cer
                CA Issuers - URI:http://url-for-aia2/I2.foo
                CA Issuers - URI:http://url-for-aia3/I3.foo
                CA Issuers - URI:http://url-for-aia4/I4.foo
                CA Issuers - URI:http://url-for-aia5/I5.foo
                CA Issuers - URI:http://url-for-aia6/I6.foo

            X509v3 CRL Distribution Points: 

                Full Name:
                  URI:http://url-for-crl/I.crl

            X509v3 Key Usage: critical
                Digital Signature, Key Encipherment
            X509v3 Extended Key Usage: 
                TLS Web Server Authentication, TLS Web Client Authentication
    Signature Algorithm: sha256WithRSAEncryption
         2a:f3:04:7a:5b:af:49:a5:51:f5:29:21:1d:67:90:85:0e:50:
         1e:17:41:3a:47:41:8a:db:69:bb:48:42:81:9d:d5:98:71:8f:
         05:b7:d4:18:f7:db:1f:79:98:e5:04:67:19:47:55:f9:92:42:
         cc:41:32:c1:9b:bc:ae:2a:04:8f:bf:5a:ab:93:e5:bb:e0:93:
         e8:74:60:0f:ea:cc:12:5c:fa:26:67:17:03:8d:74:36:e9:85:
         a5:e9:14:3c:60:14:97:0c:76:0e:d7:69:ea:4d:a9:20:b4:7a:
         e7:c9:30:19:35:13:ff:c8:0c:b8:1b:30:19:60:62:76:cd:21:
         67:c4:65:bd:7e:9a:79:d0:3b:8e:15:fd:24:ef:5b:89:49:65:
         25:5e:af:f9:d5:03:87:a6:da:6d:dd:ce:75:45:7b:3c:5f:58:
         fd:3a:cb:22:a8:02:5b:2d:83:3e:7c:e2:67:bc:5f:e4:4c:54:
         f4:e1:f0:3b:d8:04:51:2e:3b:95:75:c2:da:b1:e5:44:cd:0d:
         8a:53:f0:2b:6c:1f:26:7b:1d:0e:cf:ce:fd:6b:b8:2a:b0:87:
         af:a6:e4:55:f6:13:b3:ee:5c:70:b8:31:5d:14:b9:6c:22:a3:
         a2:cf:76:20:0b:cf:37:c7:65:5f:93:a9:91:cb:90:89:0e:9e:
         e8:29:62:4d
-----BEGIN CERTIFICATE-----
MIIEOTCCAyGgAwIBAgIBBTANBgkqhkiG9w0BAQsFADAMMQowCAYDVQQDDAFJMB4X
DTE1MDEwMTEyMDAwMFoXDTE2MDEwMTEyMDAwMFowETEPMA0GA1UEAwwGdGFyZ2V0
MIIBIjANBgkqhkiG9w0BAQEFAAOCAQ8AMIIBCgKCAQEAzbZEDlwczwOJBBnJwOUN
hrxE4VQxMyQqn1CeaKXSFxvhlhsxQOIFT4vDDEHQZoqLA6ZKZED0i/mh9IQY/JNs
fIA34qb2k7udFGNjuGawcbksnfRNVUHjBK0f/1YTpXqX/RLsIdSZhXfsvdETEi/j
rB80Dv/PAAWwwkDgprpIGqQLN3rl6ta/FeIh82sjyRYmRMnMYUx31OJdBA4r9ThJ
FBFL0pFF07nNO9/3mf08rs7ydueAsH2xzZ8pZ4phx64cFftGdtgcDvyCKYXaTa4k
HGM2u+BDGnN/rOWBpQyquzKWQUj0TS32osef0JRyKQXufWkfSup/qHfUdcZmZy71
0QIDAQABo4IBnzCCAZswHQYDVR0OBBYEFHj5dfmA448Uk+eN3N/VcoEZiINvMB8G
A1UdIwQYMBaAFKRm4kb3P6FznaLiTimZ2y42Nmy1MIH+BggrBgEFBQcBAQSB8TCB
7jAkBggrBgEFBQcwAoYYaHR0cDovL3VybC1mb3ItYWlhL0kuY2VyMCYGCCsGAQUF
BzAChhpodHRwOi8vdXJsLWZvci1haWEyL0kyLmZvbzAmBggrBgEFBQcwAoYaaHR0
cDovL3VybC1mb3ItYWlhMy9JMy5mb28wJgYIKwYBBQUHMAKGGmh0dHA6Ly91cmwt
Zm9yLWFpYTQvSTQuZm9vMCYGCCsGAQUFBzAChhpodHRwOi8vdXJsLWZvci1haWE1
L0k1LmZvbzAmBggrBgEFBQcwAoYaaHR0cDovL3VybC1mb3ItYWlhNi9JNi5mb28w
KQYDVR0fBCIwIDAeoBygGoYYaHR0cDovL3VybC1mb3ItY3JsL0kuY3JsMA4GA1Ud
DwEB/wQEAwIFoDAdBgNVHSUEFjAUBggrBgEFBQcDAQYIKwYBBQUHAwIwDQYJKoZI
hvcNAQELBQADggEBACrzBHpbr0mlUfUpIR1nkIUOUB4XQTpHQYrbabtIQoGd1Zhx
jwW31Bj32x95mOUEZxlHVfmSQsxBMsGbvK4qBI+/WquT5bvgk+h0YA/qzBJc+iZn
FwONdDbphaXpFDxgFJcMdg7XaepNqSC0eufJMBk1E//IDLgbMBlgYnbNIWfEZb1+
mnnQO44V/STvW4lJZSVer/nVA4em2m3dznVFezxfWP06yyKoAlstgz584me8X+RM
VPTh8DvYBFEuO5V1wtqx5UTNDYpT8CtsHyZ7HQ7Pzv1ruCqwh6+m5FX2E7PuXHC4
MV0UuWwio6LPdiALzzfHZV+TqZHLkIkOnugpYk0=
-----END CERTIFICATE-----
