Certificate:
    Data:
        Version: 3 (0x2)
        Serial Number: 5 (0x5)
    Signature Algorithm: sha256WithRSAEncryption
        Issuer: CN=I
        Validity
            Not Before: Jan  1 12:00:00 2015 GMT
            Not After : Jan  1 12:00:00 2021 GMT
        Subject: CN=target
        Subject Public Key Info:
            Public Key Algorithm: rsaEncryption
                Public-Key: (2048 bit)
                Modulus:
                    00:b2:52:ee:94:90:a8:1a:32:bb:4f:64:17:a6:31:
                    ab:08:09:91:ef:ec:ad:0a:e9:fb:5b:fa:6a:1f:e6:
                    68:2f:53:8b:04:74:32:75:9d:bc:fd:b3:c9:a2:ba:
                    6a:0d:94:6f:02:e5:c6:06:1a:5c:2a:d2:95:25:6e:
                    53:86:88:d3:1c:11:db:b8:b8:9a:94:9a:89:65:c6:
                    c5:6a:2e:b3:4f:07:80:40:d1:21:29:4c:52:84:e9:
                    b4:a7:2d:f3:21:66:23:24:a7:b3:de:95:a3:79:4f:
                    26:31:6c:b9:da:76:d6:ec:d4:7e:d1:44:b7:63:d3:
                    8b:75:ff:04:a0:e2:96:57:5a:85:28:3b:0f:f3:12:
                    0c:15:b9:7f:39:6a:9a:0b:95:ee:bc:d9:09:00:3e:
                    b3:04:b5:7e:d8:af:42:6e:c5:cf:0f:d2:9b:71:aa:
                    14:b6:cb:b0:9b:d6:5f:2c:97:24:c4:3f:27:e6:a7:
                    47:5a:54:bf:84:68:ea:4f:e1:f0:1a:3b:7a:1b:85:
                    d3:e9:8e:5f:b5:18:93:36:54:f1:15:e8:6f:52:c9:
                    b7:5d:90:9d:d5:2f:fb:49:8c:b8:52:4e:34:bf:46:
                    f4:8f:ee:76:1b:ca:9d:56:4d:f5:96:07:c3:76:60:
                    66:3b:8c:e7:ef:fc:29:51:6d:0f:f0:f9:fb:db:44:
                    e3:f5
                Exponent: 65537 (0x10001)
        X509v3 extensions:
            X509v3 Subject Key Identifier: 
                D9:D1:6E:42:D5:27:F3:97:CB:FD:15:37:54:E7:C9:A4:EA:F1:FB:D9
            X509v3 Authority Key Identifier: 
                keyid:40:91:28:21:9D:93:F3:9C:18:1B:FF:00:9C:B2:08:A0:A3:81:7D:2A

            Authority Information Access: 
                CA Issuers - URI:http://url-for-aia/I.cer
                CA Issuers - URI:http://url-for-aia2/I2.foo
                CA Issuers - URI:http://url-for-aia3/I3.foo
                CA Issuers - URI:http://url-for-aia4/I4.foo
                CA Issuers - URI:http://url-for-aia5/I5.foo
                CA Issuers - URI:http://url-for-aia6/I6.foo

            X509v3 CRL Distribution Points: 

                Full Name:
                  URI:http://url-for-crl/I.crl

            X509v3 Key Usage: critical
                Digital Signature, Key Encipherment
            X509v3 Extended Key Usage: 
                TLS Web Server Authentication, TLS Web Client Authentication
    Signature Algorithm: sha256WithRSAEncryption
         a4:55:b4:2e:7a:ab:a8:51:ce:14:7a:de:8f:6b:15:ae:ce:a1:
         6f:ea:00:d8:9d:2f:55:55:42:a9:9c:f5:88:56:eb:b6:fa:be:
         59:42:98:c7:c9:52:5c:52:1a:eb:a8:f7:29:48:fa:c9:66:41:
         2b:77:24:9d:0b:d9:cf:c4:77:42:a1:44:58:64:a3:13:13:4f:
         2f:c0:9b:e6:20:f5:35:bd:6d:d7:50:55:2d:30:e9:22:09:e1:
         03:b9:8f:5f:77:66:14:d4:d7:26:3a:dc:bf:65:07:1e:8b:ee:
         ca:d5:2a:3d:57:b9:8a:0f:df:27:9a:3e:d6:15:5f:ff:28:b1:
         af:c6:35:1a:ba:b5:6c:ae:9e:3d:1e:38:2a:77:d7:d2:19:db:
         a6:4d:5f:28:7e:19:80:d5:71:e5:11:0a:1e:db:46:f5:db:29:
         4f:bb:d3:4d:3c:f2:6b:84:b1:87:6a:b5:56:b7:b0:76:61:a1:
         2c:25:6d:6e:79:28:8a:40:fc:18:d9:a7:9c:4c:94:c5:28:75:
         e9:2f:0d:12:35:d8:17:07:a4:aa:51:fe:b3:a0:57:e8:04:b2:
         89:c0:c2:c3:85:4c:da:26:0a:f6:53:1a:be:f0:88:f1:a6:ff:
         d7:85:1f:3d:02:ae:33:7b:b8:10:16:ce:4a:92:de:d5:e5:ef:
         0c:72:47:3e
-----BEGIN CERTIFICATE-----
MIIEOTCCAyGgAwIBAgIBBTANBgkqhkiG9w0BAQsFADAMMQowCAYDVQQDDAFJMB4X
DTE1MDEwMTEyMDAwMFoXDTIxMDEwMTEyMDAwMFowETEPMA0GA1UEAwwGdGFyZ2V0
MIIBIjANBgkqhkiG9w0BAQEFAAOCAQ8AMIIBCgKCAQEAslLulJCoGjK7T2QXpjGr
CAmR7+ytCun7W/pqH+ZoL1OLBHQydZ28/bPJorpqDZRvAuXGBhpcKtKVJW5ThojT
HBHbuLialJqJZcbFai6zTweAQNEhKUxShOm0py3zIWYjJKez3pWjeU8mMWy52nbW
7NR+0US3Y9OLdf8EoOKWV1qFKDsP8xIMFbl/OWqaC5XuvNkJAD6zBLV+2K9CbsXP
D9KbcaoUtsuwm9ZfLJckxD8n5qdHWlS/hGjqT+HwGjt6G4XT6Y5ftRiTNlTxFehv
Usm3XZCd1S/7SYy4Uk40v0b0j+52G8qdVk31lgfDdmBmO4zn7/wpUW0P8Pn720Tj
9QIDAQABo4IBnzCCAZswHQYDVR0OBBYEFNnRbkLVJ/OXy/0VN1TnyaTq8fvZMB8G
A1UdIwQYMBaAFECRKCGdk/OcGBv/AJyyCKCjgX0qMIH+BggrBgEFBQcBAQSB8TCB
7jAkBggrBgEFBQcwAoYYaHR0cDovL3VybC1mb3ItYWlhL0kuY2VyMCYGCCsGAQUF
BzAChhpodHRwOi8vdXJsLWZvci1haWEyL0kyLmZvbzAmBggrBgEFBQcwAoYaaHR0
cDovL3VybC1mb3ItYWlhMy9JMy5mb28wJgYIKwYBBQUHMAKGGmh0dHA6Ly91cmwt
Zm9yLWFpYTQvSTQuZm9vMCYGCCsGAQUFBzAChhpodHRwOi8vdXJsLWZvci1haWE1
L0k1LmZvbzAmBggrBgEFBQcwAoYaaHR0cDovL3VybC1mb3ItYWlhNi9JNi5mb28w
KQYDVR0fBCIwIDAeoBygGoYYaHR0cDovL3VybC1mb3ItY3JsL0kuY3JsMA4GA1Ud
DwEB/wQEAwIFoDAdBgNVHSUEFjAUBggrBgEFBQcDAQYIKwYBBQUHAwIwDQYJKoZI
hvcNAQELBQADggEBAKRVtC56q6hRzhR63o9rFa7OoW/qANidL1VVQqmc9YhW67b6
vllCmMfJUlxSGuuo9ylI+slmQSt3JJ0L2c/Ed0KhRFhkoxMTTy/Am+Yg9TW9bddQ
VS0w6SIJ4QO5j193ZhTU1yY63L9lBx6L7srVKj1XuYoP3yeaPtYVX/8osa/GNRq6
tWyunj0eOCp319IZ26ZNXyh+GYDVceURCh7bRvXbKU+700088muEsYdqtVa3sHZh
oSwlbW55KIpA/BjZp5xMlMUodekvDRI12BcHpKpR/rOgV+gEsonAwsOFTNomCvZT
Gr7wiPGm/9eFHz0CrjN7uBAWzkqS3tXl7wxyRz4=
-----END CERTIFICATE-----
