Certificate:
    Data:
        Version: 3 (0x2)
        Serial Number: 7 (0x7)
    Signature Algorithm: sha256WithRSAEncryption
        Issuer: CN=I
        Validity
            Not Before: Jan  1 12:00:00 2015 GMT
            Not After : Jan  1 12:00:00 2016 GMT
        Subject: CN=target
        Subject Public Key Info:
            Public Key Algorithm: rsaEncryption
                Public-Key: (2048 bit)
                Modulus:
                    00:c7:27:f1:17:3f:71:b3:2a:98:b1:c0:c0:45:e2:
                    0f:da:92:27:6e:44:6d:18:4d:87:b9:eb:c0:63:c9:
                    2d:24:75:7a:15:85:68:3a:cc:cc:a5:9b:7f:82:c0:
                    02:86:76:f9:28:b2:f7:2c:f3:48:bb:6d:17:11:38:
                    4d:5e:86:bf:8a:89:e8:0f:70:c6:a6:81:bd:d1:92:
                    cd:eb:c0:99:90:3c:51:ca:14:d9:dd:75:66:17:1c:
                    52:c2:d8:3e:8a:6b:0d:94:32:54:a6:b0:35:b9:5a:
                    58:b0:80:28:38:2e:f1:c9:2f:b2:30:80:e5:05:c5:
                    b2:5b:6f:41:30:27:fd:02:7a:89:b1:74:90:cb:1f:
                    da:25:1d:7b:b7:00:2a:bf:0b:9c:5f:8b:25:ca:ae:
                    c5:56:33:1a:a2:72:a9:3c:23:8a:bc:3d:d2:50:0f:
                    1a:0b:09:cc:c3:49:1b:81:c6:e1:aa:a5:db:68:cc:
                    97:02:0f:1b:0d:c3:da:e0:c2:b8:18:8d:9f:04:37:
                    c5:65:79:30:2f:58:5a:21:a4:df:b2:85:c0:ec:59:
                    cf:8c:2a:c6:f3:8e:f8:56:95:63:b6:67:6e:4e:07:
                    61:6d:34:17:36:fe:57:e7:a2:2d:8d:ce:71:86:53:
                    2c:a2:07:02:f7:e2:a2:b9:5b:28:fa:bd:5c:70:15:
                    55:69
                Exponent: 65537 (0x10001)
        X509v3 extensions:
            X509v3 Subject Key Identifier: 
                67:BE:87:AA:D9:FB:88:9C:E8:F8:14:D3:FC:8E:44:95:EE:7D:7C:4E
            X509v3 Authority Key Identifier: 
                keyid:A4:66:E2:46:F7:3F:A1:73:9D:A2:E2:4E:29:99:DB:2E:36:36:6C:B5

            Authority Information Access: 
                CA Issuers - URI:foobar

            X509v3 CRL Distribution Points: 

                Full Name:
                  URI:http://url-for-crl/I.crl

            X509v3 Key Usage: critical
                Digital Signature, Key Encipherment
            X509v3 Extended Key Usage: 
                TLS Web Server Authentication, TLS Web Client Authentication
    Signature Algorithm: sha256WithRSAEncryption
         84:53:97:e8:ce:6e:20:dc:41:bf:19:7f:f6:1a:a3:53:d3:8a:
         fa:de:74:3a:78:ca:95:55:be:b3:f8:28:af:2b:94:c6:40:bd:
         bd:ec:fd:c0:5a:8c:66:6c:00:08:6a:2b:3b:b7:b4:25:90:de:
         4d:5f:d7:e7:40:3b:cf:e0:98:7a:42:f6:4e:14:9b:02:fb:fa:
         8e:e7:d4:88:a5:92:cc:0d:40:36:f0:f7:6e:65:f3:d0:89:26:
         d2:76:bf:46:ea:ec:42:af:cb:f2:06:57:fb:2d:67:a5:c9:12:
         54:a0:3b:a3:f3:de:30:15:58:ab:0c:91:ec:d2:7f:3d:86:67:
         df:08:6d:36:8e:65:09:fe:d1:01:00:4b:bf:71:f8:4c:6b:6d:
         f9:61:d6:91:e0:63:9a:f2:13:f0:93:c6:45:64:23:26:1a:69:
         9e:13:32:0b:a1:68:9f:77:15:0e:bc:d2:14:18:22:75:84:4e:
         33:9d:42:c4:77:b0:9f:14:9a:b5:fb:3a:b7:c5:46:ac:4c:59:
         1c:0c:33:c9:c0:aa:4e:54:37:dd:53:d8:bf:34:32:cb:a9:db:
         17:f9:14:17:9f:c3:62:71:29:02:6a:3a:8a:48:44:c8:08:de:
         32:7a:70:40:ce:27:b9:d9:1e:64:33:1d:e8:fd:0a:4e:54:c4:
         76:12:48:66
-----BEGIN CERTIFICATE-----
MIIDWjCCAkKgAwIBAgIBBzANBgkqhkiG9w0BAQsFADAMMQowCAYDVQQDDAFJMB4X
DTE1MDEwMTEyMDAwMFoXDTE2MDEwMTEyMDAwMFowETEPMA0GA1UEAwwGdGFyZ2V0
MIIBIjANBgkqhkiG9w0BAQEFAAOCAQ8AMIIBCgKCAQEAxyfxFz9xsyqYscDAReIP
2pInbkRtGE2HuevAY8ktJHV6FYVoOszMpZt/gsAChnb5KLL3LPNIu20XEThNXoa/
ionoD3DGpoG90ZLN68CZkDxRyhTZ3XVmFxxSwtg+imsNlDJUprA1uVpYsIAoOC7x
yS+yMIDlBcWyW29BMCf9AnqJsXSQyx/aJR17twAqvwucX4slyq7FVjMaonKpPCOK
vD3SUA8aCwnMw0kbgcbhqqXbaMyXAg8bDcPa4MK4GI2fBDfFZXkwL1haIaTfsoXA
7FnPjCrG8474VpVjtmduTgdhbTQXNv5X56Itjc5xhlMsogcC9+KiuVso+r1ccBVV
aQIDAQABo4HBMIG+MB0GA1UdDgQWBBRnvoeq2fuInOj4FNP8jkSV7n18TjAfBgNV
HSMEGDAWgBSkZuJG9z+hc52i4k4pmdsuNjZstTAiBggrBgEFBQcBAQQWMBQwEgYI
KwYBBQUHMAKGBmZvb2JhcjApBgNVHR8EIjAgMB6gHKAahhhodHRwOi8vdXJsLWZv
ci1jcmwvSS5jcmwwDgYDVR0PAQH/BAQDAgWgMB0GA1UdJQQWMBQGCCsGAQUFBwMB
BggrBgEFBQcDAjANBgkqhkiG9w0BAQsFAAOCAQEAhFOX6M5uINxBvxl/9hqjU9OK
+t50OnjKlVW+s/goryuUxkC9vez9wFqMZmwACGorO7e0JZDeTV/X50A7z+CYekL2
ThSbAvv6jufUiKWSzA1ANvD3bmXz0Ikm0na/RursQq/L8gZX+y1npckSVKA7o/Pe
MBVYqwyR7NJ/PYZn3whtNo5lCf7RAQBLv3H4TGtt+WHWkeBjmvIT8JPGRWQjJhpp
nhMyC6Fon3cVDrzSFBgidYROM51CxHewnxSatfs6t8VGrExZHAwzycCqTlQ33VPY
vzQyy6nbF/kUF5/DYnEpAmo6ikhEyAjeMnpwQM4nudkeZDMd6P0KTlTEdhJIZg==
-----END CERTIFICATE-----
