Certificate:
    Data:
        Version: 3 (0x2)
        Serial Number: 4 (0x4)
    Signature Algorithm: sha256WithRSAEncryption
        Issuer: CN=I
        Validity
            Not Before: Jan  1 12:00:00 2015 GMT
            Not After : Jan  1 12:00:00 2016 GMT
        Subject: CN=target
        Subject Public Key Info:
            Public Key Algorithm: rsaEncryption
                Public-Key: (2048 bit)
                Modulus:
                    00:c5:05:c8:6a:51:45:70:b5:38:56:09:b1:35:3e:
                    e6:14:d4:93:13:d1:4e:05:1d:e1:49:e6:5e:0d:7b:
                    b1:02:96:31:a0:1c:73:5a:d9:4b:2c:ea:5d:23:71:
                    43:cf:88:5e:92:e1:35:b2:5b:4d:89:b2:b5:e4:bd:
                    ac:37:cd:f8:42:7b:53:43:9a:ab:05:82:6c:67:8d:
                    40:2c:15:b8:67:3d:f7:fa:d4:75:40:d1:31:58:e2:
                    e8:48:f6:13:f1:c9:d1:8f:8d:78:33:00:f1:89:a9:
                    35:8e:22:f9:ff:b3:a4:83:92:59:75:e3:43:90:d9:
                    83:b3:a8:ce:64:04:0e:a1:1d:5c:a4:b2:c0:19:d4:
                    03:c9:bc:39:ad:33:9c:26:e2:ca:bf:44:85:34:20:
                    92:a8:34:60:4e:a3:ec:11:c2:5f:e4:aa:19:6c:fe:
                    40:c0:ad:cd:41:69:c4:93:94:d6:4b:e5:cf:98:0c:
                    68:f1:94:25:ec:8f:c7:62:7f:8b:9d:14:13:18:51:
                    10:63:a9:bc:b8:71:24:44:86:27:01:d6:3d:84:ae:
                    7d:da:50:db:9c:64:bf:5e:ff:35:3e:ee:90:2f:72:
                    44:ac:86:f2:4a:78:16:00:43:06:10:bd:4f:83:ca:
                    e0:9a:07:52:b3:2c:df:eb:4b:f3:e7:72:80:21:ad:
                    12:33
                Exponent: 65537 (0x10001)
        X509v3 extensions:
            X509v3 Subject Key Identifier: 
                EC:26:51:40:B1:40:90:32:30:DB:5E:7C:A4:52:EE:B7:87:82:B3:0A
            X509v3 Authority Key Identifier: 
                keyid:A4:66:E2:46:F7:3F:A1:73:9D:A2:E2:4E:29:99:DB:2E:36:36:6C:B5

            Authority Information Access: 
                CA Issuers - URI:http://url-for-aia/I.cer
                CA Issuers - URI:http://url-for-aia2/I2.foo
                CA Issuers - URI:http://url-for-aia3/I3.foo

            X509v3 CRL Distribution Points: 

                Full Name:
                  URI:http://url-for-crl/I.crl

            X509v3 Key Usage: critical
                Digital Signature, Key Encipherment
            X509v3 Extended Key Usage: 
                TLS Web Server Authentication, TLS Web Client Authentication
    Signature Algorithm: sha256WithRSAEncryption
         29:19:26:6f:9b:96:e4:3d:38:b7:89:84:79:9e:73:09:0c:fe:
         f8:4a:8d:13:84:15:ae:0f:56:4a:42:fb:17:81:8b:34:52:c3:
         51:93:96:04:75:9b:35:54:e1:05:31:c4:9d:28:0f:20:d5:7c:
         18:86:6e:02:4f:d8:58:2a:02:7e:d0:72:39:16:03:24:77:34:
         58:98:2e:f8:9a:ef:97:a3:11:b1:06:94:ec:1f:bb:3f:00:10:
         0b:24:d1:10:d6:c1:87:bf:f1:1e:fa:e0:99:e7:d9:22:d3:e9:
         80:7c:98:be:2c:af:b4:d9:c6:a7:52:35:fb:a4:a8:34:1d:e9:
         00:c7:f5:79:14:06:17:40:dd:15:62:04:0f:87:84:98:72:ed:
         47:da:6b:0c:d3:09:51:c3:d1:ae:df:96:8c:b7:68:e7:81:b9:
         d1:a6:e0:3c:b7:93:f4:39:d5:c1:d7:78:3a:06:95:5c:e5:a5:
         13:bf:27:ca:7c:3c:69:b6:f8:3b:a1:40:3e:2f:d5:28:e3:c1:
         f8:ed:76:19:2a:93:e4:2b:a4:09:8a:9c:9a:ad:c6:36:23:fb:
         6d:70:02:fc:77:a9:4d:0e:c0:e9:61:f7:06:73:9e:42:4a:92:
         b3:4e:47:c2:fe:fe:1d:46:81:d4:85:a8:e4:52:6a:92:28:18:
         c7:8c:69:8e
-----BEGIN CERTIFICATE-----
MIIDvzCCAqegAwIBAgIBBDANBgkqhkiG9w0BAQsFADAMMQowCAYDVQQDDAFJMB4X
DTE1MDEwMTEyMDAwMFoXDTE2MDEwMTEyMDAwMFowETEPMA0GA1UEAwwGdGFyZ2V0
MIIBIjANBgkqhkiG9w0BAQEFAAOCAQ8AMIIBCgKCAQEAxQXIalFFcLU4VgmxNT7m
FNSTE9FOBR3hSeZeDXuxApYxoBxzWtlLLOpdI3FDz4hekuE1sltNibK15L2sN834
QntTQ5qrBYJsZ41ALBW4Zz33+tR1QNExWOLoSPYT8cnRj414MwDxiak1jiL5/7Ok
g5JZdeNDkNmDs6jOZAQOoR1cpLLAGdQDybw5rTOcJuLKv0SFNCCSqDRgTqPsEcJf
5KoZbP5AwK3NQWnEk5TWS+XPmAxo8ZQl7I/HYn+LnRQTGFEQY6m8uHEkRIYnAdY9
hK592lDbnGS/Xv81Pu6QL3JErIbySngWAEMGEL1Pg8rgmgdSsyzf60vz53KAIa0S
MwIDAQABo4IBJTCCASEwHQYDVR0OBBYEFOwmUUCxQJAyMNtefKRS7reHgrMKMB8G
A1UdIwQYMBaAFKRm4kb3P6FznaLiTimZ2y42Nmy1MIGEBggrBgEFBQcBAQR4MHYw
JAYIKwYBBQUHMAKGGGh0dHA6Ly91cmwtZm9yLWFpYS9JLmNlcjAmBggrBgEFBQcw
AoYaaHR0cDovL3VybC1mb3ItYWlhMi9JMi5mb28wJgYIKwYBBQUHMAKGGmh0dHA6
Ly91cmwtZm9yLWFpYTMvSTMuZm9vMCkGA1UdHwQiMCAwHqAcoBqGGGh0dHA6Ly91
cmwtZm9yLWNybC9JLmNybDAOBgNVHQ8BAf8EBAMCBaAwHQYDVR0lBBYwFAYIKwYB
BQUHAwEGCCsGAQUFBwMCMA0GCSqGSIb3DQEBCwUAA4IBAQApGSZvm5bkPTi3iYR5
nnMJDP74So0ThBWuD1ZKQvsXgYs0UsNRk5YEdZs1VOEFMcSdKA8g1XwYhm4CT9hY
KgJ+0HI5FgMkdzRYmC74mu+XoxGxBpTsH7s/ABALJNEQ1sGHv/Ee+uCZ59ki0+mA
fJi+LK+02canUjX7pKg0HekAx/V5FAYXQN0VYgQPh4SYcu1H2msM0wlRw9Gu35aM
t2jngbnRpuA8t5P0OdXB13g6BpVc5aUTvyfKfDxptvg7oUA+L9Uo48H47XYZKpPk
K6QJipyarcY2I/ttcAL8d6lNDsDpYfcGc55CSpKzTkfC/v4dRoHUhajkUmqSKBjH
jGmO
-----END CERTIFICATE-----
