Certificate:
    Data:
        Version: 3 (0x2)
        Serial Number: 5 (0x5)
    Signature Algorithm: sha256WithRSAEncryption
        Issuer: CN=I
        Validity
            Not Before: Jan  1 12:00:00 2015 GMT
            Not After : Jan  1 12:00:00 2021 GMT
        Subject: CN=target
        Subject Public Key Info:
            Public Key Algorithm: rsaEncryption
                Public-Key: (2048 bit)
                Modulus:
                    00:a8:d1:9d:45:4a:dd:38:b7:b6:76:e5:20:8e:f3:
                    68:3a:98:11:33:6e:35:88:1a:ba:18:48:4c:c8:2e:
                    72:dd:3d:84:5d:67:ba:99:23:90:14:99:de:7a:6b:
                    6c:a7:c9:4f:81:72:d1:62:0a:cb:87:41:c3:c8:74:
                    1e:56:b9:96:bf:ea:0c:c8:ff:a8:1b:17:97:74:6f:
                    8c:ad:92:42:57:df:6b:e9:d0:4a:9a:0b:05:61:3d:
                    50:ce:44:0f:22:41:83:10:f9:02:68:fe:94:c8:e4:
                    5b:49:20:1c:02:2c:76:4e:82:0b:8f:f6:ae:53:c1:
                    df:c0:48:22:78:1e:6f:03:75:00:26:b3:ad:c1:02:
                    7f:83:cf:52:7c:6c:58:59:1e:1f:1e:a0:31:b5:38:
                    91:4c:e4:2e:c9:71:e4:16:96:33:22:a9:cd:df:9a:
                    b1:9e:84:29:93:b5:74:f6:5f:9c:8c:9a:3b:8f:11:
                    a0:8d:82:68:ee:ba:2d:eb:b8:5d:62:f2:32:18:2c:
                    84:94:d2:9f:65:e2:2c:eb:93:93:dd:6f:37:1e:ed:
                    11:f8:50:ae:d6:e4:68:e3:20:2d:2b:11:cb:fc:37:
                    cf:14:a7:cf:75:6d:03:44:99:b0:6d:ec:da:a4:fd:
                    74:5e:d5:7c:58:42:59:22:bd:1e:53:09:00:0b:45:
                    1e:87
                Exponent: 65537 (0x10001)
        X509v3 extensions:
            X509v3 Subject Key Identifier: 
                50:7F:07:06:90:38:D2:E8:2A:77:30:AD:87:F8:5B:26:E3:1D:97:47
            X509v3 Authority Key Identifier: 
                keyid:84:BA:05:06:4E:33:9D:11:AA:7A:F1:77:1F:A4:69:7E:4C:2D:D4:3F

            Authority Information Access: 
                CA Issuers - URI:http://url-for-aia/I.cer
                CA Issuers - URI:http://url-for-aia2/I2.foo
                CA Issuers - URI:http://url-for-aia3/I3.foo
                CA Issuers - URI:http://url-for-aia4/I4.foo
                CA Issuers - URI:http://url-for-aia5/I5.foo
                CA Issuers - URI:http://url-for-aia6/I6.foo

            X509v3 CRL Distribution Points: 

                Full Name:
                  URI:http://url-for-crl/I.crl

            X509v3 Key Usage: critical
                Digital Signature, Key Encipherment
            X509v3 Extended Key Usage: 
                TLS Web Server Authentication, TLS Web Client Authentication
            X509v3 Subject Alternative Name: 
                DNS:target
    Signature Algorithm: sha256WithRSAEncryption
         93:3c:98:46:dc:74:09:e3:f0:fd:dd:80:9d:b5:4d:4f:60:f2:
         94:fc:4a:7c:f4:60:f6:70:50:0d:00:22:fa:d8:aa:46:88:de:
         09:43:76:0f:2e:34:a1:d8:6c:a8:0e:7e:a4:09:cb:ae:12:b7:
         dc:fa:31:1b:9c:ae:89:c1:36:77:13:f7:68:f8:13:f0:1d:b7:
         b0:8a:6f:01:57:62:41:a1:9a:c9:4a:72:23:8a:37:2b:fc:02:
         30:06:16:eb:73:56:30:e6:1b:a7:88:b1:59:24:5b:ee:8b:7d:
         34:b9:12:ba:d8:dd:e1:44:e9:9b:45:b0:5c:75:47:f1:4c:99:
         ed:98:d7:c3:a8:a9:7e:4e:5b:a1:9f:f2:bc:61:eb:a2:2b:8d:
         ff:ab:a2:6b:37:88:2a:9f:09:83:eb:a9:48:1c:2f:88:ce:5c:
         9f:5d:5d:4a:2f:74:ea:c5:2c:c7:e3:c9:b8:71:f0:80:e1:87:
         f7:eb:cb:9c:23:8c:ad:1a:10:e7:00:6e:99:25:eb:2a:97:2f:
         31:96:12:27:9e:e9:59:d8:6a:f5:87:e5:66:e3:61:eb:b6:f9:
         30:27:13:f8:e3:87:27:06:e4:c8:fb:df:f9:49:20:7b:a5:9c:
         90:2e:30:af:00:50:95:ea:95:1c:b4:90:49:df:b4:18:33:04:
         8d:ec:c8:57
-----BEGIN CERTIFICATE-----
MIIETDCCAzSgAwIBAgIBBTANBgkqhkiG9w0BAQsFADAMMQowCAYDVQQDDAFJMB4X
DTE1MDEwMTEyMDAwMFoXDTIxMDEwMTEyMDAwMFowETEPMA0GA1UEAwwGdGFyZ2V0
MIIBIjANBgkqhkiG9w0BAQEFAAOCAQ8AMIIBCgKCAQEAqNGdRUrdOLe2duUgjvNo
OpgRM241iBq6GEhMyC5y3T2EXWe6mSOQFJneemtsp8lPgXLRYgrLh0HDyHQeVrmW
v+oMyP+oGxeXdG+MrZJCV99r6dBKmgsFYT1QzkQPIkGDEPkCaP6UyORbSSAcAix2
ToILj/auU8HfwEgieB5vA3UAJrOtwQJ/g89SfGxYWR4fHqAxtTiRTOQuyXHkFpYz
IqnN35qxnoQpk7V09l+cjJo7jxGgjYJo7rot67hdYvIyGCyElNKfZeIs65OT3W83
Hu0R+FCu1uRo4yAtKxHL/DfPFKfPdW0DRJmwbezapP10XtV8WEJZIr0eUwkAC0Ue
hwIDAQABo4IBsjCCAa4wHQYDVR0OBBYEFFB/BwaQONLoKncwrYf4WybjHZdHMB8G
A1UdIwQYMBaAFIS6BQZOM50Rqnrxdx+kaX5MLdQ/MIH+BggrBgEFBQcBAQSB8TCB
7jAkBggrBgEFBQcwAoYYaHR0cDovL3VybC1mb3ItYWlhL0kuY2VyMCYGCCsGAQUF
BzAChhpodHRwOi8vdXJsLWZvci1haWEyL0kyLmZvbzAmBggrBgEFBQcwAoYaaHR0
cDovL3VybC1mb3ItYWlhMy9JMy5mb28wJgYIKwYBBQUHMAKGGmh0dHA6Ly91cmwt
Zm9yLWFpYTQvSTQuZm9vMCYGCCsGAQUFBzAChhpodHRwOi8vdXJsLWZvci1haWE1
L0k1LmZvbzAmBggrBgEFBQcwAoYaaHR0cDovL3VybC1mb3ItYWlhNi9JNi5mb28w
KQYDVR0fBCIwIDAeoBygGoYYaHR0cDovL3VybC1mb3ItY3JsL0kuY3JsMA4GA1Ud
DwEB/wQEAwIFoDAdBgNVHSUEFjAUBggrBgEFBQcDAQYIKwYBBQUHAwIwEQYDVR0R
BAowCIIGdGFyZ2V0MA0GCSqGSIb3DQEBCwUAA4IBAQCTPJhG3HQJ4/D93YCdtU1P
YPKU/Ep89GD2cFANACL62KpGiN4JQ3YPLjSh2GyoDn6kCcuuErfc+jEbnK6JwTZ3
E/do+BPwHbewim8BV2JBoZrJSnIjijcr/AIwBhbrc1Yw5huniLFZJFvui300uRK6
2N3hROmbRbBcdUfxTJntmNfDqKl+Tluhn/K8YeuiK43/q6JrN4gqnwmD66lIHC+I
zlyfXV1KL3TqxSzH48m4cfCA4Yf368ucI4ytGhDnAG6ZJesqly8xlhInnulZ2Gr1
h+Vm42HrtvkwJxP444cnBuTI+9/5SSB7pZyQLjCvAFCV6pUctJBJ37QYMwSN7MhX
-----END CERTIFICATE-----
