Certificate:
    Data:
        Version: 3 (0x2)
        Serial Number: 2 (0x2)
    Signature Algorithm: sha256WithRSAEncryption
        Issuer: CN=I
        Validity
            Not Before: Jan  1 12:00:00 2015 GMT
            Not After : Jan  1 12:00:00 2016 GMT
        Subject: CN=target
        Subject Public Key Info:
            Public Key Algorithm: rsaEncryption
                Public-Key: (2048 bit)
                Modulus:
                    00:c8:d2:4b:11:93:9a:57:64:a6:36:33:e6:dd:b9:
                    4f:b0:ba:86:e5:cc:76:b6:ec:22:4d:c4:25:26:0a:
                    3e:0b:d8:24:1f:f1:fa:0f:ac:ff:c5:d5:01:97:ab:
                    54:fd:01:76:b4:15:bc:66:c0:f2:a4:0b:45:49:2d:
                    9f:56:81:95:86:62:11:8e:65:39:d7:42:6a:a8:9c:
                    57:d2:47:90:d2:32:fc:bc:ac:ce:99:70:ae:ec:24:
                    3b:b2:e6:b7:6b:60:be:27:59:d0:75:bf:b8:f4:ce:
                    23:94:56:79:64:32:a0:f1:20:1c:38:3d:1c:0c:ed:
                    af:86:ca:78:b9:84:e7:f1:ee:04:2a:81:1e:ad:d9:
                    58:c7:1e:63:3e:ce:3b:80:01:5f:42:06:d2:85:d9:
                    d5:8d:b6:0a:72:c5:9c:6d:2d:ee:88:57:ab:71:8c:
                    c7:4a:40:6a:cc:7a:1e:4f:4b:a4:3d:fa:cd:aa:31:
                    9b:4e:6e:be:6d:e0:7b:90:ba:88:f6:a3:c8:7d:a7:
                    d8:7c:84:e1:7e:a2:63:2d:28:5e:c7:af:d6:0d:a3:
                    ab:24:06:ec:97:22:f8:2f:78:1d:f6:36:49:10:c3:
                    d2:64:e3:e7:9a:f6:70:c5:19:ae:fc:fc:c7:0a:31:
                    0b:e5:23:78:50:b2:7b:7e:d8:43:8a:6d:a7:44:94:
                    e7:35
                Exponent: 65537 (0x10001)
        X509v3 extensions:
            X509v3 Subject Key Identifier: 
                62:47:32:0D:D2:47:B0:F5:FF:3A:B7:07:59:69:49:D9:71:CC:9A:33
            X509v3 Authority Key Identifier: 
                keyid:A4:66:E2:46:F7:3F:A1:73:9D:A2:E2:4E:29:99:DB:2E:36:36:6C:B5

            X509v3 CRL Distribution Points: 

                Full Name:
                  URI:http://url-for-crl/I.crl

            X509v3 Key Usage: critical
                Digital Signature, Key Encipherment
            X509v3 Extended Key Usage: 
                TLS Web Server Authentication, TLS Web Client Authentication
    Signature Algorithm: sha256WithRSAEncryption
         00:e7:9b:5f:56:c4:61:39:39:ae:a8:a2:f6:c7:c1:ca:d2:e7:
         db:4e:e1:9b:0f:ef:5c:11:88:49:9f:d7:85:69:54:86:3a:cc:
         40:f1:14:2a:4b:a3:75:d3:a5:8d:6d:9e:bf:8c:ce:8b:85:07:
         37:ef:05:5e:51:fe:28:55:db:75:ec:0e:30:c1:7e:7f:53:67:
         e1:87:ed:df:69:75:08:27:f9:33:58:af:96:84:ab:0b:10:0f:
         ff:3a:98:68:de:bf:9e:78:ef:92:12:40:bd:c3:a1:22:0e:ea:
         ca:3e:52:93:5e:5b:b6:67:61:ac:b9:dd:9f:2f:26:ca:e6:b6:
         d2:ad:a1:1a:7c:e3:c7:f6:3f:61:3d:7e:2b:35:e0:29:39:35:
         d1:82:69:a4:4e:09:77:ab:7c:16:7b:e6:56:2b:c4:17:87:25:
         57:59:ed:44:d1:99:23:26:1b:d0:79:67:ad:ae:cd:df:87:7a:
         5f:48:fe:2f:63:90:ca:da:56:90:32:3c:6c:fa:87:8b:d2:51:
         2f:2e:ce:c8:a9:19:a2:8f:f1:54:03:08:ad:85:a3:dd:b2:ac:
         e2:47:06:65:c0:47:ee:ff:f5:eb:9d:82:89:f1:03:71:d5:e1:
         e6:87:45:5e:f5:da:f2:21:53:78:62:9a:dc:cf:74:a8:9e:12:
         a9:ff:6c:00
-----BEGIN CERTIFICATE-----
MIIDNjCCAh6gAwIBAgIBAjANBgkqhkiG9w0BAQsFADAMMQowCAYDVQQDDAFJMB4X
DTE1MDEwMTEyMDAwMFoXDTE2MDEwMTEyMDAwMFowETEPMA0GA1UEAwwGdGFyZ2V0
MIIBIjANBgkqhkiG9w0BAQEFAAOCAQ8AMIIBCgKCAQEAyNJLEZOaV2SmNjPm3blP
sLqG5cx2tuwiTcQlJgo+C9gkH/H6D6z/xdUBl6tU/QF2tBW8ZsDypAtFSS2fVoGV
hmIRjmU510JqqJxX0keQ0jL8vKzOmXCu7CQ7sua3a2C+J1nQdb+49M4jlFZ5ZDKg
8SAcOD0cDO2vhsp4uYTn8e4EKoEerdlYxx5jPs47gAFfQgbShdnVjbYKcsWcbS3u
iFercYzHSkBqzHoeT0ukPfrNqjGbTm6+beB7kLqI9qPIfafYfIThfqJjLShex6/W
DaOrJAbslyL4L3gd9jZJEMPSZOPnmvZwxRmu/PzHCjEL5SN4ULJ7fthDim2nRJTn
NQIDAQABo4GdMIGaMB0GA1UdDgQWBBRiRzIN0kew9f86twdZaUnZccyaMzAfBgNV
HSMEGDAWgBSkZuJG9z+hc52i4k4pmdsuNjZstTApBgNVHR8EIjAgMB6gHKAahhho
dHRwOi8vdXJsLWZvci1jcmwvSS5jcmwwDgYDVR0PAQH/BAQDAgWgMB0GA1UdJQQW
MBQGCCsGAQUFBwMBBggrBgEFBQcDAjANBgkqhkiG9w0BAQsFAAOCAQEAAOebX1bE
YTk5rqii9sfBytLn207hmw/vXBGISZ/XhWlUhjrMQPEUKkujddOljW2ev4zOi4UH
N+8FXlH+KFXbdewOMMF+f1Nn4Yft32l1CCf5M1ivloSrCxAP/zqYaN6/nnjvkhJA
vcOhIg7qyj5Sk15btmdhrLndny8myua20q2hGnzjx/Y/YT1+KzXgKTk10YJppE4J
d6t8FnvmVivEF4clV1ntRNGZIyYb0Hlnra7N34d6X0j+L2OQytpWkDI8bPqHi9JR
Ly7OyKkZoo/xVAMIrYWj3bKs4kcGZcBH7v/1652CifEDcdXh5odFXvXa8iFTeGKa
3M90qJ4Sqf9sAA==
-----END CERTIFICATE-----
