Certificate:
    Data:
        Version: 3 (0x2)
        Serial Number: 2 (0x2)
    Signature Algorithm: sha256WithRSAEncryption
        Issuer: CN=I
        Validity
            Not Before: Jan  1 12:00:00 2015 GMT
            Not After : Jan  1 12:00:00 2021 GMT
        Subject: CN=target
        Subject Public Key Info:
            Public Key Algorithm: rsaEncryption
                Public-Key: (2048 bit)
                Modulus:
                    00:b3:43:32:88:c1:3b:65:14:01:c1:e3:e7:52:74:
                    40:83:65:0d:97:4a:0a:64:60:86:72:b8:89:99:da:
                    f9:ab:21:74:ce:f8:89:f7:34:d8:4c:51:34:3d:56:
                    1a:a2:fb:90:55:5a:62:e3:ab:16:3b:a8:8f:cd:f7:
                    43:5a:e9:f0:1c:d5:38:a6:f7:e0:26:11:d7:bb:01:
                    74:88:a6:e2:86:57:a0:78:ac:d4:1e:01:c6:4b:08:
                    f7:d3:02:6f:fa:3d:7b:6f:ca:7b:1d:ae:44:59:e2:
                    86:4a:34:5b:e2:18:c9:fd:f9:a4:39:4e:e0:2a:41:
                    4e:86:f3:d5:9b:0c:00:a7:b5:81:92:e2:44:56:9d:
                    02:66:e6:50:02:02:44:b4:5f:02:ac:ae:50:12:75:
                    7e:62:7e:b7:44:17:e1:e2:43:f7:1a:03:31:84:86:
                    8a:63:4f:76:73:49:92:ab:8e:61:78:4c:a2:c5:53:
                    a7:c4:c1:91:20:08:45:fd:4d:97:1f:65:20:d4:e5:
                    e8:db:67:2c:7b:aa:dd:98:de:d8:3b:0e:af:09:52:
                    17:af:d8:21:67:08:1d:df:ad:41:f1:62:f2:6e:8e:
                    f7:0b:80:a8:d4:29:7b:5f:87:e0:a1:96:e3:60:98:
                    5f:c1:63:b8:eb:01:9d:b7:51:30:01:bd:1b:a7:7e:
                    be:ad
                Exponent: 65537 (0x10001)
        X509v3 extensions:
            X509v3 Subject Key Identifier: 
                B7:FF:6C:44:69:C6:FE:C3:8B:69:5F:60:FB:BC:5D:76:FE:50:D3:1A
            X509v3 Authority Key Identifier: 
                keyid:40:91:28:21:9D:93:F3:9C:18:1B:FF:00:9C:B2:08:A0:A3:81:7D:2A

            X509v3 CRL Distribution Points: 

                Full Name:
                  URI:http://url-for-crl/I.crl

            X509v3 Key Usage: critical
                Digital Signature, Key Encipherment
            X509v3 Extended Key Usage: 
                TLS Web Server Authentication, TLS Web Client Authentication
    Signature Algorithm: sha256WithRSAEncryption
         76:cf:2a:df:5e:f3:e8:b2:b2:13:c6:59:a2:98:4e:46:42:48:
         9a:a4:5e:d1:3a:c9:5b:4d:4f:69:74:ca:26:af:43:79:52:5c:
         7d:13:7f:ba:1e:0c:1a:47:6d:72:89:8c:5b:2d:11:de:3f:df:
         20:3d:32:94:9a:34:87:b6:e1:93:ae:73:98:31:c7:40:b4:ad:
         95:97:e5:2a:f8:17:c2:2e:a3:ac:7c:d6:a6:db:66:1c:1f:85:
         ae:7b:e8:cd:d4:95:27:16:80:b0:d8:4c:e9:02:40:61:89:7f:
         58:40:7e:0d:74:cc:f3:d4:98:f9:eb:18:b9:12:78:17:22:f0:
         13:aa:0f:1b:c4:12:fc:77:9d:ef:cb:12:e5:99:aa:03:76:ff:
         41:07:20:3c:3f:5f:cb:de:a4:9c:6f:a0:eb:83:84:d2:32:1b:
         c9:ee:e8:30:9b:a9:d9:2d:57:72:e0:a1:b1:f2:94:82:fe:8f:
         05:6d:52:c4:17:96:14:79:be:22:85:27:78:6e:25:fb:56:3c:
         34:d5:8b:a5:e5:f8:2d:31:6a:d5:fc:7c:e6:9d:8b:fc:d8:42:
         24:c3:b7:67:99:8a:46:fb:f0:a3:74:fd:eb:71:94:a4:31:b3:
         94:b1:90:c4:42:04:32:56:0c:c6:70:b0:bd:22:ce:1f:95:f1:
         25:80:ac:8e
-----BEGIN CERTIFICATE-----
MIIDNjCCAh6gAwIBAgIBAjANBgkqhkiG9w0BAQsFADAMMQowCAYDVQQDDAFJMB4X
DTE1MDEwMTEyMDAwMFoXDTIxMDEwMTEyMDAwMFowETEPMA0GA1UEAwwGdGFyZ2V0
MIIBIjANBgkqhkiG9w0BAQEFAAOCAQ8AMIIBCgKCAQEAs0MyiME7ZRQBwePnUnRA
g2UNl0oKZGCGcriJmdr5qyF0zviJ9zTYTFE0PVYaovuQVVpi46sWO6iPzfdDWunw
HNU4pvfgJhHXuwF0iKbihlegeKzUHgHGSwj30wJv+j17b8p7Ha5EWeKGSjRb4hjJ
/fmkOU7gKkFOhvPVmwwAp7WBkuJEVp0CZuZQAgJEtF8CrK5QEnV+Yn63RBfh4kP3
GgMxhIaKY092c0mSq45heEyixVOnxMGRIAhF/U2XH2Ug1OXo22cse6rdmN7YOw6v
CVIXr9ghZwgd361B8WLybo73C4Co1Cl7X4fgoZbjYJhfwWO46wGdt1EwAb0bp36+
rQIDAQABo4GdMIGaMB0GA1UdDgQWBBS3/2xEacb+w4tpX2D7vF12/lDTGjAfBgNV
HSMEGDAWgBRAkSghnZPznBgb/wCcsgigo4F9KjApBgNVHR8EIjAgMB6gHKAahhho
dHRwOi8vdXJsLWZvci1jcmwvSS5jcmwwDgYDVR0PAQH/BAQDAgWgMB0GA1UdJQQW
MBQGCCsGAQUFBwMBBggrBgEFBQcDAjANBgkqhkiG9w0BAQsFAAOCAQEAds8q317z
6LKyE8ZZophORkJImqRe0TrJW01PaXTKJq9DeVJcfRN/uh4MGkdtcomMWy0R3j/f
ID0ylJo0h7bhk65zmDHHQLStlZflKvgXwi6jrHzWpttmHB+FrnvozdSVJxaAsNhM
6QJAYYl/WEB+DXTM89SY+esYuRJ4FyLwE6oPG8QS/Hed78sS5ZmqA3b/QQcgPD9f
y96knG+g64OE0jIbye7oMJup2S1XcuChsfKUgv6PBW1SxBeWFHm+IoUneG4l+1Y8
NNWLpeX4LTFq1fx85p2L/NhCJMO3Z5mKRvvwo3T963GUpDGzlLGQxEIEMlYMxnCw
vSLOH5XxJYCsjg==
-----END CERTIFICATE-----
