Certificate:
    Data:
        Version: 3 (0x2)
        Serial Number: 4 (0x4)
    Signature Algorithm: sha256WithRSAEncryption
        Issuer: CN=I
        Validity
            Not Before: Jan  1 12:00:00 2015 GMT
            Not After : Jan  1 12:00:00 2021 GMT
        Subject: CN=target
        Subject Public Key Info:
            Public Key Algorithm: rsaEncryption
                Public-Key: (2048 bit)
                Modulus:
                    00:ce:0f:06:90:e0:8b:9f:3b:85:b8:f4:fc:73:6c:
                    5c:8a:8d:b9:1d:cf:03:37:36:ec:c6:da:e6:c3:7b:
                    ff:59:8b:3b:c7:ef:9d:e4:6f:52:08:c9:89:cb:f6:
                    a1:98:70:c5:72:a0:49:a8:92:7b:a4:fe:7f:4e:e7:
                    04:dd:14:5c:64:ed:bd:6e:e0:6b:8a:dd:ff:ac:37:
                    ba:6d:24:44:0b:0a:51:34:ae:51:a2:3c:50:90:e5:
                    8e:26:22:f0:93:c0:ae:65:de:a4:cb:58:50:4c:01:
                    ee:eb:64:d0:31:5c:7c:3a:d5:74:d5:59:b7:5d:bb:
                    7a:bf:93:46:a8:fd:66:ad:81:5d:af:69:2c:f3:42:
                    d4:7b:76:9c:12:8b:90:c8:52:38:d8:d5:74:b7:65:
                    c2:ae:cf:d4:78:78:19:e6:ce:2c:dc:2b:c5:2f:96:
                    a4:72:18:21:86:2e:77:65:10:a8:47:8b:e0:2a:01:
                    e4:d2:62:df:61:71:06:04:e3:1e:76:3f:55:a1:79:
                    d6:11:ed:24:79:3b:f3:13:08:99:d8:88:4f:25:39:
                    d9:1b:d1:2a:e7:93:a4:ba:01:eb:f1:fc:a4:c8:c3:
                    8b:d9:91:2d:64:48:5c:9a:1e:d1:35:f9:a0:67:7d:
                    21:8a:1a:a0:58:75:a4:31:17:73:1a:c0:e3:1c:a5:
                    b3:19
                Exponent: 65537 (0x10001)
        X509v3 extensions:
            X509v3 Subject Key Identifier: 
                1B:54:9F:9B:A8:BB:5F:37:19:D9:66:AE:B3:0A:65:58:04:81:29:8D
            X509v3 Authority Key Identifier: 
                keyid:40:91:28:21:9D:93:F3:9C:18:1B:FF:00:9C:B2:08:A0:A3:81:7D:2A

            Authority Information Access: 
                CA Issuers - URI:http://url-for-aia/I.cer
                CA Issuers - URI:http://url-for-aia2/I2.foo
                CA Issuers - URI:http://url-for-aia3/I3.foo

            X509v3 CRL Distribution Points: 

                Full Name:
                  URI:http://url-for-crl/I.crl

            X509v3 Key Usage: critical
                Digital Signature, Key Encipherment
            X509v3 Extended Key Usage: 
                TLS Web Server Authentication, TLS Web Client Authentication
    Signature Algorithm: sha256WithRSAEncryption
         01:98:3b:ee:4c:4e:91:e7:97:bf:1d:18:2b:bd:f4:a5:ba:75:
         fd:f1:9f:73:0e:25:dc:4d:7b:e8:69:0a:22:55:4f:96:30:64:
         e5:05:73:ef:ef:ef:5a:50:48:50:a8:e5:e5:c6:a3:3b:0e:e8:
         48:b7:6f:0d:d4:ae:5e:2a:15:e5:86:45:02:83:f8:1a:b0:2d:
         0f:19:df:ed:dd:5d:fb:e4:31:b7:18:5e:de:8a:62:cd:53:77:
         b0:cf:1c:a0:9a:fc:20:94:6f:37:2a:3b:af:36:65:e1:98:c4:
         e1:f6:b4:fc:d7:08:c5:6d:90:ba:67:2c:06:ff:1c:62:af:99:
         f2:f6:40:41:30:6c:4a:66:fb:ae:5f:2b:0e:33:f4:9a:34:62:
         4d:ca:a1:b9:da:f9:14:7a:ff:87:c7:89:d5:c0:da:1d:6d:5e:
         7f:81:84:77:53:cb:24:d9:dc:25:51:51:7a:85:c3:9c:22:9f:
         b9:4f:17:cf:80:b7:21:7c:6d:6d:15:dd:11:23:66:f7:58:77:
         32:c3:88:2b:6c:e3:db:d7:c8:cb:a8:52:02:f6:85:3f:00:22:
         5e:33:3f:d6:5b:fc:7d:41:3c:de:0d:6e:c4:83:a8:32:e5:29:
         40:d7:c4:0f:50:22:9f:5b:55:d8:4f:0c:93:08:cb:c5:b7:fc:
         b0:f1:24:14
-----BEGIN CERTIFICATE-----
MIIDvzCCAqegAwIBAgIBBDANBgkqhkiG9w0BAQsFADAMMQowCAYDVQQDDAFJMB4X
DTE1MDEwMTEyMDAwMFoXDTIxMDEwMTEyMDAwMFowETEPMA0GA1UEAwwGdGFyZ2V0
MIIBIjANBgkqhkiG9w0BAQEFAAOCAQ8AMIIBCgKCAQEAzg8GkOCLnzuFuPT8c2xc
io25Hc8DNzbsxtrmw3v/WYs7x++d5G9SCMmJy/ahmHDFcqBJqJJ7pP5/TucE3RRc
ZO29buBrit3/rDe6bSRECwpRNK5RojxQkOWOJiLwk8CuZd6ky1hQTAHu62TQMVx8
OtV01Vm3Xbt6v5NGqP1mrYFdr2ks80LUe3acEouQyFI42NV0t2XCrs/UeHgZ5s4s
3CvFL5akchghhi53ZRCoR4vgKgHk0mLfYXEGBOMedj9VoXnWEe0keTvzEwiZ2IhP
JTnZG9Eq55OkugHr8fykyMOL2ZEtZEhcmh7RNfmgZ30hihqgWHWkMRdzGsDjHKWz
GQIDAQABo4IBJTCCASEwHQYDVR0OBBYEFBtUn5uou183GdlmrrMKZVgEgSmNMB8G
A1UdIwQYMBaAFECRKCGdk/OcGBv/AJyyCKCjgX0qMIGEBggrBgEFBQcBAQR4MHYw
JAYIKwYBBQUHMAKGGGh0dHA6Ly91cmwtZm9yLWFpYS9JLmNlcjAmBggrBgEFBQcw
AoYaaHR0cDovL3VybC1mb3ItYWlhMi9JMi5mb28wJgYIKwYBBQUHMAKGGmh0dHA6
Ly91cmwtZm9yLWFpYTMvSTMuZm9vMCkGA1UdHwQiMCAwHqAcoBqGGGh0dHA6Ly91
cmwtZm9yLWNybC9JLmNybDAOBgNVHQ8BAf8EBAMCBaAwHQYDVR0lBBYwFAYIKwYB
BQUHAwEGCCsGAQUFBwMCMA0GCSqGSIb3DQEBCwUAA4IBAQABmDvuTE6R55e/HRgr
vfSlunX98Z9zDiXcTXvoaQoiVU+WMGTlBXPv7+9aUEhQqOXlxqM7DuhIt28N1K5e
KhXlhkUCg/gasC0PGd/t3V375DG3GF7eimLNU3ewzxygmvwglG83KjuvNmXhmMTh
9rT81wjFbZC6ZywG/xxir5ny9kBBMGxKZvuuXysOM/SaNGJNyqG52vkUev+Hx4nV
wNodbV5/gYR3U8sk2dwlUVF6hcOcIp+5TxfPgLchfG1tFd0RI2b3WHcyw4grbOPb
18jLqFIC9oU/ACJeMz/WW/x9QTzeDW7Eg6gy5SlA18QPUCKfW1XYTwyTCMvFt/yw
8SQU
-----END CERTIFICATE-----
