Certificate:
    Data:
        Version: 3 (0x2)
        Serial Number: 8 (0x8)
    Signature Algorithm: sha256WithRSAEncryption
        Issuer: CN=I
        Validity
            Not Before: Jan  1 12:00:00 2015 GMT
            Not After : Jan  1 12:00:00 2016 GMT
        Subject: CN=target
        Subject Public Key Info:
            Public Key Algorithm: rsaEncryption
                Public-Key: (2048 bit)
                Modulus:
                    00:b8:a6:54:ad:e4:b3:01:6f:af:23:15:bc:3c:aa:
                    51:59:1e:7e:65:23:a3:06:a7:4d:76:65:61:6c:c8:
                    4c:6e:40:d8:92:40:2a:ed:09:cd:4d:fc:b4:ee:88:
                    68:16:66:15:bc:96:6f:65:40:02:3c:76:7c:87:f1:
                    93:f6:fa:92:90:7d:83:8a:81:73:01:95:e5:b6:3c:
                    34:08:e9:3e:29:0f:61:db:79:b0:c5:b0:3d:ef:ba:
                    fc:7f:9d:a1:db:ef:bc:5c:5f:67:94:03:2e:e0:f6:
                    87:d1:6d:77:49:b0:f0:ed:6c:bd:75:c6:31:85:6e:
                    d4:09:81:93:10:81:82:3f:32:04:ad:b9:02:20:ec:
                    1f:28:49:83:47:8a:c2:f1:3b:f4:de:52:e4:da:5f:
                    8c:8e:69:50:fb:bd:21:cb:b2:55:69:98:a1:ec:2e:
                    27:3e:25:95:aa:0d:0e:d7:01:28:d8:00:b8:1f:d2:
                    85:9b:71:f6:c5:70:78:2d:c6:a4:c2:39:56:39:0a:
                    ac:89:17:6a:8d:47:a4:e4:6a:e9:84:68:14:22:4c:
                    6e:e7:87:59:7f:40:52:c7:20:46:b0:21:bd:42:a0:
                    f0:a5:78:b9:6f:fd:5f:6e:2f:50:61:9c:88:a6:54:
                    69:da:fe:86:ab:7b:29:34:56:8d:d1:6d:82:33:f1:
                    87:e3
                Exponent: 65537 (0x10001)
        X509v3 extensions:
            X509v3 Subject Key Identifier: 
                B6:F3:8F:73:17:0E:1C:CC:AB:23:8A:20:23:9F:27:84:1A:D9:D2:74
            X509v3 Authority Key Identifier: 
                keyid:A4:66:E2:46:F7:3F:A1:73:9D:A2:E2:4E:29:99:DB:2E:36:36:6C:B5

            Authority Information Access: 
                CA Issuers - URI:file:///dev/null
                CA Issuers - URI:http://url-for-aia2/I2.foo

            X509v3 CRL Distribution Points: 

                Full Name:
                  URI:http://url-for-crl/I.crl

            X509v3 Key Usage: critical
                Digital Signature, Key Encipherment
            X509v3 Extended Key Usage: 
                TLS Web Server Authentication, TLS Web Client Authentication
    Signature Algorithm: sha256WithRSAEncryption
         65:53:d0:30:a2:fe:7a:a1:9f:8b:56:d6:e8:0f:75:a1:5f:e1:
         b1:e3:4c:11:9c:cc:30:a9:a9:65:cc:fa:9c:d3:c8:0a:0f:c7:
         4e:58:3a:8a:ce:86:65:70:81:64:2e:ff:ea:e1:f2:77:73:bb:
         59:64:eb:22:ee:a1:91:05:ad:09:f2:55:69:ef:27:1c:3c:79:
         36:9c:f5:ae:b0:73:c6:25:2b:3d:c5:0c:a8:66:44:1e:55:a4:
         5f:ff:e6:fc:74:3f:18:ac:cf:1a:8e:49:91:73:e8:43:e4:33:
         96:91:78:f5:5f:02:36:98:26:28:8a:8b:6a:33:ed:ec:b3:f3:
         3d:29:d5:a5:9f:d3:e5:cb:09:d9:65:da:78:10:99:dc:3b:4b:
         48:7f:c2:8a:14:06:2d:b0:50:d3:45:ba:8c:0c:ee:d9:44:5f:
         fa:9d:44:00:b9:78:e6:70:76:58:98:d5:e3:81:47:3b:c3:b3:
         17:ef:3e:c8:14:e9:2a:4b:41:17:28:1e:7a:19:aa:8c:79:48:
         89:b8:7f:e2:f2:7c:aa:dc:70:ed:e0:1c:61:18:58:8a:a0:a7:
         86:18:36:11:8b:17:bf:59:eb:03:6c:32:e0:05:01:b7:44:9f:
         b7:2d:fc:7d:5c:93:86:ec:b8:30:fd:be:6e:29:a2:08:2a:cd:
         88:29:20:8e
-----BEGIN CERTIFICATE-----
MIIDjDCCAnSgAwIBAgIBCDANBgkqhkiG9w0BAQsFADAMMQowCAYDVQQDDAFJMB4X
DTE1MDEwMTEyMDAwMFoXDTE2MDEwMTEyMDAwMFowETEPMA0GA1UEAwwGdGFyZ2V0
MIIBIjANBgkqhkiG9w0BAQEFAAOCAQ8AMIIBCgKCAQEAuKZUreSzAW+vIxW8PKpR
WR5+ZSOjBqdNdmVhbMhMbkDYkkAq7QnNTfy07ohoFmYVvJZvZUACPHZ8h/GT9vqS
kH2DioFzAZXltjw0COk+KQ9h23mwxbA977r8f52h2++8XF9nlAMu4PaH0W13SbDw
7Wy9dcYxhW7UCYGTEIGCPzIErbkCIOwfKEmDR4rC8Tv03lLk2l+MjmlQ+70hy7JV
aZih7C4nPiWVqg0O1wEo2AC4H9KFm3H2xXB4LcakwjlWOQqsiRdqjUek5GrphGgU
Ikxu54dZf0BSxyBGsCG9QqDwpXi5b/1fbi9QYZyIplRp2v6Gq3spNFaN0W2CM/GH
4wIDAQABo4HzMIHwMB0GA1UdDgQWBBS2849zFw4czKsjiiAjnyeEGtnSdDAfBgNV
HSMEGDAWgBSkZuJG9z+hc52i4k4pmdsuNjZstTBUBggrBgEFBQcBAQRIMEYwHAYI
KwYBBQUHMAKGEGZpbGU6Ly8vZGV2L251bGwwJgYIKwYBBQUHMAKGGmh0dHA6Ly91
cmwtZm9yLWFpYTIvSTIuZm9vMCkGA1UdHwQiMCAwHqAcoBqGGGh0dHA6Ly91cmwt
Zm9yLWNybC9JLmNybDAOBgNVHQ8BAf8EBAMCBaAwHQYDVR0lBBYwFAYIKwYBBQUH
AwEGCCsGAQUFBwMCMA0GCSqGSIb3DQEBCwUAA4IBAQBlU9Awov56oZ+LVtboD3Wh
X+Gx40wRnMwwqallzPqc08gKD8dOWDqKzoZlcIFkLv/q4fJ3c7tZZOsi7qGRBa0J
8lVp7yccPHk2nPWusHPGJSs9xQyoZkQeVaRf/+b8dD8YrM8ajkmRc+hD5DOWkXj1
XwI2mCYoiotqM+3ss/M9KdWln9PlywnZZdp4EJncO0tIf8KKFAYtsFDTRbqMDO7Z
RF/6nUQAuXjmcHZYmNXjgUc7w7MX7z7IFOkqS0EXKB56GaqMeUiJuH/i8nyq3HDt
4BxhGFiKoKeGGDYRixe/WesDbDLgBQG3RJ+3Lfx9XJOG7Lgw/b5uKaIIKs2IKSCO
-----END CERTIFICATE-----
