Certificate:
    Data:
        Version: 3 (0x2)
        Serial Number: 9 (0x9)
    Signature Algorithm: sha256WithRSAEncryption
        Issuer: CN=I
        Validity
            Not Before: Jan  1 12:00:00 2015 GMT
            Not After : Jan  1 12:00:00 2016 GMT
        Subject: CN=target
        Subject Public Key Info:
            Public Key Algorithm: rsaEncryption
                Public-Key: (2048 bit)
                Modulus:
                    00:b4:31:1e:0c:43:8e:90:3e:2c:0e:a0:71:58:70:
                    aa:3a:92:51:14:b6:3f:b3:43:2c:3d:0a:74:0c:30:
                    48:34:76:90:57:e4:80:f2:8d:ec:5d:02:95:94:9e:
                    5d:04:49:28:49:d9:6e:81:47:57:69:be:b3:4a:5e:
                    f5:65:2f:f1:66:a5:8f:63:98:ee:3b:97:09:7f:d9:
                    65:57:00:80:55:f1:ae:42:af:a7:56:3a:b4:5b:b5:
                    85:55:8d:40:d3:f7:7b:c8:fd:45:af:f4:95:9a:f2:
                    72:18:89:2c:90:4d:3c:73:c2:eb:91:d0:d5:75:ec:
                    fd:80:89:c3:12:a5:99:3b:d0:00:0b:a3:c4:2a:2c:
                    62:a0:8b:97:4f:51:2f:83:07:57:f4:8f:50:a1:62:
                    4d:2e:69:cd:25:5a:16:30:10:de:a8:0b:3b:7b:58:
                    64:33:08:ff:4d:e2:06:1a:03:bd:f4:02:90:d2:ed:
                    05:0b:b5:4a:36:d1:d1:f0:f5:44:0d:16:a2:3c:ca:
                    20:0b:36:c9:0e:70:9e:bc:d8:11:d4:fe:2b:49:71:
                    91:6d:c8:83:6d:45:75:e7:e1:63:53:7d:74:a6:34:
                    18:d4:66:77:c9:04:79:09:08:46:f4:b1:21:f5:19:
                    92:53:7b:74:1b:84:83:01:6f:1e:ac:9d:09:1e:9b:
                    2f:9d
                Exponent: 65537 (0x10001)
        X509v3 extensions:
            X509v3 Subject Key Identifier: 
                A7:11:A2:44:B9:CC:AA:AD:09:63:9D:D6:9D:E1:76:32:A9:F4:A5:7B
            X509v3 Authority Key Identifier: 
                keyid:A4:66:E2:46:F7:3F:A1:73:9D:A2:E2:4E:29:99:DB:2E:36:36:6C:B5

            Authority Information Access: 
                CA Issuers - URI:foobar
                CA Issuers - URI:http://url-for-aia2/I2.foo

            X509v3 CRL Distribution Points: 

                Full Name:
                  URI:http://url-for-crl/I.crl

            X509v3 Key Usage: critical
                Digital Signature, Key Encipherment
            X509v3 Extended Key Usage: 
                TLS Web Server Authentication, TLS Web Client Authentication
    Signature Algorithm: sha256WithRSAEncryption
         56:74:27:6f:5f:7b:a4:b5:c4:62:98:ae:70:4e:a9:92:44:fd:
         78:17:54:d0:ed:02:62:ad:cd:7a:28:09:56:16:9f:42:10:e2:
         9b:d4:d5:3b:8d:f6:97:a5:2a:c3:42:54:14:31:e9:7a:a8:23:
         00:69:41:6b:9d:c3:af:e4:fb:ad:6c:a4:ff:51:0b:c5:de:ae:
         69:9b:d9:fd:79:50:59:8e:5f:1e:b4:e8:35:c3:de:f1:c5:6e:
         2f:19:98:b5:b9:31:ac:b2:f5:ef:9c:9f:11:c9:82:5d:73:36:
         f5:74:d1:af:b4:8d:a2:c3:e1:bb:90:4c:f8:dc:fe:68:2f:ec:
         ef:c4:b2:4c:7b:24:1d:b5:58:1f:e4:c0:70:a6:68:f8:a3:a9:
         4a:2c:95:35:09:2b:23:c2:4d:29:09:cc:f3:85:1f:fc:77:76:
         eb:f4:d0:0a:6a:cb:df:aa:e1:79:6d:53:8b:0b:9a:03:99:9a:
         27:84:6d:25:bf:68:b2:25:0b:ca:bd:a1:01:83:45:0b:2d:3a:
         2f:08:07:01:85:29:10:de:e0:82:68:30:20:78:79:a2:7e:fc:
         f0:5e:f2:f5:91:b4:55:2a:8d:89:3e:62:6f:ee:12:47:16:0b:
         41:e3:2d:42:e1:9f:09:10:7c:9f:62:99:b1:67:66:ce:a8:06:
         5a:fd:05:d3
-----BEGIN CERTIFICATE-----
MIIDgjCCAmqgAwIBAgIBCTANBgkqhkiG9w0BAQsFADAMMQowCAYDVQQDDAFJMB4X
DTE1MDEwMTEyMDAwMFoXDTE2MDEwMTEyMDAwMFowETEPMA0GA1UEAwwGdGFyZ2V0
MIIBIjANBgkqhkiG9w0BAQEFAAOCAQ8AMIIBCgKCAQEAtDEeDEOOkD4sDqBxWHCq
OpJRFLY/s0MsPQp0DDBINHaQV+SA8o3sXQKVlJ5dBEkoSdlugUdXab6zSl71ZS/x
ZqWPY5juO5cJf9llVwCAVfGuQq+nVjq0W7WFVY1A0/d7yP1Fr/SVmvJyGIkskE08
c8LrkdDVdez9gInDEqWZO9AAC6PEKixioIuXT1EvgwdX9I9QoWJNLmnNJVoWMBDe
qAs7e1hkMwj/TeIGGgO99AKQ0u0FC7VKNtHR8PVEDRaiPMogCzbJDnCevNgR1P4r
SXGRbciDbUV15+FjU310pjQY1GZ3yQR5CQhG9LEh9RmSU3t0G4SDAW8erJ0JHpsv
nQIDAQABo4HpMIHmMB0GA1UdDgQWBBSnEaJEucyqrQljndad4XYyqfSlezAfBgNV
HSMEGDAWgBSkZuJG9z+hc52i4k4pmdsuNjZstTBKBggrBgEFBQcBAQQ+MDwwEgYI
KwYBBQUHMAKGBmZvb2JhcjAmBggrBgEFBQcwAoYaaHR0cDovL3VybC1mb3ItYWlh
Mi9JMi5mb28wKQYDVR0fBCIwIDAeoBygGoYYaHR0cDovL3VybC1mb3ItY3JsL0ku
Y3JsMA4GA1UdDwEB/wQEAwIFoDAdBgNVHSUEFjAUBggrBgEFBQcDAQYIKwYBBQUH
AwIwDQYJKoZIhvcNAQELBQADggEBAFZ0J29fe6S1xGKYrnBOqZJE/XgXVNDtAmKt
zXooCVYWn0IQ4pvU1TuN9pelKsNCVBQx6XqoIwBpQWudw6/k+61spP9RC8Xermmb
2f15UFmOXx606DXD3vHFbi8ZmLW5Mayy9e+cnxHJgl1zNvV00a+0jaLD4buQTPjc
/mgv7O/Eskx7JB21WB/kwHCmaPijqUoslTUJKyPCTSkJzPOFH/x3duv00Apqy9+q
4XltU4sLmgOZmieEbSW/aLIlC8q9oQGDRQstOi8IBwGFKRDe4IJoMCB4eaJ+/PBe
8vWRtFUqjYk+Ym/uEkcWC0HjLULhnwkQfJ9imbFnZs6oBlr9BdM=
-----END CERTIFICATE-----
