Certificate:
    Data:
        Version: 3 (0x2)
        Serial Number: 7 (0x7)
    Signature Algorithm: sha256WithRSAEncryption
        Issuer: CN=I
        Validity
            Not Before: Jan  1 12:00:00 2015 GMT
            Not After : Jan  1 12:00:00 2021 GMT
        Subject: CN=target
        Subject Public Key Info:
            Public Key Algorithm: rsaEncryption
                Public-Key: (2048 bit)
                Modulus:
                    00:d8:3c:a7:4c:90:77:93:ce:72:3b:a5:61:af:f1:
                    fd:2f:72:2e:3f:37:2c:7d:94:45:c7:c9:7e:b4:26:
                    65:2b:d3:42:fb:89:bb:b0:a1:68:e8:4f:4d:c3:dd:
                    b8:3c:ad:ec:0d:1b:f9:e9:ba:99:f5:74:26:11:2e:
                    62:e1:e9:4a:d9:07:e3:82:dc:44:66:53:83:bd:aa:
                    08:4c:9c:14:fa:3f:80:ba:b0:10:48:2d:59:73:cb:
                    22:65:42:1c:68:c4:9d:fb:94:75:5f:84:11:61:7c:
                    10:08:a8:48:04:99:75:8a:d2:5e:89:16:0c:04:62:
                    e2:ae:23:7c:b1:cb:ce:f8:eb:a5:a4:32:66:83:0d:
                    9e:a7:7c:40:5f:41:c9:e6:63:d0:a6:8b:94:4b:aa:
                    25:38:db:46:d9:16:14:dd:a0:29:16:99:a8:f4:0a:
                    87:58:71:3d:b4:a7:e3:d1:10:0e:96:b2:70:fb:59:
                    09:22:e8:19:9f:c2:1d:11:c6:26:dc:1c:3d:4d:52:
                    13:c8:3e:38:c8:7e:90:0f:9b:d0:60:03:6b:19:f6:
                    71:6a:22:a1:1f:00:c5:63:19:36:a3:db:da:6c:b2:
                    b8:fe:a9:1c:37:19:00:ce:03:60:58:6e:da:cd:31:
                    7e:ee:69:06:12:36:c4:11:66:53:a2:14:9b:75:af:
                    eb:2f
                Exponent: 65537 (0x10001)
        X509v3 extensions:
            X509v3 Subject Key Identifier: 
                43:35:C7:A5:6B:23:40:8A:30:33:E2:B1:4E:51:18:C8:EC:3A:79:F3
            X509v3 Authority Key Identifier: 
                keyid:84:BA:05:06:4E:33:9D:11:AA:7A:F1:77:1F:A4:69:7E:4C:2D:D4:3F

            Authority Information Access: 
                CA Issuers - URI:foobar

            X509v3 CRL Distribution Points: 

                Full Name:
                  URI:http://url-for-crl/I.crl

            X509v3 Key Usage: critical
                Digital Signature, Key Encipherment
            X509v3 Extended Key Usage: 
                TLS Web Server Authentication, TLS Web Client Authentication
            X509v3 Subject Alternative Name: 
                DNS:target
    Signature Algorithm: sha256WithRSAEncryption
         1b:31:59:4e:06:a8:af:82:35:d2:5f:30:33:ed:8c:58:79:ef:
         80:fd:b4:e8:ac:45:2a:ed:b8:cf:a7:37:7e:c7:f6:d3:ea:8d:
         f1:eb:38:87:16:5e:d8:62:0b:56:a1:37:74:18:c3:85:bd:79:
         c6:9c:06:57:4a:60:3a:d3:17:db:60:4b:f2:19:ff:54:38:04:
         7a:2b:f1:b6:f7:47:d1:71:51:22:cf:de:b2:14:9b:e4:66:f2:
         cf:be:98:10:77:1d:8e:f5:7b:51:fe:ca:33:0d:8d:24:d4:be:
         8f:96:3d:67:0e:ad:b0:3c:28:13:58:05:fd:23:9c:0f:fe:1b:
         d6:8a:42:e6:c7:ad:c5:66:ca:4a:16:6e:d3:3c:4c:f5:a6:76:
         7e:68:51:38:af:1c:75:9c:ac:f1:14:5e:11:47:b0:ea:e8:8c:
         00:2d:00:7e:be:e8:30:e1:16:47:3e:93:6b:e5:30:19:2e:98:
         56:d0:7f:0f:48:6f:82:59:e5:38:e5:96:15:36:75:94:a1:e8:
         ce:22:91:0f:32:f1:6c:a2:ed:c4:72:14:51:90:3d:3b:73:cd:
         12:02:1d:a0:b3:fe:14:e5:ac:b5:b1:3c:18:99:5d:de:2e:fc:
         3c:e4:9a:1f:ff:65:96:6b:48:2b:dd:d8:c2:d7:a8:5c:85:91:
         f8:1f:22:a4
-----BEGIN CERTIFICATE-----
MIIDbTCCAlWgAwIBAgIBBzANBgkqhkiG9w0BAQsFADAMMQowCAYDVQQDDAFJMB4X
DTE1MDEwMTEyMDAwMFoXDTIxMDEwMTEyMDAwMFowETEPMA0GA1UEAwwGdGFyZ2V0
MIIBIjANBgkqhkiG9w0BAQEFAAOCAQ8AMIIBCgKCAQEA2DynTJB3k85yO6Vhr/H9
L3IuPzcsfZRFx8l+tCZlK9NC+4m7sKFo6E9Nw924PK3sDRv56bqZ9XQmES5i4elK
2QfjgtxEZlODvaoITJwU+j+AurAQSC1Zc8siZUIcaMSd+5R1X4QRYXwQCKhIBJl1
itJeiRYMBGLiriN8scvO+OulpDJmgw2ep3xAX0HJ5mPQpouUS6olONtG2RYU3aAp
Fpmo9AqHWHE9tKfj0RAOlrJw+1kJIugZn8IdEcYm3Bw9TVITyD44yH6QD5vQYANr
GfZxaiKhHwDFYxk2o9vabLK4/qkcNxkAzgNgWG7azTF+7mkGEjbEEWZTohSbda/r
LwIDAQABo4HUMIHRMB0GA1UdDgQWBBRDNcelayNAijAz4rFOURjI7Dp58zAfBgNV
HSMEGDAWgBSEugUGTjOdEap68XcfpGl+TC3UPzAiBggrBgEFBQcBAQQWMBQwEgYI
KwYBBQUHMAKGBmZvb2JhcjApBgNVHR8EIjAgMB6gHKAahhhodHRwOi8vdXJsLWZv
ci1jcmwvSS5jcmwwDgYDVR0PAQH/BAQDAgWgMB0GA1UdJQQWMBQGCCsGAQUFBwMB
BggrBgEFBQcDAjARBgNVHREECjAIggZ0YXJnZXQwDQYJKoZIhvcNAQELBQADggEB
ABsxWU4GqK+CNdJfMDPtjFh574D9tOisRSrtuM+nN37H9tPqjfHrOIcWXthiC1ah
N3QYw4W9ecacBldKYDrTF9tgS/IZ/1Q4BHor8bb3R9FxUSLP3rIUm+Rm8s++mBB3
HY71e1H+yjMNjSTUvo+WPWcOrbA8KBNYBf0jnA/+G9aKQubHrcVmykoWbtM8TPWm
dn5oUTivHHWcrPEUXhFHsOrojAAtAH6+6DDhFkc+k2vlMBkumFbQfw9Ib4JZ5Tjl
lhU2dZSh6M4ikQ8y8Wyi7cRyFFGQPTtzzRICHaCz/hTlrLWxPBiZXd4u/Dzkmh//
ZZZrSCvd2MLXqFyFkfgfIqQ=
-----END CERTIFICATE-----
