Certificate:
    Data:
        Version: 3 (0x2)
        Serial Number: 2 (0x2)
    Signature Algorithm: sha256WithRSAEncryption
        Issuer: CN=I
        Validity
            Not Before: Jan  1 12:00:00 2015 GMT
            Not After : Jan  1 12:00:00 2021 GMT
        Subject: CN=target
        Subject Public Key Info:
            Public Key Algorithm: rsaEncryption
                Public-Key: (2048 bit)
                Modulus:
                    00:bc:7b:d4:48:5a:3b:ab:be:72:da:b4:1d:81:4d:
                    42:5b:82:82:c2:10:11:36:b9:59:00:88:18:bd:99:
                    a2:f0:40:cb:ae:bb:99:81:66:a3:45:ee:cd:da:f1:
                    83:91:1b:5a:65:33:86:6e:ed:15:eb:54:a9:20:17:
                    2b:1e:13:fe:69:a0:6c:72:a5:ca:be:2f:d3:d5:14:
                    2a:91:d5:08:bd:6b:26:e8:a4:a8:19:97:b3:1f:28:
                    6f:59:54:dc:65:61:34:05:fe:67:80:d3:63:9d:a5:
                    e7:a2:e0:aa:12:e6:d0:77:ff:72:27:84:23:fa:18:
                    00:85:e3:fc:66:0b:99:31:0e:a2:fd:c8:ca:cc:64:
                    da:14:27:b3:9e:cf:a6:10:0a:5a:29:1a:29:b8:6a:
                    b5:a1:fe:89:ae:51:e7:f2:5b:ab:7f:c6:37:51:44:
                    81:30:3a:35:e2:28:a8:7f:4b:7a:c8:a3:c9:13:11:
                    23:de:4a:4b:52:41:cb:64:81:13:1b:d2:ac:cd:c5:
                    a0:96:b6:a2:c7:f7:55:06:cb:fd:64:be:e1:22:b3:
                    a0:bd:77:46:be:1e:eb:ea:cd:de:af:a5:89:13:82:
                    55:12:b8:c4:6b:01:33:69:32:21:18:c3:1c:01:1b:
                    09:2b:a4:cb:80:23:15:3b:26:ea:c3:01:59:8c:a2:
                    35:c3
                Exponent: 65537 (0x10001)
        X509v3 extensions:
            X509v3 Subject Key Identifier: 
                D2:58:5E:31:E6:B5:6D:8F:58:B6:D0:DA:C1:4D:38:43:9A:D3:C1:7A
            X509v3 Authority Key Identifier: 
                keyid:84:BA:05:06:4E:33:9D:11:AA:7A:F1:77:1F:A4:69:7E:4C:2D:D4:3F

            X509v3 CRL Distribution Points: 

                Full Name:
                  URI:http://url-for-crl/I.crl

            X509v3 Key Usage: critical
                Digital Signature, Key Encipherment
            X509v3 Extended Key Usage: 
                TLS Web Server Authentication, TLS Web Client Authentication
            X509v3 Subject Alternative Name: 
                DNS:target
    Signature Algorithm: sha256WithRSAEncryption
         59:c0:18:ae:e6:ec:1d:a0:df:9c:07:d9:94:1b:a1:dd:22:14:
         8f:6f:2c:17:e3:cd:b8:83:17:aa:6d:34:d5:3f:3b:6d:ab:6d:
         fe:c0:9d:c6:d9:1b:77:32:8b:0d:4e:4f:64:d5:49:c5:71:08:
         1e:a2:87:0f:28:27:6e:a5:b9:a1:02:da:c4:b7:a8:49:dd:ce:
         b2:39:67:67:e8:ee:f0:bf:83:bb:0f:21:9f:a2:62:53:1e:7f:
         a0:84:8a:1b:c4:62:98:06:4d:5d:6b:3f:55:5b:71:e3:4c:fc:
         6b:4d:38:ed:f7:84:11:26:86:58:2e:7a:1d:4c:8f:30:ea:ab:
         5d:55:44:2a:ae:35:42:16:bc:c9:ee:88:6c:9f:79:f5:f2:a0:
         c2:5b:e7:c0:fb:01:11:50:0c:1d:ea:62:79:79:59:cd:34:4b:
         60:9f:cf:4c:66:eb:8f:28:52:54:ff:6a:df:12:ab:c3:35:8b:
         31:4d:9e:bc:02:c0:87:5e:ff:80:1f:ba:b4:a4:22:89:2f:ae:
         f4:fb:07:86:9d:72:b3:36:ac:9e:95:e0:6b:a2:67:54:ef:90:
         f0:c8:81:92:0d:4e:a4:7f:2b:bb:3e:5e:6c:ed:cf:45:20:76:
         ab:07:b5:07:48:8d:33:08:a1:89:b8:5f:f8:33:e7:31:42:4a:
         4f:6e:59:18
-----BEGIN CERTIFICATE-----
MIIDSTCCAjGgAwIBAgIBAjANBgkqhkiG9w0BAQsFADAMMQowCAYDVQQDDAFJMB4X
DTE1MDEwMTEyMDAwMFoXDTIxMDEwMTEyMDAwMFowETEPMA0GA1UEAwwGdGFyZ2V0
MIIBIjANBgkqhkiG9w0BAQEFAAOCAQ8AMIIBCgKCAQEAvHvUSFo7q75y2rQdgU1C
W4KCwhARNrlZAIgYvZmi8EDLrruZgWajRe7N2vGDkRtaZTOGbu0V61SpIBcrHhP+
aaBscqXKvi/T1RQqkdUIvWsm6KSoGZezHyhvWVTcZWE0Bf5ngNNjnaXnouCqEubQ
d/9yJ4Qj+hgAheP8ZguZMQ6i/cjKzGTaFCezns+mEApaKRopuGq1of6JrlHn8lur
f8Y3UUSBMDo14iiof0t6yKPJExEj3kpLUkHLZIETG9KszcWglraix/dVBsv9ZL7h
IrOgvXdGvh7r6s3er6WJE4JVErjEawEzaTIhGMMcARsJK6TLgCMVOybqwwFZjKI1
wwIDAQABo4GwMIGtMB0GA1UdDgQWBBTSWF4x5rVtj1i20NrBTThDmtPBejAfBgNV
HSMEGDAWgBSEugUGTjOdEap68XcfpGl+TC3UPzApBgNVHR8EIjAgMB6gHKAahhho
dHRwOi8vdXJsLWZvci1jcmwvSS5jcmwwDgYDVR0PAQH/BAQDAgWgMB0GA1UdJQQW
MBQGCCsGAQUFBwMBBggrBgEFBQcDAjARBgNVHREECjAIggZ0YXJnZXQwDQYJKoZI
hvcNAQELBQADggEBAFnAGK7m7B2g35wH2ZQbod0iFI9vLBfjzbiDF6ptNNU/O22r
bf7AncbZG3cyiw1OT2TVScVxCB6ihw8oJ26luaEC2sS3qEndzrI5Z2fo7vC/g7sP
IZ+iYlMef6CEihvEYpgGTV1rP1VbceNM/GtNOO33hBEmhlgueh1MjzDqq11VRCqu
NUIWvMnuiGyfefXyoMJb58D7ARFQDB3qYnl5Wc00S2Cfz0xm648oUlT/at8Sq8M1
izFNnrwCwIde/4AfurSkIokvrvT7B4adcrM2rJ6V4GuiZ1TvkPDIgZINTqR/K7s+
Xmztz0UgdqsHtQdIjTMIoYm4X/gz5zFCSk9uWRg=
-----END CERTIFICATE-----
