Certificate:
    Data:
        Version: 3 (0x2)
        Serial Number: 6 (0x6)
    Signature Algorithm: sha256WithRSAEncryption
        Issuer: CN=I
        Validity
            Not Before: Jan  1 12:00:00 2015 GMT
            Not After : Jan  1 12:00:00 2021 GMT
        Subject: CN=target
        Subject Public Key Info:
            Public Key Algorithm: rsaEncryption
                Public-Key: (2048 bit)
                Modulus:
                    00:c2:b8:d6:fd:7b:fb:c3:a4:78:0a:f0:bc:2a:2d:
                    2f:64:dc:94:cd:83:39:63:b6:17:f8:cb:8a:56:b7:
                    7b:81:99:73:2e:ae:83:d0:94:1b:6c:12:95:1c:d3:
                    73:c6:b9:e8:ed:68:8f:e7:84:f5:b6:8c:c0:aa:75:
                    1d:7e:d2:96:d8:27:1e:50:65:9c:5b:88:7d:b8:a4:
                    ea:3b:9b:ab:68:54:41:97:52:15:b9:be:fa:5e:35:
                    4a:8c:ae:bf:67:e4:85:79:4a:e4:14:4a:3b:90:6b:
                    76:43:34:e3:6c:09:1f:56:ce:1b:a2:3d:fa:ce:2b:
                    7b:fe:12:1f:04:2f:7e:99:ab:7d:a4:34:0a:59:c4:
                    7a:fa:f8:af:2f:c3:ee:71:12:44:22:17:b7:d7:b4:
                    72:9e:9b:90:3f:a0:14:aa:aa:d4:3d:a4:bf:aa:bc:
                    92:6e:bc:97:89:db:8a:cf:45:8a:b9:3e:6b:b7:60:
                    c0:3f:dc:1c:24:e9:04:01:8d:f5:bb:0f:80:60:c5:
                    d5:6d:94:43:55:bc:15:6b:c7:f9:ff:e4:d4:b0:2f:
                    ad:2f:8f:3d:be:84:12:36:59:8b:1d:06:ce:f2:47:
                    a7:d3:4e:48:0c:f4:42:bf:2f:ae:f3:12:dc:14:21:
                    4c:35:2f:49:cf:7a:30:17:27:21:89:20:21:20:f1:
                    0a:95
                Exponent: 65537 (0x10001)
        X509v3 extensions:
            X509v3 Subject Key Identifier: 
                FF:42:DD:71:AA:35:67:90:AF:8A:A5:37:2C:D0:81:00:CD:0D:C4:F9
            X509v3 Authority Key Identifier: 
                keyid:84:BA:05:06:4E:33:9D:11:AA:7A:F1:77:1F:A4:69:7E:4C:2D:D4:3F

            Authority Information Access: 
                CA Issuers - URI:file:///dev/null

            X509v3 CRL Distribution Points: 

                Full Name:
                  URI:http://url-for-crl/I.crl

            X509v3 Key Usage: critical
                Digital Signature, Key Encipherment
            X509v3 Extended Key Usage: 
                TLS Web Server Authentication, TLS Web Client Authentication
            X509v3 Subject Alternative Name: 
                DNS:target
    Signature Algorithm: sha256WithRSAEncryption
         83:37:89:c7:c3:ff:da:25:ef:02:0e:61:c7:a0:4d:8c:f3:f5:
         c0:17:3f:12:42:ab:77:b4:e2:a5:38:e4:4f:79:5a:ca:a0:dc:
         e8:99:3a:46:06:96:ea:49:24:52:5a:f8:9c:00:a7:65:c6:2a:
         e7:89:b5:e4:7f:a7:22:b9:8b:09:6f:bc:5b:30:fe:6d:6e:32:
         d6:3c:dd:9d:96:2c:9b:71:a3:2a:0f:ad:a1:ab:33:8f:e9:1f:
         97:cd:fd:bc:7b:13:c6:d5:9d:40:4f:35:94:3a:0e:c0:a3:87:
         7b:fa:4e:f4:e0:d7:6c:03:df:96:90:90:5d:f4:69:2e:ad:f0:
         ce:26:13:a8:8a:69:9d:4c:98:91:06:f1:aa:2b:f8:29:9c:c3:
         d7:97:58:6f:6f:29:76:45:68:9d:1c:9d:af:5a:1a:51:ba:df:
         13:81:1a:45:f4:f8:74:37:c9:67:3b:91:86:b8:da:ec:c7:38:
         77:75:12:5e:5e:22:a3:e7:ed:74:5a:2a:35:4a:ea:0c:7f:40:
         15:fd:b3:82:ab:b9:0f:f3:da:87:31:22:d5:8d:73:25:a9:dd:
         f3:1f:03:b0:e4:e5:dc:4a:2f:fd:71:11:79:ee:b8:50:a5:0f:
         cc:ba:07:90:15:3f:c9:a6:e9:32:ac:fe:77:e9:74:5e:a0:de:
         f6:24:1a:d4
-----BEGIN CERTIFICATE-----
MIIDdzCCAl+gAwIBAgIBBjANBgkqhkiG9w0BAQsFADAMMQowCAYDVQQDDAFJMB4X
DTE1MDEwMTEyMDAwMFoXDTIxMDEwMTEyMDAwMFowETEPMA0GA1UEAwwGdGFyZ2V0
MIIBIjANBgkqhkiG9w0BAQEFAAOCAQ8AMIIBCgKCAQEAwrjW/Xv7w6R4CvC8Ki0v
ZNyUzYM5Y7YX+MuKVrd7gZlzLq6D0JQbbBKVHNNzxrno7WiP54T1tozAqnUdftKW
2CceUGWcW4h9uKTqO5uraFRBl1IVub76XjVKjK6/Z+SFeUrkFEo7kGt2QzTjbAkf
Vs4boj36zit7/hIfBC9+mat9pDQKWcR6+vivL8PucRJEIhe317RynpuQP6AUqqrU
PaS/qrySbryXiduKz0WKuT5rt2DAP9wcJOkEAY31uw+AYMXVbZRDVbwVa8f5/+TU
sC+tL489voQSNlmLHQbO8ken005IDPRCvy+u8xLcFCFMNS9Jz3owFychiSAhIPEK
lQIDAQABo4HeMIHbMB0GA1UdDgQWBBT/Qt1xqjVnkK+KpTcs0IEAzQ3E+TAfBgNV
HSMEGDAWgBSEugUGTjOdEap68XcfpGl+TC3UPzAsBggrBgEFBQcBAQQgMB4wHAYI
KwYBBQUHMAKGEGZpbGU6Ly8vZGV2L251bGwwKQYDVR0fBCIwIDAeoBygGoYYaHR0
cDovL3VybC1mb3ItY3JsL0kuY3JsMA4GA1UdDwEB/wQEAwIFoDAdBgNVHSUEFjAU
BggrBgEFBQcDAQYIKwYBBQUHAwIwEQYDVR0RBAowCIIGdGFyZ2V0MA0GCSqGSIb3
DQEBCwUAA4IBAQCDN4nHw//aJe8CDmHHoE2M8/XAFz8SQqt3tOKlOORPeVrKoNzo
mTpGBpbqSSRSWvicAKdlxirnibXkf6ciuYsJb7xbMP5tbjLWPN2dliybcaMqD62h
qzOP6R+Xzf28exPG1Z1ATzWUOg7Ao4d7+k704NdsA9+WkJBd9GkurfDOJhOoimmd
TJiRBvGqK/gpnMPXl1hvbyl2RWidHJ2vWhpRut8TgRpF9Ph0N8lnO5GGuNrsxzh3
dRJeXiKj5+10Wio1SuoMf0AV/bOCq7kP89qHMSLVjXMlqd3zHwOw5OXcSi/9cRF5
7rhQpQ/MugeQFT/JpukyrP536XReoN72JBrU
-----END CERTIFICATE-----
