Certificate:
    Data:
        Version: 3 (0x2)
        Serial Number: 3 (0x3)
    Signature Algorithm: sha256WithRSAEncryption
        Issuer: CN=I
        Validity
            Not Before: Jan  1 12:00:00 2015 GMT
            Not After : Jan  1 12:00:00 2016 GMT
        Subject: CN=target
        Subject Public Key Info:
            Public Key Algorithm: rsaEncryption
                Public-Key: (2048 bit)
                Modulus:
                    00:c7:7e:c5:20:13:8f:2f:6f:f4:b8:ab:93:2c:8c:
                    f5:1f:fe:91:44:a1:81:db:81:f4:12:5c:24:60:f3:
                    7a:b2:67:a3:7e:9a:31:52:ee:7d:40:1a:3f:e5:88:
                    12:33:55:ec:c9:6e:ac:78:01:95:d2:8b:bb:e3:8f:
                    37:4a:3e:0c:3f:7f:ae:27:d5:26:7d:65:03:c3:2b:
                    fe:73:58:67:88:ca:53:e8:cd:2d:41:32:6d:f9:06:
                    4a:5c:7c:02:1f:43:1a:5a:80:48:68:ea:46:fa:b5:
                    b7:cd:cb:46:9a:b9:d7:fe:1c:ba:34:c3:cc:d9:fa:
                    29:73:81:84:33:ff:bd:25:54:4c:bc:21:76:0b:a7:
                    02:00:8f:b0:23:b1:54:07:da:f6:10:01:3f:8d:5a:
                    3e:fb:f5:e6:73:c0:87:c5:f8:3a:e0:d6:69:9b:d4:
                    3b:31:29:cb:44:d7:44:db:7f:d2:62:08:b5:91:dd:
                    d9:1f:f4:7c:23:11:8e:1d:4e:5e:02:b9:7d:6f:f6:
                    b0:25:b6:a7:5b:3d:26:68:63:ee:71:b9:26:06:cf:
                    26:34:84:5d:05:80:33:2d:c9:d7:15:eb:18:8a:7a:
                    de:60:57:05:2b:c6:fe:92:41:ec:d5:3d:e5:73:3a:
                    02:fb:68:8c:47:81:04:68:ff:f5:a4:ac:6c:0d:4b:
                    34:59
                Exponent: 65537 (0x10001)
        X509v3 extensions:
            X509v3 Subject Key Identifier: 
                BF:E5:92:1F:97:33:C4:D7:72:C3:BC:27:2E:AE:D9:A2:62:ED:4F:A4
            X509v3 Authority Key Identifier: 
                keyid:A4:66:E2:46:F7:3F:A1:73:9D:A2:E2:4E:29:99:DB:2E:36:36:6C:B5

            Authority Information Access: 
                CA Issuers - URI:http://url-for-aia/I.cer
                CA Issuers - URI:http://url-for-aia2/I2.foo

            X509v3 CRL Distribution Points: 

                Full Name:
                  URI:http://url-for-crl/I.crl

            X509v3 Key Usage: critical
                Digital Signature, Key Encipherment
            X509v3 Extended Key Usage: 
                TLS Web Server Authentication, TLS Web Client Authentication
    Signature Algorithm: sha256WithRSAEncryption
         83:06:60:e4:a1:2b:c6:df:4f:7a:02:d1:b4:7d:79:c7:23:73:
         d8:4f:35:f4:ca:18:67:13:d5:93:47:c6:8e:9f:4c:2a:5b:ea:
         53:db:8b:a2:64:96:3c:4c:3f:e1:e1:1b:1e:c1:14:26:6f:95:
         68:07:28:c9:92:c6:ea:24:a8:ea:c2:85:4b:be:a5:6c:52:86:
         43:47:b8:bf:a6:7b:c6:58:00:0e:eb:a7:73:3d:4b:e4:ac:2a:
         94:d0:5b:68:26:19:90:ad:59:78:34:27:84:d2:11:5c:67:02:
         ba:90:bf:91:3f:99:84:c9:af:98:1b:9b:73:70:16:55:8c:d7:
         5f:11:8e:49:ce:14:82:20:17:ca:b3:ed:21:a1:a6:d4:dc:3d:
         14:67:d2:05:a2:59:81:73:42:e8:24:82:b3:97:f6:82:43:b5:
         db:e0:a3:22:eb:bd:f9:e3:d0:de:2a:92:dc:4a:4b:b0:02:c1:
         3c:30:de:0a:fa:17:20:f5:9a:76:c8:c7:b7:b0:3b:52:05:d2:
         91:b2:39:18:74:9d:4b:77:d3:29:2d:ce:e3:c4:ba:c5:25:8d:
         22:17:b0:cc:42:0d:50:b0:2b:fc:99:b7:cb:d6:8a:4b:1e:a7:
         3b:3e:0c:c1:a4:b6:2e:da:10:0b:98:b7:f8:4b:5f:65:ca:44:
         d7:7b:19:08
-----BEGIN CERTIFICATE-----
MIIDlDCCAnygAwIBAgIBAzANBgkqhkiG9w0BAQsFADAMMQowCAYDVQQDDAFJMB4X
DTE1MDEwMTEyMDAwMFoXDTE2MDEwMTEyMDAwMFowETEPMA0GA1UEAwwGdGFyZ2V0
MIIBIjANBgkqhkiG9w0BAQEFAAOCAQ8AMIIBCgKCAQEAx37FIBOPL2/0uKuTLIz1
H/6RRKGB24H0ElwkYPN6smejfpoxUu59QBo/5YgSM1XsyW6seAGV0ou74483Sj4M
P3+uJ9UmfWUDwyv+c1hniMpT6M0tQTJt+QZKXHwCH0MaWoBIaOpG+rW3zctGmrnX
/hy6NMPM2fopc4GEM/+9JVRMvCF2C6cCAI+wI7FUB9r2EAE/jVo++/Xmc8CHxfg6
4NZpm9Q7MSnLRNdE23/SYgi1kd3ZH/R8IxGOHU5eArl9b/awJbanWz0maGPucbkm
Bs8mNIRdBYAzLcnXFesYinreYFcFK8b+kkHs1T3lczoC+2iMR4EEaP/1pKxsDUs0
WQIDAQABo4H7MIH4MB0GA1UdDgQWBBS/5ZIflzPE13LDvCcurtmiYu1PpDAfBgNV
HSMEGDAWgBSkZuJG9z+hc52i4k4pmdsuNjZstTBcBggrBgEFBQcBAQRQME4wJAYI
KwYBBQUHMAKGGGh0dHA6Ly91cmwtZm9yLWFpYS9JLmNlcjAmBggrBgEFBQcwAoYa
aHR0cDovL3VybC1mb3ItYWlhMi9JMi5mb28wKQYDVR0fBCIwIDAeoBygGoYYaHR0
cDovL3VybC1mb3ItY3JsL0kuY3JsMA4GA1UdDwEB/wQEAwIFoDAdBgNVHSUEFjAU
BggrBgEFBQcDAQYIKwYBBQUHAwIwDQYJKoZIhvcNAQELBQADggEBAIMGYOShK8bf
T3oC0bR9eccjc9hPNfTKGGcT1ZNHxo6fTCpb6lPbi6JkljxMP+HhGx7BFCZvlWgH
KMmSxuokqOrChUu+pWxShkNHuL+me8ZYAA7rp3M9S+SsKpTQW2gmGZCtWXg0J4TS
EVxnArqQv5E/mYTJr5gbm3NwFlWM118RjknOFIIgF8qz7SGhptTcPRRn0gWiWYFz
QugkgrOX9oJDtdvgoyLrvfnj0N4qktxKS7ACwTww3gr6FyD1mnbIx7ewO1IF0pGy
ORh0nUt30yktzuPEusUljSIXsMxCDVCwK/yZt8vWiksepzs+DMGkti7aEAuYt/hL
X2XKRNd7GQg=
-----END CERTIFICATE-----
