[Created by: generate-chains.py]

Certificate chain with 1 intermediate and a trusted root. The intermediate
however is signed using the MD5 hash. Verification is expected to fail because
MD5 is too weak.

Certificate:
    Data:
        Version: 3 (0x2)
        Serial Number: 1 (0x1)
    Signature Algorithm: sha256WithRSAEncryption
        Issuer: CN=Intermediate
        Validity
            Not Before: Jan  1 12:00:00 2015 GMT
            Not After : Jan  1 12:00:00 2016 GMT
        Subject: CN=Target
        Subject Public Key Info:
            Public Key Algorithm: rsaEncryption
                Public-Key: (2048 bit)
                Modulus:
                    00:c7:dd:eb:5a:f4:88:03:0a:d7:b6:29:95:e0:58:
                    03:c6:35:36:b0:9e:e8:09:94:21:ba:07:cf:70:cc:
                    52:c7:2c:fd:fe:c0:86:50:b3:0c:7b:46:cf:eb:a3:
                    bd:5a:29:32:58:81:09:ff:85:f8:b3:77:75:58:61:
                    22:f1:59:99:1f:0d:58:dd:ff:f5:a8:51:62:0a:58:
                    db:20:8e:fd:5a:43:96:8f:cd:8c:98:ca:f4:ef:4c:
                    f6:1e:48:dc:48:46:60:8c:67:0f:9a:41:2b:6b:72:
                    e2:ce:11:25:3d:21:99:fa:3f:ca:34:b8:ae:f1:29:
                    7a:ce:bc:1c:ce:98:50:d6:70:93:0a:a5:c4:7e:05:
                    34:46:f1:ef:36:59:90:62:c2:b8:b9:71:ed:df:c0:
                    f8:fd:ff:08:fa:db:05:7d:99:35:2a:65:08:e0:a1:
                    66:cb:7d:55:bc:72:d8:1f:7d:0c:11:e2:8b:11:51:
                    2e:88:b1:d1:72:5f:c5:6b:ac:f0:1e:3f:97:b8:0e:
                    d4:49:9d:a0:b5:be:23:79:b1:0f:19:90:c6:00:e1:
                    62:b4:d5:db:25:8c:11:01:92:9d:17:16:fd:ee:bf:
                    37:6a:2a:d9:b4:4d:83:0c:24:2c:f8:28:7f:52:9d:
                    6b:b3:ac:b2:2b:86:e8:fe:f8:a5:3a:cc:9d:eb:08:
                    f0:6f
                Exponent: 65537 (0x10001)
        X509v3 extensions:
            X509v3 Subject Key Identifier: 
                4A:A4:1B:84:D7:FB:A1:F1:FB:D4:71:87:01:11:63:87:06:5D:A6:D1
            X509v3 Authority Key Identifier: 
                keyid:A6:86:14:22:AB:40:E8:07:5F:13:64:F3:8D:60:DE:30:B4:0B:B3:31

            Authority Information Access: 
                CA Issuers - URI:http://url-for-aia/Intermediate.cer

            X509v3 CRL Distribution Points: 

                Full Name:
                  URI:http://url-for-crl/Intermediate.crl

            X509v3 Key Usage: critical
                Digital Signature, Key Encipherment
            X509v3 Extended Key Usage: 
                TLS Web Server Authentication, TLS Web Client Authentication
    Signature Algorithm: sha256WithRSAEncryption
         61:e4:aa:2d:01:8b:0a:7c:52:13:9e:da:f5:76:c4:c1:19:d6:
         d2:d9:6a:fb:2d:4a:1a:b9:65:f4:78:9e:e5:a1:c0:f1:ae:2c:
         ec:ef:91:91:d4:21:03:77:32:42:73:10:55:d1:da:4a:10:5f:
         c3:9f:ff:c0:47:94:22:31:0b:e0:46:7f:7d:e6:49:16:3e:d2:
         2a:15:35:76:be:54:a8:86:09:80:6b:8d:ef:d4:7a:e3:ef:c0:
         29:82:3f:95:61:62:33:b6:d7:94:b7:c0:75:99:64:5f:be:9d:
         53:44:90:87:77:8b:c5:07:6f:a6:ad:bd:21:d0:55:7d:83:6c:
         24:aa:3d:d9:44:85:c7:97:30:2d:3b:c5:c5:6f:ca:95:8c:b8:
         8c:84:bb:53:d1:80:12:99:a2:20:08:0f:4e:98:6c:15:9d:2f:
         f1:04:ca:7a:a9:d0:52:21:7d:9f:7d:91:f1:33:e7:5a:9e:c7:
         06:ce:8c:52:62:11:09:85:89:2c:94:78:8f:b3:28:ae:00:f7:
         d7:99:da:09:ca:67:3b:6a:ba:e6:60:68:04:b1:14:e7:dc:a8:
         dc:c6:98:bb:6d:fc:99:2e:2a:69:01:14:08:cb:db:a9:b6:69:
         ed:8e:16:c0:e6:93:91:1d:98:ef:be:51:09:9d:02:11:ce:dd:
         56:6b:23:c7
-----BEGIN CERTIFICATE-----
MIIDjTCCAnWgAwIBAgIBATANBgkqhkiG9w0BAQsFADAXMRUwEwYDVQQDDAxJbnRl
cm1lZGlhdGUwHhcNMTUwMTAxMTIwMDAwWhcNMTYwMTAxMTIwMDAwWjARMQ8wDQYD
VQQDDAZUYXJnZXQwggEiMA0GCSqGSIb3DQEBAQUAA4IBDwAwggEKAoIBAQDH3eta
9IgDCte2KZXgWAPGNTawnugJlCG6B89wzFLHLP3+wIZQswx7Rs/ro71aKTJYgQn/
hfizd3VYYSLxWZkfDVjd//WoUWIKWNsgjv1aQ5aPzYyYyvTvTPYeSNxIRmCMZw+a
QStrcuLOESU9IZn6P8o0uK7xKXrOvBzOmFDWcJMKpcR+BTRG8e82WZBiwri5ce3f
wPj9/wj62wV9mTUqZQjgoWbLfVW8ctgffQwR4osRUS6IsdFyX8VrrPAeP5e4DtRJ
naC1viN5sQ8ZkMYA4WK01dsljBEBkp0XFv3uvzdqKtm0TYMMJCz4KH9SnWuzrLIr
huj++KU6zJ3rCPBvAgMBAAGjgekwgeYwHQYDVR0OBBYEFEqkG4TX+6Hx+9RxhwER
Y4cGXabRMB8GA1UdIwQYMBaAFKaGFCKrQOgHXxNk841g3jC0C7MxMD8GCCsGAQUF
BwEBBDMwMTAvBggrBgEFBQcwAoYjaHR0cDovL3VybC1mb3ItYWlhL0ludGVybWVk
aWF0ZS5jZXIwNAYDVR0fBC0wKzApoCegJYYjaHR0cDovL3VybC1mb3ItY3JsL0lu
dGVybWVkaWF0ZS5jcmwwDgYDVR0PAQH/BAQDAgWgMB0GA1UdJQQWMBQGCCsGAQUF
BwMBBggrBgEFBQcDAjANBgkqhkiG9w0BAQsFAAOCAQEAYeSqLQGLCnxSE57a9XbE
wRnW0tlq+y1KGrll9Hie5aHA8a4s7O+RkdQhA3cyQnMQVdHaShBfw5//wEeUIjEL
4EZ/feZJFj7SKhU1dr5UqIYJgGuN79R64+/AKYI/lWFiM7bXlLfAdZlkX76dU0SQ
h3eLxQdvpq29IdBVfYNsJKo92USFx5cwLTvFxW/KlYy4jIS7U9GAEpmiIAgPTphs
FZ0v8QTKeqnQUiF9n32R8TPnWp7HBs6MUmIRCYWJLJR4j7MorgD315naCcpnO2q6
5mBoBLEU59yo3MaYu238mS4qaQEUCMvbqbZp7Y4WwOaTkR2Y775RCZ0CEc7dVmsj
xw==
-----END CERTIFICATE-----

Certificate:
    Data:
        Version: 3 (0x2)
        Serial Number: 2 (0x2)
    Signature Algorithm: md5WithRSAEncryption
        Issuer: CN=Root
        Validity
            Not Before: Jan  1 12:00:00 2015 GMT
            Not After : Jan  1 12:00:00 2016 GMT
        Subject: CN=Intermediate
        Subject Public Key Info:
            Public Key Algorithm: rsaEncryption
                Public-Key: (2048 bit)
                Modulus:
                    00:eb:61:9e:9d:4b:23:cc:8e:39:d9:ac:07:05:da:
                    32:34:de:2a:dd:2f:62:ed:87:ce:7c:59:c4:9d:8e:
                    28:76:d1:f2:65:60:91:3f:7b:63:a4:2f:50:c4:da:
                    12:5b:71:a0:97:4f:26:cf:e7:b2:01:84:67:57:f5:
                    86:36:54:68:0f:28:f0:ea:7b:ca:1e:1a:bc:7e:67:
                    cf:fd:14:63:ee:c1:33:92:01:70:bc:12:6b:7d:2c:
                    8d:02:34:8e:85:1a:e4:f5:99:b6:c8:d5:18:d9:04:
                    a6:f5:40:fc:96:50:e2:3f:87:a0:d6:72:be:a3:a3:
                    45:89:07:74:d0:2e:9c:0d:88:12:02:a3:ef:17:ad:
                    2c:2d:71:66:11:89:3f:cf:57:77:28:77:70:bb:0f:
                    39:b0:b1:34:9d:e9:f7:a2:56:af:57:7e:ed:44:f8:
                    be:78:3d:28:c5:0d:37:15:2c:f6:99:4e:05:70:ae:
                    c5:99:45:a7:3f:bd:83:79:6a:a3:67:ff:71:2d:60:
                    e2:08:91:23:45:40:b1:40:52:e1:3b:1d:5d:d1:e9:
                    c2:b0:b1:c4:fb:7c:af:9c:c1:95:f1:a5:23:16:19:
                    75:9f:ef:be:b8:79:a7:f4:c5:b2:47:ae:6d:1c:15:
                    9c:26:0f:b2:0f:ec:92:8d:5a:79:c9:9e:16:e0:70:
                    bc:ef
                Exponent: 65537 (0x10001)
        X509v3 extensions:
            X509v3 Subject Key Identifier: 
                A6:86:14:22:AB:40:E8:07:5F:13:64:F3:8D:60:DE:30:B4:0B:B3:31
            X509v3 Authority Key Identifier: 
                keyid:C4:01:16:E5:A0:16:10:29:62:67:7B:D1:22:42:6C:6F:15:2B:AF:96

            Authority Information Access: 
                CA Issuers - URI:http://url-for-aia/Root.cer

            X509v3 CRL Distribution Points: 

                Full Name:
                  URI:http://url-for-crl/Root.crl

            X509v3 Key Usage: critical
                Certificate Sign, CRL Sign
            X509v3 Basic Constraints: critical
                CA:TRUE
    Signature Algorithm: md5WithRSAEncryption
         0b:7f:8b:bd:5f:fd:d1:b5:85:b4:09:59:6c:06:df:85:e0:ee:
         e1:e0:01:b7:fb:d0:6c:e7:53:9b:1e:d4:0e:fd:7a:4f:94:60:
         f3:fa:ae:7e:ec:bd:c6:25:24:ea:0b:89:fd:fe:4c:6b:ee:48:
         1e:24:d0:61:6a:7a:0a:4e:1d:9e:60:d0:4a:dd:83:a2:bb:c8:
         c1:37:55:53:13:c0:30:ba:56:53:d7:43:8b:64:48:94:94:3f:
         f7:90:8e:c6:6b:3b:08:b2:04:aa:54:d8:54:4a:a1:5c:7e:35:
         94:ef:ec:66:78:53:67:5d:75:3c:1f:8a:ac:ad:d2:8c:8c:d8:
         97:22:94:50:92:8f:d2:00:33:ad:49:e9:bd:79:2f:b4:75:ae:
         a4:d8:df:6b:7a:b4:5f:a1:86:d7:2b:c5:5d:32:28:5e:b3:58:
         f6:2a:5c:14:0f:29:e9:60:77:cf:db:be:46:69:2c:80:4f:ff:
         aa:54:11:06:72:c5:56:1e:85:8b:8e:57:3f:03:51:78:6a:3e:
         e7:4f:3a:4f:ee:d4:23:c2:36:78:96:d3:4a:c5:d8:45:e0:4f:
         8f:98:cd:68:b7:6b:05:10:7d:9c:31:9d:b9:9c:18:de:f7:6f:
         2a:62:28:8d:07:f9:d7:ce:e7:9b:40:28:f5:36:51:ef:22:09:
         e2:85:86:5f
-----BEGIN CERTIFICATE-----
MIIDbTCCAlWgAwIBAgIBAjANBgkqhkiG9w0BAQQFADAPMQ0wCwYDVQQDDARSb290
MB4XDTE1MDEwMTEyMDAwMFoXDTE2MDEwMTEyMDAwMFowFzEVMBMGA1UEAwwMSW50
ZXJtZWRpYXRlMIIBIjANBgkqhkiG9w0BAQEFAAOCAQ8AMIIBCgKCAQEA62GenUsj
zI452awHBdoyNN4q3S9i7YfOfFnEnY4odtHyZWCRP3tjpC9QxNoSW3Ggl08mz+ey
AYRnV/WGNlRoDyjw6nvKHhq8fmfP/RRj7sEzkgFwvBJrfSyNAjSOhRrk9Zm2yNUY
2QSm9UD8llDiP4eg1nK+o6NFiQd00C6cDYgSAqPvF60sLXFmEYk/z1d3KHdwuw85
sLE0nen3olavV37tRPi+eD0oxQ03FSz2mU4FcK7FmUWnP72DeWqjZ/9xLWDiCJEj
RUCxQFLhOx1d0enCsLHE+3yvnMGV8aUjFhl1n+++uHmn9MWyR65tHBWcJg+yD+yS
jVp5yZ4W4HC87wIDAQABo4HLMIHIMB0GA1UdDgQWBBSmhhQiq0DoB18TZPONYN4w
tAuzMTAfBgNVHSMEGDAWgBTEARbloBYQKWJne9EiQmxvFSuvljA3BggrBgEFBQcB
AQQrMCkwJwYIKwYBBQUHMAKGG2h0dHA6Ly91cmwtZm9yLWFpYS9Sb290LmNlcjAs
BgNVHR8EJTAjMCGgH6AdhhtodHRwOi8vdXJsLWZvci1jcmwvUm9vdC5jcmwwDgYD
VR0PAQH/BAQDAgEGMA8GA1UdEwEB/wQFMAMBAf8wDQYJKoZIhvcNAQEEBQADggEB
AAt/i71f/dG1hbQJWWwG34Xg7uHgAbf70GznU5se1A79ek+UYPP6rn7svcYlJOoL
if3+TGvuSB4k0GFqegpOHZ5g0Erdg6K7yME3VVMTwDC6VlPXQ4tkSJSUP/eQjsZr
OwiyBKpU2FRKoVx+NZTv7GZ4U2dddTwfiqyt0oyM2JcilFCSj9IAM61J6b15L7R1
rqTY32t6tF+hhtcrxV0yKF6zWPYqXBQPKelgd8/bvkZpLIBP/6pUEQZyxVYehYuO
Vz8DUXhqPudPOk/u1CPCNniW00rF2EXgT4+YzWi3awUQfZwxnbmcGN73bypiKI0H
+dfO55tAKPU2Ue8iCeKFhl8=
-----END CERTIFICATE-----

Certificate:
    Data:
        Version: 3 (0x2)
        Serial Number: 1 (0x1)
    Signature Algorithm: sha256WithRSAEncryption
        Issuer: CN=Root
        Validity
            Not Before: Jan  1 12:00:00 2015 GMT
            Not After : Jan  1 12:00:00 2016 GMT
        Subject: CN=Root
        Subject Public Key Info:
            Public Key Algorithm: rsaEncryption
                Public-Key: (2048 bit)
                Modulus:
                    00:cc:b2:cd:77:8f:be:c9:a5:17:ad:e5:ac:2d:b2:
                    c0:1f:33:5e:ed:d9:96:57:14:9b:a4:37:d8:a0:3d:
                    e4:2c:56:95:4d:75:68:4f:77:06:24:e0:0f:e9:b6:
                    de:6f:dd:a7:f6:93:dc:f3:48:10:fa:fb:90:b5:43:
                    42:0b:9d:d7:e9:0c:2c:69:7b:3a:4f:73:31:00:0c:
                    ba:15:cc:dd:77:a6:a9:f9:21:b8:97:aa:b7:a4:99:
                    6c:08:a0:8e:9f:b8:29:47:df:db:b9:b0:39:e5:4f:
                    be:47:2f:93:76:5b:6b:02:fe:ec:66:31:c2:de:8e:
                    0a:67:89:a4:70:cb:32:40:db:63:00:57:40:b4:8e:
                    b8:24:e4:de:33:62:24:7a:e5:b2:18:41:54:f7:98:
                    d9:f5:c8:23:1e:88:5a:a6:1c:7e:92:0f:92:56:49:
                    0e:5a:dc:49:4b:d1:f8:1b:73:b0:31:6f:37:7e:cf:
                    91:f4:40:e6:8b:36:11:fb:0f:79:ea:d2:80:f5:8e:
                    c1:24:d2:fe:2f:c1:58:6d:32:2e:04:64:b2:20:d2:
                    cd:a1:79:8b:08:25:8f:1e:89:fe:43:3f:bf:de:49:
                    f2:fa:bb:d7:52:6e:19:8f:4c:b6:6e:4f:59:48:63:
                    e2:c9:55:0f:58:89:93:85:e0:58:ee:80:16:5f:c4:
                    77:b9
                Exponent: 65537 (0x10001)
        X509v3 extensions:
            X509v3 Subject Key Identifier: 
                C4:01:16:E5:A0:16:10:29:62:67:7B:D1:22:42:6C:6F:15:2B:AF:96
            X509v3 Authority Key Identifier: 
                keyid:C4:01:16:E5:A0:16:10:29:62:67:7B:D1:22:42:6C:6F:15:2B:AF:96

            Authority Information Access: 
                CA Issuers - URI:http://url-for-aia/Root.cer

            X509v3 CRL Distribution Points: 

                Full Name:
                  URI:http://url-for-crl/Root.crl

            X509v3 Key Usage: critical
                Certificate Sign, CRL Sign
            X509v3 Basic Constraints: critical
                CA:TRUE
    Signature Algorithm: sha256WithRSAEncryption
         89:b9:02:5b:9d:73:16:b4:7d:26:28:5b:41:fc:7e:1b:81:64:
         e4:ad:bf:07:7d:20:44:d7:0e:61:31:88:74:31:2f:ce:b6:f0:
         d5:79:27:70:35:20:33:66:31:20:ff:b8:42:ed:74:22:b6:08:
         8c:63:5a:6c:bf:5e:19:51:54:5c:ec:39:da:75:d2:27:a6:b3:
         cf:98:c0:c7:08:cb:ab:40:34:a1:88:9b:ce:c3:54:85:52:a2:
         07:b9:9b:b8:88:cb:9b:05:c4:e1:68:a3:31:f1:04:56:eb:9c:
         55:0a:c9:7e:ad:aa:a0:7f:a0:20:9b:89:7e:1c:38:5d:2e:f4:
         d0:8c:61:a0:dc:d0:58:70:d2:e2:01:86:d7:d9:98:2a:bd:e4:
         51:02:64:82:4d:ff:21:48:8f:70:29:41:87:58:da:f9:6b:09:
         b5:80:4b:aa:16:9c:a8:46:13:a5:f8:cb:b9:80:3b:8f:ff:8b:
         c6:3c:29:13:3b:ed:74:37:4d:77:4f:2b:60:98:d2:ce:fb:b2:
         86:4a:28:d5:98:36:7e:d1:a9:ae:7c:97:35:86:f5:58:e4:26:
         ca:29:be:61:a9:52:a3:18:91:35:31:74:bf:18:91:f8:6b:d0:
         f0:23:9d:78:37:b4:21:69:ff:e2:b1:65:16:b1:60:f7:16:74:
         be:a7:42:a4
-----BEGIN CERTIFICATE-----
MIIDZTCCAk2gAwIBAgIBATANBgkqhkiG9w0BAQsFADAPMQ0wCwYDVQQDDARSb290
MB4XDTE1MDEwMTEyMDAwMFoXDTE2MDEwMTEyMDAwMFowDzENMAsGA1UEAwwEUm9v
dDCCASIwDQYJKoZIhvcNAQEBBQADggEPADCCAQoCggEBAMyyzXePvsmlF63lrC2y
wB8zXu3ZllcUm6Q32KA95CxWlU11aE93BiTgD+m23m/dp/aT3PNIEPr7kLVDQgud
1+kMLGl7Ok9zMQAMuhXM3XemqfkhuJeqt6SZbAigjp+4KUff27mwOeVPvkcvk3Zb
awL+7GYxwt6OCmeJpHDLMkDbYwBXQLSOuCTk3jNiJHrlshhBVPeY2fXIIx6IWqYc
fpIPklZJDlrcSUvR+BtzsDFvN37PkfRA5os2EfsPeerSgPWOwSTS/i/BWG0yLgRk
siDSzaF5iwgljx6J/kM/v95J8vq711JuGY9Mtm5PWUhj4slVD1iJk4XgWO6AFl/E
d7kCAwEAAaOByzCByDAdBgNVHQ4EFgQUxAEW5aAWECliZ3vRIkJsbxUrr5YwHwYD
VR0jBBgwFoAUxAEW5aAWECliZ3vRIkJsbxUrr5YwNwYIKwYBBQUHAQEEKzApMCcG
CCsGAQUFBzAChhtodHRwOi8vdXJsLWZvci1haWEvUm9vdC5jZXIwLAYDVR0fBCUw
IzAhoB+gHYYbaHR0cDovL3VybC1mb3ItY3JsL1Jvb3QuY3JsMA4GA1UdDwEB/wQE
AwIBBjAPBgNVHRMBAf8EBTADAQH/MA0GCSqGSIb3DQEBCwUAA4IBAQCJuQJbnXMW
tH0mKFtB/H4bgWTkrb8HfSBE1w5hMYh0MS/OtvDVeSdwNSAzZjEg/7hC7XQitgiM
Y1psv14ZUVRc7DnaddInprPPmMDHCMurQDShiJvOw1SFUqIHuZu4iMubBcThaKMx
8QRW65xVCsl+raqgf6Agm4l+HDhdLvTQjGGg3NBYcNLiAYbX2ZgqveRRAmSCTf8h
SI9wKUGHWNr5awm1gEuqFpyoRhOl+Mu5gDuP/4vGPCkTO+10N013TytgmNLO+7KG
SijVmDZ+0amufJc1hvVY5CbKKb5hqVKjGJE1MXS/GJH4a9DwI514N7Qhaf/isWUW
sWD3FnS+p0Kk
-----END CERTIFICATE-----
