[Created by: generate-chains.py]

Certificate chain with 2 intermediates. The first intermediate has a basic
constraints path length of 0, so it is a violation for it to have a subordinate
intermediate.

Certificate:
    Data:
        Version: 3 (0x2)
        Serial Number: 1 (0x1)
    Signature Algorithm: sha256WithRSAEncryption
        Issuer: CN=Intermediate2
        Validity
            Not Before: Jan  1 12:00:00 2015 GMT
            Not After : Jan  1 12:00:00 2016 GMT
        Subject: CN=Target
        Subject Public Key Info:
            Public Key Algorithm: rsaEncryption
                Public-Key: (2048 bit)
                Modulus:
                    00:c6:80:ed:2c:42:bf:ef:7c:65:e7:f7:d5:37:8f:
                    b8:ed:bf:09:be:83:b5:22:ba:8d:8e:5f:63:cb:98:
                    69:ba:fc:79:a6:2c:02:70:b2:11:49:24:32:59:6a:
                    10:ec:da:8a:fa:51:27:d2:95:a6:08:03:1d:39:20:
                    61:4b:c0:a0:f3:54:1a:53:f4:53:34:42:66:af:d3:
                    08:5c:0e:ab:ca:c5:97:1f:76:60:0d:5c:06:56:96:
                    42:a6:73:fc:63:0b:e9:02:a2:64:7b:18:4e:6d:7e:
                    88:b9:65:bf:52:bb:e5:57:ee:af:81:54:b0:6f:b3:
                    c5:22:da:9c:7d:40:d1:86:01:9d:db:37:be:91:50:
                    94:9b:a8:7e:d9:54:32:81:50:fd:14:54:6a:a3:8b:
                    b5:2c:1e:c0:9a:a8:de:fc:96:f5:1a:ca:97:70:60:
                    79:94:5e:67:e8:90:fe:c3:68:63:f0:5d:64:e5:ec:
                    89:a7:75:61:0c:68:2a:fe:b0:d3:85:17:0b:5e:f9:
                    1b:ff:1b:7e:f4:52:ff:20:56:0f:7b:50:15:db:96:
                    77:3c:09:4e:98:2b:c7:8e:55:bb:59:7c:52:b7:6e:
                    45:20:d7:b6:c7:7e:4f:71:d7:dd:e6:b9:58:04:60:
                    2a:e4:40:64:5e:2c:8e:30:96:bc:84:db:42:b9:66:
                    8b:95
                Exponent: 65537 (0x10001)
        X509v3 extensions:
            X509v3 Subject Key Identifier: 
                34:29:52:19:D8:05:D8:C6:BF:24:AE:2A:40:05:81:8A:A8:86:D0:CC
            X509v3 Authority Key Identifier: 
                keyid:B3:4F:7C:A1:46:15:63:82:54:3A:AF:D2:F7:40:56:21:7B:14:44:51

            Authority Information Access: 
                CA Issuers - URI:http://url-for-aia/Intermediate2.cer

            X509v3 CRL Distribution Points: 

                Full Name:
                  URI:http://url-for-crl/Intermediate2.crl

            X509v3 Key Usage: critical
                Digital Signature, Key Encipherment
            X509v3 Extended Key Usage: 
                TLS Web Server Authentication, TLS Web Client Authentication
    Signature Algorithm: sha256WithRSAEncryption
         29:4f:cc:86:82:da:ea:d9:5a:15:b6:e4:f7:81:bf:f5:4c:8d:
         e0:1d:dc:b5:a1:32:a9:fb:27:aa:a3:73:f7:2b:ee:d3:f0:2f:
         7d:77:27:71:ff:57:05:60:c1:67:db:3e:b8:ea:72:65:b4:d5:
         2a:ff:ae:f1:94:68:ae:18:77:57:ca:c7:ec:84:d6:50:d0:e0:
         95:1b:db:2e:4c:07:f6:1b:1c:0e:9a:e5:34:84:73:f2:b2:d5:
         b1:89:8e:17:b0:bc:07:bc:b2:90:92:20:97:5f:e8:f1:c2:a5:
         a6:ac:46:c0:90:44:eb:43:f9:46:74:9a:5d:68:db:f9:a8:9e:
         7d:fb:10:59:8c:a3:ae:95:c1:b8:04:0c:44:e7:af:2a:8f:c7:
         57:88:18:9b:ad:88:fe:0b:1f:52:de:df:2a:46:16:50:db:5f:
         df:17:85:cc:d4:c6:2b:1a:36:98:6a:2c:d8:71:05:6a:cc:7e:
         26:9f:76:44:23:59:4c:47:c0:2b:42:2e:8b:8a:ed:18:ad:cc:
         d6:22:0d:a2:1a:46:8d:98:20:38:5a:d5:13:8a:a2:66:4e:16:
         bd:6c:0a:83:86:11:6a:40:be:83:af:ed:6a:c5:c0:1e:2d:9d:
         72:0b:e5:9f:a1:9c:a2:54:ee:5b:41:a9:77:22:8d:62:ab:39:
         6c:80:62:58
-----BEGIN CERTIFICATE-----
MIIDkDCCAnigAwIBAgIBATANBgkqhkiG9w0BAQsFADAYMRYwFAYDVQQDDA1JbnRl
cm1lZGlhdGUyMB4XDTE1MDEwMTEyMDAwMFoXDTE2MDEwMTEyMDAwMFowETEPMA0G
A1UEAwwGVGFyZ2V0MIIBIjANBgkqhkiG9w0BAQEFAAOCAQ8AMIIBCgKCAQEAxoDt
LEK/73xl5/fVN4+47b8JvoO1IrqNjl9jy5hpuvx5piwCcLIRSSQyWWoQ7NqK+lEn
0pWmCAMdOSBhS8Cg81QaU/RTNEJmr9MIXA6rysWXH3ZgDVwGVpZCpnP8YwvpAqJk
exhObX6IuWW/UrvlV+6vgVSwb7PFItqcfUDRhgGd2ze+kVCUm6h+2VQygVD9FFRq
o4u1LB7Amqje/Jb1GsqXcGB5lF5n6JD+w2hj8F1k5eyJp3VhDGgq/rDThRcLXvkb
/xt+9FL/IFYPe1AV25Z3PAlOmCvHjlW7WXxSt25FINe2x35Pcdfd5rlYBGAq5EBk
XiyOMJa8hNtCuWaLlQIDAQABo4HrMIHoMB0GA1UdDgQWBBQ0KVIZ2AXYxr8kripA
BYGKqIbQzDAfBgNVHSMEGDAWgBSzT3yhRhVjglQ6r9L3QFYhexREUTBABggrBgEF
BQcBAQQ0MDIwMAYIKwYBBQUHMAKGJGh0dHA6Ly91cmwtZm9yLWFpYS9JbnRlcm1l
ZGlhdGUyLmNlcjA1BgNVHR8ELjAsMCqgKKAmhiRodHRwOi8vdXJsLWZvci1jcmwv
SW50ZXJtZWRpYXRlMi5jcmwwDgYDVR0PAQH/BAQDAgWgMB0GA1UdJQQWMBQGCCsG
AQUFBwMBBggrBgEFBQcDAjANBgkqhkiG9w0BAQsFAAOCAQEAKU/MhoLa6tlaFbbk
94G/9UyN4B3ctaEyqfsnqqNz9yvu0/AvfXcncf9XBWDBZ9s+uOpyZbTVKv+u8ZRo
rhh3V8rH7ITWUNDglRvbLkwH9hscDprlNIRz8rLVsYmOF7C8B7yykJIgl1/o8cKl
pqxGwJBE60P5RnSaXWjb+aieffsQWYyjrpXBuAQMROevKo/HV4gYm62I/gsfUt7f
KkYWUNtf3xeFzNTGKxo2mGos2HEFasx+Jp92RCNZTEfAK0Iui4rtGK3M1iINohpG
jZggOFrVE4qiZk4WvWwKg4YRakC+g6/tasXAHi2dcgvln6GcolTuW0GpdyKNYqs5
bIBiWA==
-----END CERTIFICATE-----

Certificate:
    Data:
        Version: 3 (0x2)
        Serial Number: 1 (0x1)
    Signature Algorithm: sha256WithRSAEncryption
        Issuer: CN=Intermediate1
        Validity
            Not Before: Jan  1 12:00:00 2015 GMT
            Not After : Jan  1 12:00:00 2016 GMT
        Subject: CN=Intermediate2
        Subject Public Key Info:
            Public Key Algorithm: rsaEncryption
                Public-Key: (2048 bit)
                Modulus:
                    00:a5:da:13:9b:86:a9:21:3f:1b:20:2d:25:a0:65:
                    28:27:5c:0c:2c:f5:ff:28:2a:4c:5c:63:4a:08:c6:
                    90:06:55:13:54:d9:6d:c4:83:64:22:c0:1c:40:b1:
                    c9:f5:64:af:1d:cf:55:74:02:e8:97:af:3b:fe:ba:
                    32:f9:3a:10:79:6f:5b:81:b8:cf:d6:25:3b:36:7f:
                    fb:17:a4:75:32:96:d3:b5:c5:97:87:8f:cd:63:e7:
                    0f:28:3c:8e:0a:1e:46:91:a9:64:8b:70:7c:c8:ef:
                    b1:fa:82:50:2f:56:5c:17:b3:18:b9:4b:26:e2:a5:
                    53:a8:27:a0:b7:d0:61:12:93:a7:5f:9a:1d:41:5c:
                    53:c3:29:bd:96:44:8d:a6:1f:f9:e7:74:13:5a:84:
                    e3:3c:a5:41:cd:e9:86:72:c2:12:ea:2a:78:76:f8:
                    88:93:f6:8a:d0:de:3e:b0:33:a0:96:fa:40:cb:c0:
                    e0:49:4d:c1:e8:46:40:b3:7f:a3:e5:01:d3:4e:9b:
                    e0:6c:21:6e:4a:d3:d6:e5:0c:1b:e1:1d:39:54:ca:
                    35:4f:2a:1a:b0:b3:66:40:4e:f7:e9:72:70:f4:70:
                    83:c6:81:12:bd:c9:c3:cc:53:95:fa:e4:21:74:f5:
                    1e:f6:69:1c:42:6b:ba:ec:b5:83:33:41:7b:72:b8:
                    a4:9f
                Exponent: 65537 (0x10001)
        X509v3 extensions:
            X509v3 Subject Key Identifier: 
                B3:4F:7C:A1:46:15:63:82:54:3A:AF:D2:F7:40:56:21:7B:14:44:51
            X509v3 Authority Key Identifier: 
                keyid:78:A0:50:E7:F0:D8:50:C1:A8:AE:40:CC:35:8A:73:B1:2C:78:51:4A

            Authority Information Access: 
                CA Issuers - URI:http://url-for-aia/Intermediate1.cer

            X509v3 CRL Distribution Points: 

                Full Name:
                  URI:http://url-for-crl/Intermediate1.crl

            X509v3 Key Usage: critical
                Certificate Sign, CRL Sign
            X509v3 Basic Constraints: critical
                CA:TRUE, pathlen:0
    Signature Algorithm: sha256WithRSAEncryption
         91:d6:bf:09:02:8e:25:8e:31:b6:59:9c:c4:bc:bd:2a:60:63:
         23:76:1b:45:95:b9:74:86:90:79:31:99:ce:2d:ed:ea:dc:af:
         2f:bb:a8:80:67:1f:54:04:00:6a:4c:fc:db:cf:6a:ae:30:d9:
         f4:6e:a4:60:84:ac:ab:08:24:5d:29:e7:33:fc:8e:ba:fb:32:
         e3:ef:f6:66:35:90:ed:9d:aa:78:b6:66:00:0a:cd:da:e9:57:
         5a:b5:72:3c:79:bc:d2:ca:20:69:6f:b0:7f:06:b7:33:27:12:
         bf:7b:37:9a:63:29:5c:d5:99:67:f9:9c:7d:31:f1:d1:e7:38:
         5b:07:4d:e5:04:7c:20:e2:0e:9d:dc:ed:34:f7:e1:ad:32:e3:
         e7:37:9f:2c:bb:54:b8:94:0e:8d:97:6e:39:75:73:bb:49:f6:
         8e:5c:b8:b7:8e:de:09:80:7d:c2:9d:d1:ea:06:0a:75:78:c6:
         d8:77:fe:28:ea:05:4f:ae:83:ad:02:e8:9c:e2:4d:c8:32:36:
         6e:32:05:91:3d:97:17:2b:0d:74:8e:4b:ba:ef:f9:af:65:49:
         b6:b1:88:10:2f:a9:e0:4a:06:1d:4e:e4:3f:87:51:03:94:ec:
         22:89:19:a0:69:e7:51:39:b9:75:4b:1e:d8:17:c5:1f:6f:87:
         81:f5:0c:e6
-----BEGIN CERTIFICATE-----
MIIDjDCCAnSgAwIBAgIBATANBgkqhkiG9w0BAQsFADAYMRYwFAYDVQQDDA1JbnRl
cm1lZGlhdGUxMB4XDTE1MDEwMTEyMDAwMFoXDTE2MDEwMTEyMDAwMFowGDEWMBQG
A1UEAwwNSW50ZXJtZWRpYXRlMjCCASIwDQYJKoZIhvcNAQEBBQADggEPADCCAQoC
ggEBAKXaE5uGqSE/GyAtJaBlKCdcDCz1/ygqTFxjSgjGkAZVE1TZbcSDZCLAHECx
yfVkrx3PVXQC6JevO/66Mvk6EHlvW4G4z9YlOzZ/+xekdTKW07XFl4ePzWPnDyg8
jgoeRpGpZItwfMjvsfqCUC9WXBezGLlLJuKlU6gnoLfQYRKTp1+aHUFcU8MpvZZE
jaYf+ed0E1qE4zylQc3phnLCEuoqeHb4iJP2itDePrAzoJb6QMvA4ElNwehGQLN/
o+UB006b4GwhbkrT1uUMG+EdOVTKNU8qGrCzZkBO9+lycPRwg8aBEr3Jw8xTlfrk
IXT1HvZpHEJruuy1gzNBe3K4pJ8CAwEAAaOB4DCB3TAdBgNVHQ4EFgQUs098oUYV
Y4JUOq/S90BWIXsURFEwHwYDVR0jBBgwFoAUeKBQ5/DYUMGorkDMNYpzsSx4UUow
QAYIKwYBBQUHAQEENDAyMDAGCCsGAQUFBzAChiRodHRwOi8vdXJsLWZvci1haWEv
SW50ZXJtZWRpYXRlMS5jZXIwNQYDVR0fBC4wLDAqoCigJoYkaHR0cDovL3VybC1m
b3ItY3JsL0ludGVybWVkaWF0ZTEuY3JsMA4GA1UdDwEB/wQEAwIBBjASBgNVHRMB
Af8ECDAGAQH/AgEAMA0GCSqGSIb3DQEBCwUAA4IBAQCR1r8JAo4ljjG2WZzEvL0q
YGMjdhtFlbl0hpB5MZnOLe3q3K8vu6iAZx9UBABqTPzbz2quMNn0bqRghKyrCCRd
Kecz/I66+zLj7/ZmNZDtnap4tmYACs3a6VdatXI8ebzSyiBpb7B/BrczJxK/ezea
Yylc1Zln+Zx9MfHR5zhbB03lBHwg4g6d3O009+GtMuPnN58su1S4lA6Nl245dXO7
SfaOXLi3jt4JgH3CndHqBgp1eMbYd/4o6gVProOtAuic4k3IMjZuMgWRPZcXKw10
jku67/mvZUm2sYgQL6ngSgYdTuQ/h1EDlOwiiRmgaedRObl1Sx7YF8Ufb4eB9Qzm
-----END CERTIFICATE-----

Certificate:
    Data:
        Version: 3 (0x2)
        Serial Number: 2 (0x2)
    Signature Algorithm: sha256WithRSAEncryption
        Issuer: CN=Root
        Validity
            Not Before: Jan  1 12:00:00 2015 GMT
            Not After : Jan  1 12:00:00 2016 GMT
        Subject: CN=Intermediate1
        Subject Public Key Info:
            Public Key Algorithm: rsaEncryption
                Public-Key: (2048 bit)
                Modulus:
                    00:a1:53:d3:7c:15:ee:13:ee:f8:8a:57:2c:76:df:
                    71:f0:10:21:58:fd:6c:9e:02:b8:6b:09:77:40:de:
                    d2:cf:62:8b:5b:9f:29:fe:11:a3:6b:c8:fb:f3:7f:
                    aa:22:13:87:7f:c1:3f:41:40:3f:1b:21:51:ae:5a:
                    03:ae:86:c2:68:7c:8d:3d:1b:0e:d9:62:98:5a:66:
                    d9:3b:8f:88:2a:44:b6:df:c9:2b:1c:78:95:d3:e1:
                    50:7b:18:42:3b:f3:1b:41:bb:48:d9:31:54:6a:d9:
                    ef:7e:8a:a6:fe:ce:bb:5e:f8:13:68:f2:61:be:75:
                    a2:65:5f:d0:c5:87:fa:f6:e1:04:05:2b:50:a0:88:
                    ac:e2:d5:af:b6:83:6b:b8:b3:a0:1a:2d:65:71:5f:
                    67:a6:97:3e:43:a2:5e:80:c5:fe:36:40:34:05:ea:
                    79:31:0a:fa:b9:68:9a:58:f3:28:b6:7a:dd:6a:06:
                    4c:da:76:f5:a5:63:70:8a:27:64:29:87:c1:8b:77:
                    fa:f0:cd:ef:56:a9:4c:7f:14:6d:da:c8:b8:b5:80:
                    8d:df:68:60:61:6f:e3:31:f3:d7:47:8e:0e:58:f0:
                    f1:9f:f1:7e:d4:d9:41:b9:6a:f4:33:4d:f5:7f:ef:
                    d4:b4:91:50:4b:4b:65:d9:8d:de:cc:a4:d3:88:17:
                    ca:3f
                Exponent: 65537 (0x10001)
        X509v3 extensions:
            X509v3 Subject Key Identifier: 
                78:A0:50:E7:F0:D8:50:C1:A8:AE:40:CC:35:8A:73:B1:2C:78:51:4A
            X509v3 Authority Key Identifier: 
                keyid:FB:44:5A:0F:03:A9:3A:3C:75:B4:3E:87:2E:99:99:2E:73:04:0E:0F

            Authority Information Access: 
                CA Issuers - URI:http://url-for-aia/Root.cer

            X509v3 CRL Distribution Points: 

                Full Name:
                  URI:http://url-for-crl/Root.crl

            X509v3 Key Usage: critical
                Certificate Sign, CRL Sign
            X509v3 Basic Constraints: critical
                CA:TRUE, pathlen:0
    Signature Algorithm: sha256WithRSAEncryption
         3f:52:71:17:86:df:c6:cc:4e:f5:f8:48:51:e1:21:09:3e:e3:
         b4:1f:39:97:4d:cd:22:37:9b:f0:34:43:1f:4d:be:56:84:01:
         b1:9e:7b:af:a7:0c:39:d4:65:2e:27:88:28:50:5f:7c:a1:dc:
         da:64:e4:91:1c:b6:6b:b1:7b:6c:d1:8c:7d:ce:ce:4d:4c:b5:
         63:be:ed:2d:d3:f9:be:7d:0e:35:32:05:dc:f0:4d:1f:0f:f3:
         54:58:32:a6:3b:26:b0:89:bd:b8:16:5a:3d:59:9d:5b:2f:1c:
         d4:02:0e:eb:6f:c8:2e:70:4b:1d:dc:49:32:6b:d6:b4:f0:59:
         8e:3e:6a:46:3c:3f:8d:c9:fd:80:c0:39:05:2d:05:a0:2f:d4:
         7f:d0:f5:f3:a6:bc:15:7f:5f:8b:dd:92:c1:8e:c7:71:9d:55:
         15:06:a4:55:67:fd:64:34:76:8e:95:29:a5:9e:1b:65:6e:00:
         8d:04:2c:51:4a:51:ea:13:fe:e0:80:67:73:8e:71:c4:71:bc:
         70:7b:c0:5f:6d:8d:56:63:10:17:52:29:c7:1f:fd:22:58:19:
         f6:ef:0c:fb:82:fa:34:82:66:f5:a1:3b:a0:51:65:f5:18:33:
         81:3f:b1:31:66:e3:6f:74:03:cc:97:30:cd:43:3a:86:e4:3e:
         b4:56:0f:d7
-----BEGIN CERTIFICATE-----
MIIDcTCCAlmgAwIBAgIBAjANBgkqhkiG9w0BAQsFADAPMQ0wCwYDVQQDDARSb290
MB4XDTE1MDEwMTEyMDAwMFoXDTE2MDEwMTEyMDAwMFowGDEWMBQGA1UEAwwNSW50
ZXJtZWRpYXRlMTCCASIwDQYJKoZIhvcNAQEBBQADggEPADCCAQoCggEBAKFT03wV
7hPu+IpXLHbfcfAQIVj9bJ4CuGsJd0De0s9ii1ufKf4Ro2vI+/N/qiITh3/BP0FA
PxshUa5aA66Gwmh8jT0bDtlimFpm2TuPiCpEtt/JKxx4ldPhUHsYQjvzG0G7SNkx
VGrZ736Kpv7Ou174E2jyYb51omVf0MWH+vbhBAUrUKCIrOLVr7aDa7izoBotZXFf
Z6aXPkOiXoDF/jZANAXqeTEK+rlomljzKLZ63WoGTNp29aVjcIonZCmHwYt3+vDN
71apTH8UbdrIuLWAjd9oYGFv4zHz10eODljw8Z/xftTZQblq9DNN9X/v1LSRUEtL
ZdmN3syk04gXyj8CAwEAAaOBzjCByzAdBgNVHQ4EFgQUeKBQ5/DYUMGorkDMNYpz
sSx4UUowHwYDVR0jBBgwFoAU+0RaDwOpOjx1tD6HLpmZLnMEDg8wNwYIKwYBBQUH
AQEEKzApMCcGCCsGAQUFBzAChhtodHRwOi8vdXJsLWZvci1haWEvUm9vdC5jZXIw
LAYDVR0fBCUwIzAhoB+gHYYbaHR0cDovL3VybC1mb3ItY3JsL1Jvb3QuY3JsMA4G
A1UdDwEB/wQEAwIBBjASBgNVHRMBAf8ECDAGAQH/AgEAMA0GCSqGSIb3DQEBCwUA
A4IBAQA/UnEXht/GzE71+EhR4SEJPuO0HzmXTc0iN5vwNEMfTb5WhAGxnnuvpww5
1GUuJ4goUF98odzaZOSRHLZrsXts0Yx9zs5NTLVjvu0t0/m+fQ41MgXc8E0fD/NU
WDKmOyawib24Flo9WZ1bLxzUAg7rb8gucEsd3Ekya9a08FmOPmpGPD+Nyf2AwDkF
LQWgL9R/0PXzprwVf1+L3ZLBjsdxnVUVBqRVZ/1kNHaOlSmlnhtlbgCNBCxRSlHq
E/7ggGdzjnHEcbxwe8BfbY1WYxAXUinHH/0iWBn27wz7gvo0gmb1oTugUWX1GDOB
P7ExZuNvdAPMlzDNQzqG5D60Vg/X
-----END CERTIFICATE-----

Certificate:
    Data:
        Version: 3 (0x2)
        Serial Number: 1 (0x1)
    Signature Algorithm: sha256WithRSAEncryption
        Issuer: CN=Root
        Validity
            Not Before: Jan  1 12:00:00 2015 GMT
            Not After : Jan  1 12:00:00 2016 GMT
        Subject: CN=Root
        Subject Public Key Info:
            Public Key Algorithm: rsaEncryption
                Public-Key: (2048 bit)
                Modulus:
                    00:92:08:56:82:b9:30:af:14:a4:b9:10:66:49:4d:
                    2a:e7:3c:3b:38:4e:a9:b3:1e:76:0f:32:75:73:d0:
                    d9:c6:21:3a:86:77:01:b7:a9:ec:52:96:d6:01:97:
                    a4:90:f3:63:24:da:ed:9e:57:98:05:ee:e9:22:69:
                    00:02:c6:cf:16:fb:54:7b:00:33:31:2b:0a:cc:c3:
                    54:98:7a:a0:11:c8:45:78:b5:e7:3a:17:7e:4f:5b:
                    a6:e8:97:9f:73:6a:fc:49:38:d7:4b:3c:51:05:e9:
                    aa:a1:0b:a9:f5:86:52:b7:d3:3d:31:ec:ca:82:64:
                    15:f9:8a:e8:8e:c8:f6:88:35:ae:7c:b1:ba:4a:86:
                    07:f0:85:0e:99:6a:30:a9:a4:a8:0c:d5:21:57:e0:
                    cd:95:96:47:22:bf:93:bc:62:78:c2:59:ab:ae:69:
                    12:75:69:11:c0:60:8d:9d:d7:54:6e:e4:4a:44:0d:
                    75:4c:4b:e4:0e:96:69:0c:5a:be:97:fd:5f:29:8a:
                    a8:46:60:10:b8:a3:c5:ae:47:2d:9a:3f:79:1e:90:
                    44:f7:9d:c9:1b:3e:ad:35:45:83:5f:5d:89:c6:24:
                    a7:b5:bf:09:47:22:f8:30:b8:94:34:85:4f:21:89:
                    52:63:fa:db:01:e5:0f:e0:f3:36:97:5d:2e:6c:6c:
                    3d:57
                Exponent: 65537 (0x10001)
        X509v3 extensions:
            X509v3 Subject Key Identifier: 
                FB:44:5A:0F:03:A9:3A:3C:75:B4:3E:87:2E:99:99:2E:73:04:0E:0F
            X509v3 Authority Key Identifier: 
                keyid:FB:44:5A:0F:03:A9:3A:3C:75:B4:3E:87:2E:99:99:2E:73:04:0E:0F

            Authority Information Access: 
                CA Issuers - URI:http://url-for-aia/Root.cer

            X509v3 CRL Distribution Points: 

                Full Name:
                  URI:http://url-for-crl/Root.crl

            X509v3 Key Usage: critical
                Certificate Sign, CRL Sign
            X509v3 Basic Constraints: critical
                CA:TRUE
    Signature Algorithm: sha256WithRSAEncryption
         85:41:8d:5a:d5:71:90:eb:7f:af:7a:96:f3:4f:3c:aa:1d:4c:
         3e:73:98:ca:34:d7:5e:3e:bc:b3:bd:44:33:1d:91:41:1b:25:
         ae:96:3c:df:07:82:f0:ca:e7:31:2e:8b:16:2a:64:f2:9b:ba:
         78:d7:a6:c1:e2:1c:2f:b1:2a:10:13:1b:9f:ba:df:7b:09:49:
         19:ec:d9:ac:52:20:0e:b5:4c:09:75:84:59:23:3f:e0:aa:62:
         6e:71:aa:2f:f6:89:0a:b5:44:91:14:5c:3e:02:03:53:4e:e8:
         cc:94:a1:00:1a:70:44:7f:f1:0a:d2:df:fe:24:e0:84:32:f0:
         36:1e:c6:35:42:d8:54:75:6d:63:8c:e1:85:53:0e:2e:d0:d1:
         a6:e1:d0:80:f8:66:a3:4d:95:98:2b:76:2b:6b:41:a9:70:d7:
         3a:f0:14:09:1c:ea:f3:58:a4:fa:57:c4:74:27:37:6d:d2:e7:
         a2:b4:1c:bf:b7:b2:af:06:2e:b9:a1:42:5a:08:c7:6c:04:d1:
         cd:3d:87:6f:82:13:5f:65:a5:40:fe:2d:5c:90:8f:a5:41:b9:
         3d:a5:88:dc:3b:fa:b4:ea:e0:b1:e6:e3:f8:6c:b1:21:3d:4a:
         86:47:cf:63:16:b1:7c:50:9d:cb:5e:81:71:03:0d:2d:f5:94:
         ed:31:05:80
-----BEGIN CERTIFICATE-----
MIIDZTCCAk2gAwIBAgIBATANBgkqhkiG9w0BAQsFADAPMQ0wCwYDVQQDDARSb290
MB4XDTE1MDEwMTEyMDAwMFoXDTE2MDEwMTEyMDAwMFowDzENMAsGA1UEAwwEUm9v
dDCCASIwDQYJKoZIhvcNAQEBBQADggEPADCCAQoCggEBAJIIVoK5MK8UpLkQZklN
Kuc8OzhOqbMedg8ydXPQ2cYhOoZ3Abep7FKW1gGXpJDzYyTa7Z5XmAXu6SJpAALG
zxb7VHsAMzErCszDVJh6oBHIRXi15zoXfk9bpuiXn3Nq/Ek410s8UQXpqqELqfWG
UrfTPTHsyoJkFfmK6I7I9og1rnyxukqGB/CFDplqMKmkqAzVIVfgzZWWRyK/k7xi
eMJZq65pEnVpEcBgjZ3XVG7kSkQNdUxL5A6WaQxavpf9XymKqEZgELijxa5HLZo/
eR6QRPedyRs+rTVFg19dicYkp7W/CUci+DC4lDSFTyGJUmP62wHlD+DzNpddLmxs
PVcCAwEAAaOByzCByDAdBgNVHQ4EFgQU+0RaDwOpOjx1tD6HLpmZLnMEDg8wHwYD
VR0jBBgwFoAU+0RaDwOpOjx1tD6HLpmZLnMEDg8wNwYIKwYBBQUHAQEEKzApMCcG
CCsGAQUFBzAChhtodHRwOi8vdXJsLWZvci1haWEvUm9vdC5jZXIwLAYDVR0fBCUw
IzAhoB+gHYYbaHR0cDovL3VybC1mb3ItY3JsL1Jvb3QuY3JsMA4GA1UdDwEB/wQE
AwIBBjAPBgNVHRMBAf8EBTADAQH/MA0GCSqGSIb3DQEBCwUAA4IBAQCFQY1a1XGQ
63+vepbzTzyqHUw+c5jKNNdePryzvUQzHZFBGyWuljzfB4LwyucxLosWKmTym7p4
16bB4hwvsSoQExufut97CUkZ7NmsUiAOtUwJdYRZIz/gqmJucaov9okKtUSRFFw+
AgNTTujMlKEAGnBEf/EK0t/+JOCEMvA2HsY1QthUdW1jjOGFUw4u0NGm4dCA+Gaj
TZWYK3Yra0GpcNc68BQJHOrzWKT6V8R0Jzdt0ueitBy/t7KvBi65oUJaCMdsBNHN
PYdvghNfZaVA/i1ckI+lQbk9pYjcO/q06uCx5uP4bLEhPUqGR89jFrF8UJ3LXoFx
Aw0t9ZTtMQWA
-----END CERTIFICATE-----
