[Created by: generate-chains.py]

Certificate chain with 1 intermediate, where the target is expired (violates
validity.notAfter). Verification is expected to fail.

Certificate:
    Data:
        Version: 3 (0x2)
        Serial Number: 1 (0x1)
    Signature Algorithm: sha256WithRSAEncryption
        Issuer: CN=Intermediate
        Validity
            Not Before: Jan  1 12:00:00 2015 GMT
            Not After : Mar  1 12:00:00 2015 GMT
        Subject: CN=Target
        Subject Public Key Info:
            Public Key Algorithm: rsaEncryption
                Public-Key: (2048 bit)
                Modulus:
                    00:d1:ba:03:81:9f:9e:55:9e:1a:95:8f:fd:1b:45:
                    51:fe:91:3c:ac:14:9b:08:b7:0e:db:f2:2f:3f:83:
                    b8:06:59:7b:5f:67:74:e4:a1:36:40:b1:a0:32:c5:
                    13:d7:ad:cb:3c:a7:e8:5d:73:bd:40:8b:0d:f1:3c:
                    fc:38:a1:e7:a1:09:94:44:e6:7d:86:cf:fd:cd:eb:
                    47:90:29:53:97:22:3f:40:d4:d4:73:a2:17:00:fc:
                    81:a9:57:5f:d6:21:92:06:8e:72:5e:f0:f7:f5:90:
                    aa:a2:b5:c6:58:9c:90:14:6f:72:f5:f0:8a:27:f6:
                    4e:22:b2:3a:29:47:e1:3f:b5:69:38:e1:f0:6e:81:
                    7e:9e:b0:0e:d3:01:81:57:95:78:06:75:66:4c:1e:
                    2b:2d:d1:68:47:b9:94:47:55:a8:08:a8:0d:64:95:
                    e6:a2:b5:ce:74:74:91:3f:20:db:05:77:6b:0c:ed:
                    b4:6e:95:7d:d1:8c:d0:6c:3f:2f:ab:0e:d0:a9:c1:
                    4e:2f:02:1b:e5:37:02:61:ab:6d:0e:2f:a8:d5:ca:
                    08:1c:3c:75:17:e0:56:fc:07:68:89:4a:e3:1c:f4:
                    af:f1:eb:a6:b3:5e:68:9d:2f:e7:08:23:a3:9d:e5:
                    a4:78:ae:cc:39:95:a7:e1:6e:31:73:51:99:19:b2:
                    17:87
                Exponent: 65537 (0x10001)
        X509v3 extensions:
            X509v3 Subject Key Identifier: 
                25:FF:8A:94:CE:C2:88:76:B1:E3:8A:B4:0E:F5:5F:B5:3A:2F:6C:B6
            X509v3 Authority Key Identifier: 
                keyid:83:98:28:40:CF:A4:63:D5:9B:A8:81:96:82:A5:40:A6:47:2C:F2:42

            Authority Information Access: 
                CA Issuers - URI:http://url-for-aia/Intermediate.cer

            X509v3 CRL Distribution Points: 

                Full Name:
                  URI:http://url-for-crl/Intermediate.crl

            X509v3 Key Usage: critical
                Digital Signature, Key Encipherment
            X509v3 Extended Key Usage: 
                TLS Web Server Authentication, TLS Web Client Authentication
    Signature Algorithm: sha256WithRSAEncryption
         87:9e:4c:50:45:02:3d:74:32:3b:0c:b0:88:c9:b3:2f:2c:33:
         96:83:fe:20:75:fe:df:33:a6:1f:ab:99:5e:66:e2:94:b3:85:
         a4:64:c3:95:a8:9e:be:fe:49:b1:22:84:38:dc:68:8e:43:a2:
         e1:8e:4e:9a:a4:5c:67:ce:0e:4d:cd:b7:89:da:b0:0f:d6:81:
         bb:ce:07:b9:a3:07:61:6e:60:e8:68:38:f8:99:65:53:2d:59:
         3a:28:52:e3:88:93:bf:f2:b3:8a:01:5f:76:cd:3f:46:a9:42:
         cd:f2:ba:b7:d4:46:c6:38:c8:bb:7b:91:38:43:de:10:bb:b2:
         d4:b8:ec:01:47:dc:74:c4:ef:87:77:af:f6:c3:2a:ec:2d:f4:
         69:3d:8b:f2:f2:8f:cb:ab:2a:69:4e:85:f0:af:19:53:b6:0e:
         8e:22:a2:0e:d0:4b:52:53:34:c3:8e:4a:25:48:38:b6:cd:5b:
         9f:02:93:d8:a9:96:59:05:ca:d2:9f:30:6c:93:e3:b3:cb:f7:
         a8:10:c0:3b:b6:80:b0:5c:38:56:06:4b:b5:82:7d:e4:e7:7e:
         2a:d9:1b:80:08:da:4f:60:d3:35:87:17:e9:20:4f:70:18:2e:
         93:f3:1c:cc:3c:5c:59:43:ba:d0:e5:96:84:93:50:02:ea:3c:
         cd:e6:55:a5
-----BEGIN CERTIFICATE-----
MIIDjTCCAnWgAwIBAgIBATANBgkqhkiG9w0BAQsFADAXMRUwEwYDVQQDDAxJbnRl
cm1lZGlhdGUwHhcNMTUwMTAxMTIwMDAwWhcNMTUwMzAxMTIwMDAwWjARMQ8wDQYD
VQQDDAZUYXJnZXQwggEiMA0GCSqGSIb3DQEBAQUAA4IBDwAwggEKAoIBAQDRugOB
n55VnhqVj/0bRVH+kTysFJsItw7b8i8/g7gGWXtfZ3TkoTZAsaAyxRPXrcs8p+hd
c71Aiw3xPPw4oeehCZRE5n2Gz/3N60eQKVOXIj9A1NRzohcA/IGpV1/WIZIGjnJe
8Pf1kKqitcZYnJAUb3L18Ion9k4isjopR+E/tWk44fBugX6esA7TAYFXlXgGdWZM
Hist0WhHuZRHVagIqA1kleaitc50dJE/INsFd2sM7bRulX3RjNBsPy+rDtCpwU4v
AhvlNwJhq20OL6jVyggcPHUX4Fb8B2iJSuMc9K/x66azXmidL+cII6Od5aR4rsw5
lafhbjFzUZkZsheHAgMBAAGjgekwgeYwHQYDVR0OBBYEFCX/ipTOwoh2seOKtA71
X7U6L2y2MB8GA1UdIwQYMBaAFIOYKEDPpGPVm6iBloKlQKZHLPJCMD8GCCsGAQUF
BwEBBDMwMTAvBggrBgEFBQcwAoYjaHR0cDovL3VybC1mb3ItYWlhL0ludGVybWVk
aWF0ZS5jZXIwNAYDVR0fBC0wKzApoCegJYYjaHR0cDovL3VybC1mb3ItY3JsL0lu
dGVybWVkaWF0ZS5jcmwwDgYDVR0PAQH/BAQDAgWgMB0GA1UdJQQWMBQGCCsGAQUF
BwMBBggrBgEFBQcDAjANBgkqhkiG9w0BAQsFAAOCAQEAh55MUEUCPXQyOwywiMmz
LywzloP+IHX+3zOmH6uZXmbilLOFpGTDlaievv5JsSKEONxojkOi4Y5OmqRcZ84O
Tc23idqwD9aBu84HuaMHYW5g6Gg4+JllUy1ZOihS44iTv/KzigFfds0/RqlCzfK6
t9RGxjjIu3uROEPeELuy1LjsAUfcdMTvh3ev9sMq7C30aT2L8vKPy6sqaU6F8K8Z
U7YOjiKiDtBLUlM0w45KJUg4ts1bnwKT2KmWWQXK0p8wbJPjs8v3qBDAO7aAsFw4
VgZLtYJ95Od+KtkbgAjaT2DTNYcX6SBPcBguk/MczDxcWUO60OWWhJNQAuo8zeZV
pQ==
-----END CERTIFICATE-----

Certificate:
    Data:
        Version: 3 (0x2)
        Serial Number: 2 (0x2)
    Signature Algorithm: sha256WithRSAEncryption
        Issuer: CN=Root
        Validity
            Not Before: Jan  1 12:00:00 2015 GMT
            Not After : Jan  1 12:00:00 2016 GMT
        Subject: CN=Intermediate
        Subject Public Key Info:
            Public Key Algorithm: rsaEncryption
                Public-Key: (2048 bit)
                Modulus:
                    00:d7:e6:30:ab:6e:50:4c:37:97:12:0b:a3:87:eb:
                    68:99:df:83:be:e5:70:ee:74:b8:64:27:a1:60:ce:
                    02:49:6a:84:d8:88:70:ad:53:cf:76:94:38:7b:91:
                    ad:ed:a4:1d:58:9f:99:ff:c6:3e:5f:11:be:17:f1:
                    e3:a0:05:3e:10:00:b7:10:4c:04:1c:e6:fa:e4:70:
                    c9:01:af:bd:b4:bc:7c:a2:8e:24:79:72:79:f1:58:
                    1a:d7:b9:d3:3c:fc:cc:16:f0:14:67:f2:e5:89:e5:
                    cf:37:eb:16:d2:8b:e6:21:aa:83:d4:d8:94:cf:3f:
                    a3:f4:0a:e1:dc:37:e8:e9:24:42:60:14:20:9c:2c:
                    3b:25:ef:81:d4:5a:09:a8:86:d7:76:0c:31:12:96:
                    ca:24:01:6a:54:a8:d5:00:6a:74:5a:e7:21:39:0c:
                    a0:b5:63:fe:a9:11:ac:dd:ca:b2:30:7a:94:85:42:
                    ca:0c:fd:ad:ef:d1:94:57:25:93:d4:83:e5:de:e8:
                    c1:96:9b:43:52:5d:e1:a1:b8:dc:91:97:15:09:80:
                    58:42:01:6e:2a:47:ca:e5:a1:ba:47:e1:d2:7a:c6:
                    20:b3:bb:e9:79:65:88:94:58:7f:ae:96:01:d3:e3:
                    17:90:d4:06:74:92:96:71:fc:47:36:84:6a:ad:85:
                    71:b9
                Exponent: 65537 (0x10001)
        X509v3 extensions:
            X509v3 Subject Key Identifier: 
                83:98:28:40:CF:A4:63:D5:9B:A8:81:96:82:A5:40:A6:47:2C:F2:42
            X509v3 Authority Key Identifier: 
                keyid:03:75:5B:98:4F:24:A0:F2:7C:A3:A1:C3:82:12:34:75:A6:66:8B:30

            Authority Information Access: 
                CA Issuers - URI:http://url-for-aia/Root.cer

            X509v3 CRL Distribution Points: 

                Full Name:
                  URI:http://url-for-crl/Root.crl

            X509v3 Key Usage: critical
                Certificate Sign, CRL Sign
            X509v3 Basic Constraints: critical
                CA:TRUE
    Signature Algorithm: sha256WithRSAEncryption
         9e:e1:a4:23:8b:87:f9:a3:4b:0a:19:1e:7a:25:e2:49:1b:74:
         89:51:88:a4:90:a9:70:1a:f4:12:c3:de:b7:b6:b5:97:a2:65:
         1f:e3:e4:59:7b:4e:25:ef:0e:c8:d2:87:8c:cd:95:69:d7:a6:
         02:72:ee:16:c0:11:6b:bf:0e:a7:86:38:48:5b:0d:a0:c9:9d:
         c4:4e:48:d3:3a:18:61:2e:cf:03:3c:a9:2b:71:f1:d6:75:d6:
         a5:63:7d:a8:5d:30:59:2f:36:40:87:d0:79:e3:92:f1:9b:51:
         db:a8:e2:44:c6:92:b3:38:50:38:20:4e:ff:4d:d8:7c:7d:a6:
         a8:5f:b8:24:9f:91:8e:7f:e6:ba:82:81:2a:a9:45:f5:ed:77:
         3f:e6:5f:ca:ef:be:b4:4d:f7:c4:d3:8a:07:6b:60:b9:12:57:
         f4:25:1e:92:f2:7b:21:11:7d:a3:c8:21:66:d6:a6:5a:a3:db:
         c2:16:44:85:3b:49:4c:7e:4b:83:07:d5:5a:3d:9b:a3:3e:05:
         74:73:2c:a1:02:e9:d5:97:bf:23:17:c7:fc:29:a3:1c:95:40:
         76:3d:7e:55:b7:83:58:98:cf:52:5b:b3:a2:bb:16:1a:fd:ad:
         3b:9f:84:96:32:12:01:2e:70:5c:9b:5d:52:79:95:75:d0:de:
         ab:36:63:cb
-----BEGIN CERTIFICATE-----
MIIDbTCCAlWgAwIBAgIBAjANBgkqhkiG9w0BAQsFADAPMQ0wCwYDVQQDDARSb290
MB4XDTE1MDEwMTEyMDAwMFoXDTE2MDEwMTEyMDAwMFowFzEVMBMGA1UEAwwMSW50
ZXJtZWRpYXRlMIIBIjANBgkqhkiG9w0BAQEFAAOCAQ8AMIIBCgKCAQEA1+Ywq25Q
TDeXEgujh+tomd+DvuVw7nS4ZCehYM4CSWqE2IhwrVPPdpQ4e5Gt7aQdWJ+Z/8Y+
XxG+F/HjoAU+EAC3EEwEHOb65HDJAa+9tLx8oo4keXJ58Vga17nTPPzMFvAUZ/Ll
ieXPN+sW0ovmIaqD1NiUzz+j9Arh3Dfo6SRCYBQgnCw7Je+B1FoJqIbXdgwxEpbK
JAFqVKjVAGp0WuchOQygtWP+qRGs3cqyMHqUhULKDP2t79GUVyWT1IPl3ujBlptD
Ul3hobjckZcVCYBYQgFuKkfK5aG6R+HSesYgs7vpeWWIlFh/rpYB0+MXkNQGdJKW
cfxHNoRqrYVxuQIDAQABo4HLMIHIMB0GA1UdDgQWBBSDmChAz6Rj1ZuogZaCpUCm
RyzyQjAfBgNVHSMEGDAWgBQDdVuYTySg8nyjocOCEjR1pmaLMDA3BggrBgEFBQcB
AQQrMCkwJwYIKwYBBQUHMAKGG2h0dHA6Ly91cmwtZm9yLWFpYS9Sb290LmNlcjAs
BgNVHR8EJTAjMCGgH6AdhhtodHRwOi8vdXJsLWZvci1jcmwvUm9vdC5jcmwwDgYD
VR0PAQH/BAQDAgEGMA8GA1UdEwEB/wQFMAMBAf8wDQYJKoZIhvcNAQELBQADggEB
AJ7hpCOLh/mjSwoZHnol4kkbdIlRiKSQqXAa9BLD3re2tZeiZR/j5Fl7TiXvDsjS
h4zNlWnXpgJy7hbAEWu/DqeGOEhbDaDJncROSNM6GGEuzwM8qStx8dZ11qVjfahd
MFkvNkCH0HnjkvGbUduo4kTGkrM4UDggTv9N2Hx9pqhfuCSfkY5/5rqCgSqpRfXt
dz/mX8rvvrRN98TTigdrYLkSV/QlHpLyeyERfaPIIWbWplqj28IWRIU7SUx+S4MH
1Vo9m6M+BXRzLKEC6dWXvyMXx/wpoxyVQHY9flW3g1iYz1Jbs6K7Fhr9rTufhJYy
EgEucFybXVJ5lXXQ3qs2Y8s=
-----END CERTIFICATE-----

Certificate:
    Data:
        Version: 3 (0x2)
        Serial Number: 1 (0x1)
    Signature Algorithm: sha256WithRSAEncryption
        Issuer: CN=Root
        Validity
            Not Before: Jan  1 12:00:00 2015 GMT
            Not After : Jan  1 12:00:00 2016 GMT
        Subject: CN=Root
        Subject Public Key Info:
            Public Key Algorithm: rsaEncryption
                Public-Key: (2048 bit)
                Modulus:
                    00:a8:75:44:0e:b5:bf:02:84:f6:a2:71:18:fe:02:
                    cc:88:ee:9a:e6:c7:d2:42:52:e2:77:5a:89:e0:d8:
                    f3:db:39:4d:90:d8:f0:e8:91:d6:04:08:fc:ff:b6:
                    28:84:7a:be:68:4c:be:b7:a5:34:14:8e:de:8d:9e:
                    42:a9:83:4b:ce:9f:6f:fe:99:40:ff:90:67:96:22:
                    72:3d:6d:e2:7c:f9:e4:28:d6:cb:48:1f:55:2c:68:
                    ea:83:74:2f:c4:d2:79:91:0c:51:4d:bb:a5:6d:e0:
                    0b:27:29:71:c3:05:73:cb:81:04:43:da:5c:17:b4:
                    94:d0:f6:71:72:d1:24:0f:c3:31:5f:f0:5c:69:62:
                    14:6b:a3:55:2d:c4:d6:4c:10:31:f3:ab:40:3a:52:
                    d3:84:08:c3:57:df:29:26:f4:98:81:18:fc:48:f8:
                    2b:2e:65:35:81:fa:09:3d:bf:63:b3:f2:e6:fd:23:
                    3a:bc:4e:1a:47:f6:5c:31:82:e5:fe:a1:09:ce:c5:
                    0c:29:55:39:52:e9:d9:62:86:c7:2c:c3:da:d9:bc:
                    f0:38:97:93:54:21:2e:69:e0:a0:49:d8:27:1b:e6:
                    a9:0a:74:64:34:f7:ed:20:61:9f:48:db:87:aa:43:
                    41:09:fb:ec:f4:ae:a8:e8:f4:f2:7b:6a:de:dc:b6:
                    52:9b
                Exponent: 65537 (0x10001)
        X509v3 extensions:
            X509v3 Subject Key Identifier: 
                03:75:5B:98:4F:24:A0:F2:7C:A3:A1:C3:82:12:34:75:A6:66:8B:30
            X509v3 Authority Key Identifier: 
                keyid:03:75:5B:98:4F:24:A0:F2:7C:A3:A1:C3:82:12:34:75:A6:66:8B:30

            Authority Information Access: 
                CA Issuers - URI:http://url-for-aia/Root.cer

            X509v3 CRL Distribution Points: 

                Full Name:
                  URI:http://url-for-crl/Root.crl

            X509v3 Key Usage: critical
                Certificate Sign, CRL Sign
            X509v3 Basic Constraints: critical
                CA:TRUE
    Signature Algorithm: sha256WithRSAEncryption
         60:21:00:45:b7:cb:54:72:f2:a9:28:a1:3e:53:58:25:e7:4d:
         06:6c:34:5c:ad:7e:7c:c4:7e:f4:a4:43:71:c4:fe:bc:90:0b:
         26:66:dd:a2:75:e4:4d:fc:82:75:e1:3c:f5:a3:b5:66:42:a9:
         21:15:a6:c7:4a:17:1b:7d:92:42:82:b2:49:c0:10:d4:d8:f7:
         d9:48:a8:c0:80:88:a2:15:68:01:e4:70:5b:79:17:1b:77:30:
         92:5b:29:37:e1:5b:31:61:0d:de:cf:59:61:6c:02:ee:8a:e0:
         20:85:71:c7:d8:df:ea:0d:09:d0:c9:78:19:f8:b6:6c:fb:0b:
         5b:10:f8:2d:35:f5:f3:0c:f1:cb:fc:b1:71:fa:be:90:b6:f3:
         7b:19:49:8f:68:8d:bb:40:ce:4c:35:51:9b:6f:0d:f2:f5:06:
         36:12:6d:14:de:30:c6:89:7c:c6:bf:52:aa:c6:5c:11:ea:10:
         c7:91:1a:b7:e7:79:8c:e6:02:ea:1e:87:2e:0b:ed:3c:03:f4:
         b9:79:ff:b5:7a:4c:7e:cb:df:92:2e:7a:50:a5:56:c1:90:c5:
         da:e5:0c:12:3a:0c:21:d7:e3:ff:6f:f8:bb:6a:bf:65:55:60:
         f1:24:e3:ed:fa:0f:d7:64:f2:16:b1:7c:eb:b8:8e:36:fa:a0:
         01:33:ef:9a
-----BEGIN CERTIFICATE-----
MIIDZTCCAk2gAwIBAgIBATANBgkqhkiG9w0BAQsFADAPMQ0wCwYDVQQDDARSb290
MB4XDTE1MDEwMTEyMDAwMFoXDTE2MDEwMTEyMDAwMFowDzENMAsGA1UEAwwEUm9v
dDCCASIwDQYJKoZIhvcNAQEBBQADggEPADCCAQoCggEBAKh1RA61vwKE9qJxGP4C
zIjumubH0kJS4ndaieDY89s5TZDY8OiR1gQI/P+2KIR6vmhMvrelNBSO3o2eQqmD
S86fb/6ZQP+QZ5Yicj1t4nz55CjWy0gfVSxo6oN0L8TSeZEMUU27pW3gCycpccMF
c8uBBEPaXBe0lND2cXLRJA/DMV/wXGliFGujVS3E1kwQMfOrQDpS04QIw1ffKSb0
mIEY/Ej4Ky5lNYH6CT2/Y7Py5v0jOrxOGkf2XDGC5f6hCc7FDClVOVLp2WKGxyzD
2tm88DiXk1QhLmngoEnYJxvmqQp0ZDT37SBhn0jbh6pDQQn77PSuqOj08ntq3ty2
UpsCAwEAAaOByzCByDAdBgNVHQ4EFgQUA3VbmE8koPJ8o6HDghI0daZmizAwHwYD
VR0jBBgwFoAUA3VbmE8koPJ8o6HDghI0daZmizAwNwYIKwYBBQUHAQEEKzApMCcG
CCsGAQUFBzAChhtodHRwOi8vdXJsLWZvci1haWEvUm9vdC5jZXIwLAYDVR0fBCUw
IzAhoB+gHYYbaHR0cDovL3VybC1mb3ItY3JsL1Jvb3QuY3JsMA4GA1UdDwEB/wQE
AwIBBjAPBgNVHRMBAf8EBTADAQH/MA0GCSqGSIb3DQEBCwUAA4IBAQBgIQBFt8tU
cvKpKKE+U1gl500GbDRcrX58xH70pENxxP68kAsmZt2ideRN/IJ14Tz1o7VmQqkh
FabHShcbfZJCgrJJwBDU2PfZSKjAgIiiFWgB5HBbeRcbdzCSWyk34VsxYQ3ez1lh
bALuiuAghXHH2N/qDQnQyXgZ+LZs+wtbEPgtNfXzDPHL/LFx+r6QtvN7GUmPaI27
QM5MNVGbbw3y9QY2Em0U3jDGiXzGv1KqxlwR6hDHkRq353mM5gLqHocuC+08A/S5
ef+1ekx+y9+SLnpQpVbBkMXa5QwSOgwh1+P/b/i7ar9lVWDxJOPt+g/XZPIWsXzr
uI42+qABM++a
-----END CERTIFICATE-----
