[Created by: generate-chains.py]

Certificate chain with 1 intermediate and a trusted root. The intermediate
lacks the basic constraints extension, and hence is expected to fail validation
(RFC 5280 requires v3 signing certificates have a BasicConstaints).

Certificate:
    Data:
        Version: 3 (0x2)
        Serial Number: 1 (0x1)
    Signature Algorithm: sha256WithRSAEncryption
        Issuer: CN=Intermediate
        Validity
            Not Before: Jan  1 12:00:00 2015 GMT
            Not After : Jan  1 12:00:00 2016 GMT
        Subject: CN=Target
        Subject Public Key Info:
            Public Key Algorithm: rsaEncryption
                Public-Key: (2048 bit)
                Modulus:
                    00:cd:97:c5:b2:49:20:8b:97:3c:5d:b5:01:5b:8d:
                    ac:af:2a:2a:b5:cf:1a:ba:d8:1c:2d:68:12:1f:1f:
                    10:8c:50:4d:d6:75:72:cb:62:d5:5f:ff:6b:45:44:
                    a6:76:15:31:6e:7d:0e:21:2e:53:65:57:cf:7f:24:
                    ab:2d:05:db:7e:94:e7:7b:dc:ec:02:6d:58:3b:4e:
                    db:c0:95:02:bf:c4:ad:4c:26:20:49:11:a5:d1:b7:
                    01:e9:27:15:85:ef:19:9a:7d:b9:32:6a:f8:0e:45:
                    8b:ee:f4:31:ad:e6:ef:bf:be:d7:ac:44:2e:11:59:
                    15:5b:82:81:37:88:46:58:98:96:5b:b4:33:c5:c3:
                    14:11:7a:53:fc:e9:7a:c5:dd:61:ed:01:a4:83:fe:
                    39:66:8d:34:8d:87:09:94:78:f4:fe:0c:0e:e8:ca:
                    f1:d0:7a:d6:d0:55:1d:4b:21:31:6c:54:39:ff:1d:
                    38:c4:58:c0:10:02:78:ab:73:36:d3:2b:09:a4:62:
                    e9:e3:32:41:02:ea:d6:99:0a:0e:01:3c:df:68:3e:
                    58:cb:7e:c2:61:84:c9:27:37:83:0b:5c:e8:60:5e:
                    53:64:e6:50:cf:2a:22:cd:be:57:92:72:6c:6b:47:
                    77:ee:bb:96:48:b0:4b:1b:eb:37:b8:0f:2b:c6:97:
                    98:b3
                Exponent: 65537 (0x10001)
        X509v3 extensions:
            X509v3 Subject Key Identifier: 
                A1:B6:F2:69:1D:9D:60:3D:20:03:B7:D6:19:26:AF:97:9F:7F:56:2A
            X509v3 Authority Key Identifier: 
                keyid:45:32:A9:37:50:F0:A0:A1:8E:02:EB:8B:34:65:28:12:3F:FB:6A:18

            Authority Information Access: 
                CA Issuers - URI:http://url-for-aia/Intermediate.cer

            X509v3 CRL Distribution Points: 

                Full Name:
                  URI:http://url-for-crl/Intermediate.crl

            X509v3 Key Usage: critical
                Digital Signature, Key Encipherment
            X509v3 Extended Key Usage: 
                TLS Web Server Authentication, TLS Web Client Authentication
    Signature Algorithm: sha256WithRSAEncryption
         94:ff:02:45:5d:2d:61:30:d0:d7:39:40:ed:ac:ce:ed:82:4a:
         6e:52:d4:55:a3:78:f0:a6:79:87:5c:f2:b2:9a:89:5a:ee:3a:
         73:62:d8:a0:14:28:ce:38:d8:37:3d:ca:51:77:4a:fc:8a:a8:
         ee:6e:fa:7e:ca:a8:dd:ed:92:80:b0:6d:98:f2:8b:1d:4d:62:
         0d:7e:4e:74:04:53:9e:b1:8f:83:3c:db:20:1a:e7:8c:6d:98:
         3f:1e:74:df:05:f8:b4:23:ef:ba:95:07:6b:db:7a:ba:9d:e3:
         0a:b7:e5:df:bb:5b:4e:81:a1:f5:e5:c4:30:99:e4:4e:22:1d:
         0c:90:96:10:54:3c:9f:cb:5d:8d:fd:91:ac:1e:eb:ed:fc:28:
         a8:ca:32:04:d9:2b:7b:d0:57:1c:59:81:93:41:56:35:e1:68:
         bd:24:61:9b:8d:d4:de:39:9e:d1:e1:b9:15:a6:bf:5a:7a:2f:
         e5:c2:b8:c0:16:ec:dc:3c:ff:e4:8e:f6:3f:94:a6:14:a3:7d:
         70:07:34:3b:dc:8c:e2:16:bc:98:91:20:d4:60:1d:53:ee:c9:
         1c:52:9d:a7:dc:d4:24:71:05:93:71:f6:d8:fa:20:ba:fe:6b:
         0f:97:3d:4b:4b:84:b9:8f:31:50:83:91:f8:c9:79:46:3d:62:
         69:4e:09:87
-----BEGIN CERTIFICATE-----
MIIDjTCCAnWgAwIBAgIBATANBgkqhkiG9w0BAQsFADAXMRUwEwYDVQQDDAxJbnRl
cm1lZGlhdGUwHhcNMTUwMTAxMTIwMDAwWhcNMTYwMTAxMTIwMDAwWjARMQ8wDQYD
VQQDDAZUYXJnZXQwggEiMA0GCSqGSIb3DQEBAQUAA4IBDwAwggEKAoIBAQDNl8Wy
SSCLlzxdtQFbjayvKiq1zxq62BwtaBIfHxCMUE3WdXLLYtVf/2tFRKZ2FTFufQ4h
LlNlV89/JKstBdt+lOd73OwCbVg7TtvAlQK/xK1MJiBJEaXRtwHpJxWF7xmafbky
avgORYvu9DGt5u+/vtesRC4RWRVbgoE3iEZYmJZbtDPFwxQRelP86XrF3WHtAaSD
/jlmjTSNhwmUePT+DA7oyvHQetbQVR1LITFsVDn/HTjEWMAQAnirczbTKwmkYunj
MkEC6taZCg4BPN9oPljLfsJhhMknN4MLXOhgXlNk5lDPKiLNvleScmxrR3fuu5ZI
sEsb6ze4DyvGl5izAgMBAAGjgekwgeYwHQYDVR0OBBYEFKG28mkdnWA9IAO31hkm
r5eff1YqMB8GA1UdIwQYMBaAFEUyqTdQ8KChjgLrizRlKBI/+2oYMD8GCCsGAQUF
BwEBBDMwMTAvBggrBgEFBQcwAoYjaHR0cDovL3VybC1mb3ItYWlhL0ludGVybWVk
aWF0ZS5jZXIwNAYDVR0fBC0wKzApoCegJYYjaHR0cDovL3VybC1mb3ItY3JsL0lu
dGVybWVkaWF0ZS5jcmwwDgYDVR0PAQH/BAQDAgWgMB0GA1UdJQQWMBQGCCsGAQUF
BwMBBggrBgEFBQcDAjANBgkqhkiG9w0BAQsFAAOCAQEAlP8CRV0tYTDQ1zlA7azO
7YJKblLUVaN48KZ5h1zyspqJWu46c2LYoBQozjjYNz3KUXdK/Iqo7m76fsqo3e2S
gLBtmPKLHU1iDX5OdARTnrGPgzzbIBrnjG2YPx503wX4tCPvupUHa9t6up3jCrfl
37tbToGh9eXEMJnkTiIdDJCWEFQ8n8tdjf2RrB7r7fwoqMoyBNkre9BXHFmBk0FW
NeFovSRhm43U3jme0eG5Faa/Wnov5cK4wBbs3Dz/5I72P5SmFKN9cAc0O9yM4ha8
mJEg1GAdU+7JHFKdp9zUJHEFk3H22Poguv5rD5c9S0uEuY8xUIOR+Ml5Rj1iaU4J
hw==
-----END CERTIFICATE-----

Certificate:
    Data:
        Version: 3 (0x2)
        Serial Number: 2 (0x2)
    Signature Algorithm: sha256WithRSAEncryption
        Issuer: CN=Root
        Validity
            Not Before: Jan  1 12:00:00 2015 GMT
            Not After : Jan  1 12:00:00 2016 GMT
        Subject: CN=Intermediate
        Subject Public Key Info:
            Public Key Algorithm: rsaEncryption
                Public-Key: (2048 bit)
                Modulus:
                    00:d4:d2:58:5a:24:b9:9d:c4:07:62:ed:0a:24:09:
                    46:d4:97:a8:e1:e6:fa:c2:8d:ba:31:da:ea:95:6f:
                    ca:79:cc:10:08:cd:8e:5d:33:eb:04:40:94:7a:15:
                    94:71:fe:50:73:ea:a0:41:e6:bf:93:aa:7f:60:c2:
                    e6:55:1a:24:ce:b5:f9:5f:ad:f7:90:b5:49:1c:30:
                    45:ad:ed:12:d3:b0:9d:de:03:33:01:a6:c0:12:4e:
                    96:13:d7:9f:b0:69:67:b9:cf:d5:a9:ce:9d:7c:4e:
                    5f:0d:7b:d1:a4:65:93:12:22:42:e8:02:9f:18:0b:
                    03:af:1f:3c:b1:e0:ac:a7:a7:87:b1:22:c1:c9:fe:
                    1d:81:13:dd:e7:d9:21:68:86:6a:06:13:82:73:e5:
                    78:78:e0:99:76:75:38:68:73:cb:8b:33:25:53:72:
                    d1:58:f0:40:64:36:03:32:1d:72:c3:8c:ef:de:76:
                    07:df:9a:b7:b9:4c:10:94:fb:c8:7b:69:ba:d3:a9:
                    1a:21:8c:f7:c5:b3:b1:1b:72:44:10:8c:dd:c3:76:
                    36:e5:ce:a8:a0:29:1b:fa:47:0c:e3:89:f2:44:84:
                    cc:88:0f:48:09:c9:0e:1e:a9:ee:a7:55:ba:5a:6f:
                    78:66:d8:bd:4d:9c:d5:52:95:83:b1:80:b5:af:ce:
                    f5:73
                Exponent: 65537 (0x10001)
        X509v3 extensions:
            X509v3 Subject Key Identifier: 
                45:32:A9:37:50:F0:A0:A1:8E:02:EB:8B:34:65:28:12:3F:FB:6A:18
            X509v3 Authority Key Identifier: 
                keyid:E5:37:1E:E2:93:2C:94:BA:7F:8B:6E:2F:75:D5:0D:D8:0A:D2:96:12

            Authority Information Access: 
                CA Issuers - URI:http://url-for-aia/Root.cer

            X509v3 CRL Distribution Points: 

                Full Name:
                  URI:http://url-for-crl/Root.crl

            X509v3 Key Usage: critical
                Certificate Sign, CRL Sign
    Signature Algorithm: sha256WithRSAEncryption
         9f:e2:34:01:15:93:a9:8f:17:75:32:29:ef:47:20:dd:fc:d7:
         b6:5f:14:01:44:31:03:a4:24:72:63:c9:ac:0b:89:8b:b9:8e:
         b4:f7:a5:6c:f1:e3:0e:41:e8:a3:2a:db:29:39:81:bc:0c:ca:
         26:99:05:d2:af:e4:66:f4:b4:31:43:ae:6e:0b:ed:3d:a0:cc:
         a8:ad:82:aa:f6:d3:fd:be:8a:8a:17:f9:b1:d4:45:6d:bd:a5:
         a9:79:f9:c1:d0:fb:d3:77:77:43:29:fd:ad:8a:a3:72:6b:0b:
         9f:71:b8:cb:35:23:32:5a:79:18:6e:9b:20:d5:af:ff:a4:97:
         f5:ab:dc:46:6c:9a:a3:2d:15:18:02:11:94:de:8f:ba:11:09:
         ab:3c:26:7d:2e:99:21:56:5a:6e:3c:db:74:b7:5e:40:bd:73:
         4f:1d:25:15:db:83:62:a8:94:27:4b:0c:89:7e:c9:6f:07:23:
         c3:8f:88:30:51:de:b0:9c:89:35:04:8c:0f:b4:02:e1:b6:fc:
         16:15:f5:9a:ad:46:39:99:fd:f6:60:16:89:86:2e:c1:8a:6c:
         80:42:ea:85:94:60:f6:42:e0:12:da:3c:db:1b:a3:bd:5e:e0:
         8f:7c:c2:56:54:94:8a:d4:bf:25:a3:09:bf:2f:d1:f0:05:bf:
         d0:ae:df:13
-----BEGIN CERTIFICATE-----
MIIDXDCCAkSgAwIBAgIBAjANBgkqhkiG9w0BAQsFADAPMQ0wCwYDVQQDDARSb290
MB4XDTE1MDEwMTEyMDAwMFoXDTE2MDEwMTEyMDAwMFowFzEVMBMGA1UEAwwMSW50
ZXJtZWRpYXRlMIIBIjANBgkqhkiG9w0BAQEFAAOCAQ8AMIIBCgKCAQEA1NJYWiS5
ncQHYu0KJAlG1Jeo4eb6wo26MdrqlW/KecwQCM2OXTPrBECUehWUcf5Qc+qgQea/
k6p/YMLmVRokzrX5X633kLVJHDBFre0S07Cd3gMzAabAEk6WE9efsGlnuc/Vqc6d
fE5fDXvRpGWTEiJC6AKfGAsDrx88seCsp6eHsSLByf4dgRPd59khaIZqBhOCc+V4
eOCZdnU4aHPLizMlU3LRWPBAZDYDMh1yw4zv3nYH35q3uUwQlPvIe2m606kaIYz3
xbOxG3JEEIzdw3Y25c6ooCkb+kcM44nyRITMiA9ICckOHqnup1W6Wm94Zti9TZzV
UpWDsYC1r871cwIDAQABo4G6MIG3MB0GA1UdDgQWBBRFMqk3UPCgoY4C64s0ZSgS
P/tqGDAfBgNVHSMEGDAWgBTlNx7ikyyUun+Lbi911Q3YCtKWEjA3BggrBgEFBQcB
AQQrMCkwJwYIKwYBBQUHMAKGG2h0dHA6Ly91cmwtZm9yLWFpYS9Sb290LmNlcjAs
BgNVHR8EJTAjMCGgH6AdhhtodHRwOi8vdXJsLWZvci1jcmwvUm9vdC5jcmwwDgYD
VR0PAQH/BAQDAgEGMA0GCSqGSIb3DQEBCwUAA4IBAQCf4jQBFZOpjxd1MinvRyDd
/Ne2XxQBRDEDpCRyY8msC4mLuY6096Vs8eMOQeijKtspOYG8DMommQXSr+Rm9LQx
Q65uC+09oMyorYKq9tP9voqKF/mx1EVtvaWpefnB0PvTd3dDKf2tiqNyawufcbjL
NSMyWnkYbpsg1a//pJf1q9xGbJqjLRUYAhGU3o+6EQmrPCZ9LpkhVlpuPNt0t15A
vXNPHSUV24NiqJQnSwyJfslvByPDj4gwUd6wnIk1BIwPtALhtvwWFfWarUY5mf32
YBaJhi7BimyAQuqFlGD2QuAS2jzbG6O9XuCPfMJWVJSK1L8lowm/L9HwBb/Qrt8T
-----END CERTIFICATE-----

Certificate:
    Data:
        Version: 3 (0x2)
        Serial Number: 1 (0x1)
    Signature Algorithm: sha256WithRSAEncryption
        Issuer: CN=Root
        Validity
            Not Before: Jan  1 12:00:00 2015 GMT
            Not After : Jan  1 12:00:00 2016 GMT
        Subject: CN=Root
        Subject Public Key Info:
            Public Key Algorithm: rsaEncryption
                Public-Key: (2048 bit)
                Modulus:
                    00:a9:f3:a8:48:50:46:fe:b1:fa:ee:af:1a:5c:c1:
                    f2:d0:e1:f9:d1:b4:8e:82:c7:91:d2:eb:1e:06:ba:
                    27:e5:3e:d5:ae:c7:1c:3f:a6:b9:48:05:c4:90:57:
                    23:ab:2a:01:cd:ca:7f:df:8c:b6:2e:6f:83:88:e9:
                    8e:f3:b0:e8:97:9a:91:cd:ad:d0:ef:fb:4b:d7:61:
                    bd:f1:5d:00:97:70:5b:95:1e:6d:3c:a7:03:2b:ec:
                    29:cc:b6:ed:b1:e2:9a:db:38:ce:73:02:19:3f:20:
                    03:70:cd:88:29:f9:ad:40:f7:16:0b:b4:93:9b:ac:
                    13:da:bb:39:e9:2f:2f:17:39:1a:27:47:75:cd:0a:
                    81:a2:e5:a8:58:e7:08:15:a3:33:86:0e:b9:ba:90:
                    23:3b:2a:2a:ed:04:d7:80:85:51:d8:dd:ba:d0:96:
                    34:ef:8c:21:19:ce:cd:0a:9e:fc:ab:3d:ed:69:d1:
                    4b:d2:2b:1f:77:5c:74:96:d7:25:ce:02:e0:49:ed:
                    18:ee:c4:37:d1:e5:f5:a2:5c:ae:c9:fe:2b:cd:68:
                    a6:a5:31:9a:76:5e:a2:10:be:aa:14:ca:57:c3:31:
                    ac:92:bd:9b:53:df:69:8f:e2:26:85:36:20:27:f5:
                    60:fb:66:6d:9b:a7:ec:f8:e4:1a:df:a2:38:ee:ef:
                    3c:d1
                Exponent: 65537 (0x10001)
        X509v3 extensions:
            X509v3 Subject Key Identifier: 
                E5:37:1E:E2:93:2C:94:BA:7F:8B:6E:2F:75:D5:0D:D8:0A:D2:96:12
            X509v3 Authority Key Identifier: 
                keyid:E5:37:1E:E2:93:2C:94:BA:7F:8B:6E:2F:75:D5:0D:D8:0A:D2:96:12

            Authority Information Access: 
                CA Issuers - URI:http://url-for-aia/Root.cer

            X509v3 CRL Distribution Points: 

                Full Name:
                  URI:http://url-for-crl/Root.crl

            X509v3 Key Usage: critical
                Certificate Sign, CRL Sign
            X509v3 Basic Constraints: critical
                CA:TRUE
    Signature Algorithm: sha256WithRSAEncryption
         37:bf:03:0e:0e:78:33:e8:3d:65:48:7f:e7:10:6a:39:34:0b:
         ae:00:da:ac:75:21:b5:35:f5:92:c5:43:3f:18:54:0b:bb:17:
         79:99:b2:95:57:22:2b:b3:69:76:f9:28:9f:fa:3c:c2:5b:b0:
         bb:3a:6c:eb:7f:a2:3b:60:c7:4d:4a:a8:b8:04:52:9c:10:e6:
         40:48:86:11:0f:55:1f:bc:22:3e:e8:93:f5:57:17:06:5d:71:
         bc:7f:da:a6:cd:4d:76:c5:e1:81:2c:95:6b:f6:cc:f4:b0:f2:
         44:24:37:fa:fe:ac:ef:a5:a1:d7:05:87:07:0e:40:46:c8:78:
         57:e1:6d:a2:3d:56:d1:df:e5:a9:e0:63:24:4b:8f:5a:c1:41:
         7e:55:7f:89:6b:45:76:6e:c1:d1:0f:e2:a2:25:2b:56:c6:50:
         09:f6:2c:91:11:f2:35:43:ad:22:c5:af:7b:98:28:56:c3:bc:
         09:59:61:aa:f3:02:a4:19:be:25:8b:d5:55:f3:e0:98:46:1e:
         8f:f5:02:4f:dc:e7:41:2a:69:a8:7e:a5:13:68:31:d3:eb:69:
         b6:52:fe:b5:df:a7:33:f2:c9:f3:fd:f9:a2:72:68:f0:0c:5b:
         77:9b:f0:27:88:29:fd:3b:81:4d:9b:5c:d9:82:8c:e8:0f:71:
         e2:5f:c9:73
-----BEGIN CERTIFICATE-----
MIIDZTCCAk2gAwIBAgIBATANBgkqhkiG9w0BAQsFADAPMQ0wCwYDVQQDDARSb290
MB4XDTE1MDEwMTEyMDAwMFoXDTE2MDEwMTEyMDAwMFowDzENMAsGA1UEAwwEUm9v
dDCCASIwDQYJKoZIhvcNAQEBBQADggEPADCCAQoCggEBAKnzqEhQRv6x+u6vGlzB
8tDh+dG0joLHkdLrHga6J+U+1a7HHD+muUgFxJBXI6sqAc3Kf9+Mti5vg4jpjvOw
6Jeakc2t0O/7S9dhvfFdAJdwW5UebTynAyvsKcy27bHimts4znMCGT8gA3DNiCn5
rUD3Fgu0k5usE9q7OekvLxc5GidHdc0KgaLlqFjnCBWjM4YOubqQIzsqKu0E14CF
UdjdutCWNO+MIRnOzQqe/Ks97WnRS9IrH3dcdJbXJc4C4EntGO7EN9Hl9aJcrsn+
K81opqUxmnZeohC+qhTKV8MxrJK9m1PfaY/iJoU2ICf1YPtmbZun7PjkGt+iOO7v
PNECAwEAAaOByzCByDAdBgNVHQ4EFgQU5Tce4pMslLp/i24vddUN2ArSlhIwHwYD
VR0jBBgwFoAU5Tce4pMslLp/i24vddUN2ArSlhIwNwYIKwYBBQUHAQEEKzApMCcG
CCsGAQUFBzAChhtodHRwOi8vdXJsLWZvci1haWEvUm9vdC5jZXIwLAYDVR0fBCUw
IzAhoB+gHYYbaHR0cDovL3VybC1mb3ItY3JsL1Jvb3QuY3JsMA4GA1UdDwEB/wQE
AwIBBjAPBgNVHRMBAf8EBTADAQH/MA0GCSqGSIb3DQEBCwUAA4IBAQA3vwMODngz
6D1lSH/nEGo5NAuuANqsdSG1NfWSxUM/GFQLuxd5mbKVVyIrs2l2+Sif+jzCW7C7
Omzrf6I7YMdNSqi4BFKcEOZASIYRD1UfvCI+6JP1VxcGXXG8f9qmzU12xeGBLJVr
9sz0sPJEJDf6/qzvpaHXBYcHDkBGyHhX4W2iPVbR3+Wp4GMkS49awUF+VX+Ja0V2
bsHRD+KiJStWxlAJ9iyREfI1Q60ixa97mChWw7wJWWGq8wKkGb4li9VV8+CYRh6P
9QJP3OdBKmmofqUTaDHT62m2Uv6136cz8snz/fmicmjwDFt3m/AniCn9O4FNm1zZ
gozoD3HiX8lz
-----END CERTIFICATE-----
