[Created by: generate-chains.py]

Certificate chain with a root, intermediate and target. The intermediate has
a smaller validity range than the other certificates, making it easy to violate
just its validity.

  Root:          2015/01/01 -> 2016/01/01
  Intermediate:  2015/03/01 -> 2015/09/01
  Target:        2015/01/01 -> 2016/01/01


Certificate:
    Data:
        Version: 3 (0x2)
        Serial Number: 1 (0x1)
    Signature Algorithm: sha256WithRSAEncryption
        Issuer: CN=Intermediate
        Validity
            Not Before: Jan  1 12:00:00 2015 GMT
            Not After : Jan  1 12:00:00 2016 GMT
        Subject: CN=Target
        Subject Public Key Info:
            Public Key Algorithm: rsaEncryption
                Public-Key: (2048 bit)
                Modulus:
                    00:e5:5d:52:78:e5:9d:90:f8:e6:89:33:f2:76:2f:
                    04:9f:a8:f1:db:92:f1:b3:43:19:a3:7c:1f:a1:46:
                    2f:aa:b4:48:fe:f2:35:cd:2d:61:76:e7:5c:52:c9:
                    7b:d6:90:3a:91:11:44:a8:bd:39:d4:5d:10:e0:17:
                    71:03:b9:e2:a5:fb:08:15:d2:50:dd:4d:67:ed:9c:
                    a9:9b:3e:bd:3a:91:57:49:53:73:8b:2b:3e:c0:e4:
                    aa:c9:c2:68:31:82:b4:0e:40:a9:e7:d1:c4:f6:5b:
                    48:3d:88:74:1f:43:2e:f8:b3:66:d8:41:b4:0b:6a:
                    21:38:05:65:05:99:8f:84:75:07:57:3a:1b:7b:2d:
                    21:0a:fc:7a:22:d9:d3:89:43:0c:1a:18:f9:92:d9:
                    42:0f:86:d8:28:d2:b4:ca:28:9a:85:29:1b:0a:d7:
                    01:3b:bd:cb:83:36:a0:d3:d3:4c:5a:54:06:a0:a0:
                    c6:51:12:33:00:5f:85:2e:0a:b5:63:2e:e0:f3:95:
                    03:f9:d8:17:24:19:85:a1:23:cc:45:ea:2f:2e:89:
                    3c:05:52:f0:69:95:0e:fc:71:1a:8f:2c:90:54:6f:
                    14:46:33:99:bd:8b:a7:5e:0b:ad:ad:00:4f:78:8b:
                    69:36:a5:38:43:63:f4:6f:f1:a8:f6:21:22:38:56:
                    9f:7b
                Exponent: 65537 (0x10001)
        X509v3 extensions:
            X509v3 Subject Key Identifier: 
                6E:07:CA:2E:D6:33:0C:B0:73:89:52:A6:81:9F:EA:5A:7D:58:36:E5
            X509v3 Authority Key Identifier: 
                keyid:72:43:36:2F:89:32:3C:1F:45:05:00:D1:48:B6:8F:03:7A:01:52:38

            Authority Information Access: 
                CA Issuers - URI:http://url-for-aia/Intermediate.cer

            X509v3 CRL Distribution Points: 

                Full Name:
                  URI:http://url-for-crl/Intermediate.crl

            X509v3 Key Usage: critical
                Digital Signature, Key Encipherment
            X509v3 Extended Key Usage: 
                TLS Web Server Authentication, TLS Web Client Authentication
    Signature Algorithm: sha256WithRSAEncryption
         86:0c:e2:41:1a:2d:bb:48:71:92:4c:18:59:05:e0:f9:12:24:
         5f:98:ec:54:03:66:1b:f6:6b:36:bd:03:51:35:98:5e:e0:3e:
         cb:18:25:c5:9f:be:9d:64:5e:17:73:99:e4:cf:85:64:90:34:
         45:31:c0:b5:04:c6:20:03:54:f2:e5:42:79:e9:b5:7a:38:a1:
         6f:a4:7f:4b:c0:fe:3b:ca:e8:65:46:77:1d:cb:16:76:6c:cb:
         1a:6b:54:1b:f5:63:46:c3:8d:60:0a:f9:f6:d5:fa:c8:22:e3:
         1e:d8:3f:10:b6:11:31:17:55:70:21:d4:ba:2b:55:bb:a0:d3:
         00:0e:a0:90:c9:65:5b:20:eb:93:c1:9f:a9:8b:25:b2:b3:d2:
         df:d6:de:e3:a5:15:6b:79:53:69:ea:09:4f:03:89:df:b2:39:
         9c:a6:42:a5:43:15:aa:22:ce:c6:f7:16:0f:fc:2b:af:18:42:
         f0:0a:e2:73:28:99:6d:dd:41:f3:2b:d3:f5:3d:11:25:97:8f:
         44:5a:39:83:69:29:d2:e6:49:58:7b:ae:2d:90:71:4a:d4:47:
         6c:a2:d8:aa:df:dc:ea:5a:9a:1f:78:99:7e:f6:67:f1:bd:f9:
         e5:72:7c:e0:f0:62:f5:fa:0a:73:71:92:06:6e:f9:22:c7:4e:
         c9:cb:75:1f
-----BEGIN CERTIFICATE-----
MIIDjTCCAnWgAwIBAgIBATANBgkqhkiG9w0BAQsFADAXMRUwEwYDVQQDDAxJbnRl
cm1lZGlhdGUwHhcNMTUwMTAxMTIwMDAwWhcNMTYwMTAxMTIwMDAwWjARMQ8wDQYD
VQQDDAZUYXJnZXQwggEiMA0GCSqGSIb3DQEBAQUAA4IBDwAwggEKAoIBAQDlXVJ4
5Z2Q+OaJM/J2LwSfqPHbkvGzQxmjfB+hRi+qtEj+8jXNLWF251xSyXvWkDqREUSo
vTnUXRDgF3EDueKl+wgV0lDdTWftnKmbPr06kVdJU3OLKz7A5KrJwmgxgrQOQKnn
0cT2W0g9iHQfQy74s2bYQbQLaiE4BWUFmY+EdQdXOht7LSEK/Hoi2dOJQwwaGPmS
2UIPhtgo0rTKKJqFKRsK1wE7vcuDNqDT00xaVAagoMZREjMAX4UuCrVjLuDzlQP5
2BckGYWhI8xF6i8uiTwFUvBplQ78cRqPLJBUbxRGM5m9i6deC62tAE94i2k2pThD
Y/Rv8aj2ISI4Vp97AgMBAAGjgekwgeYwHQYDVR0OBBYEFG4Hyi7WMwywc4lSpoGf
6lp9WDblMB8GA1UdIwQYMBaAFHJDNi+JMjwfRQUA0Ui2jwN6AVI4MD8GCCsGAQUF
BwEBBDMwMTAvBggrBgEFBQcwAoYjaHR0cDovL3VybC1mb3ItYWlhL0ludGVybWVk
aWF0ZS5jZXIwNAYDVR0fBC0wKzApoCegJYYjaHR0cDovL3VybC1mb3ItY3JsL0lu
dGVybWVkaWF0ZS5jcmwwDgYDVR0PAQH/BAQDAgWgMB0GA1UdJQQWMBQGCCsGAQUF
BwMBBggrBgEFBQcDAjANBgkqhkiG9w0BAQsFAAOCAQEAhgziQRotu0hxkkwYWQXg
+RIkX5jsVANmG/ZrNr0DUTWYXuA+yxglxZ++nWReF3OZ5M+FZJA0RTHAtQTGIANU
8uVCeem1ejihb6R/S8D+O8roZUZ3HcsWdmzLGmtUG/VjRsONYAr59tX6yCLjHtg/
ELYRMRdVcCHUuitVu6DTAA6gkMllWyDrk8GfqYslsrPS39be46UVa3lTaeoJTwOJ
37I5nKZCpUMVqiLOxvcWD/wrrxhC8AricyiZbd1B8yvT9T0RJZePRFo5g2kp0uZJ
WHuuLZBxStRHbKLYqt/c6lqaH3iZfvZn8b355XJ84PBi9foKc3GSBm75IsdOyct1
Hw==
-----END CERTIFICATE-----

Certificate:
    Data:
        Version: 3 (0x2)
        Serial Number: 2 (0x2)
    Signature Algorithm: sha256WithRSAEncryption
        Issuer: CN=Root
        Validity
            Not Before: Mar  1 12:00:00 2015 GMT
            Not After : Sep  1 12:00:00 2015 GMT
        Subject: CN=Intermediate
        Subject Public Key Info:
            Public Key Algorithm: rsaEncryption
                Public-Key: (2048 bit)
                Modulus:
                    00:c2:f3:7c:09:dc:05:78:96:43:d9:a5:90:a3:1d:
                    a4:d8:2e:f6:2d:c4:4e:8d:ee:37:1d:30:28:44:f6:
                    50:f9:99:12:c4:b6:be:44:0f:07:48:22:67:d1:60:
                    42:60:2a:27:62:15:d2:d1:2e:9a:16:02:4e:fb:44:
                    37:8c:ba:7a:7d:72:af:55:cf:d6:f5:7c:1f:b3:dd:
                    fa:b8:57:e4:78:72:72:90:f5:85:cb:c3:7e:8d:1f:
                    89:1f:50:43:ff:53:e4:a7:ff:65:b7:af:da:bd:b1:
                    80:77:0d:d5:a2:e3:59:35:97:d0:fc:39:26:b5:9a:
                    af:3c:7c:ac:5a:05:af:ca:98:40:3f:20:1c:ae:3c:
                    b2:35:e7:52:ff:01:aa:83:1a:67:aa:77:83:67:2e:
                    95:6e:79:49:e8:28:dd:74:82:b2:c0:17:81:9e:f7:
                    2a:1d:c2:14:7c:2a:10:b4:16:19:e1:59:10:48:36:
                    35:c8:f9:bc:35:36:91:2d:c9:81:a4:18:b4:2f:ff:
                    79:6d:32:ca:23:52:c0:d3:39:2c:7e:c2:a1:99:53:
                    9d:ee:1e:50:4b:5d:af:f3:ca:df:39:6b:dc:54:24:
                    0c:14:7b:3e:f7:f8:5e:b8:af:ea:67:68:4b:08:1f:
                    25:5b:14:ff:31:e7:7d:50:c7:15:b2:53:2a:a3:5a:
                    a5:c3
                Exponent: 65537 (0x10001)
        X509v3 extensions:
            X509v3 Subject Key Identifier: 
                72:43:36:2F:89:32:3C:1F:45:05:00:D1:48:B6:8F:03:7A:01:52:38
            X509v3 Authority Key Identifier: 
                keyid:5A:2B:EB:7C:7B:14:AB:7F:3B:58:EC:EC:21:5E:A5:EB:E1:F4:4F:5F

            Authority Information Access: 
                CA Issuers - URI:http://url-for-aia/Root.cer

            X509v3 CRL Distribution Points: 

                Full Name:
                  URI:http://url-for-crl/Root.crl

            X509v3 Key Usage: critical
                Certificate Sign, CRL Sign
            X509v3 Basic Constraints: critical
                CA:TRUE
    Signature Algorithm: sha256WithRSAEncryption
         bf:99:74:d8:6d:30:83:7f:60:0b:3b:c0:00:ba:77:d0:89:74:
         8f:0b:59:83:eb:b8:81:35:48:e5:9a:19:61:20:1c:aa:f4:0f:
         ee:f4:8e:fe:35:df:2e:7a:d4:6d:22:bd:00:97:ca:90:a3:bd:
         02:b8:52:c0:5e:21:25:32:2b:d9:de:b7:6c:42:25:87:7c:e2:
         1a:86:32:03:bf:22:ba:bf:e4:05:aa:5e:63:08:b4:8f:f7:2b:
         a5:76:b9:fb:75:3e:be:a9:12:41:2c:3b:c1:4e:02:83:02:54:
         aa:5a:02:f1:84:d9:7a:fd:c4:04:4e:0f:f2:09:f9:b9:71:2f:
         ea:f7:1d:54:b1:17:37:89:52:ba:75:0f:9c:bb:b0:b9:04:ea:
         8d:7f:f7:56:58:05:be:b3:b9:f8:ab:f5:8b:28:b7:59:e6:39:
         57:ed:11:bb:ee:24:7c:74:e5:4b:6c:b7:04:80:66:87:17:1f:
         d3:03:cc:3d:b3:dd:b3:2d:82:cd:44:60:98:f4:19:10:10:ac:
         21:fd:2f:c9:2c:6e:57:42:bd:70:b8:3b:ac:b8:2d:c6:92:c5:
         eb:db:9a:f4:71:5d:6b:78:d1:69:c0:6a:b0:c9:6f:55:9e:c2:
         33:36:67:30:20:62:47:41:41:60:57:38:66:f8:a7:64:49:5b:
         5b:0f:b9:25
-----BEGIN CERTIFICATE-----
MIIDbTCCAlWgAwIBAgIBAjANBgkqhkiG9w0BAQsFADAPMQ0wCwYDVQQDDARSb290
MB4XDTE1MDMwMTEyMDAwMFoXDTE1MDkwMTEyMDAwMFowFzEVMBMGA1UEAwwMSW50
ZXJtZWRpYXRlMIIBIjANBgkqhkiG9w0BAQEFAAOCAQ8AMIIBCgKCAQEAwvN8CdwF
eJZD2aWQox2k2C72LcROje43HTAoRPZQ+ZkSxLa+RA8HSCJn0WBCYConYhXS0S6a
FgJO+0Q3jLp6fXKvVc/W9Xwfs936uFfkeHJykPWFy8N+jR+JH1BD/1Pkp/9lt6/a
vbGAdw3VouNZNZfQ/DkmtZqvPHysWgWvyphAPyAcrjyyNedS/wGqgxpnqneDZy6V
bnlJ6CjddIKywBeBnvcqHcIUfCoQtBYZ4VkQSDY1yPm8NTaRLcmBpBi0L/95bTLK
I1LA0zksfsKhmVOd7h5QS12v88rfOWvcVCQMFHs+9/heuK/qZ2hLCB8lWxT/Med9
UMcVslMqo1qlwwIDAQABo4HLMIHIMB0GA1UdDgQWBBRyQzYviTI8H0UFANFIto8D
egFSODAfBgNVHSMEGDAWgBRaK+t8exSrfztY7OwhXqXr4fRPXzA3BggrBgEFBQcB
AQQrMCkwJwYIKwYBBQUHMAKGG2h0dHA6Ly91cmwtZm9yLWFpYS9Sb290LmNlcjAs
BgNVHR8EJTAjMCGgH6AdhhtodHRwOi8vdXJsLWZvci1jcmwvUm9vdC5jcmwwDgYD
VR0PAQH/BAQDAgEGMA8GA1UdEwEB/wQFMAMBAf8wDQYJKoZIhvcNAQELBQADggEB
AL+ZdNhtMIN/YAs7wAC6d9CJdI8LWYPruIE1SOWaGWEgHKr0D+70jv413y561G0i
vQCXypCjvQK4UsBeISUyK9net2xCJYd84hqGMgO/Irq/5AWqXmMItI/3K6V2uft1
Pr6pEkEsO8FOAoMCVKpaAvGE2Xr9xAROD/IJ+blxL+r3HVSxFzeJUrp1D5y7sLkE
6o1/91ZYBb6zufir9Ysot1nmOVftEbvuJHx05UtstwSAZocXH9MDzD2z3bMtgs1E
YJj0GRAQrCH9L8ksbldCvXC4O6y4LcaSxevbmvRxXWt40WnAarDJb1WewjM2ZzAg
YkdBQWBXOGb4p2RJW1sPuSU=
-----END CERTIFICATE-----

Certificate:
    Data:
        Version: 3 (0x2)
        Serial Number: 1 (0x1)
    Signature Algorithm: sha256WithRSAEncryption
        Issuer: CN=Root
        Validity
            Not Before: Jan  1 12:00:00 2015 GMT
            Not After : Jan  1 12:00:00 2016 GMT
        Subject: CN=Root
        Subject Public Key Info:
            Public Key Algorithm: rsaEncryption
                Public-Key: (2048 bit)
                Modulus:
                    00:c5:99:c3:5a:ac:ee:dd:88:55:9e:e4:3b:02:e9:
                    99:bf:7e:7c:20:2e:ad:35:96:06:74:f8:06:62:6c:
                    30:55:b5:16:f9:e2:db:99:65:f8:b7:58:00:01:70:
                    3f:7c:23:ff:a7:39:4b:3a:d8:f7:72:65:3e:fd:66:
                    c0:69:43:cc:85:22:3b:d7:22:5d:1f:aa:d4:39:83:
                    58:08:cd:e3:c1:8b:f1:77:4a:92:6a:5c:83:df:1b:
                    59:dd:b5:92:fd:b0:6a:b0:29:a6:13:7e:2b:0e:cb:
                    a7:0e:30:c4:b6:2f:f7:1b:e3:ce:3c:38:2c:18:bd:
                    0c:21:dd:e1:dd:2a:18:77:94:31:12:89:0a:ee:80:
                    30:98:2f:3a:fc:72:75:9c:f1:fb:39:31:c7:ac:63:
                    24:d4:11:40:86:49:e4:72:ce:b9:df:f3:51:bd:d7:
                    f2:7b:49:cd:97:65:4a:8f:65:c0:87:61:99:9c:86:
                    c9:96:95:fc:bc:d2:c4:c2:cc:82:c4:1b:3d:18:ba:
                    dd:13:1c:80:cf:9a:34:e7:44:90:29:c5:e5:f9:53:
                    2f:20:e2:1c:95:ff:01:bb:ea:89:d1:47:59:fd:5a:
                    44:75:58:df:42:29:bc:50:89:bc:1d:6c:e3:35:f8:
                    85:ce:57:c4:c5:47:58:37:5d:1f:1b:03:66:61:0d:
                    2f:79
                Exponent: 65537 (0x10001)
        X509v3 extensions:
            X509v3 Subject Key Identifier: 
                5A:2B:EB:7C:7B:14:AB:7F:3B:58:EC:EC:21:5E:A5:EB:E1:F4:4F:5F
            X509v3 Authority Key Identifier: 
                keyid:5A:2B:EB:7C:7B:14:AB:7F:3B:58:EC:EC:21:5E:A5:EB:E1:F4:4F:5F

            Authority Information Access: 
                CA Issuers - URI:http://url-for-aia/Root.cer

            X509v3 CRL Distribution Points: 

                Full Name:
                  URI:http://url-for-crl/Root.crl

            X509v3 Key Usage: critical
                Certificate Sign, CRL Sign
            X509v3 Basic Constraints: critical
                CA:TRUE
    Signature Algorithm: sha256WithRSAEncryption
         0c:03:aa:0e:1c:44:df:8d:6a:d3:4e:74:66:e5:39:5e:07:8b:
         e9:b9:07:0a:b8:6d:f0:24:f2:5c:93:4a:3b:f8:04:03:5c:ee:
         62:74:ea:31:52:0b:a9:01:34:96:c1:aa:22:0e:a0:df:92:9c:
         32:f5:0d:71:68:cd:5e:8e:05:72:88:d8:ca:9f:c0:de:25:1c:
         5e:b3:67:af:64:61:ea:11:ed:2b:9c:32:ed:5a:4d:45:d0:a7:
         c6:02:57:6d:21:ea:c2:be:0c:51:89:eb:2f:19:55:ee:bc:7e:
         30:c1:5a:f8:8c:49:ae:71:39:98:e3:c2:4b:ba:95:c4:1c:1d:
         40:3b:dc:8b:d0:8a:02:42:1e:d3:5d:80:b7:3b:f6:7d:84:b4:
         7e:b5:15:c0:b7:2d:03:32:a0:93:e9:c5:c6:98:49:e5:27:3c:
         13:94:c1:00:c5:26:a3:a0:28:be:9d:49:c8:90:18:3f:04:c5:
         5f:cf:f9:38:42:47:9f:ad:88:14:4c:57:59:69:50:d8:e7:fc:
         5e:9a:ec:c4:0c:54:68:c5:40:f0:37:a8:ed:c9:f0:40:0a:86:
         3a:7a:15:a8:8b:2b:da:9e:be:44:46:f6:3a:96:37:a3:09:f4:
         6b:00:74:22:c3:1f:c0:0e:65:09:14:97:f0:d9:bc:e5:4e:12:
         3a:16:93:e9
-----BEGIN CERTIFICATE-----
MIIDZTCCAk2gAwIBAgIBATANBgkqhkiG9w0BAQsFADAPMQ0wCwYDVQQDDARSb290
MB4XDTE1MDEwMTEyMDAwMFoXDTE2MDEwMTEyMDAwMFowDzENMAsGA1UEAwwEUm9v
dDCCASIwDQYJKoZIhvcNAQEBBQADggEPADCCAQoCggEBAMWZw1qs7t2IVZ7kOwLp
mb9+fCAurTWWBnT4BmJsMFW1Fvni25ll+LdYAAFwP3wj/6c5SzrY93JlPv1mwGlD
zIUiO9ciXR+q1DmDWAjN48GL8XdKkmpcg98bWd21kv2warApphN+Kw7Lpw4wxLYv
9xvjzjw4LBi9DCHd4d0qGHeUMRKJCu6AMJgvOvxydZzx+zkxx6xjJNQRQIZJ5HLO
ud/zUb3X8ntJzZdlSo9lwIdhmZyGyZaV/LzSxMLMgsQbPRi63RMcgM+aNOdEkCnF
5flTLyDiHJX/AbvqidFHWf1aRHVY30IpvFCJvB1s4zX4hc5XxMVHWDddHxsDZmEN
L3kCAwEAAaOByzCByDAdBgNVHQ4EFgQUWivrfHsUq387WOzsIV6l6+H0T18wHwYD
VR0jBBgwFoAUWivrfHsUq387WOzsIV6l6+H0T18wNwYIKwYBBQUHAQEEKzApMCcG
CCsGAQUFBzAChhtodHRwOi8vdXJsLWZvci1haWEvUm9vdC5jZXIwLAYDVR0fBCUw
IzAhoB+gHYYbaHR0cDovL3VybC1mb3ItY3JsL1Jvb3QuY3JsMA4GA1UdDwEB/wQE
AwIBBjAPBgNVHRMBAf8EBTADAQH/MA0GCSqGSIb3DQEBCwUAA4IBAQAMA6oOHETf
jWrTTnRm5TleB4vpuQcKuG3wJPJck0o7+AQDXO5idOoxUgupATSWwaoiDqDfkpwy
9Q1xaM1ejgVyiNjKn8DeJRxes2evZGHqEe0rnDLtWk1F0KfGAldtIerCvgxRiesv
GVXuvH4wwVr4jEmucTmY48JLupXEHB1AO9yL0IoCQh7TXYC3O/Z9hLR+tRXAty0D
MqCT6cXGmEnlJzwTlMEAxSajoCi+nUnIkBg/BMVfz/k4QkefrYgUTFdZaVDY5/xe
muzEDFRoxUDwN6jtyfBACoY6ehWoiyvanr5ERvY6ljejCfRrAHQiwx/ADmUJFJfw
2bzlThI6FpPp
-----END CERTIFICATE-----
