[Created by: generate-basic-constraints-pathlen-0-self-issued.py]

Certificate chain with 2 intermediates. The first intermediate has a basic
constraints path length of 0. The second one is self-issued so does not count
against the path length.

Certificate:
    Data:
        Version: 3 (0x2)
        Serial Number: 2 (0x2)
    Signature Algorithm: sha256WithRSAEncryption
        Issuer: CN=Intermediate
        Validity
            Not Before: Jan  1 12:00:00 2015 GMT
            Not After : Jan  1 12:00:00 2016 GMT
        Subject: CN=Target
        Subject Public Key Info:
            Public Key Algorithm: rsaEncryption
                Public-Key: (2048 bit)
                Modulus:
                    00:ec:1a:fe:56:e3:0e:27:0c:51:3b:f8:18:3a:2f:
                    18:97:f4:9a:3c:6b:8f:7c:5e:7e:0e:07:ba:9d:f4:
                    1e:2c:86:0f:85:8f:80:de:35:96:29:2a:64:56:0d:
                    e8:8d:2d:84:8d:78:3a:e2:ec:e7:c6:4f:ba:b8:35:
                    d4:6b:e0:02:8b:58:d5:61:90:fe:fa:13:fd:7c:63:
                    6f:ce:4b:75:ea:cd:0d:ab:cd:75:bf:ef:c4:b0:3d:
                    8a:64:9a:0d:e6:b3:80:09:a8:21:52:ff:dc:05:e8:
                    4d:00:78:8d:94:43:2d:24:9b:81:a4:89:81:5f:d3:
                    0f:e7:76:46:bf:cd:0f:24:30:0d:13:1b:49:f5:c3:
                    90:f4:8a:d3:1a:47:75:9f:73:97:be:4b:5b:d0:7d:
                    01:42:64:e3:16:a6:ef:86:91:78:19:a1:a8:c9:3f:
                    41:a1:dc:ca:c0:7c:0d:a3:72:af:6b:c9:2f:1b:81:
                    ba:fa:7e:65:af:de:95:fa:5d:1f:30:22:98:79:db:
                    4a:6a:e8:0f:99:58:e6:20:f4:68:d9:e0:21:cf:ad:
                    3c:ad:9e:43:34:e7:26:62:e6:15:cb:95:78:6c:4b:
                    3b:73:71:8d:b8:c0:dd:f8:52:4b:92:25:22:2e:39:
                    04:73:24:47:09:46:07:5f:80:9a:c5:5d:69:5a:03:
                    03:1b
                Exponent: 65537 (0x10001)
        X509v3 extensions:
            X509v3 Subject Key Identifier: 
                7B:92:03:28:A9:49:81:7F:C8:EC:36:25:A4:A8:31:A8:09:E0:AF:DD
            X509v3 Authority Key Identifier: 
                keyid:73:DB:AF:CB:C5:A7:D4:A3:D4:A4:0B:33:21:04:3C:37:CE:8F:BE:2D

            Authority Information Access: 
                CA Issuers - URI:http://url-for-aia/Intermediate.cer

            X509v3 CRL Distribution Points: 

                Full Name:
                  URI:http://url-for-crl/Intermediate.crl

            X509v3 Key Usage: critical
                Digital Signature, Key Encipherment
            X509v3 Extended Key Usage: 
                TLS Web Server Authentication, TLS Web Client Authentication
    Signature Algorithm: sha256WithRSAEncryption
         40:59:36:cb:ac:7f:e8:5f:ff:57:eb:09:f3:fc:c3:e9:2b:b2:
         90:6e:6b:e7:60:a9:6c:1d:02:f5:5f:cc:29:f6:ed:25:fd:63:
         7d:48:e2:f0:c8:ec:59:a1:8b:49:c3:a9:63:a1:12:70:7d:6f:
         a3:04:bf:1a:83:6a:e1:21:5f:ee:6b:6f:9f:5d:4b:79:cb:4c:
         43:a4:92:ea:41:ea:e1:36:92:90:fd:01:0a:82:65:0e:3c:19:
         44:fd:b5:f3:eb:69:cd:c5:ec:9c:f6:bf:34:35:36:8d:73:c2:
         6f:ee:20:63:c7:c5:1b:ca:13:2a:fb:2c:dc:a0:24:49:7f:42:
         f3:be:16:6d:62:5b:c9:88:20:bb:e4:99:11:e5:59:66:40:23:
         bf:a2:cb:54:14:76:39:7a:7c:82:8f:dd:16:b9:4f:e4:d5:05:
         ab:ea:eb:6b:55:64:ba:15:42:7b:4e:cf:25:68:12:8f:55:0e:
         47:93:bf:0b:01:b5:68:76:c3:1e:2e:1d:96:8e:f1:da:fd:13:
         ed:29:cf:8e:30:2d:dc:9c:d6:1a:04:1b:7a:8c:c3:fd:a1:42:
         72:79:2e:47:c8:7f:28:b0:8e:ea:2a:b3:de:b0:0d:17:4a:e0:
         7b:ec:a4:93:89:aa:a4:ef:c4:6e:d2:4f:ea:6f:16:f6:4f:6f:
         41:d9:8e:55
-----BEGIN CERTIFICATE-----
MIIDjTCCAnWgAwIBAgIBAjANBgkqhkiG9w0BAQsFADAXMRUwEwYDVQQDDAxJbnRl
cm1lZGlhdGUwHhcNMTUwMTAxMTIwMDAwWhcNMTYwMTAxMTIwMDAwWjARMQ8wDQYD
VQQDDAZUYXJnZXQwggEiMA0GCSqGSIb3DQEBAQUAA4IBDwAwggEKAoIBAQDsGv5W
4w4nDFE7+Bg6LxiX9Jo8a498Xn4OB7qd9B4shg+Fj4DeNZYpKmRWDeiNLYSNeDri
7OfGT7q4NdRr4AKLWNVhkP76E/18Y2/OS3XqzQ2rzXW/78SwPYpkmg3ms4AJqCFS
/9wF6E0AeI2UQy0km4GkiYFf0w/ndka/zQ8kMA0TG0n1w5D0itMaR3Wfc5e+S1vQ
fQFCZOMWpu+GkXgZoajJP0Gh3MrAfA2jcq9ryS8bgbr6fmWv3pX6XR8wIph520pq
6A+ZWOYg9GjZ4CHPrTytnkM05yZi5hXLlXhsSztzcY24wN34UkuSJSIuOQRzJEcJ
RgdfgJrFXWlaAwMbAgMBAAGjgekwgeYwHQYDVR0OBBYEFHuSAyipSYF/yOw2JaSo
MagJ4K/dMB8GA1UdIwQYMBaAFHPbr8vFp9Sj1KQLMyEEPDfOj74tMD8GCCsGAQUF
BwEBBDMwMTAvBggrBgEFBQcwAoYjaHR0cDovL3VybC1mb3ItYWlhL0ludGVybWVk
aWF0ZS5jZXIwNAYDVR0fBC0wKzApoCegJYYjaHR0cDovL3VybC1mb3ItY3JsL0lu
dGVybWVkaWF0ZS5jcmwwDgYDVR0PAQH/BAQDAgWgMB0GA1UdJQQWMBQGCCsGAQUF
BwMBBggrBgEFBQcDAjANBgkqhkiG9w0BAQsFAAOCAQEAQFk2y6x/6F//V+sJ8/zD
6SuykG5r52CpbB0C9V/MKfbtJf1jfUji8MjsWaGLScOpY6EScH1vowS/GoNq4SFf
7mtvn11LectMQ6SS6kHq4TaSkP0BCoJlDjwZRP218+tpzcXsnPa/NDU2jXPCb+4g
Y8fFG8oTKvss3KAkSX9C874WbWJbyYggu+SZEeVZZkAjv6LLVBR2OXp8go/dFrlP
5NUFq+rra1VkuhVCe07PJWgSj1UOR5O/CwG1aHbDHi4dlo7x2v0T7SnPjjAt3JzW
GgQbeozD/aFCcnkuR8h/KLCO6iqz3rANF0rge+ykk4mqpO/EbtJP6m8W9k9vQdmO
VQ==
-----END CERTIFICATE-----

Certificate:
    Data:
        Version: 3 (0x2)
        Serial Number: 1 (0x1)
    Signature Algorithm: sha256WithRSAEncryption
        Issuer: CN=Intermediate
        Validity
            Not Before: Jan  1 12:00:00 2015 GMT
            Not After : Jan  1 12:00:00 2016 GMT
        Subject: CN=Intermediate
        Subject Public Key Info:
            Public Key Algorithm: rsaEncryption
                Public-Key: (2048 bit)
                Modulus:
                    00:bc:3f:0f:56:90:45:57:c4:d8:42:91:22:59:d4:
                    81:5e:4b:af:73:90:fc:5f:85:cc:14:71:73:c5:76:
                    70:2b:2c:f7:25:e7:b8:7d:a0:1d:a7:70:b4:f9:b8:
                    08:1f:58:33:95:5f:37:73:c2:39:eb:da:ac:4b:fe:
                    18:77:35:d5:46:e7:d3:2e:8d:d5:df:c9:21:98:c3:
                    86:5d:22:f0:19:b1:1c:e0:49:a7:ad:d4:c7:e0:e4:
                    f1:ef:c1:b7:48:38:de:a9:d3:fc:4d:14:a4:53:b6:
                    80:64:bf:f7:82:3e:05:9a:7e:b7:b4:5a:5f:6d:28:
                    1a:91:86:a6:f8:f5:37:42:8a:81:7b:25:e8:1f:75:
                    e1:7f:bf:01:38:05:dd:38:ae:04:2e:8a:9e:e0:b7:
                    c5:2a:aa:7b:4e:1e:ff:87:97:c8:9e:dd:33:ef:d9:
                    f5:58:80:04:9a:e1:b6:49:d9:b9:85:40:d7:c7:fe:
                    e1:13:73:e5:70:37:cd:40:1d:eb:9b:43:52:e6:c3:
                    31:a0:2f:fb:82:38:62:aa:9e:08:dd:bc:4d:2b:05:
                    f0:a3:31:ab:b7:47:ca:69:a6:47:14:c1:64:63:d0:
                    0c:2d:bc:6c:e3:d2:98:e0:df:25:0d:9f:1f:9b:07:
                    1b:80:0f:9d:da:04:67:8d:e0:cf:0b:5b:ec:f6:62:
                    5f:51
                Exponent: 65537 (0x10001)
        X509v3 extensions:
            X509v3 Subject Key Identifier: 
                73:DB:AF:CB:C5:A7:D4:A3:D4:A4:0B:33:21:04:3C:37:CE:8F:BE:2D
            X509v3 Authority Key Identifier: 
                keyid:48:4D:93:8D:A1:E0:46:7F:2F:DD:60:DF:D1:DF:58:29:2C:1B:CB:4F

            Authority Information Access: 
                CA Issuers - URI:http://url-for-aia/Intermediate.cer

            X509v3 CRL Distribution Points: 

                Full Name:
                  URI:http://url-for-crl/Intermediate.crl

            X509v3 Key Usage: critical
                Certificate Sign, CRL Sign
            X509v3 Basic Constraints: critical
                CA:TRUE, pathlen:0
    Signature Algorithm: sha256WithRSAEncryption
         02:4e:c6:b9:10:f4:c7:3a:52:73:e3:7c:02:6d:61:77:b3:f8:
         98:5f:c5:f2:b4:78:74:36:6b:40:6e:fc:a7:53:7c:b2:5e:e3:
         35:08:1b:44:6c:51:75:29:0f:d1:6c:c0:eb:92:da:11:41:6d:
         d8:56:01:aa:81:e2:58:4f:24:bd:bd:25:6b:ab:b3:b3:0a:05:
         1c:db:ed:c2:34:68:11:34:67:ef:32:81:be:e1:53:0b:dd:2b:
         ec:07:13:b8:12:b5:42:84:02:e0:56:69:f1:71:bd:6c:1a:5a:
         64:59:8b:4c:a5:d2:7d:13:7d:99:d5:4e:94:41:5c:69:f7:32:
         12:6a:c9:a9:ce:96:1f:6d:72:60:35:d1:fc:2f:c6:66:a2:2e:
         48:1e:6e:0a:80:07:5b:d9:b7:ec:28:78:c3:31:2d:c8:45:0d:
         28:94:b4:98:ba:83:1e:66:e7:f1:37:1e:f6:1d:00:50:90:c0:
         58:09:f2:ee:02:85:0c:10:65:0b:c8:2b:04:06:92:64:d4:34:
         10:36:99:f0:e4:fa:b6:b4:24:3a:57:6c:34:b4:dc:bf:48:d5:
         df:97:a7:16:3d:3d:48:ed:c3:3c:b7:ca:e9:36:b4:43:49:e5:
         ba:e9:c3:11:70:2f:b2:74:31:4c:60:da:b3:c4:b6:82:43:e8:
         f1:e7:1a:4a
-----BEGIN CERTIFICATE-----
MIIDiDCCAnCgAwIBAgIBATANBgkqhkiG9w0BAQsFADAXMRUwEwYDVQQDDAxJbnRl
cm1lZGlhdGUwHhcNMTUwMTAxMTIwMDAwWhcNMTYwMTAxMTIwMDAwWjAXMRUwEwYD
VQQDDAxJbnRlcm1lZGlhdGUwggEiMA0GCSqGSIb3DQEBAQUAA4IBDwAwggEKAoIB
AQC8Pw9WkEVXxNhCkSJZ1IFeS69zkPxfhcwUcXPFdnArLPcl57h9oB2ncLT5uAgf
WDOVXzdzwjnr2qxL/hh3NdVG59MujdXfySGYw4ZdIvAZsRzgSaet1Mfg5PHvwbdI
ON6p0/xNFKRTtoBkv/eCPgWafre0Wl9tKBqRhqb49TdCioF7JegfdeF/vwE4Bd04
rgQuip7gt8UqqntOHv+Hl8ie3TPv2fVYgASa4bZJ2bmFQNfH/uETc+VwN81AHeub
Q1LmwzGgL/uCOGKqngjdvE0rBfCjMau3R8pppkcUwWRj0AwtvGzj0pjg3yUNnx+b
BxuAD53aBGeN4M8LW+z2Yl9RAgMBAAGjgd4wgdswHQYDVR0OBBYEFHPbr8vFp9Sj
1KQLMyEEPDfOj74tMB8GA1UdIwQYMBaAFEhNk42h4EZ/L91g39HfWCksG8tPMD8G
CCsGAQUFBwEBBDMwMTAvBggrBgEFBQcwAoYjaHR0cDovL3VybC1mb3ItYWlhL0lu
dGVybWVkaWF0ZS5jZXIwNAYDVR0fBC0wKzApoCegJYYjaHR0cDovL3VybC1mb3It
Y3JsL0ludGVybWVkaWF0ZS5jcmwwDgYDVR0PAQH/BAQDAgEGMBIGA1UdEwEB/wQI
MAYBAf8CAQAwDQYJKoZIhvcNAQELBQADggEBAAJOxrkQ9Mc6UnPjfAJtYXez+Jhf
xfK0eHQ2a0Bu/KdTfLJe4zUIG0RsUXUpD9FswOuS2hFBbdhWAaqB4lhPJL29JWur
s7MKBRzb7cI0aBE0Z+8ygb7hUwvdK+wHE7gStUKEAuBWafFxvWwaWmRZi0yl0n0T
fZnVTpRBXGn3MhJqyanOlh9tcmA10fwvxmaiLkgebgqAB1vZt+woeMMxLchFDSiU
tJi6gx5m5/E3HvYdAFCQwFgJ8u4ChQwQZQvIKwQGkmTUNBA2mfDk+ra0JDpXbDS0
3L9I1d+XpxY9PUjtwzy3yuk2tENJ5brpwxFwL7J0MUxg2rPEtoJD6PHnGko=
-----END CERTIFICATE-----

Certificate:
    Data:
        Version: 3 (0x2)
        Serial Number: 2 (0x2)
    Signature Algorithm: sha256WithRSAEncryption
        Issuer: CN=Root
        Validity
            Not Before: Jan  1 12:00:00 2015 GMT
            Not After : Jan  1 12:00:00 2016 GMT
        Subject: CN=Intermediate
        Subject Public Key Info:
            Public Key Algorithm: rsaEncryption
                Public-Key: (2048 bit)
                Modulus:
                    00:df:e8:e6:8a:d4:14:cf:36:33:e1:1b:9d:9a:cc:
                    d0:2c:1d:50:df:32:32:c7:d8:27:cc:68:21:8b:6d:
                    1b:b0:14:8f:51:64:7f:6d:a4:ca:8d:73:b2:64:93:
                    fe:63:55:50:09:64:e6:2b:7c:e0:21:c8:39:98:13:
                    12:34:70:60:0c:67:20:4a:35:3d:9f:9b:11:f4:8d:
                    34:3f:b8:fb:b7:88:42:cb:70:94:a7:9f:b6:f2:46:
                    24:21:3f:ec:26:a6:39:63:87:04:04:9a:33:01:b6:
                    dc:05:67:79:16:d6:e2:0b:fe:de:31:9a:a7:a2:07:
                    8b:dc:1c:eb:70:ea:4a:76:b1:cd:b8:79:f8:e2:8e:
                    a4:4a:a7:c6:9b:ad:34:a6:1d:40:c9:8d:04:df:66:
                    87:a1:d4:8b:59:4e:e9:11:42:2c:7d:19:d6:e9:bb:
                    d3:2c:b3:d5:df:69:c2:00:83:f8:3b:80:98:71:92:
                    62:34:8b:6d:d4:fa:5d:d9:31:a6:d4:fb:ff:e2:9f:
                    e2:ad:0a:bf:15:63:55:54:96:d9:f2:46:01:c8:06:
                    a8:00:45:ad:b5:d1:4d:f0:e4:a8:f5:19:04:7b:03:
                    33:8f:bb:94:9d:b3:23:cd:5e:73:54:62:3b:09:0f:
                    73:8c:4f:0c:5a:2c:64:bb:33:70:49:2b:6f:cc:93:
                    49:91
                Exponent: 65537 (0x10001)
        X509v3 extensions:
            X509v3 Subject Key Identifier: 
                48:4D:93:8D:A1:E0:46:7F:2F:DD:60:DF:D1:DF:58:29:2C:1B:CB:4F
            X509v3 Authority Key Identifier: 
                keyid:1A:7A:32:47:1F:8A:2F:A8:FC:F7:F0:A3:67:37:3E:39:C8:F4:46:02

            Authority Information Access: 
                CA Issuers - URI:http://url-for-aia/Root.cer

            X509v3 CRL Distribution Points: 

                Full Name:
                  URI:http://url-for-crl/Root.crl

            X509v3 Key Usage: critical
                Certificate Sign, CRL Sign
            X509v3 Basic Constraints: critical
                CA:TRUE, pathlen:0
    Signature Algorithm: sha256WithRSAEncryption
         94:bc:e1:64:08:ca:c2:07:5e:6e:16:0a:95:78:26:81:d1:6f:
         14:5d:10:b0:4a:0b:f9:04:1f:58:68:35:1b:70:cd:d3:22:58:
         62:7d:38:a2:f3:69:af:a3:1e:a0:22:4d:9b:5a:4b:36:3e:78:
         49:a0:aa:02:9d:fe:5c:ce:df:6b:e8:f4:fb:5b:05:7c:78:4f:
         f4:66:56:0c:95:c4:31:59:33:f0:e8:be:ad:1c:5d:36:64:0d:
         b4:ee:49:19:9f:ad:b7:f5:c4:4c:8e:58:db:61:b7:a2:a7:f7:
         86:22:da:2f:07:65:33:0a:23:86:59:2d:33:37:8f:e9:a9:24:
         84:5a:43:5f:80:5a:88:97:1c:b3:ea:50:0e:10:f4:4f:36:28:
         3a:6a:4a:70:0b:78:16:97:83:ea:ae:34:94:87:02:7b:6d:a0:
         7d:1b:8c:9b:66:3e:69:f5:d1:6e:04:83:6b:f1:68:a0:69:2b:
         88:7c:57:e1:42:81:d3:a8:d8:c7:7e:aa:3a:bf:37:1e:fd:64:
         a7:3a:4a:10:3b:7e:c9:fe:d0:ac:c0:d4:f0:16:4a:78:f2:7f:
         db:db:4c:8c:96:42:27:85:02:32:b8:71:ca:41:ac:a9:5e:11:
         a1:f7:3b:4b:f4:ae:b0:25:ff:cc:4e:12:5b:ca:a6:ae:ed:71:
         c8:14:47:56
-----BEGIN CERTIFICATE-----
MIIDcDCCAligAwIBAgIBAjANBgkqhkiG9w0BAQsFADAPMQ0wCwYDVQQDDARSb290
MB4XDTE1MDEwMTEyMDAwMFoXDTE2MDEwMTEyMDAwMFowFzEVMBMGA1UEAwwMSW50
ZXJtZWRpYXRlMIIBIjANBgkqhkiG9w0BAQEFAAOCAQ8AMIIBCgKCAQEA3+jmitQU
zzYz4RudmszQLB1Q3zIyx9gnzGghi20bsBSPUWR/baTKjXOyZJP+Y1VQCWTmK3zg
Icg5mBMSNHBgDGcgSjU9n5sR9I00P7j7t4hCy3CUp5+28kYkIT/sJqY5Y4cEBJoz
AbbcBWd5FtbiC/7eMZqnogeL3BzrcOpKdrHNuHn44o6kSqfGm600ph1AyY0E32aH
odSLWU7pEUIsfRnW6bvTLLPV32nCAIP4O4CYcZJiNItt1Ppd2TGm1Pv/4p/irQq/
FWNVVJbZ8kYByAaoAEWttdFN8OSo9RkEewMzj7uUnbMjzV5zVGI7CQ9zjE8MWixk
uzNwSStvzJNJkQIDAQABo4HOMIHLMB0GA1UdDgQWBBRITZONoeBGfy/dYN/R31gp
LBvLTzAfBgNVHSMEGDAWgBQaejJHH4ovqPz38KNnNz45yPRGAjA3BggrBgEFBQcB
AQQrMCkwJwYIKwYBBQUHMAKGG2h0dHA6Ly91cmwtZm9yLWFpYS9Sb290LmNlcjAs
BgNVHR8EJTAjMCGgH6AdhhtodHRwOi8vdXJsLWZvci1jcmwvUm9vdC5jcmwwDgYD
VR0PAQH/BAQDAgEGMBIGA1UdEwEB/wQIMAYBAf8CAQAwDQYJKoZIhvcNAQELBQAD
ggEBAJS84WQIysIHXm4WCpV4JoHRbxRdELBKC/kEH1hoNRtwzdMiWGJ9OKLzaa+j
HqAiTZtaSzY+eEmgqgKd/lzO32vo9PtbBXx4T/RmVgyVxDFZM/Dovq0cXTZkDbTu
SRmfrbf1xEyOWNtht6Kn94Yi2i8HZTMKI4ZZLTM3j+mpJIRaQ1+AWoiXHLPqUA4Q
9E82KDpqSnALeBaXg+quNJSHAnttoH0bjJtmPmn10W4Eg2vxaKBpK4h8V+FCgdOo
2Md+qjq/Nx79ZKc6ShA7fsn+0KzA1PAWSnjyf9vbTIyWQieFAjK4ccpBrKleEaH3
O0v0rrAl/8xOElvKpq7tccgUR1Y=
-----END CERTIFICATE-----

Certificate:
    Data:
        Version: 3 (0x2)
        Serial Number: 1 (0x1)
    Signature Algorithm: sha256WithRSAEncryption
        Issuer: CN=Root
        Validity
            Not Before: Jan  1 12:00:00 2015 GMT
            Not After : Jan  1 12:00:00 2016 GMT
        Subject: CN=Root
        Subject Public Key Info:
            Public Key Algorithm: rsaEncryption
                Public-Key: (2048 bit)
                Modulus:
                    00:da:42:ae:40:b4:79:95:43:58:4b:a9:e0:62:96:
                    d0:f2:19:7c:6e:dc:8a:96:f6:5a:ec:66:f6:c3:9d:
                    3f:0e:18:b9:7a:60:da:df:e1:67:ce:ec:4c:8d:45:
                    8a:76:5f:1b:c7:22:1c:2b:40:4d:83:ed:1d:94:f0:
                    21:0f:d1:37:8e:9c:4e:98:29:94:3c:e3:e2:79:74:
                    4d:12:91:c9:32:b8:6e:7f:7a:d8:26:44:3d:f6:3d:
                    b6:6b:0f:2a:bd:cd:3d:24:e0:34:bc:53:8b:fa:c6:
                    86:66:ec:9e:f9:b3:c0:41:cc:23:c2:5a:72:da:de:
                    f6:56:6e:10:d0:5a:26:d1:e5:7e:f5:bb:6b:67:47:
                    2a:01:d4:5c:d2:40:89:c5:0b:19:b7:63:32:af:d9:
                    85:f2:79:77:6a:81:e1:27:13:c7:da:b9:94:7b:25:
                    c5:d0:ca:67:bb:26:8f:7a:0f:8d:19:67:6d:96:2f:
                    24:7a:76:50:c3:62:fa:ae:47:99:a4:97:af:f1:ce:
                    02:8b:fe:50:09:a2:16:07:b3:08:65:e9:35:e8:f5:
                    b6:54:c2:66:15:ac:97:76:ee:da:0d:92:6e:f1:be:
                    18:2d:8d:c5:8e:de:fc:a7:b9:fa:27:43:19:4a:08:
                    d5:ae:0e:9c:7e:7a:8e:36:2f:1d:11:5b:70:c0:77:
                    90:af
                Exponent: 65537 (0x10001)
        X509v3 extensions:
            X509v3 Subject Key Identifier: 
                1A:7A:32:47:1F:8A:2F:A8:FC:F7:F0:A3:67:37:3E:39:C8:F4:46:02
            X509v3 Authority Key Identifier: 
                keyid:1A:7A:32:47:1F:8A:2F:A8:FC:F7:F0:A3:67:37:3E:39:C8:F4:46:02

            Authority Information Access: 
                CA Issuers - URI:http://url-for-aia/Root.cer

            X509v3 CRL Distribution Points: 

                Full Name:
                  URI:http://url-for-crl/Root.crl

            X509v3 Key Usage: critical
                Certificate Sign, CRL Sign
            X509v3 Basic Constraints: critical
                CA:TRUE
    Signature Algorithm: sha256WithRSAEncryption
         c4:30:1e:17:33:a6:67:a2:0f:5e:a9:53:54:f6:2f:f6:18:ad:
         21:b8:48:8a:81:38:62:1d:63:9f:2e:ef:a6:d2:56:c4:19:b5:
         00:8e:19:fd:29:35:b9:a5:c1:26:9b:81:4a:2a:a6:37:8a:bf:
         23:5e:2c:ca:e7:8a:a6:75:7f:fd:49:1b:cc:e8:42:99:2a:b0:
         44:e3:27:17:11:88:bc:1b:b1:40:f5:5c:f0:85:22:ad:41:8d:
         a0:95:d7:94:5b:f0:a7:da:56:3a:db:5d:d3:29:d9:87:e3:1e:
         34:14:c3:91:f9:0b:91:fb:40:f4:9f:44:d9:e3:68:b8:fe:b7:
         20:8c:d4:63:da:45:60:7f:2d:42:d5:15:b5:9c:69:d6:ed:ff:
         2b:aa:49:43:0f:a8:52:0c:91:28:88:0f:da:7b:92:66:63:85:
         b6:f2:29:8f:2c:aa:c4:b4:53:32:a1:00:2f:a5:1d:34:f0:32:
         b2:59:a1:61:f4:16:42:a5:9a:fb:62:31:e3:85:3b:23:73:2d:
         c1:cc:88:97:f6:12:95:01:52:5d:c2:06:aa:85:1c:25:78:9e:
         f5:e6:8f:59:49:7c:d1:a6:e2:f4:1f:a2:7f:92:2b:6a:c0:44:
         d7:c0:e5:7f:d9:44:13:82:ae:06:ee:1f:64:04:c4:7d:7f:cf:
         04:97:2e:41
-----BEGIN TRUST_ANCHOR_UNCONSTRAINED-----
MIIDZTCCAk2gAwIBAgIBATANBgkqhkiG9w0BAQsFADAPMQ0wCwYDVQQDDARSb290
MB4XDTE1MDEwMTEyMDAwMFoXDTE2MDEwMTEyMDAwMFowDzENMAsGA1UEAwwEUm9v
dDCCASIwDQYJKoZIhvcNAQEBBQADggEPADCCAQoCggEBANpCrkC0eZVDWEup4GKW
0PIZfG7cipb2Wuxm9sOdPw4YuXpg2t/hZ87sTI1FinZfG8ciHCtATYPtHZTwIQ/R
N46cTpgplDzj4nl0TRKRyTK4bn962CZEPfY9tmsPKr3NPSTgNLxTi/rGhmbsnvmz
wEHMI8Jactre9lZuENBaJtHlfvW7a2dHKgHUXNJAicULGbdjMq/ZhfJ5d2qB4ScT
x9q5lHslxdDKZ7smj3oPjRlnbZYvJHp2UMNi+q5HmaSXr/HOAov+UAmiFgezCGXp
Nej1tlTCZhWsl3bu2g2SbvG+GC2NxY7e/Ke5+idDGUoI1a4OnH56jjYvHRFbcMB3
kK8CAwEAAaOByzCByDAdBgNVHQ4EFgQUGnoyRx+KL6j89/CjZzc+Ocj0RgIwHwYD
VR0jBBgwFoAUGnoyRx+KL6j89/CjZzc+Ocj0RgIwNwYIKwYBBQUHAQEEKzApMCcG
CCsGAQUFBzAChhtodHRwOi8vdXJsLWZvci1haWEvUm9vdC5jZXIwLAYDVR0fBCUw
IzAhoB+gHYYbaHR0cDovL3VybC1mb3ItY3JsL1Jvb3QuY3JsMA4GA1UdDwEB/wQE
AwIBBjAPBgNVHRMBAf8EBTADAQH/MA0GCSqGSIb3DQEBCwUAA4IBAQDEMB4XM6Zn
og9eqVNU9i/2GK0huEiKgThiHWOfLu+m0lbEGbUAjhn9KTW5pcEmm4FKKqY3ir8j
XizK54qmdX/9SRvM6EKZKrBE4ycXEYi8G7FA9VzwhSKtQY2gldeUW/Cn2lY6213T
KdmH4x40FMOR+QuR+0D0n0TZ42i4/rcgjNRj2kVgfy1C1RW1nGnW7f8rqklDD6hS
DJEoiA/ae5JmY4W28imPLKrEtFMyoQAvpR008DKyWaFh9BZCpZr7YjHjhTsjcy3B
zIiX9hKVAVJdwgaqhRwleJ715o9ZSXzRpuL0H6J/kitqwETXwOV/2UQTgq4G7h9k
BMR9f88Ely5B
-----END TRUST_ANCHOR_UNCONSTRAINED-----

150302120000Z
-----BEGIN TIME-----
MTUwMzAyMTIwMDAwWg==
-----END TIME-----

SUCCESS
-----BEGIN VERIFY_RESULT-----
U1VDQ0VTUw==
-----END VERIFY_RESULT-----
