[Created by: generate-basic-constraints-pathlen-0-self-issued.py]

Certificate chain with 2 intermediates. The first intermediate has a basic
constraints path length of 0. The second one is self-issued so does not count
against the path length.

Certificate:
    Data:
        Version: 3 (0x2)
        Serial Number: 2 (0x2)
    Signature Algorithm: sha256WithRSAEncryption
        Issuer: CN=Intermediate
        Validity
            Not Before: Jan  1 12:00:00 2015 GMT
            Not After : Jan  1 12:00:00 2016 GMT
        Subject: CN=Target
        Subject Public Key Info:
            Public Key Algorithm: rsaEncryption
                Public-Key: (2048 bit)
                Modulus:
                    00:c8:f1:e2:5c:ee:69:40:e3:8a:2f:c5:4c:19:35:
                    17:95:32:7f:be:5d:7c:02:19:fa:fb:e5:28:13:d2:
                    63:1e:6a:4f:a3:bc:e6:77:af:fd:de:77:de:de:41:
                    93:1a:81:d9:9e:50:65:97:c9:f2:03:67:27:84:aa:
                    fb:8a:3e:46:b3:43:07:3f:44:38:60:84:a4:79:1b:
                    f6:5c:81:5b:4b:73:07:b2:6e:57:35:12:6e:b5:79:
                    ce:34:4a:be:5c:c0:6c:5e:4a:60:86:6a:31:6a:29:
                    67:43:d3:98:51:ba:0e:30:c1:3f:99:62:1b:0f:f1:
                    bf:4d:6c:aa:04:2b:79:d4:ea:d1:ac:65:02:39:b6:
                    01:01:c5:10:6c:b5:2e:57:f7:bf:e4:fc:b7:27:6e:
                    a5:70:3d:a4:5e:ff:40:d2:73:8e:a0:9e:58:49:95:
                    31:6d:49:c3:3a:06:ee:d2:14:1e:a5:a4:04:64:55:
                    70:45:6d:0b:11:5e:81:15:f0:39:79:cc:0c:40:da:
                    79:4e:60:6d:02:96:ec:ee:0d:af:1a:fd:c1:9f:b5:
                    bb:bc:43:db:0e:6f:e9:d3:62:86:e5:23:07:b1:c1:
                    09:b9:5e:37:0e:93:06:e7:4b:93:85:bb:78:cd:2b:
                    c6:68:d4:b5:1e:c0:75:5f:00:cc:e4:a7:8c:ec:fb:
                    32:dd
                Exponent: 65537 (0x10001)
        X509v3 extensions:
            X509v3 Subject Key Identifier: 
                9A:5B:96:DC:94:94:07:D1:04:BF:29:A7:6E:F1:01:EE:6F:8B:B6:74
            X509v3 Authority Key Identifier: 
                keyid:7A:81:EF:00:EF:96:26:9C:AA:B5:A1:7B:F5:02:C4:00:DC:D1:ED:52

            Authority Information Access: 
                CA Issuers - URI:http://url-for-aia/Intermediate.cer

            X509v3 CRL Distribution Points: 

                Full Name:
                  URI:http://url-for-crl/Intermediate.crl

            X509v3 Key Usage: critical
                Digital Signature, Key Encipherment
            X509v3 Extended Key Usage: 
                TLS Web Server Authentication, TLS Web Client Authentication
    Signature Algorithm: sha256WithRSAEncryption
         19:13:bf:58:b6:96:ec:62:65:28:37:09:a3:59:b3:ae:cc:ac:
         9e:4c:83:51:66:50:e4:0b:60:13:af:4c:83:f5:5f:e0:96:f9:
         9e:b1:3b:f6:24:d6:66:4f:eb:28:5d:b3:9b:44:b7:e0:4e:3f:
         e3:60:91:34:54:fb:5e:3e:82:37:32:ff:c3:b0:18:1f:99:0e:
         94:33:4e:e8:3f:57:e5:09:2d:a7:ef:55:47:29:3e:ee:b0:11:
         d7:c7:b0:cb:57:a3:a5:cc:a6:50:24:77:71:d9:79:d8:3e:db:
         5c:cd:e2:9b:46:c7:7d:7c:a4:c7:62:47:84:b9:d5:09:a4:ec:
         a9:42:af:2c:78:eb:7e:23:b2:f8:78:a3:05:65:95:46:29:e2:
         41:57:62:24:f8:43:79:90:87:a5:70:8f:cc:67:2d:c2:26:b0:
         e8:b6:b4:66:e8:e0:08:0e:62:ad:ef:60:71:a8:d9:ee:01:4d:
         d0:1e:a1:b6:ba:4c:c0:46:b0:b8:bc:d6:1b:3b:d9:28:bb:4b:
         bb:3a:03:76:a9:4c:60:15:45:47:c3:da:25:af:62:b8:e1:9e:
         a2:22:66:47:01:94:b3:71:77:b2:f6:e3:3a:8f:4b:85:c3:38:
         71:40:c8:f6:39:31:fe:8c:70:c9:08:0a:d6:5b:89:bc:2b:01:
         55:55:ba:28
-----BEGIN CERTIFICATE-----
MIIDjTCCAnWgAwIBAgIBAjANBgkqhkiG9w0BAQsFADAXMRUwEwYDVQQDDAxJbnRl
cm1lZGlhdGUwHhcNMTUwMTAxMTIwMDAwWhcNMTYwMTAxMTIwMDAwWjARMQ8wDQYD
VQQDDAZUYXJnZXQwggEiMA0GCSqGSIb3DQEBAQUAA4IBDwAwggEKAoIBAQDI8eJc
7mlA44ovxUwZNReVMn++XXwCGfr75SgT0mMeak+jvOZ3r/3ed97eQZMagdmeUGWX
yfIDZyeEqvuKPkazQwc/RDhghKR5G/ZcgVtLcweyblc1Em61ec40Sr5cwGxeSmCG
ajFqKWdD05hRug4wwT+ZYhsP8b9NbKoEK3nU6tGsZQI5tgEBxRBstS5X97/k/Lcn
bqVwPaRe/0DSc46gnlhJlTFtScM6Bu7SFB6lpARkVXBFbQsRXoEV8Dl5zAxA2nlO
YG0CluzuDa8a/cGftbu8Q9sOb+nTYoblIwexwQm5XjcOkwbnS5OFu3jNK8Zo1LUe
wHVfAMzkp4zs+zLdAgMBAAGjgekwgeYwHQYDVR0OBBYEFJpbltyUlAfRBL8pp27x
Ae5vi7Z0MB8GA1UdIwQYMBaAFHqB7wDvliacqrWhe/UCxADc0e1SMD8GCCsGAQUF
BwEBBDMwMTAvBggrBgEFBQcwAoYjaHR0cDovL3VybC1mb3ItYWlhL0ludGVybWVk
aWF0ZS5jZXIwNAYDVR0fBC0wKzApoCegJYYjaHR0cDovL3VybC1mb3ItY3JsL0lu
dGVybWVkaWF0ZS5jcmwwDgYDVR0PAQH/BAQDAgWgMB0GA1UdJQQWMBQGCCsGAQUF
BwMBBggrBgEFBQcDAjANBgkqhkiG9w0BAQsFAAOCAQEAGRO/WLaW7GJlKDcJo1mz
rsysnkyDUWZQ5AtgE69Mg/Vf4Jb5nrE79iTWZk/rKF2zm0S34E4/42CRNFT7Xj6C
NzL/w7AYH5kOlDNO6D9X5Qktp+9VRyk+7rAR18ewy1ejpcymUCR3cdl52D7bXM3i
m0bHfXykx2JHhLnVCaTsqUKvLHjrfiOy+HijBWWVRiniQVdiJPhDeZCHpXCPzGct
wiaw6La0ZujgCA5ire9gcajZ7gFN0B6htrpMwEawuLzWGzvZKLtLuzoDdqlMYBVF
R8PaJa9iuOGeoiJmRwGUs3F3svbjOo9LhcM4cUDI9jkx/oxwyQgK1luJvCsBVVW6
KA==
-----END CERTIFICATE-----

Certificate:
    Data:
        Version: 3 (0x2)
        Serial Number: 1 (0x1)
    Signature Algorithm: sha256WithRSAEncryption
        Issuer: CN=Intermediate
        Validity
            Not Before: Jan  1 12:00:00 2015 GMT
            Not After : Jan  1 12:00:00 2016 GMT
        Subject: CN=Intermediate
        Subject Public Key Info:
            Public Key Algorithm: rsaEncryption
                Public-Key: (2048 bit)
                Modulus:
                    00:f2:7f:51:83:f1:cf:ad:13:e7:2b:10:61:a7:9a:
                    d4:a3:92:3f:c2:91:b1:87:22:2d:2b:ac:0b:bd:e2:
                    02:a0:ca:30:7b:ea:24:bf:d9:c9:2c:82:4d:a9:ba:
                    f2:21:e2:c2:ab:79:3a:f1:06:c2:bb:9a:48:2c:7e:
                    19:49:85:84:1c:c2:1c:92:a1:0b:ea:db:04:ea:ac:
                    29:14:bf:a5:1e:bb:65:81:87:15:ad:4a:84:d9:6b:
                    c6:72:c3:df:5d:8c:d3:ec:b5:8a:cc:13:38:77:04:
                    9a:1c:d9:5a:f3:db:5a:4a:d9:40:a5:bd:f1:13:e2:
                    be:03:c4:ec:a6:c0:0b:8a:8d:92:46:38:f3:23:24:
                    d3:46:28:23:52:85:70:04:c7:8d:12:b0:a9:75:e8:
                    c4:b2:f6:5d:05:05:1f:f7:c1:28:b4:0d:e6:e8:18:
                    24:9e:91:bf:56:f4:1a:47:35:67:79:19:77:92:8a:
                    c0:05:17:bc:ce:47:d7:f6:b1:20:2b:bf:c7:7e:ab:
                    03:49:07:e2:9d:2a:85:04:f6:9a:74:c1:19:f6:ed:
                    dc:9b:9e:16:14:9e:99:b7:14:8a:c2:bc:0e:58:da:
                    21:6f:42:97:d3:14:f9:c4:9a:7e:cd:da:84:92:b3:
                    bc:f6:4f:22:2c:55:9b:a5:77:e1:ce:3c:36:ce:2c:
                    32:37
                Exponent: 65537 (0x10001)
        X509v3 extensions:
            X509v3 Subject Key Identifier: 
                7A:81:EF:00:EF:96:26:9C:AA:B5:A1:7B:F5:02:C4:00:DC:D1:ED:52
            X509v3 Authority Key Identifier: 
                keyid:56:E7:9F:25:A4:B7:B0:69:2F:53:F0:23:9A:E6:16:88:B2:BB:B9:BC

            Authority Information Access: 
                CA Issuers - URI:http://url-for-aia/Intermediate.cer

            X509v3 CRL Distribution Points: 

                Full Name:
                  URI:http://url-for-crl/Intermediate.crl

            X509v3 Key Usage: critical
                Certificate Sign, CRL Sign
            X509v3 Basic Constraints: critical
                CA:TRUE, pathlen:0
    Signature Algorithm: sha256WithRSAEncryption
         54:6b:d3:d1:28:70:dc:e1:2a:0d:26:33:92:22:7c:da:43:3a:
         d3:23:bb:8f:a5:e0:49:ed:51:dc:00:bb:66:05:8a:a9:2f:e3:
         b1:fe:4d:ca:97:01:87:a2:45:88:47:93:50:81:e1:8e:c2:1b:
         25:eb:c6:62:71:65:be:2a:43:4a:6f:57:81:59:fd:f6:03:60:
         85:a3:64:50:26:a1:30:ee:a9:4f:37:11:18:04:02:b9:f3:b8:
         11:5e:f7:ec:ee:cb:cb:7e:c3:e6:b9:98:72:e7:9d:08:4d:98:
         e1:96:b0:d9:8b:02:e3:78:5c:12:38:8d:0d:df:34:b9:6c:e1:
         7c:82:73:ec:a2:67:2a:76:9e:3c:88:c0:cf:77:f3:f8:48:18:
         4a:e5:6e:59:e4:c1:e9:df:d7:ed:d2:2e:7e:0c:59:a5:ae:43:
         55:06:8e:03:8b:ac:6d:57:f0:67:ac:3f:db:4e:0b:58:92:70:
         59:b8:8d:dd:5e:ae:88:6e:51:5b:a8:fe:7c:a6:c8:f3:65:5e:
         67:a1:9e:47:2b:9c:ce:5f:52:87:cb:83:06:e9:98:45:0b:11:
         b8:db:8a:d9:7c:8c:2f:60:14:b7:36:9b:a5:d2:27:48:93:11:
         9a:3b:c1:e7:d0:3c:88:f0:dd:81:3f:7a:3d:4f:6d:ab:e2:21:
         5d:f0:a4:b6
-----BEGIN CERTIFICATE-----
MIIDiDCCAnCgAwIBAgIBATANBgkqhkiG9w0BAQsFADAXMRUwEwYDVQQDDAxJbnRl
cm1lZGlhdGUwHhcNMTUwMTAxMTIwMDAwWhcNMTYwMTAxMTIwMDAwWjAXMRUwEwYD
VQQDDAxJbnRlcm1lZGlhdGUwggEiMA0GCSqGSIb3DQEBAQUAA4IBDwAwggEKAoIB
AQDyf1GD8c+tE+crEGGnmtSjkj/CkbGHIi0rrAu94gKgyjB76iS/2cksgk2puvIh
4sKreTrxBsK7mkgsfhlJhYQcwhySoQvq2wTqrCkUv6Ueu2WBhxWtSoTZa8Zyw99d
jNPstYrMEzh3BJoc2Vrz21pK2UClvfET4r4DxOymwAuKjZJGOPMjJNNGKCNShXAE
x40SsKl16MSy9l0FBR/3wSi0DeboGCSekb9W9BpHNWd5GXeSisAFF7zOR9f2sSAr
v8d+qwNJB+KdKoUE9pp0wRn27dybnhYUnpm3FIrCvA5Y2iFvQpfTFPnEmn7N2oSS
s7z2TyIsVZuld+HOPDbOLDI3AgMBAAGjgd4wgdswHQYDVR0OBBYEFHqB7wDvliac
qrWhe/UCxADc0e1SMB8GA1UdIwQYMBaAFFbnnyWkt7BpL1PwI5rmFoiyu7m8MD8G
CCsGAQUFBwEBBDMwMTAvBggrBgEFBQcwAoYjaHR0cDovL3VybC1mb3ItYWlhL0lu
dGVybWVkaWF0ZS5jZXIwNAYDVR0fBC0wKzApoCegJYYjaHR0cDovL3VybC1mb3It
Y3JsL0ludGVybWVkaWF0ZS5jcmwwDgYDVR0PAQH/BAQDAgEGMBIGA1UdEwEB/wQI
MAYBAf8CAQAwDQYJKoZIhvcNAQELBQADggEBAFRr09EocNzhKg0mM5IifNpDOtMj
u4+l4EntUdwAu2YFiqkv47H+TcqXAYeiRYhHk1CB4Y7CGyXrxmJxZb4qQ0pvV4FZ
/fYDYIWjZFAmoTDuqU83ERgEArnzuBFe9+zuy8t+w+a5mHLnnQhNmOGWsNmLAuN4
XBI4jQ3fNLls4XyCc+yiZyp2njyIwM938/hIGErlblnkwenf1+3SLn4MWaWuQ1UG
jgOLrG1X8GesP9tOC1iScFm4jd1erohuUVuo/nymyPNlXmehnkcrnM5fUofLgwbp
mEULEbjbitl8jC9gFLc2m6XSJ0iTEZo7wefQPIjw3YE/ej1PbaviIV3wpLY=
-----END CERTIFICATE-----

Certificate:
    Data:
        Version: 3 (0x2)
        Serial Number: 2 (0x2)
    Signature Algorithm: sha256WithRSAEncryption
        Issuer: CN=Root
        Validity
            Not Before: Jan  1 12:00:00 2015 GMT
            Not After : Jan  1 12:00:00 2016 GMT
        Subject: CN=Intermediate
        Subject Public Key Info:
            Public Key Algorithm: rsaEncryption
                Public-Key: (2048 bit)
                Modulus:
                    00:ca:54:d4:15:17:dd:b1:db:15:d1:38:5b:1b:50:
                    14:2c:6f:6a:b7:68:9c:1d:22:25:5f:6d:60:8c:ca:
                    0c:00:03:a1:c9:29:c9:3b:99:70:89:5c:68:a8:45:
                    03:c3:0c:c3:28:d1:78:f7:25:50:82:7a:91:f3:cb:
                    45:77:6e:e8:9d:ee:25:61:c3:68:75:ea:12:55:0d:
                    eb:68:7d:7f:a2:29:a8:9f:f0:9f:5a:5d:49:c1:f9:
                    42:2b:d8:6e:7d:4e:7a:3c:9e:a5:1a:88:b6:4b:a0:
                    c9:ad:70:71:b8:87:e0:8d:1c:f4:9b:73:c3:71:53:
                    94:59:da:c8:d1:b8:b7:45:f5:07:27:8b:25:50:97:
                    49:d2:f2:18:e4:54:20:f2:e4:73:32:ba:eb:d4:8f:
                    91:98:47:b0:d6:a2:84:4a:eb:6f:83:74:87:03:df:
                    f1:2d:3d:80:98:02:a0:39:64:1a:9c:ca:76:f5:89:
                    5f:05:4e:5f:54:e3:bf:93:1e:f8:07:e0:6b:68:98:
                    c6:07:65:87:a2:29:7d:e4:2c:b6:74:ce:83:eb:90:
                    e1:f9:0f:7b:6d:22:0b:05:60:c9:56:5f:74:f7:52:
                    a1:35:dc:93:ea:55:e8:f3:ee:3e:af:2a:63:82:9a:
                    d0:99:8b:3a:9b:31:98:ae:89:47:1c:c8:21:0b:02:
                    49:15
                Exponent: 65537 (0x10001)
        X509v3 extensions:
            X509v3 Subject Key Identifier: 
                56:E7:9F:25:A4:B7:B0:69:2F:53:F0:23:9A:E6:16:88:B2:BB:B9:BC
            X509v3 Authority Key Identifier: 
                keyid:79:ED:B5:85:64:70:21:AA:F0:9F:A9:64:82:D5:9D:46:C7:86:45:C3

            Authority Information Access: 
                CA Issuers - URI:http://url-for-aia/Root.cer

            X509v3 CRL Distribution Points: 

                Full Name:
                  URI:http://url-for-crl/Root.crl

            X509v3 Key Usage: critical
                Certificate Sign, CRL Sign
            X509v3 Basic Constraints: critical
                CA:TRUE, pathlen:0
    Signature Algorithm: sha256WithRSAEncryption
         37:35:37:79:96:28:98:44:ea:fa:13:bf:fe:22:ab:d4:ca:f4:
         5b:31:f6:63:24:98:13:46:9e:5a:52:85:f8:fe:e2:92:24:17:
         1a:96:93:f7:bf:40:6b:25:fe:1c:bd:f3:3d:38:15:d1:03:e0:
         53:6e:2d:48:fa:0e:77:d3:a1:20:83:f1:5e:19:6c:fe:6d:68:
         b5:a4:97:ab:ca:b0:79:e7:33:be:ae:98:0c:ca:02:97:17:65:
         94:f9:c4:7b:f1:92:80:3f:09:27:a8:9e:f5:0e:82:95:2b:06:
         8d:7c:51:7b:e8:6b:0a:6f:ea:91:90:83:3b:c5:e2:85:7d:b1:
         13:c7:e8:94:a2:e0:14:e2:d7:43:29:dc:5d:cc:fa:f3:b2:8b:
         6e:6a:cf:cc:65:98:77:a3:16:5e:8c:fb:57:30:b4:a1:03:d6:
         d9:22:6a:a8:8e:19:0f:09:9a:30:ee:73:97:41:8e:ab:94:34:
         95:90:48:49:b6:b6:9b:36:54:e6:db:d8:8c:2f:e3:35:d8:70:
         4e:37:63:aa:c8:e2:da:96:5a:30:44:fa:43:a4:97:8e:ed:2e:
         4d:4c:6e:84:15:72:e9:a5:5b:9c:f3:84:2c:6c:bd:db:54:4c:
         c4:9a:e6:3d:52:30:17:11:e1:2b:cb:f9:90:53:4e:5f:12:d3:
         81:ff:7d:21
-----BEGIN CERTIFICATE-----
MIIDcDCCAligAwIBAgIBAjANBgkqhkiG9w0BAQsFADAPMQ0wCwYDVQQDDARSb290
MB4XDTE1MDEwMTEyMDAwMFoXDTE2MDEwMTEyMDAwMFowFzEVMBMGA1UEAwwMSW50
ZXJtZWRpYXRlMIIBIjANBgkqhkiG9w0BAQEFAAOCAQ8AMIIBCgKCAQEAylTUFRfd
sdsV0ThbG1AULG9qt2icHSIlX21gjMoMAAOhySnJO5lwiVxoqEUDwwzDKNF49yVQ
gnqR88tFd27one4lYcNodeoSVQ3raH1/oimon/CfWl1JwflCK9hufU56PJ6lGoi2
S6DJrXBxuIfgjRz0m3PDcVOUWdrI0bi3RfUHJ4slUJdJ0vIY5FQg8uRzMrrr1I+R
mEew1qKESutvg3SHA9/xLT2AmAKgOWQanMp29YlfBU5fVOO/kx74B+BraJjGB2WH
oil95Cy2dM6D65Dh+Q97bSILBWDJVl9091KhNdyT6lXo8+4+rypjgprQmYs6mzGY
rolHHMghCwJJFQIDAQABo4HOMIHLMB0GA1UdDgQWBBRW558lpLewaS9T8COa5haI
sru5vDAfBgNVHSMEGDAWgBR57bWFZHAhqvCfqWSC1Z1Gx4ZFwzA3BggrBgEFBQcB
AQQrMCkwJwYIKwYBBQUHMAKGG2h0dHA6Ly91cmwtZm9yLWFpYS9Sb290LmNlcjAs
BgNVHR8EJTAjMCGgH6AdhhtodHRwOi8vdXJsLWZvci1jcmwvUm9vdC5jcmwwDgYD
VR0PAQH/BAQDAgEGMBIGA1UdEwEB/wQIMAYBAf8CAQAwDQYJKoZIhvcNAQELBQAD
ggEBADc1N3mWKJhE6voTv/4iq9TK9Fsx9mMkmBNGnlpShfj+4pIkFxqWk/e/QGsl
/hy98z04FdED4FNuLUj6DnfToSCD8V4ZbP5taLWkl6vKsHnnM76umAzKApcXZZT5
xHvxkoA/CSeonvUOgpUrBo18UXvoawpv6pGQgzvF4oV9sRPH6JSi4BTi10Mp3F3M
+vOyi25qz8xlmHejFl6M+1cwtKED1tkiaqiOGQ8JmjDuc5dBjquUNJWQSEm2tps2
VObb2Iwv4zXYcE43Y6rI4tqWWjBE+kOkl47tLk1MboQVcumlW5zzhCxsvdtUTMSa
5j1SMBcR4SvL+ZBTTl8S04H/fSE=
-----END CERTIFICATE-----

Certificate:
    Data:
        Version: 3 (0x2)
        Serial Number: 1 (0x1)
    Signature Algorithm: sha256WithRSAEncryption
        Issuer: CN=Root
        Validity
            Not Before: Jan  1 12:00:00 2015 GMT
            Not After : Jan  1 12:00:00 2016 GMT
        Subject: CN=Root
        Subject Public Key Info:
            Public Key Algorithm: rsaEncryption
                Public-Key: (2048 bit)
                Modulus:
                    00:b0:41:66:34:fa:a7:25:3b:3f:2b:52:d9:40:dc:
                    86:a7:31:c8:38:fc:ff:d9:b0:f5:68:f1:41:2d:4e:
                    53:a2:c1:54:6b:73:e0:5d:33:73:0d:be:ff:09:31:
                    4f:60:79:04:19:23:b0:ad:19:a7:8e:77:dd:f9:60:
                    c2:6e:3f:b2:20:71:bb:32:6b:71:59:16:0b:b4:84:
                    47:7c:89:7a:06:80:2b:ce:67:be:c3:82:b2:41:5c:
                    4a:a9:af:08:e0:06:40:26:0c:fd:02:51:bd:5f:5b:
                    89:13:41:bc:da:cf:ac:f7:8a:9b:23:d3:6f:d1:b4:
                    0e:93:fb:30:b6:42:62:c4:e5:c3:70:81:65:2f:e6:
                    eb:d9:98:6f:73:23:44:1e:5f:d9:4c:55:ec:40:8c:
                    3d:84:7e:ca:76:31:8a:05:74:b2:f6:ad:dd:1e:b5:
                    e3:fa:5e:68:3a:46:ed:7d:33:e1:0b:f2:0c:a5:24:
                    ee:76:a8:ba:7b:24:a3:b8:55:23:eb:f4:ea:1e:13:
                    e9:ca:ac:ca:ce:fc:2e:d4:0d:5d:19:a8:6a:8e:d5:
                    c3:5d:9a:05:08:4e:ae:88:6a:05:d7:06:c4:63:a3:
                    ec:ba:67:5c:77:83:b6:c3:5d:da:6b:2f:8e:3a:62:
                    0c:95:15:e8:91:20:86:37:b0:2f:c7:ec:55:bd:7c:
                    34:df
                Exponent: 65537 (0x10001)
        X509v3 extensions:
            X509v3 Subject Key Identifier: 
                79:ED:B5:85:64:70:21:AA:F0:9F:A9:64:82:D5:9D:46:C7:86:45:C3
            X509v3 Authority Key Identifier: 
                keyid:79:ED:B5:85:64:70:21:AA:F0:9F:A9:64:82:D5:9D:46:C7:86:45:C3

            Authority Information Access: 
                CA Issuers - URI:http://url-for-aia/Root.cer

            X509v3 CRL Distribution Points: 

                Full Name:
                  URI:http://url-for-crl/Root.crl

            X509v3 Key Usage: critical
                Certificate Sign, CRL Sign
            X509v3 Basic Constraints: critical
                CA:TRUE
    Signature Algorithm: sha256WithRSAEncryption
         15:f2:28:3b:3d:cf:e7:4d:3b:d1:04:a7:16:05:66:3a:ab:20:
         23:0a:ea:62:e0:0a:7a:00:3f:e8:50:79:8b:27:56:07:39:b2:
         15:f3:f5:42:dc:ea:fe:3e:7e:f8:36:c5:62:c8:f2:ff:48:0f:
         22:c3:2d:7d:1a:17:c5:8f:0b:10:1a:16:0c:28:a4:d5:62:3d:
         b8:c9:03:9f:7b:c0:67:bc:6f:d6:46:14:ae:79:12:da:00:23:
         1a:6a:47:c4:74:4d:80:9f:2d:ac:14:98:0a:03:d3:56:81:aa:
         06:5b:30:d0:3e:1c:7c:87:7c:9e:d5:c9:00:b6:e1:14:ef:de:
         ec:88:3e:a9:37:17:e0:f9:91:8e:f5:65:db:98:14:a2:22:9b:
         5e:72:40:3f:4d:02:06:71:2f:15:5b:f1:a2:40:c2:07:3b:69:
         bd:70:91:0b:67:61:36:c2:92:2e:54:c2:ef:c8:6d:1b:4b:46:
         c4:e7:61:0e:ce:77:31:05:0e:04:d3:05:e8:b9:48:8e:fa:d3:
         9b:fc:49:7f:43:18:75:cf:99:40:4c:6b:4d:bd:9d:89:9e:b4:
         32:0d:3c:ac:2a:d0:a1:07:c1:53:17:f8:94:14:fb:ce:65:99:
         3a:b5:3e:0d:cd:f6:54:7c:9c:cd:0e:47:1f:c0:86:c3:ea:1d:
         3e:b9:29:26
-----BEGIN TRUST_ANCHOR_UNCONSTRAINED-----
MIIDZTCCAk2gAwIBAgIBATANBgkqhkiG9w0BAQsFADAPMQ0wCwYDVQQDDARSb290
MB4XDTE1MDEwMTEyMDAwMFoXDTE2MDEwMTEyMDAwMFowDzENMAsGA1UEAwwEUm9v
dDCCASIwDQYJKoZIhvcNAQEBBQADggEPADCCAQoCggEBALBBZjT6pyU7PytS2UDc
hqcxyDj8/9mw9WjxQS1OU6LBVGtz4F0zcw2+/wkxT2B5BBkjsK0Zp4533flgwm4/
siBxuzJrcVkWC7SER3yJegaAK85nvsOCskFcSqmvCOAGQCYM/QJRvV9biRNBvNrP
rPeKmyPTb9G0DpP7MLZCYsTlw3CBZS/m69mYb3MjRB5f2UxV7ECMPYR+ynYxigV0
svat3R614/peaDpG7X0z4QvyDKUk7naounsko7hVI+v06h4T6cqsys78LtQNXRmo
ao7Vw12aBQhOrohqBdcGxGOj7LpnXHeDtsNd2msvjjpiDJUV6JEghjewL8fsVb18
NN8CAwEAAaOByzCByDAdBgNVHQ4EFgQUee21hWRwIarwn6lkgtWdRseGRcMwHwYD
VR0jBBgwFoAUee21hWRwIarwn6lkgtWdRseGRcMwNwYIKwYBBQUHAQEEKzApMCcG
CCsGAQUFBzAChhtodHRwOi8vdXJsLWZvci1haWEvUm9vdC5jZXIwLAYDVR0fBCUw
IzAhoB+gHYYbaHR0cDovL3VybC1mb3ItY3JsL1Jvb3QuY3JsMA4GA1UdDwEB/wQE
AwIBBjAPBgNVHRMBAf8EBTADAQH/MA0GCSqGSIb3DQEBCwUAA4IBAQAV8ig7Pc/n
TTvRBKcWBWY6qyAjCupi4Ap6AD/oUHmLJ1YHObIV8/VC3Or+Pn74NsViyPL/SA8i
wy19GhfFjwsQGhYMKKTVYj24yQOfe8BnvG/WRhSueRLaACMaakfEdE2Any2sFJgK
A9NWgaoGWzDQPhx8h3ye1ckAtuEU797siD6pNxfg+ZGO9WXbmBSiIpteckA/TQIG
cS8VW/GiQMIHO2m9cJELZ2E2wpIuVMLvyG0bS0bE52EOzncxBQ4E0wXouUiO+tOb
/El/Qxh1z5lATGtNvZ2JnrQyDTysKtChB8FTF/iUFPvOZZk6tT4NzfZUfJzNDkcf
wIbD6h0+uSkm
-----END TRUST_ANCHOR_UNCONSTRAINED-----

150302120000Z
-----BEGIN TIME-----
MTUwMzAyMTIwMDAwWg==
-----END TIME-----

SUCCESS
-----BEGIN VERIFY_RESULT-----
U1VDQ0VTUw==
-----END VERIFY_RESULT-----

serverAuth
-----BEGIN KEY_PURPOSE-----
c2VydmVyQXV0aA==
-----END KEY_PURPOSE-----
