[Created by: generate-constrained-root-basic-constraints-ca-false.py]

Certificate chain with 1 intermediate and a trust anchor. The trust anchor
has a basic constraints extension that indicates it is NOT a CA. Verification
is expected to succeed even though the trust anchor enforces constraints, since
the CA part of basic constraints is not enforced.

Certificate:
    Data:
        Version: 3 (0x2)
        Serial Number: 1 (0x1)
    Signature Algorithm: sha256WithRSAEncryption
        Issuer: CN=Intermediate
        Validity
            Not Before: Jan  1 12:00:00 2015 GMT
            Not After : Jan  1 12:00:00 2016 GMT
        Subject: CN=Target
        Subject Public Key Info:
            Public Key Algorithm: rsaEncryption
                Public-Key: (2048 bit)
                Modulus:
                    00:ad:9f:31:d8:58:8d:85:d4:1e:b4:31:59:e6:a8:
                    38:c0:68:c6:1b:57:24:de:1d:bd:f7:d0:d8:49:b3:
                    1f:94:88:f3:bc:e2:ab:a6:38:35:88:1f:87:53:73:
                    b3:66:34:fd:1d:05:9c:be:6b:3f:68:2a:65:a5:ff:
                    8a:5e:fb:11:80:a6:dd:27:85:50:e6:5a:45:4c:1c:
                    2f:d8:f2:f7:29:a3:d5:a2:50:3c:aa:be:b9:ce:ba:
                    7e:97:6e:e8:c2:93:31:26:3f:b7:a7:9f:00:5d:a9:
                    2d:bc:a2:af:62:0e:ca:7a:f2:fe:a5:5f:b1:da:d1:
                    81:c3:70:d9:19:94:43:21:0f:b9:c9:ef:82:7c:03:
                    62:aa:25:ad:cc:43:0a:e7:cb:89:83:81:9c:13:fb:
                    4e:e8:6f:8c:44:f5:b2:49:55:bf:e7:55:83:32:08:
                    40:30:e0:24:55:a9:90:0b:b1:4d:af:81:90:3b:24:
                    7d:75:99:74:64:d8:1d:83:94:d1:40:1f:5d:23:74:
                    bd:1b:a1:3e:b4:f0:b9:e9:97:6f:ae:a2:15:af:a4:
                    12:e2:b0:5d:a5:4c:31:8c:2a:23:3c:32:f0:a8:a9:
                    ca:f0:00:a1:b4:e3:a2:97:f7:82:2e:39:d9:02:85:
                    35:51:f1:27:46:34:e0:b9:4e:b6:c0:70:f9:1d:1b:
                    d8:a9
                Exponent: 65537 (0x10001)
        X509v3 extensions:
            X509v3 Subject Key Identifier: 
                59:79:5B:6D:64:E8:28:D9:94:0C:36:92:CD:EF:90:95:F0:FE:AA:AC
            X509v3 Authority Key Identifier: 
                keyid:ED:AE:33:A9:E1:04:6D:F8:AF:86:87:70:E7:D8:A9:01:0E:75:4A:3F

            Authority Information Access: 
                CA Issuers - URI:http://url-for-aia/Intermediate.cer

            X509v3 CRL Distribution Points: 

                Full Name:
                  URI:http://url-for-crl/Intermediate.crl

            X509v3 Key Usage: critical
                Digital Signature, Key Encipherment
            X509v3 Extended Key Usage: 
                TLS Web Server Authentication, TLS Web Client Authentication
    Signature Algorithm: sha256WithRSAEncryption
         31:64:a4:b0:f8:b5:ae:c5:2b:6b:cf:1a:44:fa:f6:a7:f0:d7:
         dc:20:f9:10:e7:9f:67:cd:ed:94:97:10:ba:7a:9e:d1:1b:b7:
         24:45:f7:92:10:bc:35:22:10:09:ac:fc:58:24:2f:c3:ad:5f:
         95:71:76:91:70:53:92:00:33:a5:f2:ce:fb:f9:d3:99:7a:44:
         1e:47:4c:c4:35:b3:71:0f:98:ce:cd:5f:aa:f4:40:6b:66:89:
         91:af:e9:90:66:61:0f:14:b5:ee:d7:65:fe:51:78:01:ed:88:
         11:6b:f6:36:e9:0d:35:13:70:13:90:37:ad:4b:91:23:61:6d:
         40:82:d6:f6:14:6f:9b:9b:f8:34:8a:2a:4d:1a:8f:16:df:7d:
         a6:b0:c0:51:ad:c8:21:49:84:26:64:4a:09:cc:44:1b:3b:98:
         4c:8a:c1:e4:d6:f1:df:a4:d1:93:ec:f9:98:99:9e:60:27:59:
         9c:90:bd:fd:21:b6:eb:d5:0f:6c:7d:1e:3d:5f:ff:60:cd:dd:
         ee:28:2e:d2:c3:6a:38:b6:91:f5:59:f5:33:b9:7f:48:cf:63:
         3f:61:33:b6:9e:74:38:9b:84:d7:42:70:2f:02:eb:26:10:c3:
         09:6a:6b:c5:27:a0:b3:9c:78:a1:36:4e:bd:fd:d1:6d:31:19:
         55:32:81:22
-----BEGIN CERTIFICATE-----
MIIDjTCCAnWgAwIBAgIBATANBgkqhkiG9w0BAQsFADAXMRUwEwYDVQQDDAxJbnRl
cm1lZGlhdGUwHhcNMTUwMTAxMTIwMDAwWhcNMTYwMTAxMTIwMDAwWjARMQ8wDQYD
VQQDDAZUYXJnZXQwggEiMA0GCSqGSIb3DQEBAQUAA4IBDwAwggEKAoIBAQCtnzHY
WI2F1B60MVnmqDjAaMYbVyTeHb330NhJsx+UiPO84qumODWIH4dTc7NmNP0dBZy+
az9oKmWl/4pe+xGApt0nhVDmWkVMHC/Y8vcpo9WiUDyqvrnOun6XbujCkzEmP7en
nwBdqS28oq9iDsp68v6lX7Ha0YHDcNkZlEMhD7nJ74J8A2KqJa3MQwrny4mDgZwT
+07ob4xE9bJJVb/nVYMyCEAw4CRVqZALsU2vgZA7JH11mXRk2B2DlNFAH10jdL0b
oT608Lnpl2+uohWvpBLisF2lTDGMKiM8MvCoqcrwAKG046KX94IuOdkChTVR8SdG
NOC5TrbAcPkdG9ipAgMBAAGjgekwgeYwHQYDVR0OBBYEFFl5W21k6CjZlAw2ks3v
kJXw/qqsMB8GA1UdIwQYMBaAFO2uM6nhBG34r4aHcOfYqQEOdUo/MD8GCCsGAQUF
BwEBBDMwMTAvBggrBgEFBQcwAoYjaHR0cDovL3VybC1mb3ItYWlhL0ludGVybWVk
aWF0ZS5jZXIwNAYDVR0fBC0wKzApoCegJYYjaHR0cDovL3VybC1mb3ItY3JsL0lu
dGVybWVkaWF0ZS5jcmwwDgYDVR0PAQH/BAQDAgWgMB0GA1UdJQQWMBQGCCsGAQUF
BwMBBggrBgEFBQcDAjANBgkqhkiG9w0BAQsFAAOCAQEAMWSksPi1rsUra88aRPr2
p/DX3CD5EOefZ83tlJcQunqe0Ru3JEX3khC8NSIQCaz8WCQvw61flXF2kXBTkgAz
pfLO+/nTmXpEHkdMxDWzcQ+Yzs1fqvRAa2aJka/pkGZhDxS17tdl/lF4Ae2IEWv2
NukNNRNwE5A3rUuRI2FtQILW9hRvm5v4NIoqTRqPFt99prDAUa3IIUmEJmRKCcxE
GzuYTIrB5Nbx36TRk+z5mJmeYCdZnJC9/SG269UPbH0ePV//YM3d7igu0sNqOLaR
9Vn1M7l/SM9jP2Eztp50OJuE10JwLwLrJhDDCWprxSegs5x4oTZOvf3RbTEZVTKB
Ig==
-----END CERTIFICATE-----

Certificate:
    Data:
        Version: 3 (0x2)
        Serial Number: 2 (0x2)
    Signature Algorithm: sha256WithRSAEncryption
        Issuer: CN=Root
        Validity
            Not Before: Jan  1 12:00:00 2015 GMT
            Not After : Jan  1 12:00:00 2016 GMT
        Subject: CN=Intermediate
        Subject Public Key Info:
            Public Key Algorithm: rsaEncryption
                Public-Key: (2048 bit)
                Modulus:
                    00:c4:01:7b:4f:02:d0:de:88:53:75:4b:44:50:d4:
                    93:6d:42:9d:62:6c:62:67:a9:e7:eb:d0:08:2a:01:
                    be:06:20:38:2b:5e:a3:1a:5b:59:d3:91:9d:5e:30:
                    f7:f7:d1:7b:e3:75:08:6e:d2:c5:95:9a:6b:d2:0f:
                    67:c9:6f:43:74:36:ac:b7:49:8b:b5:45:dd:34:d8:
                    60:f0:ca:3f:e9:1a:95:be:3a:05:93:e4:95:85:c7:
                    ad:09:04:46:c1:8d:c2:c8:81:93:56:3d:a9:dc:5a:
                    30:4b:1a:ff:25:11:18:e5:17:a4:50:ff:29:49:ed:
                    70:d6:28:92:61:3c:ca:61:30:b4:11:90:c6:92:f5:
                    75:b2:1d:9c:e1:67:ef:16:f6:82:ad:fc:7f:99:98:
                    cc:b1:73:68:6d:56:a9:a0:b9:b7:4d:c8:d8:90:bf:
                    b8:34:95:8f:40:89:a3:8e:99:f7:3e:34:99:e9:60:
                    7c:b9:50:af:00:8b:1c:92:3a:90:b5:06:00:7f:7b:
                    12:0b:57:5d:e6:8a:75:a4:57:f9:11:db:c1:54:71:
                    52:da:48:04:27:7f:22:a3:e7:3b:86:72:e9:81:9e:
                    24:25:63:85:0e:c4:da:54:c2:56:af:e0:2a:9c:0d:
                    bc:b7:21:f3:0d:42:d9:f9:4c:d8:a8:49:f8:1a:08:
                    e8:51
                Exponent: 65537 (0x10001)
        X509v3 extensions:
            X509v3 Subject Key Identifier: 
                ED:AE:33:A9:E1:04:6D:F8:AF:86:87:70:E7:D8:A9:01:0E:75:4A:3F
            X509v3 Authority Key Identifier: 
                keyid:AA:B5:14:AD:96:39:AF:2F:D2:C0:EC:05:9F:91:2C:0E:04:0A:72:EF

            Authority Information Access: 
                CA Issuers - URI:http://url-for-aia/Root.cer

            X509v3 CRL Distribution Points: 

                Full Name:
                  URI:http://url-for-crl/Root.crl

            X509v3 Key Usage: critical
                Certificate Sign, CRL Sign
            X509v3 Basic Constraints: critical
                CA:TRUE
    Signature Algorithm: sha256WithRSAEncryption
         99:1e:ca:2c:10:fe:17:0e:0c:b0:f2:b4:36:50:16:e6:8f:22:
         2f:c3:5d:9d:c0:da:de:24:b2:b3:c8:8c:47:bf:fb:16:52:87:
         80:bd:db:3f:74:dd:d1:0d:16:77:cf:54:72:ee:b8:59:64:24:
         96:bf:20:22:d8:50:2b:23:7c:27:a0:b2:72:b5:a3:79:37:12:
         c7:d0:1b:cf:fb:8e:9e:0a:2f:62:b9:df:9f:83:b8:8f:d4:33:
         7c:99:a9:ce:d0:b0:ae:f1:cb:71:bd:f5:ab:ed:ce:45:30:1d:
         a3:b9:9a:0c:07:1a:5c:19:e4:28:83:40:4a:31:c6:49:6e:7d:
         44:e0:c6:ab:96:dd:47:e9:4c:94:2f:63:d0:89:ce:09:a5:cd:
         da:e0:9f:41:47:25:d1:1a:51:91:66:48:dc:eb:28:ba:b4:55:
         c3:08:a0:67:a6:63:d8:a9:27:e8:f2:43:e6:c1:75:b4:5e:ac:
         9b:8f:97:f6:4c:db:03:ce:3b:cc:49:0e:df:70:6c:69:41:eb:
         56:6a:85:b3:42:03:1a:63:67:24:9a:8c:e4:7c:9b:bf:f4:43:
         07:1a:84:d7:af:10:c2:ce:d2:06:d6:a0:ba:22:9d:1b:70:85:
         73:de:61:3e:d3:48:23:84:9c:6e:4a:6b:3d:0b:64:0d:0d:e2:
         ab:e3:6d:8c
-----BEGIN CERTIFICATE-----
MIIDbTCCAlWgAwIBAgIBAjANBgkqhkiG9w0BAQsFADAPMQ0wCwYDVQQDDARSb290
MB4XDTE1MDEwMTEyMDAwMFoXDTE2MDEwMTEyMDAwMFowFzEVMBMGA1UEAwwMSW50
ZXJtZWRpYXRlMIIBIjANBgkqhkiG9w0BAQEFAAOCAQ8AMIIBCgKCAQEAxAF7TwLQ
3ohTdUtEUNSTbUKdYmxiZ6nn69AIKgG+BiA4K16jGltZ05GdXjD399F743UIbtLF
lZpr0g9nyW9DdDast0mLtUXdNNhg8Mo/6RqVvjoFk+SVhcetCQRGwY3CyIGTVj2p
3FowSxr/JREY5RekUP8pSe1w1iiSYTzKYTC0EZDGkvV1sh2c4WfvFvaCrfx/mZjM
sXNobVapoLm3TcjYkL+4NJWPQImjjpn3PjSZ6WB8uVCvAIsckjqQtQYAf3sSC1dd
5op1pFf5EdvBVHFS2kgEJ38io+c7hnLpgZ4kJWOFDsTaVMJWr+AqnA28tyHzDULZ
+UzYqEn4GgjoUQIDAQABo4HLMIHIMB0GA1UdDgQWBBTtrjOp4QRt+K+Gh3Dn2KkB
DnVKPzAfBgNVHSMEGDAWgBSqtRStljmvL9LA7AWfkSwOBApy7zA3BggrBgEFBQcB
AQQrMCkwJwYIKwYBBQUHMAKGG2h0dHA6Ly91cmwtZm9yLWFpYS9Sb290LmNlcjAs
BgNVHR8EJTAjMCGgH6AdhhtodHRwOi8vdXJsLWZvci1jcmwvUm9vdC5jcmwwDgYD
VR0PAQH/BAQDAgEGMA8GA1UdEwEB/wQFMAMBAf8wDQYJKoZIhvcNAQELBQADggEB
AJkeyiwQ/hcODLDytDZQFuaPIi/DXZ3A2t4ksrPIjEe/+xZSh4C92z903dENFnfP
VHLuuFlkJJa/ICLYUCsjfCegsnK1o3k3EsfQG8/7jp4KL2K535+DuI/UM3yZqc7Q
sK7xy3G99avtzkUwHaO5mgwHGlwZ5CiDQEoxxklufUTgxquW3UfpTJQvY9CJzgml
zdrgn0FHJdEaUZFmSNzrKLq0VcMIoGemY9ipJ+jyQ+bBdbRerJuPl/ZM2wPOO8xJ
Dt9wbGlB61ZqhbNCAxpjZySajOR8m7/0QwcahNevEMLO0gbWoLoinRtwhXPeYT7T
SCOEnG5Kaz0LZA0N4qvjbYw=
-----END CERTIFICATE-----

Certificate:
    Data:
        Version: 3 (0x2)
        Serial Number: 1 (0x1)
    Signature Algorithm: sha256WithRSAEncryption
        Issuer: CN=Root
        Validity
            Not Before: Jan  1 12:00:00 2015 GMT
            Not After : Jan  1 12:00:00 2016 GMT
        Subject: CN=Root
        Subject Public Key Info:
            Public Key Algorithm: rsaEncryption
                Public-Key: (2048 bit)
                Modulus:
                    00:9e:35:c6:7b:c5:c8:62:47:51:3e:e2:02:5c:47:
                    ea:01:5b:46:12:0b:50:d3:56:5c:d2:9e:37:92:f6:
                    dd:c3:b6:89:d6:26:47:2f:22:96:93:f4:4e:ac:f7:
                    02:01:37:a8:be:3a:98:51:9c:6d:ae:03:70:dd:9d:
                    f0:a1:1d:a2:cf:81:ec:d7:cf:73:34:4b:29:59:bd:
                    7d:a1:2b:72:10:79:28:ce:25:c1:08:57:03:d9:b7:
                    26:cd:f2:58:7e:4a:fa:22:81:8f:f6:c9:03:08:6d:
                    53:25:dd:1b:ad:0f:64:88:59:1c:91:13:fa:b7:87:
                    4d:6b:7d:1a:6e:63:4e:08:03:d3:2d:94:35:6c:82:
                    a2:63:35:a5:e0:78:cc:75:33:1c:fa:5c:e3:c7:64:
                    cd:d3:b7:b8:cd:0b:41:a4:9e:7c:fc:c7:76:34:9e:
                    37:d1:4a:5b:fe:94:d2:6f:1a:db:6c:14:8c:46:5d:
                    c5:d3:5a:39:6c:db:1a:03:e2:9a:ab:b2:7d:77:f9:
                    68:07:b9:b0:56:43:d3:2e:2d:a4:c1:5a:98:63:26:
                    0c:65:bc:ed:35:5c:25:6c:64:86:2e:45:5d:47:b3:
                    79:21:f2:07:17:a1:08:d3:68:f6:d4:07:91:b6:85:
                    41:bd:5f:bf:58:31:a4:6c:3f:f1:2b:ac:d3:01:d3:
                    47:a9
                Exponent: 65537 (0x10001)
        X509v3 extensions:
            X509v3 Subject Key Identifier: 
                AA:B5:14:AD:96:39:AF:2F:D2:C0:EC:05:9F:91:2C:0E:04:0A:72:EF
            X509v3 Authority Key Identifier: 
                keyid:AA:B5:14:AD:96:39:AF:2F:D2:C0:EC:05:9F:91:2C:0E:04:0A:72:EF

            Authority Information Access: 
                CA Issuers - URI:http://url-for-aia/Root.cer

            X509v3 CRL Distribution Points: 

                Full Name:
                  URI:http://url-for-crl/Root.crl

            X509v3 Key Usage: critical
                Certificate Sign, CRL Sign
            X509v3 Basic Constraints: critical
                CA:FALSE
    Signature Algorithm: sha256WithRSAEncryption
         82:39:f7:d4:dd:8c:fd:7d:9a:50:88:6c:3d:30:a6:b8:5b:1d:
         23:f1:c1:7c:bf:33:9d:b1:0d:19:e9:33:bb:d9:fd:7b:b6:06:
         32:13:be:d9:33:92:51:ab:20:ca:4e:50:55:52:ab:bf:8a:f4:
         d7:ee:eb:e4:ca:9f:76:a7:39:1b:e2:6e:c9:04:56:e2:5d:6f:
         37:48:08:2e:73:66:d6:fb:a6:95:9d:cf:d5:24:ac:08:89:42:
         6f:0f:ac:40:dc:a6:9f:3e:ee:e7:78:60:fc:b3:12:6d:50:b2:
         b9:84:49:7f:39:75:2d:8f:a9:a5:15:39:58:01:ad:c9:69:36:
         f5:22:5f:ba:a4:cc:3b:0f:4c:21:b8:c9:6f:22:44:2f:28:63:
         86:30:4d:c0:c9:d0:32:9e:67:dc:22:9d:f1:1c:56:6c:5e:da:
         38:7f:08:42:c9:a8:d9:7a:35:a5:67:28:5c:d7:da:a3:c1:ff:
         65:39:a1:e4:8b:72:d4:2d:d4:5a:ab:e4:6f:b6:fd:53:82:fd:
         23:25:ea:70:8f:6a:85:ff:48:d2:83:47:71:d6:4f:86:4f:4c:
         13:16:5e:8f:8b:9a:50:5a:76:53:ad:ad:cb:11:c4:7c:3d:8a:
         bf:c5:ae:2b:1f:4a:d6:ac:58:64:9a:a7:bd:31:aa:7b:4a:67:
         2d:32:74:0d
-----BEGIN TRUST_ANCHOR_CONSTRAINED-----
MIIDYjCCAkqgAwIBAgIBATANBgkqhkiG9w0BAQsFADAPMQ0wCwYDVQQDDARSb290
MB4XDTE1MDEwMTEyMDAwMFoXDTE2MDEwMTEyMDAwMFowDzENMAsGA1UEAwwEUm9v
dDCCASIwDQYJKoZIhvcNAQEBBQADggEPADCCAQoCggEBAJ41xnvFyGJHUT7iAlxH
6gFbRhILUNNWXNKeN5L23cO2idYmRy8ilpP0Tqz3AgE3qL46mFGcba4DcN2d8KEd
os+B7NfPczRLKVm9faErchB5KM4lwQhXA9m3Js3yWH5K+iKBj/bJAwhtUyXdG60P
ZIhZHJET+reHTWt9Gm5jTggD0y2UNWyComM1peB4zHUzHPpc48dkzdO3uM0LQaSe
fPzHdjSeN9FKW/6U0m8a22wUjEZdxdNaOWzbGgPimquyfXf5aAe5sFZD0y4tpMFa
mGMmDGW87TVcJWxkhi5FXUezeSHyBxehCNNo9tQHkbaFQb1fv1gxpGw/8Sus0wHT
R6kCAwEAAaOByDCBxTAdBgNVHQ4EFgQUqrUUrZY5ry/SwOwFn5EsDgQKcu8wHwYD
VR0jBBgwFoAUqrUUrZY5ry/SwOwFn5EsDgQKcu8wNwYIKwYBBQUHAQEEKzApMCcG
CCsGAQUFBzAChhtodHRwOi8vdXJsLWZvci1haWEvUm9vdC5jZXIwLAYDVR0fBCUw
IzAhoB+gHYYbaHR0cDovL3VybC1mb3ItY3JsL1Jvb3QuY3JsMA4GA1UdDwEB/wQE
AwIBBjAMBgNVHRMBAf8EAjAAMA0GCSqGSIb3DQEBCwUAA4IBAQCCOffU3Yz9fZpQ
iGw9MKa4Wx0j8cF8vzOdsQ0Z6TO72f17tgYyE77ZM5JRqyDKTlBVUqu/ivTX7uvk
yp92pzkb4m7JBFbiXW83SAguc2bW+6aVnc/VJKwIiUJvD6xA3KafPu7neGD8sxJt
ULK5hEl/OXUtj6mlFTlYAa3JaTb1Il+6pMw7D0whuMlvIkQvKGOGME3AydAynmfc
Ip3xHFZsXto4fwhCyajZejWlZyhc19qjwf9lOaHki3LULdRaq+Rvtv1Tgv0jJepw
j2qF/0jSg0dx1k+GT0wTFl6Pi5pQWnZTra3LEcR8PYq/xa4rH0rWrFhkmqe9Map7
SmctMnQN
-----END TRUST_ANCHOR_CONSTRAINED-----

150302120000Z
-----BEGIN TIME-----
MTUwMzAyMTIwMDAwWg==
-----END TIME-----

SUCCESS
-----BEGIN VERIFY_RESULT-----
U1VDQ0VTUw==
-----END VERIFY_RESULT-----

serverAuth
-----BEGIN KEY_PURPOSE-----
c2VydmVyQXV0aA==
-----END KEY_PURPOSE-----
