[Created by: generate-constrained-non-self-signed-root.py]

Certificate chain with 1 intermediate and a non-self-signed trust anchor.
Verification should succeed, it doesn't matter that the root was not
self-signed if it is designated as the trust anchor.

Certificate:
    Data:
        Version: 3 (0x2)
        Serial Number: 1 (0x1)
    Signature Algorithm: sha256WithRSAEncryption
        Issuer: CN=Intermediate
        Validity
            Not Before: Jan  1 12:00:00 2015 GMT
            Not After : Jan  1 12:00:00 2016 GMT
        Subject: CN=Target
        Subject Public Key Info:
            Public Key Algorithm: rsaEncryption
                Public-Key: (2048 bit)
                Modulus:
                    00:e6:27:55:64:41:33:04:6b:80:a5:13:f1:bf:73:
                    1c:1a:4f:ba:fe:8a:34:0d:aa:5a:1e:a0:58:f6:ae:
                    53:bf:e1:86:1c:b3:6f:92:fa:52:4e:56:81:12:8a:
                    24:3f:78:6d:0e:98:1a:c4:7f:14:2c:f1:72:3c:0d:
                    d2:7c:1d:e4:11:24:73:9e:8f:6a:1b:1d:c4:46:b7:
                    dd:8a:8c:df:04:31:a7:67:c8:68:08:4e:f9:45:68:
                    17:aa:00:10:44:16:3b:8c:63:93:d7:7e:c5:79:9a:
                    bc:e1:2e:cc:57:0d:ae:b4:35:63:10:3f:6b:46:19:
                    48:2c:80:f4:03:0c:f4:f6:5b:e0:3f:35:90:97:80:
                    42:35:ed:30:6d:8d:25:a4:24:b7:61:95:02:ec:a7:
                    9b:89:7e:75:22:80:34:3c:c8:9b:ea:72:5f:85:38:
                    f5:28:2a:54:f4:59:d0:9a:34:04:df:26:5f:67:17:
                    9a:8c:fd:a3:c4:be:c5:8c:8e:72:29:b5:bf:ce:17:
                    f5:6a:68:0e:6b:9b:7a:94:3d:d0:6a:58:72:58:9a:
                    a1:4f:eb:1d:14:26:ea:f9:e2:16:d8:c9:68:c9:14:
                    04:2e:3c:5f:ec:69:f2:b9:0f:e3:84:30:01:7a:54:
                    98:fb:b5:2f:e0:e1:ef:f2:dd:fa:b5:41:0c:4e:76:
                    d1:95
                Exponent: 65537 (0x10001)
        X509v3 extensions:
            X509v3 Subject Key Identifier: 
                32:15:E6:F8:4B:BD:4C:36:3B:51:35:D9:6E:0D:00:1C:A5:6E:DF:EF
            X509v3 Authority Key Identifier: 
                keyid:FB:DA:0E:92:4D:60:FD:C1:2C:1C:F6:9B:00:54:DA:31:BA:D0:98:F9

            Authority Information Access: 
                CA Issuers - URI:http://url-for-aia/Intermediate.cer

            X509v3 CRL Distribution Points: 

                Full Name:
                  URI:http://url-for-crl/Intermediate.crl

            X509v3 Key Usage: critical
                Digital Signature, Key Encipherment
            X509v3 Extended Key Usage: 
                TLS Web Server Authentication, TLS Web Client Authentication
    Signature Algorithm: sha256WithRSAEncryption
         04:cb:ae:c2:7e:4b:84:73:79:b0:b9:a8:1c:39:0e:87:6c:e5:
         ca:8e:64:6e:59:31:bd:be:63:c9:24:4d:fb:a2:c9:c0:4d:09:
         5f:53:28:a6:17:7e:3a:dd:03:31:0c:85:9e:c5:2c:5d:4c:3c:
         ef:57:2b:03:93:4a:de:6d:19:ba:9e:ae:d6:32:9f:5b:35:24:
         f0:45:d9:65:07:bf:8c:0e:e7:e2:01:06:0e:e8:3d:27:55:bd:
         76:06:26:90:e0:75:29:2f:d5:e7:c9:ed:c1:27:7d:45:f4:5b:
         88:f2:2a:7c:ef:c8:bb:e5:b2:0b:01:19:ef:f5:93:29:d5:5e:
         f1:0e:cf:68:7b:c7:88:40:39:f1:5d:90:c1:45:5e:82:7e:85:
         a8:ff:af:71:7f:a8:e2:63:f4:7a:d9:9e:e1:af:e2:90:53:8d:
         1a:b3:75:29:9c:bd:71:53:8b:bc:fe:af:47:b9:7e:9e:8d:fd:
         6c:23:7b:44:83:61:9f:3e:6a:92:4b:88:80:c5:53:95:32:a3:
         11:e7:f1:76:1d:21:3f:29:92:53:dd:c2:41:fd:31:bf:78:6a:
         01:87:70:e3:89:9f:f9:1e:b6:c6:f5:77:d4:67:99:0f:96:35:
         0b:2b:d9:5e:25:97:b8:5d:b2:ea:cf:38:f3:b2:b6:be:44:12:
         24:62:b6:9f
-----BEGIN CERTIFICATE-----
MIIDjTCCAnWgAwIBAgIBATANBgkqhkiG9w0BAQsFADAXMRUwEwYDVQQDDAxJbnRl
cm1lZGlhdGUwHhcNMTUwMTAxMTIwMDAwWhcNMTYwMTAxMTIwMDAwWjARMQ8wDQYD
VQQDDAZUYXJnZXQwggEiMA0GCSqGSIb3DQEBAQUAA4IBDwAwggEKAoIBAQDmJ1Vk
QTMEa4ClE/G/cxwaT7r+ijQNqloeoFj2rlO/4YYcs2+S+lJOVoESiiQ/eG0OmBrE
fxQs8XI8DdJ8HeQRJHOej2obHcRGt92KjN8EMadnyGgITvlFaBeqABBEFjuMY5PX
fsV5mrzhLsxXDa60NWMQP2tGGUgsgPQDDPT2W+A/NZCXgEI17TBtjSWkJLdhlQLs
p5uJfnUigDQ8yJvqcl+FOPUoKlT0WdCaNATfJl9nF5qM/aPEvsWMjnIptb/OF/Vq
aA5rm3qUPdBqWHJYmqFP6x0UJur54hbYyWjJFAQuPF/safK5D+OEMAF6VJj7tS/g
4e/y3fq1QQxOdtGVAgMBAAGjgekwgeYwHQYDVR0OBBYEFDIV5vhLvUw2O1E12W4N
ABylbt/vMB8GA1UdIwQYMBaAFPvaDpJNYP3BLBz2mwBU2jG60Jj5MD8GCCsGAQUF
BwEBBDMwMTAvBggrBgEFBQcwAoYjaHR0cDovL3VybC1mb3ItYWlhL0ludGVybWVk
aWF0ZS5jZXIwNAYDVR0fBC0wKzApoCegJYYjaHR0cDovL3VybC1mb3ItY3JsL0lu
dGVybWVkaWF0ZS5jcmwwDgYDVR0PAQH/BAQDAgWgMB0GA1UdJQQWMBQGCCsGAQUF
BwMBBggrBgEFBQcDAjANBgkqhkiG9w0BAQsFAAOCAQEABMuuwn5LhHN5sLmoHDkO
h2zlyo5kblkxvb5jySRN+6LJwE0JX1Mophd+Ot0DMQyFnsUsXUw871crA5NK3m0Z
up6u1jKfWzUk8EXZZQe/jA7n4gEGDug9J1W9dgYmkOB1KS/V58ntwSd9RfRbiPIq
fO/Iu+WyCwEZ7/WTKdVe8Q7PaHvHiEA58V2QwUVegn6FqP+vcX+o4mP0etme4a/i
kFONGrN1KZy9cVOLvP6vR7l+no39bCN7RINhnz5qkkuIgMVTlTKjEefxdh0hPymS
U93CQf0xv3hqAYdw44mf+R62xvV31GeZD5Y1CyvZXiWXuF2y6s8487K2vkQSJGK2
nw==
-----END CERTIFICATE-----

Certificate:
    Data:
        Version: 3 (0x2)
        Serial Number: 1 (0x1)
    Signature Algorithm: sha256WithRSAEncryption
        Issuer: CN=Root
        Validity
            Not Before: Jan  1 12:00:00 2015 GMT
            Not After : Jan  1 12:00:00 2016 GMT
        Subject: CN=Intermediate
        Subject Public Key Info:
            Public Key Algorithm: rsaEncryption
                Public-Key: (2048 bit)
                Modulus:
                    00:f0:15:83:ff:9f:31:22:1a:3d:4a:0c:45:cf:41:
                    5e:a1:d0:58:3e:77:f0:8f:78:5b:64:e2:c2:d2:0e:
                    b4:f8:c3:f3:ba:9a:10:d6:90:9d:93:f9:35:ad:4e:
                    96:35:e5:e6:a3:52:1b:23:13:3c:3d:e8:9b:ad:de:
                    7d:05:52:40:f1:c1:90:af:a2:29:2e:81:99:7e:24:
                    e3:34:b5:cf:01:f2:96:25:40:97:4e:61:29:88:5e:
                    f6:74:ed:79:94:8c:92:23:dd:56:4d:77:3e:f2:5c:
                    59:1f:7c:21:37:6b:df:27:d1:13:3a:96:0d:e5:e4:
                    3c:60:18:42:df:b0:c1:50:b5:e3:4c:83:c9:7f:b5:
                    f2:06:c4:fd:eb:ea:1d:e6:d8:bc:6f:37:a7:d2:2d:
                    e6:88:b4:a2:66:cc:5c:43:68:90:b5:ad:af:3f:12:
                    44:5a:93:27:97:5a:72:bb:a2:88:87:87:44:17:72:
                    8e:c0:43:67:84:c6:63:66:b8:c4:93:89:b2:a8:6d:
                    4f:18:fd:39:6f:66:34:1a:b8:f6:ee:40:d7:60:10:
                    7e:e4:30:fc:08:85:43:6a:8b:3c:05:66:1e:e0:6a:
                    90:c3:fa:ef:09:e9:eb:a4:08:9d:08:af:d0:f6:b0:
                    20:ff:9e:7d:7b:ec:57:0b:d7:ab:7a:b2:b2:50:26:
                    d2:6d
                Exponent: 65537 (0x10001)
        X509v3 extensions:
            X509v3 Subject Key Identifier: 
                FB:DA:0E:92:4D:60:FD:C1:2C:1C:F6:9B:00:54:DA:31:BA:D0:98:F9
            X509v3 Authority Key Identifier: 
                keyid:2A:0D:A0:73:85:3A:BA:A8:17:8D:8D:97:60:4F:7E:3C:85:53:B8:F2

            Authority Information Access: 
                CA Issuers - URI:http://url-for-aia/Root.cer

            X509v3 CRL Distribution Points: 

                Full Name:
                  URI:http://url-for-crl/Root.crl

            X509v3 Key Usage: critical
                Certificate Sign, CRL Sign
            X509v3 Basic Constraints: critical
                CA:TRUE
    Signature Algorithm: sha256WithRSAEncryption
         30:00:47:cc:03:e0:c2:98:f6:a9:44:a4:e0:31:40:63:47:a4:
         67:df:98:9b:d9:d4:67:56:d4:9c:d9:83:31:54:d7:16:16:11:
         af:04:39:08:d0:3a:3d:e1:ca:29:19:34:b9:0c:dc:f1:1e:3d:
         98:88:d4:e3:64:3d:6b:fb:f4:f2:57:87:a9:e3:92:ba:33:a7:
         0c:33:86:ee:b7:59:9d:29:b0:85:ec:c0:00:31:99:1c:5d:08:
         74:6d:43:b5:44:84:2f:83:02:b8:e3:c0:33:7f:13:29:d2:52:
         3d:b8:08:e2:ba:c8:fb:fc:08:2c:c7:ed:f0:12:8e:d6:b2:56:
         9f:38:aa:ad:7e:63:42:ab:96:9a:e6:9c:d8:87:6a:70:5b:04:
         52:0f:c0:3c:ae:5b:24:8c:42:8b:71:1f:ef:7d:c5:97:c2:5d:
         47:fa:9a:02:7a:c3:92:b2:bc:8a:e1:ba:81:d6:c1:09:49:29:
         48:80:a1:ff:23:42:96:a8:57:e6:bb:5d:70:e7:08:59:88:66:
         48:02:51:e9:5f:2f:04:cb:05:45:36:0b:18:a2:64:d1:d4:66:
         fb:c9:5b:c3:22:38:ca:0f:c6:62:de:b3:ad:a5:84:78:e5:bd:
         c5:ea:17:65:4e:14:41:a9:bc:d8:60:5f:09:a2:6c:72:a0:5e:
         18:0e:69:24
-----BEGIN CERTIFICATE-----
MIIDbTCCAlWgAwIBAgIBATANBgkqhkiG9w0BAQsFADAPMQ0wCwYDVQQDDARSb290
MB4XDTE1MDEwMTEyMDAwMFoXDTE2MDEwMTEyMDAwMFowFzEVMBMGA1UEAwwMSW50
ZXJtZWRpYXRlMIIBIjANBgkqhkiG9w0BAQEFAAOCAQ8AMIIBCgKCAQEA8BWD/58x
Iho9SgxFz0FeodBYPnfwj3hbZOLC0g60+MPzupoQ1pCdk/k1rU6WNeXmo1IbIxM8
Peibrd59BVJA8cGQr6IpLoGZfiTjNLXPAfKWJUCXTmEpiF72dO15lIySI91WTXc+
8lxZH3whN2vfJ9ETOpYN5eQ8YBhC37DBULXjTIPJf7XyBsT96+od5ti8bzen0i3m
iLSiZsxcQ2iQta2vPxJEWpMnl1pyu6KIh4dEF3KOwENnhMZjZrjEk4myqG1PGP05
b2Y0Grj27kDXYBB+5DD8CIVDaos8BWYe4GqQw/rvCenrpAidCK/Q9rAg/559e+xX
C9ererKyUCbSbQIDAQABo4HLMIHIMB0GA1UdDgQWBBT72g6STWD9wSwc9psAVNox
utCY+TAfBgNVHSMEGDAWgBQqDaBzhTq6qBeNjZdgT348hVO48jA3BggrBgEFBQcB
AQQrMCkwJwYIKwYBBQUHMAKGG2h0dHA6Ly91cmwtZm9yLWFpYS9Sb290LmNlcjAs
BgNVHR8EJTAjMCGgH6AdhhtodHRwOi8vdXJsLWZvci1jcmwvUm9vdC5jcmwwDgYD
VR0PAQH/BAQDAgEGMA8GA1UdEwEB/wQFMAMBAf8wDQYJKoZIhvcNAQELBQADggEB
ADAAR8wD4MKY9qlEpOAxQGNHpGffmJvZ1GdW1JzZgzFU1xYWEa8EOQjQOj3hyikZ
NLkM3PEePZiI1ONkPWv79PJXh6njkrozpwwzhu63WZ0psIXswAAxmRxdCHRtQ7VE
hC+DArjjwDN/EynSUj24COK6yPv8CCzH7fASjtayVp84qq1+Y0KrlprmnNiHanBb
BFIPwDyuWySMQotxH+99xZfCXUf6mgJ6w5KyvIrhuoHWwQlJKUiAof8jQpaoV+a7
XXDnCFmIZkgCUelfLwTLBUU2CxiiZNHUZvvJW8MiOMoPxmLes62lhHjlvcXqF2VO
FEGpvNhgXwmibHKgXhgOaSQ=
-----END CERTIFICATE-----

Certificate:
    Data:
        Version: 3 (0x2)
        Serial Number: 2 (0x2)
    Signature Algorithm: sha256WithRSAEncryption
        Issuer: CN=UberRoot
        Validity
            Not Before: Jan  1 12:00:00 2015 GMT
            Not After : Jan  1 12:00:00 2016 GMT
        Subject: CN=Root
        Subject Public Key Info:
            Public Key Algorithm: rsaEncryption
                Public-Key: (2048 bit)
                Modulus:
                    00:b9:6b:4b:41:42:a1:61:15:05:4a:1b:4d:cf:26:
                    42:0f:9d:86:1e:29:97:4c:fd:2a:c3:bd:dd:58:56:
                    46:85:20:c9:12:98:c1:cc:7c:c7:c6:43:16:47:7e:
                    f8:37:2c:60:07:e1:a3:45:f8:79:a3:68:f5:3a:90:
                    5d:2b:b5:74:ea:13:91:69:46:0d:32:c7:9a:a4:a3:
                    54:cd:16:50:dc:11:62:58:bf:ef:cc:40:d3:76:b9:
                    0c:a2:45:12:a9:63:f9:40:3f:4c:44:78:87:45:c6:
                    cc:eb:5a:c5:4f:7f:0c:8f:15:a9:bb:3c:2e:55:1c:
                    bf:75:73:7d:e3:1e:62:c6:79:08:0e:ec:c9:83:61:
                    92:b6:71:43:c4:91:a6:d3:11:c7:89:d7:92:e2:32:
                    21:9b:61:13:84:89:ab:d0:02:9b:72:2e:30:bc:19:
                    d5:56:d5:e7:ae:e4:e5:ee:59:a1:29:6b:1b:22:ac:
                    3b:33:2b:3f:06:f6:24:92:04:85:bf:fa:e2:86:06:
                    f1:46:a4:fd:1c:31:c4:1f:6e:c9:95:27:6a:9d:e9:
                    0a:24:05:c6:ad:d0:14:16:53:3c:c7:49:da:06:89:
                    89:ed:ff:0f:c3:76:ba:f6:e6:6b:f9:54:de:c3:7c:
                    4b:4e:ad:ce:fb:15:90:48:07:f6:6a:1b:f1:e3:70:
                    37:37
                Exponent: 65537 (0x10001)
        X509v3 extensions:
            X509v3 Subject Key Identifier: 
                2A:0D:A0:73:85:3A:BA:A8:17:8D:8D:97:60:4F:7E:3C:85:53:B8:F2
            X509v3 Authority Key Identifier: 
                keyid:3C:49:3D:9A:7E:00:F0:23:D1:08:68:01:1A:EB:50:33:F2:B5:1F:F2

            Authority Information Access: 
                CA Issuers - URI:http://url-for-aia/UberRoot.cer

            X509v3 CRL Distribution Points: 

                Full Name:
                  URI:http://url-for-crl/UberRoot.crl

            X509v3 Key Usage: critical
                Certificate Sign, CRL Sign
            X509v3 Basic Constraints: critical
                CA:TRUE
    Signature Algorithm: sha256WithRSAEncryption
         4d:22:da:99:6e:42:69:9e:c5:d4:77:0a:71:ff:d5:f9:20:bd:
         8c:4c:3e:7d:17:55:c8:18:09:10:99:4d:eb:e7:4d:35:63:30:
         ea:6c:b0:c7:de:2f:16:ac:f6:a6:90:61:92:c5:9b:46:31:44:
         e4:30:c3:22:6a:a1:85:e1:9c:b1:93:61:66:67:a1:89:99:bf:
         2f:b7:7e:75:83:a9:c8:c2:46:90:0d:fd:be:3c:c3:93:25:f2:
         8a:c3:6d:21:ab:cf:56:27:55:7d:05:c1:27:9a:29:5e:e5:5d:
         36:63:7e:e9:c9:56:22:c0:61:40:8a:24:ea:c1:18:7d:f5:fb:
         11:4d:92:93:49:54:6e:c2:cf:6d:19:7a:16:c7:1f:79:3d:73:
         41:17:38:5c:93:e0:b5:c3:18:27:07:3c:ae:3a:29:a1:73:60:
         12:d2:69:64:47:68:5c:75:78:78:f8:19:a4:04:25:a5:37:9b:
         ef:a8:e6:aa:d4:2c:19:48:72:9b:bb:75:30:77:46:69:e7:08:
         2b:ef:06:d3:70:d6:d2:94:45:83:91:f8:4b:e5:0c:42:72:11:
         e2:68:31:27:95:59:cd:e9:a0:06:3f:93:bd:13:fc:f9:7a:a9:
         e0:f1:7f:f6:ed:aa:3b:d4:51:39:af:f8:58:ad:9d:85:01:88:
         3e:0d:74:75
-----BEGIN TRUST_ANCHOR_CONSTRAINED-----
MIIDcTCCAlmgAwIBAgIBAjANBgkqhkiG9w0BAQsFADATMREwDwYDVQQDDAhVYmVy
Um9vdDAeFw0xNTAxMDExMjAwMDBaFw0xNjAxMDExMjAwMDBaMA8xDTALBgNVBAMM
BFJvb3QwggEiMA0GCSqGSIb3DQEBAQUAA4IBDwAwggEKAoIBAQC5a0tBQqFhFQVK
G03PJkIPnYYeKZdM/SrDvd1YVkaFIMkSmMHMfMfGQxZHfvg3LGAH4aNF+HmjaPU6
kF0rtXTqE5FpRg0yx5qko1TNFlDcEWJYv+/MQNN2uQyiRRKpY/lAP0xEeIdFxszr
WsVPfwyPFam7PC5VHL91c33jHmLGeQgO7MmDYZK2cUPEkabTEceJ15LiMiGbYROE
iavQAptyLjC8GdVW1eeu5OXuWaEpaxsirDszKz8G9iSSBIW/+uKGBvFGpP0cMcQf
bsmVJ2qd6QokBcat0BQWUzzHSdoGiYnt/w/Ddrr25mv5VN7DfEtOrc77FZBIB/Zq
G/HjcDc3AgMBAAGjgdMwgdAwHQYDVR0OBBYEFCoNoHOFOrqoF42Nl2BPfjyFU7jy
MB8GA1UdIwQYMBaAFDxJPZp+APAj0QhoARrrUDPytR/yMDsGCCsGAQUFBwEBBC8w
LTArBggrBgEFBQcwAoYfaHR0cDovL3VybC1mb3ItYWlhL1ViZXJSb290LmNlcjAw
BgNVHR8EKTAnMCWgI6Ahhh9odHRwOi8vdXJsLWZvci1jcmwvVWJlclJvb3QuY3Js
MA4GA1UdDwEB/wQEAwIBBjAPBgNVHRMBAf8EBTADAQH/MA0GCSqGSIb3DQEBCwUA
A4IBAQBNItqZbkJpnsXUdwpx/9X5IL2MTD59F1XIGAkQmU3r5001YzDqbLDH3i8W
rPamkGGSxZtGMUTkMMMiaqGF4Zyxk2FmZ6GJmb8vt351g6nIwkaQDf2+PMOTJfKK
w20hq89WJ1V9BcEnmile5V02Y37pyVYiwGFAiiTqwRh99fsRTZKTSVRuws9tGXoW
xx95PXNBFzhck+C1wxgnBzyuOimhc2AS0mlkR2hcdXh4+BmkBCWlN5vvqOaq1CwZ
SHKbu3Uwd0Zp5wgr7wbTcNbSlEWDkfhL5QxCchHiaDEnlVnN6aAGP5O9E/z5eqng
8X/27ao71FE5r/hYrZ2FAYg+DXR1
-----END TRUST_ANCHOR_CONSTRAINED-----

150302120000Z
-----BEGIN TIME-----
MTUwMzAyMTIwMDAwWg==
-----END TIME-----

SUCCESS
-----BEGIN VERIFY_RESULT-----
U1VDQ0VTUw==
-----END VERIFY_RESULT-----

serverAuth
-----BEGIN KEY_PURPOSE-----
c2VydmVyQXV0aA==
-----END KEY_PURPOSE-----
