[Created by: generate-constrained-root-lacks-basic-constraints.py]

Certificate chain with 1 intermediate and a trust anchor. The trust anchor
lacks the basic constraints extension, and is loaded with anchor constraints.
This is not a problem and verification should succeed.

Certificate:
    Data:
        Version: 3 (0x2)
        Serial Number: 1 (0x1)
    Signature Algorithm: sha256WithRSAEncryption
        Issuer: CN=Intermediate
        Validity
            Not Before: Jan  1 12:00:00 2015 GMT
            Not After : Jan  1 12:00:00 2016 GMT
        Subject: CN=Target
        Subject Public Key Info:
            Public Key Algorithm: rsaEncryption
                Public-Key: (2048 bit)
                Modulus:
                    00:b7:36:7c:df:9b:72:f6:3e:9c:69:62:49:17:32:
                    9b:26:b4:c9:53:83:cb:d1:4c:bd:f3:3e:b1:06:f6:
                    b7:8b:78:8f:26:4f:72:92:03:7e:99:f3:61:60:c2:
                    44:ae:ba:50:72:49:cc:7c:be:89:88:2c:cf:fc:67:
                    61:cf:8b:3f:ec:84:29:11:61:18:25:b7:1e:1a:3c:
                    38:f0:17:e4:54:14:3f:ee:42:35:f6:be:c2:9a:ab:
                    9d:dc:f9:a4:a4:4c:9b:3b:36:66:64:09:44:07:35:
                    ea:1c:82:e6:6e:d2:a8:6d:76:9f:8c:cc:7f:38:c6:
                    f0:c6:cc:b9:6e:ba:7c:28:b8:35:48:59:f2:f8:19:
                    1b:bd:2f:bd:9f:0f:4e:53:4a:9c:a4:c2:34:7b:1f:
                    97:d0:02:58:b8:6c:a3:f5:c9:81:ac:cc:5a:25:b6:
                    fe:45:15:91:b6:ea:ab:56:82:2f:04:00:df:37:a5:
                    87:b5:de:e9:aa:2c:8a:79:c2:8b:aa:d8:2c:2f:f8:
                    72:f2:cd:96:70:27:a6:b0:d7:11:02:b8:20:8a:9b:
                    01:36:71:cb:f5:f1:fa:55:4a:f4:a6:e4:84:ba:f4:
                    5b:c4:e0:5d:f7:d5:a9:e8:18:77:57:b1:f8:2f:da:
                    07:4b:38:cd:9f:43:2d:06:60:aa:7b:2d:dc:cf:df:
                    1b:3d
                Exponent: 65537 (0x10001)
        X509v3 extensions:
            X509v3 Subject Key Identifier: 
                51:BA:12:8F:AE:B3:25:F2:B6:00:9B:C9:E3:C8:0C:B0:D7:A3:82:68
            X509v3 Authority Key Identifier: 
                keyid:63:82:98:2F:91:C3:4A:70:69:98:B9:A5:D2:E7:33:E1:D5:37:9F:94

            Authority Information Access: 
                CA Issuers - URI:http://url-for-aia/Intermediate.cer

            X509v3 CRL Distribution Points: 

                Full Name:
                  URI:http://url-for-crl/Intermediate.crl

            X509v3 Key Usage: critical
                Digital Signature, Key Encipherment
            X509v3 Extended Key Usage: 
                TLS Web Server Authentication, TLS Web Client Authentication
    Signature Algorithm: sha256WithRSAEncryption
         20:8f:fb:50:37:02:9f:0c:c4:9d:02:37:46:80:4d:cc:a9:03:
         5d:5f:95:9e:d1:3b:13:c3:59:af:7a:cb:4c:46:25:b5:8d:1a:
         78:3d:41:69:fc:d6:e4:03:1d:be:5d:cf:0b:19:13:4c:12:0e:
         6a:46:94:da:10:bb:e7:57:6b:1c:1d:d4:6e:41:13:69:d2:89:
         bb:eb:2e:87:18:7d:f2:dc:69:6e:76:e0:dd:91:f8:8b:ef:5a:
         0c:48:02:41:c7:69:cd:ad:20:05:b6:61:12:12:2a:fa:86:5e:
         b4:2d:2d:df:72:b6:0d:76:07:8c:d9:a4:4d:73:f3:3c:32:25:
         eb:28:f3:12:b1:05:d5:87:fb:07:96:0f:96:63:94:e1:bc:59:
         99:ee:b1:eb:f2:17:c4:31:ef:60:20:e5:d1:4e:53:80:65:4c:
         e9:e4:be:34:9e:03:66:be:be:50:85:f1:91:d0:01:e2:b9:48:
         f6:6e:de:da:fc:da:15:0a:c6:ec:cf:4a:64:e2:21:20:6e:28:
         8a:55:fd:d5:98:10:6a:f4:cf:dd:3e:51:79:de:76:16:35:75:
         cc:ca:b5:49:e4:48:54:03:d8:50:62:90:38:c1:c4:f1:4b:06:
         f6:9f:f7:64:f7:11:17:f1:bd:13:8a:8f:66:01:8a:99:97:00:
         c8:4f:a4:33
-----BEGIN CERTIFICATE-----
MIIDjTCCAnWgAwIBAgIBATANBgkqhkiG9w0BAQsFADAXMRUwEwYDVQQDDAxJbnRl
cm1lZGlhdGUwHhcNMTUwMTAxMTIwMDAwWhcNMTYwMTAxMTIwMDAwWjARMQ8wDQYD
VQQDDAZUYXJnZXQwggEiMA0GCSqGSIb3DQEBAQUAA4IBDwAwggEKAoIBAQC3Nnzf
m3L2PpxpYkkXMpsmtMlTg8vRTL3zPrEG9reLeI8mT3KSA36Z82FgwkSuulByScx8
vomILM/8Z2HPiz/shCkRYRgltx4aPDjwF+RUFD/uQjX2vsKaq53c+aSkTJs7NmZk
CUQHNeocguZu0qhtdp+MzH84xvDGzLluunwouDVIWfL4GRu9L72fD05TSpykwjR7
H5fQAli4bKP1yYGszFoltv5FFZG26qtWgi8EAN83pYe13umqLIp5wouq2Cwv+HLy
zZZwJ6aw1xECuCCKmwE2ccv18fpVSvSm5IS69FvE4F331anoGHdXsfgv2gdLOM2f
Qy0GYKp7LdzP3xs9AgMBAAGjgekwgeYwHQYDVR0OBBYEFFG6Eo+usyXytgCbyePI
DLDXo4JoMB8GA1UdIwQYMBaAFGOCmC+Rw0pwaZi5pdLnM+HVN5+UMD8GCCsGAQUF
BwEBBDMwMTAvBggrBgEFBQcwAoYjaHR0cDovL3VybC1mb3ItYWlhL0ludGVybWVk
aWF0ZS5jZXIwNAYDVR0fBC0wKzApoCegJYYjaHR0cDovL3VybC1mb3ItY3JsL0lu
dGVybWVkaWF0ZS5jcmwwDgYDVR0PAQH/BAQDAgWgMB0GA1UdJQQWMBQGCCsGAQUF
BwMBBggrBgEFBQcDAjANBgkqhkiG9w0BAQsFAAOCAQEAII/7UDcCnwzEnQI3RoBN
zKkDXV+VntE7E8NZr3rLTEYltY0aeD1BafzW5AMdvl3PCxkTTBIOakaU2hC751dr
HB3UbkETadKJu+suhxh98txpbnbg3ZH4i+9aDEgCQcdpza0gBbZhEhIq+oZetC0t
33K2DXYHjNmkTXPzPDIl6yjzErEF1Yf7B5YPlmOU4bxZme6x6/IXxDHvYCDl0U5T
gGVM6eS+NJ4DZr6+UIXxkdAB4rlI9m7e2vzaFQrG7M9KZOIhIG4oilX91ZgQavTP
3T5Red52FjV1zMq1SeRIVAPYUGKQOMHE8UsG9p/3ZPcRF/G9E4qPZgGKmZcAyE+k
Mw==
-----END CERTIFICATE-----

Certificate:
    Data:
        Version: 3 (0x2)
        Serial Number: 2 (0x2)
    Signature Algorithm: sha256WithRSAEncryption
        Issuer: CN=Root
        Validity
            Not Before: Jan  1 12:00:00 2015 GMT
            Not After : Jan  1 12:00:00 2016 GMT
        Subject: CN=Intermediate
        Subject Public Key Info:
            Public Key Algorithm: rsaEncryption
                Public-Key: (2048 bit)
                Modulus:
                    00:af:2b:dd:ce:94:26:44:b4:47:07:b5:6f:6b:6d:
                    a4:e1:55:90:8b:18:52:b0:18:f2:e9:c0:5e:de:bd:
                    1f:7e:b6:82:5f:a0:c2:76:d7:32:50:13:6a:33:91:
                    93:40:ab:21:42:41:1b:cf:01:2c:99:8c:b3:dc:a0:
                    7f:77:a6:af:4b:6a:fe:cc:13:4d:5b:8d:17:a1:fc:
                    a5:27:22:86:73:c0:5c:ce:9d:41:c5:f0:37:49:7f:
                    58:6e:72:48:f8:5e:2f:ad:3d:20:81:0b:e9:02:58:
                    15:79:75:68:79:6b:73:2e:04:3a:df:0a:77:f6:b0:
                    08:94:00:39:0b:b3:6e:eb:4d:c9:0e:89:c4:d0:21:
                    36:53:18:e9:74:42:0e:a4:fd:2d:ef:5f:14:73:8e:
                    2f:40:9f:9b:6d:19:ad:95:f9:ba:a5:a9:4a:08:b7:
                    33:8d:7d:23:3e:4c:0f:d1:02:42:18:fc:d9:a5:b8:
                    fd:52:3a:e8:7b:01:1f:b7:a4:88:d7:db:32:f2:94:
                    ab:4d:41:f4:d5:ec:81:5a:65:10:02:bd:16:06:45:
                    21:55:c9:cc:80:87:99:24:ad:58:64:da:08:79:fe:
                    21:03:c8:60:9b:a1:fb:dd:05:20:99:6b:17:74:2a:
                    b1:60:62:86:6a:a7:b0:e4:1a:23:4a:97:37:1f:86:
                    3d:13
                Exponent: 65537 (0x10001)
        X509v3 extensions:
            X509v3 Subject Key Identifier: 
                63:82:98:2F:91:C3:4A:70:69:98:B9:A5:D2:E7:33:E1:D5:37:9F:94
            X509v3 Authority Key Identifier: 
                keyid:55:7A:9A:44:7D:DA:2D:AE:CD:FD:6F:F3:27:75:B0:B3:1B:38:97:C2

            Authority Information Access: 
                CA Issuers - URI:http://url-for-aia/Root.cer

            X509v3 CRL Distribution Points: 

                Full Name:
                  URI:http://url-for-crl/Root.crl

            X509v3 Key Usage: critical
                Certificate Sign, CRL Sign
            X509v3 Basic Constraints: critical
                CA:TRUE
    Signature Algorithm: sha256WithRSAEncryption
         15:35:ad:b6:a5:5b:7c:ba:fe:6e:62:c0:0e:6e:31:b7:08:15:
         db:23:4d:4f:6a:ae:aa:0c:d6:87:b2:86:84:75:10:f9:b9:47:
         63:6d:a9:b8:a8:2e:53:27:45:18:c5:d5:dd:cc:78:08:0e:ef:
         ff:0d:d7:d8:91:54:1f:59:68:1b:48:e2:f6:10:9e:cb:7a:99:
         f7:ee:1f:60:72:c0:9f:15:25:8a:74:87:61:fe:f2:79:2e:6a:
         a6:5b:c2:40:da:3d:c6:e9:05:f3:1c:8f:01:59:a7:e3:da:d9:
         b7:d5:09:81:49:87:cd:44:f4:ac:58:1d:e5:55:57:35:c6:8a:
         b9:82:72:b9:cc:6c:2a:94:91:c0:b5:c1:e8:5c:80:ed:67:35:
         35:eb:e0:0b:b8:5c:5d:6a:b4:d4:7b:4c:5f:1a:d2:62:2f:93:
         54:83:bc:4f:92:2f:59:5b:cc:b7:aa:bb:49:04:6d:ee:7f:b1:
         3b:45:52:69:b6:19:f6:69:96:be:d1:cc:56:c1:5f:dd:ff:76:
         fc:d4:d3:fb:0c:43:e4:44:fd:eb:5a:7c:f2:97:68:93:51:db:
         b7:e9:5e:c1:53:a3:99:69:18:9c:95:09:31:80:53:79:81:9a:
         c3:19:1b:3a:1c:64:e3:50:ee:ff:f9:46:30:31:d5:7f:a2:c2:
         5f:70:b8:1b
-----BEGIN CERTIFICATE-----
MIIDbTCCAlWgAwIBAgIBAjANBgkqhkiG9w0BAQsFADAPMQ0wCwYDVQQDDARSb290
MB4XDTE1MDEwMTEyMDAwMFoXDTE2MDEwMTEyMDAwMFowFzEVMBMGA1UEAwwMSW50
ZXJtZWRpYXRlMIIBIjANBgkqhkiG9w0BAQEFAAOCAQ8AMIIBCgKCAQEAryvdzpQm
RLRHB7Vva22k4VWQixhSsBjy6cBe3r0ffraCX6DCdtcyUBNqM5GTQKshQkEbzwEs
mYyz3KB/d6avS2r+zBNNW40XofylJyKGc8Bczp1BxfA3SX9YbnJI+F4vrT0ggQvp
AlgVeXVoeWtzLgQ63wp39rAIlAA5C7Nu603JDonE0CE2UxjpdEIOpP0t718Uc44v
QJ+bbRmtlfm6palKCLczjX0jPkwP0QJCGPzZpbj9UjroewEft6SI19sy8pSrTUH0
1eyBWmUQAr0WBkUhVcnMgIeZJK1YZNoIef4hA8hgm6H73QUgmWsXdCqxYGKGaqew
5BojSpc3H4Y9EwIDAQABo4HLMIHIMB0GA1UdDgQWBBRjgpgvkcNKcGmYuaXS5zPh
1TeflDAfBgNVHSMEGDAWgBRVeppEfdotrs39b/MndbCzGziXwjA3BggrBgEFBQcB
AQQrMCkwJwYIKwYBBQUHMAKGG2h0dHA6Ly91cmwtZm9yLWFpYS9Sb290LmNlcjAs
BgNVHR8EJTAjMCGgH6AdhhtodHRwOi8vdXJsLWZvci1jcmwvUm9vdC5jcmwwDgYD
VR0PAQH/BAQDAgEGMA8GA1UdEwEB/wQFMAMBAf8wDQYJKoZIhvcNAQELBQADggEB
ABU1rbalW3y6/m5iwA5uMbcIFdsjTU9qrqoM1oeyhoR1EPm5R2NtqbioLlMnRRjF
1d3MeAgO7/8N19iRVB9ZaBtI4vYQnst6mffuH2BywJ8VJYp0h2H+8nkuaqZbwkDa
PcbpBfMcjwFZp+Pa2bfVCYFJh81E9KxYHeVVVzXGirmCcrnMbCqUkcC1wehcgO1n
NTXr4Au4XF1qtNR7TF8a0mIvk1SDvE+SL1lbzLequ0kEbe5/sTtFUmm2GfZplr7R
zFbBX93/dvzU0/sMQ+RE/etafPKXaJNR27fpXsFTo5lpGJyVCTGAU3mBmsMZGzoc
ZONQ7v/5RjAx1X+iwl9wuBs=
-----END CERTIFICATE-----

Certificate:
    Data:
        Version: 3 (0x2)
        Serial Number: 1 (0x1)
    Signature Algorithm: sha256WithRSAEncryption
        Issuer: CN=Root
        Validity
            Not Before: Jan  1 12:00:00 2015 GMT
            Not After : Jan  1 12:00:00 2016 GMT
        Subject: CN=Root
        Subject Public Key Info:
            Public Key Algorithm: rsaEncryption
                Public-Key: (2048 bit)
                Modulus:
                    00:a6:73:2c:85:79:b0:7f:38:4f:b7:25:27:86:91:
                    4b:eb:1e:15:30:b3:65:07:71:0e:a3:23:b0:33:51:
                    9d:14:58:93:ee:42:4e:9f:87:27:a2:a9:cb:85:b4:
                    63:9a:e0:c1:56:2a:98:07:fe:0c:d8:09:9c:0a:6f:
                    4f:89:09:fc:7e:a7:1d:6b:74:82:97:3d:39:87:33:
                    eb:32:c3:72:bc:0d:05:5a:f5:02:af:f0:bc:2b:3a:
                    9a:30:a1:3e:da:6d:25:4e:ae:b6:6a:62:e6:15:39:
                    13:6a:d3:ad:5d:b8:d3:bb:09:fe:4c:f9:f5:7a:13:
                    03:98:a9:ef:29:27:ec:4b:94:fb:fc:91:a9:b6:b4:
                    86:39:44:d3:29:00:4f:88:ba:48:37:8a:f9:d1:88:
                    d7:fc:26:1f:8c:f9:58:84:6f:bf:35:62:38:81:54:
                    7b:b4:d2:d7:f1:7b:5b:6c:2b:ce:86:91:a6:e1:d4:
                    fa:d5:bb:07:c4:97:30:50:78:5f:59:a9:a1:2c:1f:
                    2b:d1:fb:88:73:dd:19:7d:4a:7e:99:bc:49:33:dd:
                    fd:37:b4:27:bf:1d:96:c6:9f:d6:af:45:b6:67:17:
                    bc:e1:09:a7:39:39:89:d4:c2:83:70:06:44:99:2b:
                    1e:73:7c:59:aa:bb:cd:20:0c:31:6e:57:cd:9e:7a:
                    d5:d5
                Exponent: 65537 (0x10001)
        X509v3 extensions:
            X509v3 Subject Key Identifier: 
                55:7A:9A:44:7D:DA:2D:AE:CD:FD:6F:F3:27:75:B0:B3:1B:38:97:C2
            X509v3 Authority Key Identifier: 
                keyid:55:7A:9A:44:7D:DA:2D:AE:CD:FD:6F:F3:27:75:B0:B3:1B:38:97:C2

            Authority Information Access: 
                CA Issuers - URI:http://url-for-aia/Root.cer

            X509v3 CRL Distribution Points: 

                Full Name:
                  URI:http://url-for-crl/Root.crl

            X509v3 Key Usage: critical
                Certificate Sign, CRL Sign
    Signature Algorithm: sha256WithRSAEncryption
         1a:6e:d8:a7:3d:20:74:d6:60:5b:41:26:b8:b4:d2:ab:64:83:
         76:83:b8:6f:68:14:87:0f:83:7a:52:f8:f5:66:9e:7c:27:8c:
         71:58:17:08:3e:24:df:a3:d8:ed:41:c1:2d:26:0c:93:24:8a:
         3d:52:7d:05:26:e2:0e:fc:da:88:7f:f4:5e:ac:d8:d1:8e:e4:
         84:a0:ef:9a:9d:ff:98:75:56:23:83:17:c9:4a:8d:44:c5:ae:
         30:f5:99:58:77:9d:69:bf:fa:eb:28:f4:e1:a2:06:57:cb:a5:
         9b:be:d0:3d:0a:aa:56:03:12:9b:ce:88:91:e6:28:fc:51:e2:
         32:fc:b0:80:88:43:74:44:e4:77:d3:67:cd:f7:f6:bb:50:8b:
         ba:66:5f:95:c1:05:8c:f0:01:aa:b3:5e:4e:fa:29:dc:1d:23:
         a7:9b:eb:27:6d:21:a1:2f:8f:f9:5f:5f:28:0b:9b:14:dd:17:
         c0:0f:74:54:d7:66:91:5e:c8:f3:61:78:be:1d:45:f8:f7:73:
         a9:2a:5e:7b:de:6d:b0:86:c2:21:61:f7:2e:00:dc:b8:e5:a4:
         89:db:b5:77:bd:49:86:d0:99:83:39:8d:da:77:31:bb:b0:9e:
         ca:7c:d5:3c:ff:41:2e:2e:81:21:1b:40:f6:9d:a7:e1:74:77:
         df:d6:fe:3d
-----BEGIN TRUST_ANCHOR_CONSTRAINED-----
MIIDVDCCAjygAwIBAgIBATANBgkqhkiG9w0BAQsFADAPMQ0wCwYDVQQDDARSb290
MB4XDTE1MDEwMTEyMDAwMFoXDTE2MDEwMTEyMDAwMFowDzENMAsGA1UEAwwEUm9v
dDCCASIwDQYJKoZIhvcNAQEBBQADggEPADCCAQoCggEBAKZzLIV5sH84T7clJ4aR
S+seFTCzZQdxDqMjsDNRnRRYk+5CTp+HJ6Kpy4W0Y5rgwVYqmAf+DNgJnApvT4kJ
/H6nHWt0gpc9OYcz6zLDcrwNBVr1Aq/wvCs6mjChPtptJU6utmpi5hU5E2rTrV24
07sJ/kz59XoTA5ip7ykn7EuU+/yRqba0hjlE0ykAT4i6SDeK+dGI1/wmH4z5WIRv
vzViOIFUe7TS1/F7W2wrzoaRpuHU+tW7B8SXMFB4X1mpoSwfK9H7iHPdGX1Kfpm8
STPd/Te0J78dlsaf1q9FtmcXvOEJpzk5idTCg3AGRJkrHnN8Waq7zSAMMW5XzZ56
1dUCAwEAAaOBujCBtzAdBgNVHQ4EFgQUVXqaRH3aLa7N/W/zJ3Wwsxs4l8IwHwYD
VR0jBBgwFoAUVXqaRH3aLa7N/W/zJ3Wwsxs4l8IwNwYIKwYBBQUHAQEEKzApMCcG
CCsGAQUFBzAChhtodHRwOi8vdXJsLWZvci1haWEvUm9vdC5jZXIwLAYDVR0fBCUw
IzAhoB+gHYYbaHR0cDovL3VybC1mb3ItY3JsL1Jvb3QuY3JsMA4GA1UdDwEB/wQE
AwIBBjANBgkqhkiG9w0BAQsFAAOCAQEAGm7Ypz0gdNZgW0EmuLTSq2SDdoO4b2gU
hw+DelL49WaefCeMcVgXCD4k36PY7UHBLSYMkySKPVJ9BSbiDvzaiH/0XqzY0Y7k
hKDvmp3/mHVWI4MXyUqNRMWuMPWZWHedab/66yj04aIGV8ulm77QPQqqVgMSm86I
keYo/FHiMvywgIhDdETkd9Nnzff2u1CLumZflcEFjPABqrNeTvop3B0jp5vrJ20h
oS+P+V9fKAubFN0XwA90VNdmkV7I82F4vh1F+PdzqSpee95tsIbCIWH3LgDcuOWk
idu1d71JhtCZgzmN2ncxu7CeynzVPP9BLi6BIRtA9p2n4XR339b+PQ==
-----END TRUST_ANCHOR_CONSTRAINED-----

150302120000Z
-----BEGIN TIME-----
MTUwMzAyMTIwMDAwWg==
-----END TIME-----

SUCCESS
-----BEGIN VERIFY_RESULT-----
U1VDQ0VTUw==
-----END VERIFY_RESULT-----

serverAuth
-----BEGIN KEY_PURPOSE-----
c2VydmVyQXV0aA==
-----END KEY_PURPOSE-----
