[Created by: generate-expired-unconstrained-root.py]

Certificate chain with 1 intermediate, where the root certificate is expired
(violates validity.notAfter). Verification is expected to succeed as
the trust anchor has no constraints (so expiration of the certificate is not
enforced).

Certificate:
    Data:
        Version: 3 (0x2)
        Serial Number: 1 (0x1)
    Signature Algorithm: sha256WithRSAEncryption
        Issuer: CN=Intermediate
        Validity
            Not Before: Jan  1 12:00:00 2015 GMT
            Not After : Jan  1 12:00:00 2016 GMT
        Subject: CN=Target
        Subject Public Key Info:
            Public Key Algorithm: rsaEncryption
                Public-Key: (2048 bit)
                Modulus:
                    00:c0:9c:7a:54:dd:91:b9:88:ea:c9:1c:de:ab:33:
                    a0:17:76:a0:ea:f3:d2:23:3d:ed:2d:69:ea:ae:b1:
                    13:39:c7:0b:1e:f3:17:6d:f3:3b:70:3a:c7:c8:dd:
                    5a:23:9a:5c:60:86:85:d9:43:45:76:fd:c0:15:3d:
                    32:de:54:36:ef:69:96:8e:36:fe:01:6a:03:ca:ba:
                    3e:93:65:b3:24:d4:af:15:e2:0c:ab:66:a5:3b:b1:
                    8e:a9:33:3f:d7:da:c5:05:1e:fd:c0:28:c5:b0:59:
                    b0:f3:fe:1c:76:5c:1d:c4:a5:c8:de:e7:90:da:31:
                    fa:29:0e:c0:03:74:8c:75:e2:42:b3:41:ea:00:bd:
                    d1:44:94:c2:8b:d6:74:82:db:e1:b7:8b:b9:ac:69:
                    23:59:03:53:bc:95:bc:54:e1:2b:20:05:e5:88:f6:
                    a2:f8:b5:bc:5b:9c:be:26:37:87:71:45:f8:7f:ea:
                    1a:bc:71:23:f0:ea:6e:8f:92:29:7f:5b:a4:87:f2:
                    7e:1d:fd:52:73:eb:80:75:df:0b:93:52:1c:04:83:
                    15:9b:75:53:41:7f:4d:4a:30:32:d7:14:f7:32:e3:
                    ac:94:de:a3:7f:3d:48:8e:2d:ab:6f:57:c2:e5:34:
                    98:c3:d5:06:b2:fb:37:53:55:b7:5f:fe:2a:79:e0:
                    b8:ab
                Exponent: 65537 (0x10001)
        X509v3 extensions:
            X509v3 Subject Key Identifier: 
                B7:E2:28:7D:8F:77:36:F1:C0:CB:79:8B:74:69:91:F2:BA:87:CC:E9
            X509v3 Authority Key Identifier: 
                keyid:1A:FB:8F:0C:10:69:F1:A4:80:32:09:03:A4:26:A9:66:2C:EF:4E:2A

            Authority Information Access: 
                CA Issuers - URI:http://url-for-aia/Intermediate.cer

            X509v3 CRL Distribution Points: 

                Full Name:
                  URI:http://url-for-crl/Intermediate.crl

            X509v3 Key Usage: critical
                Digital Signature, Key Encipherment
            X509v3 Extended Key Usage: 
                TLS Web Server Authentication, TLS Web Client Authentication
    Signature Algorithm: sha256WithRSAEncryption
         36:fd:d6:dd:d4:38:e7:81:d2:ee:2a:4b:3e:d0:0d:7b:2e:56:
         9e:99:67:f1:26:77:38:cb:b7:8b:8d:ec:64:6f:cb:c6:96:2d:
         39:d4:da:8c:34:84:08:7d:20:fb:cd:2f:25:26:bb:1b:69:d5:
         07:e8:d5:2f:8f:fb:c1:32:16:03:b1:ec:6c:a9:62:63:4d:57:
         8a:39:2f:df:3e:2a:57:7b:22:5c:43:31:ae:d6:de:a0:2c:77:
         c4:ef:d3:d5:06:db:61:5b:68:a2:3b:63:36:07:60:fa:8b:ed:
         c9:70:89:14:7f:6d:26:3f:12:d6:04:8b:22:46:f3:a2:e8:42:
         16:3e:b2:0a:d1:02:fe:01:12:48:e9:3e:7a:40:2d:f3:c2:db:
         ed:69:88:52:68:a7:bd:12:3a:66:08:55:ce:a7:06:4c:ec:ff:
         5c:3e:ba:6e:a3:5a:1b:60:30:7b:1e:87:ae:a4:9b:c5:57:cd:
         95:31:1f:7f:e0:b4:7f:a9:23:fb:70:19:c1:c4:c8:ee:52:e2:
         8b:5d:2f:78:45:69:1a:29:0c:25:5a:0d:d2:1f:70:06:70:c2:
         4b:03:e1:47:0d:38:f8:49:1a:87:d0:53:58:1d:8e:b9:e8:c2:
         a6:1c:c1:e8:d2:e9:40:85:3c:c7:81:21:f4:e7:ed:d3:29:28:
         61:dd:54:4a
-----BEGIN CERTIFICATE-----
MIIDjTCCAnWgAwIBAgIBATANBgkqhkiG9w0BAQsFADAXMRUwEwYDVQQDDAxJbnRl
cm1lZGlhdGUwHhcNMTUwMTAxMTIwMDAwWhcNMTYwMTAxMTIwMDAwWjARMQ8wDQYD
VQQDDAZUYXJnZXQwggEiMA0GCSqGSIb3DQEBAQUAA4IBDwAwggEKAoIBAQDAnHpU
3ZG5iOrJHN6rM6AXdqDq89IjPe0taequsRM5xwse8xdt8ztwOsfI3VojmlxghoXZ
Q0V2/cAVPTLeVDbvaZaONv4BagPKuj6TZbMk1K8V4gyrZqU7sY6pMz/X2sUFHv3A
KMWwWbDz/hx2XB3Epcje55DaMfopDsADdIx14kKzQeoAvdFElMKL1nSC2+G3i7ms
aSNZA1O8lbxU4SsgBeWI9qL4tbxbnL4mN4dxRfh/6hq8cSPw6m6Pkil/W6SH8n4d
/VJz64B13wuTUhwEgxWbdVNBf01KMDLXFPcy46yU3qN/PUiOLatvV8LlNJjD1Qay
+zdTVbdf/ip54LirAgMBAAGjgekwgeYwHQYDVR0OBBYEFLfiKH2PdzbxwMt5i3Rp
kfK6h8zpMB8GA1UdIwQYMBaAFBr7jwwQafGkgDIJA6QmqWYs704qMD8GCCsGAQUF
BwEBBDMwMTAvBggrBgEFBQcwAoYjaHR0cDovL3VybC1mb3ItYWlhL0ludGVybWVk
aWF0ZS5jZXIwNAYDVR0fBC0wKzApoCegJYYjaHR0cDovL3VybC1mb3ItY3JsL0lu
dGVybWVkaWF0ZS5jcmwwDgYDVR0PAQH/BAQDAgWgMB0GA1UdJQQWMBQGCCsGAQUF
BwMBBggrBgEFBQcDAjANBgkqhkiG9w0BAQsFAAOCAQEANv3W3dQ454HS7ipLPtAN
ey5Wnpln8SZ3OMu3i43sZG/LxpYtOdTajDSECH0g+80vJSa7G2nVB+jVL4/7wTIW
A7HsbKliY01Xijkv3z4qV3siXEMxrtbeoCx3xO/T1QbbYVtoojtjNgdg+ovtyXCJ
FH9tJj8S1gSLIkbzouhCFj6yCtEC/gESSOk+ekAt88Lb7WmIUminvRI6ZghVzqcG
TOz/XD66bqNaG2Awex6HrqSbxVfNlTEff+C0f6kj+3AZwcTI7lLii10veEVpGikM
JVoN0h9wBnDCSwPhRw04+Ekah9BTWB2OuejCphzB6NLpQIU8x4Eh9Oft0ykoYd1U
Sg==
-----END CERTIFICATE-----

Certificate:
    Data:
        Version: 3 (0x2)
        Serial Number: 2 (0x2)
    Signature Algorithm: sha256WithRSAEncryption
        Issuer: CN=Root
        Validity
            Not Before: Jan  1 12:00:00 2015 GMT
            Not After : Jan  1 12:00:00 2016 GMT
        Subject: CN=Intermediate
        Subject Public Key Info:
            Public Key Algorithm: rsaEncryption
                Public-Key: (2048 bit)
                Modulus:
                    00:98:93:d4:b5:fc:f1:0f:29:a9:39:6a:d1:f8:5b:
                    38:c4:35:70:4a:9a:32:32:4d:e1:06:9d:a2:03:60:
                    0f:61:82:cd:ee:1e:5d:4a:cf:20:d0:6c:62:42:67:
                    89:07:18:46:fc:d5:15:8f:59:39:48:84:02:ef:59:
                    ba:7b:8c:e7:ec:ff:4a:a5:2c:a8:fd:de:8a:94:d9:
                    19:d3:16:16:86:57:d4:35:7b:46:00:f8:29:5b:9e:
                    f7:28:1a:3b:7a:13:ac:57:75:0b:3f:3b:0b:9a:04:
                    10:d0:40:02:7a:6e:b3:aa:41:c5:7b:0a:ad:c4:dc:
                    a7:d3:23:4e:9a:96:0e:45:e3:fe:a3:a2:4e:cf:ce:
                    ec:69:b5:33:c0:f5:58:a4:d0:6a:3a:4d:5b:7a:71:
                    95:13:51:e5:9b:03:c5:15:34:4e:a7:35:6d:9e:70:
                    37:c1:d3:07:98:5e:af:db:71:49:de:62:72:5a:1f:
                    dd:ee:3e:4e:aa:c6:bd:7a:47:e5:6d:29:a0:c0:85:
                    00:4f:26:9b:8c:f3:e4:15:88:a8:50:7c:d5:02:ab:
                    27:10:48:ba:ba:93:97:3f:33:00:1b:3e:51:a2:50:
                    8c:33:e3:c9:cc:d5:99:b9:8c:f4:ba:52:73:59:ba:
                    71:d4:7f:6c:09:0f:e8:0c:35:fc:52:6f:2e:40:cd:
                    45:35
                Exponent: 65537 (0x10001)
        X509v3 extensions:
            X509v3 Subject Key Identifier: 
                1A:FB:8F:0C:10:69:F1:A4:80:32:09:03:A4:26:A9:66:2C:EF:4E:2A
            X509v3 Authority Key Identifier: 
                keyid:E0:58:5D:EB:B3:B9:03:DE:D8:1E:42:7A:A6:BB:6E:5F:32:4A:50:B7

            Authority Information Access: 
                CA Issuers - URI:http://url-for-aia/Root.cer

            X509v3 CRL Distribution Points: 

                Full Name:
                  URI:http://url-for-crl/Root.crl

            X509v3 Key Usage: critical
                Certificate Sign, CRL Sign
            X509v3 Basic Constraints: critical
                CA:TRUE
    Signature Algorithm: sha256WithRSAEncryption
         08:61:27:f8:7c:59:e5:b5:66:af:47:ce:5c:32:76:b3:48:4b:
         c1:3c:63:75:42:c6:15:18:10:6f:82:28:4c:df:57:44:40:b4:
         6a:93:f6:eb:a3:21:e5:01:3b:35:f4:df:ce:38:ea:47:be:7b:
         9b:ee:1d:40:db:be:a4:4d:24:ce:73:95:40:f3:a0:8b:16:18:
         16:f8:1c:40:8c:4d:09:85:d5:20:52:1e:3f:e4:47:58:4f:c6:
         1d:01:b9:cc:30:4e:69:e0:4b:0a:fe:57:e3:0a:7b:dd:7b:6a:
         57:47:6a:e5:d2:a5:63:95:3e:eb:9d:d4:14:a1:b4:ba:ed:dd:
         f9:05:e1:8c:64:2b:29:d9:68:1d:27:58:e1:62:bb:95:0f:92:
         82:4a:7e:2e:66:8f:a8:77:e0:11:7c:e2:bc:61:82:7e:b9:80:
         c2:3c:4a:7d:dc:82:38:a6:9b:de:2d:92:ba:72:1e:aa:37:59:
         67:5b:aa:9f:37:20:ac:d5:d7:00:4a:ea:8c:db:ed:f2:2e:a4:
         5d:dc:66:6e:3a:58:3b:0a:c3:06:c9:1c:d8:57:8e:98:58:82:
         66:a9:92:4d:28:54:27:3f:83:1a:c5:61:7c:e4:22:ed:32:2f:
         8c:9a:22:2d:f2:b7:7e:14:06:3f:e3:55:aa:2c:a8:2d:87:f1:
         b0:56:1e:ba
-----BEGIN CERTIFICATE-----
MIIDbTCCAlWgAwIBAgIBAjANBgkqhkiG9w0BAQsFADAPMQ0wCwYDVQQDDARSb290
MB4XDTE1MDEwMTEyMDAwMFoXDTE2MDEwMTEyMDAwMFowFzEVMBMGA1UEAwwMSW50
ZXJtZWRpYXRlMIIBIjANBgkqhkiG9w0BAQEFAAOCAQ8AMIIBCgKCAQEAmJPUtfzx
DympOWrR+Fs4xDVwSpoyMk3hBp2iA2APYYLN7h5dSs8g0GxiQmeJBxhG/NUVj1k5
SIQC71m6e4zn7P9KpSyo/d6KlNkZ0xYWhlfUNXtGAPgpW573KBo7ehOsV3ULPzsL
mgQQ0EACem6zqkHFewqtxNyn0yNOmpYOReP+o6JOz87sabUzwPVYpNBqOk1benGV
E1HlmwPFFTROpzVtnnA3wdMHmF6v23FJ3mJyWh/d7j5Oqsa9ekflbSmgwIUATyab
jPPkFYioUHzVAqsnEEi6upOXPzMAGz5RolCMM+PJzNWZuYz0ulJzWbpx1H9sCQ/o
DDX8Um8uQM1FNQIDAQABo4HLMIHIMB0GA1UdDgQWBBQa+48MEGnxpIAyCQOkJqlm
LO9OKjAfBgNVHSMEGDAWgBTgWF3rs7kD3tgeQnqmu25fMkpQtzA3BggrBgEFBQcB
AQQrMCkwJwYIKwYBBQUHMAKGG2h0dHA6Ly91cmwtZm9yLWFpYS9Sb290LmNlcjAs
BgNVHR8EJTAjMCGgH6AdhhtodHRwOi8vdXJsLWZvci1jcmwvUm9vdC5jcmwwDgYD
VR0PAQH/BAQDAgEGMA8GA1UdEwEB/wQFMAMBAf8wDQYJKoZIhvcNAQELBQADggEB
AAhhJ/h8WeW1Zq9HzlwydrNIS8E8Y3VCxhUYEG+CKEzfV0RAtGqT9uujIeUBOzX0
38446ke+e5vuHUDbvqRNJM5zlUDzoIsWGBb4HECMTQmF1SBSHj/kR1hPxh0Bucww
TmngSwr+V+MKe917aldHauXSpWOVPuud1BShtLrt3fkF4YxkKynZaB0nWOFiu5UP
koJKfi5mj6h34BF84rxhgn65gMI8Sn3cgjimm94tkrpyHqo3WWdbqp83IKzV1wBK
6ozb7fIupF3cZm46WDsKwwbJHNhXjphYgmapkk0oVCc/gxrFYXzkIu0yL4yaIi3y
t34UBj/jVaosqC2H8bBWHro=
-----END CERTIFICATE-----

Certificate:
    Data:
        Version: 3 (0x2)
        Serial Number: 1 (0x1)
    Signature Algorithm: sha256WithRSAEncryption
        Issuer: CN=Root
        Validity
            Not Before: Jan  1 12:00:00 2015 GMT
            Not After : Mar  1 12:00:00 2015 GMT
        Subject: CN=Root
        Subject Public Key Info:
            Public Key Algorithm: rsaEncryption
                Public-Key: (2048 bit)
                Modulus:
                    00:c8:eb:a7:88:6d:a0:10:2f:9d:5a:19:d8:19:b2:
                    37:74:77:59:93:63:03:af:79:18:16:72:7c:86:e2:
                    9c:96:74:d8:0a:fc:88:1f:4a:0d:ed:54:84:da:56:
                    1f:f6:af:e1:53:8d:0c:9f:d2:fb:43:03:f7:00:de:
                    25:26:43:22:d6:51:d3:4c:50:f1:24:c5:f8:74:98:
                    30:ab:30:57:b6:5d:ed:9c:7a:12:1d:f2:09:9f:b2:
                    95:a5:90:65:c0:e1:35:a2:20:09:a3:6c:23:c1:20:
                    a2:17:49:3b:39:77:ee:21:33:f8:d4:c2:51:07:b9:
                    79:80:c4:32:c2:d6:72:a2:ec:1e:2a:a0:2a:2a:39:
                    7b:8e:70:2e:3e:d4:31:11:b9:19:7e:b5:0e:7d:75:
                    9f:7a:3e:3b:ad:9b:8d:6a:65:27:c9:0b:9b:c6:56:
                    e8:cf:a6:51:95:7e:b7:d6:d2:a2:50:46:31:51:71:
                    e5:94:79:1b:15:1f:3d:b4:45:6b:6c:bc:11:1e:6a:
                    be:c6:08:47:4b:eb:8d:5d:cc:14:a7:e3:a8:fc:c2:
                    84:9b:33:f9:72:41:8b:e3:54:ac:0b:52:f1:1f:f8:
                    44:ee:c6:65:c9:4e:c6:65:35:2c:d4:86:3c:a1:17:
                    69:ce:6b:e8:32:fb:6a:a9:2c:ce:0a:86:82:61:cc:
                    a0:cd
                Exponent: 65537 (0x10001)
        X509v3 extensions:
            X509v3 Subject Key Identifier: 
                E0:58:5D:EB:B3:B9:03:DE:D8:1E:42:7A:A6:BB:6E:5F:32:4A:50:B7
            X509v3 Authority Key Identifier: 
                keyid:E0:58:5D:EB:B3:B9:03:DE:D8:1E:42:7A:A6:BB:6E:5F:32:4A:50:B7

            Authority Information Access: 
                CA Issuers - URI:http://url-for-aia/Root.cer

            X509v3 CRL Distribution Points: 

                Full Name:
                  URI:http://url-for-crl/Root.crl

            X509v3 Key Usage: critical
                Certificate Sign, CRL Sign
            X509v3 Basic Constraints: critical
                CA:TRUE
    Signature Algorithm: sha256WithRSAEncryption
         64:1b:2f:a1:77:3a:56:af:6e:4c:38:25:09:0c:1e:54:d6:3b:
         57:e4:0c:82:e1:43:25:d8:a8:10:91:a7:08:79:89:13:75:8b:
         0a:a3:35:6d:e5:f5:2a:b2:ba:35:6e:84:db:2d:f0:4c:34:b6:
         75:bb:37:83:45:fd:e4:ea:9b:b4:a3:74:48:7b:b4:c5:b5:91:
         56:e1:dc:2d:f6:bd:80:32:b7:85:05:bb:71:6d:d5:83:2f:9c:
         05:ad:9a:cb:f3:c1:4e:63:05:10:6b:4a:70:aa:da:98:16:3d:
         f4:72:aa:1c:c9:87:71:26:e2:5d:c8:e4:ec:31:84:f7:e2:3d:
         6f:89:ed:1f:2f:89:2a:24:bb:be:f0:4f:8c:b9:fa:02:a2:83:
         4f:bd:23:6a:19:77:bb:7a:4f:64:57:c8:a6:17:2e:52:a6:7a:
         b5:26:50:9c:37:bd:3e:ed:a9:13:1a:51:d1:a8:2c:c0:b8:7f:
         68:8b:4c:ad:31:41:7d:f7:19:6a:f8:60:c5:96:50:b2:98:3b:
         5e:91:fe:da:22:69:00:dd:d4:f8:98:db:62:b3:5c:cf:b2:b0:
         31:de:2a:c1:d2:7f:5e:fc:1d:fd:bd:4c:14:53:72:17:3e:fd:
         a0:85:28:34:ca:36:86:a7:59:2b:72:3a:aa:3f:18:cc:83:27:
         62:91:2c:89
-----BEGIN TRUST_ANCHOR_UNCONSTRAINED-----
MIIDZTCCAk2gAwIBAgIBATANBgkqhkiG9w0BAQsFADAPMQ0wCwYDVQQDDARSb290
MB4XDTE1MDEwMTEyMDAwMFoXDTE1MDMwMTEyMDAwMFowDzENMAsGA1UEAwwEUm9v
dDCCASIwDQYJKoZIhvcNAQEBBQADggEPADCCAQoCggEBAMjrp4htoBAvnVoZ2Bmy
N3R3WZNjA695GBZyfIbinJZ02Ar8iB9KDe1UhNpWH/av4VONDJ/S+0MD9wDeJSZD
ItZR00xQ8STF+HSYMKswV7Zd7Zx6Eh3yCZ+ylaWQZcDhNaIgCaNsI8EgohdJOzl3
7iEz+NTCUQe5eYDEMsLWcqLsHiqgKio5e45wLj7UMRG5GX61Dn11n3o+O62bjWpl
J8kLm8ZW6M+mUZV+t9bSolBGMVFx5ZR5GxUfPbRFa2y8ER5qvsYIR0vrjV3MFKfj
qPzChJsz+XJBi+NUrAtS8R/4RO7GZclOxmU1LNSGPKEXac5r6DL7aqkszgqGgmHM
oM0CAwEAAaOByzCByDAdBgNVHQ4EFgQU4Fhd67O5A97YHkJ6prtuXzJKULcwHwYD
VR0jBBgwFoAU4Fhd67O5A97YHkJ6prtuXzJKULcwNwYIKwYBBQUHAQEEKzApMCcG
CCsGAQUFBzAChhtodHRwOi8vdXJsLWZvci1haWEvUm9vdC5jZXIwLAYDVR0fBCUw
IzAhoB+gHYYbaHR0cDovL3VybC1mb3ItY3JsL1Jvb3QuY3JsMA4GA1UdDwEB/wQE
AwIBBjAPBgNVHRMBAf8EBTADAQH/MA0GCSqGSIb3DQEBCwUAA4IBAQBkGy+hdzpW
r25MOCUJDB5U1jtX5AyC4UMl2KgQkacIeYkTdYsKozVt5fUqsro1boTbLfBMNLZ1
uzeDRf3k6pu0o3RIe7TFtZFW4dwt9r2AMreFBbtxbdWDL5wFrZrL88FOYwUQa0pw
qtqYFj30cqocyYdxJuJdyOTsMYT34j1vie0fL4kqJLu+8E+MufoCooNPvSNqGXe7
ek9kV8imFy5Spnq1JlCcN70+7akTGlHRqCzAuH9oi0ytMUF99xlq+GDFllCymDte
kf7aImkA3dT4mNtis1zPsrAx3irB0n9e/B39vUwUU3IXPv2ghSg0yjaGp1krcjqq
PxjMgydikSyJ
-----END TRUST_ANCHOR_UNCONSTRAINED-----

150302120000Z
-----BEGIN TIME-----
MTUwMzAyMTIwMDAwWg==
-----END TIME-----

SUCCESS
-----BEGIN VERIFY_RESULT-----
U1VDQ0VTUw==
-----END VERIFY_RESULT-----

serverAuth
-----BEGIN KEY_PURPOSE-----
c2VydmVyQXV0aA==
-----END KEY_PURPOSE-----
