[Created by: generate-expired-target-notBefore.py]

Certificate chain with 1 intermediate, where the target is expired (violates
validity.notBefore). Verification is expected to fail.

Certificate:
    Data:
        Version: 3 (0x2)
        Serial Number: 1 (0x1)
    Signature Algorithm: sha256WithRSAEncryption
        Issuer: CN=Intermediate
        Validity
            Not Before: Mar  2 12:00:00 2015 GMT
            Not After : Jan  1 12:00:00 2016 GMT
        Subject: CN=Target
        Subject Public Key Info:
            Public Key Algorithm: rsaEncryption
                Public-Key: (2048 bit)
                Modulus:
                    00:ac:a3:a7:c6:1e:71:aa:8e:cf:a1:00:f6:ad:4c:
                    a0:92:eb:eb:4f:18:02:be:72:71:9f:3a:aa:c0:b6:
                    ef:99:fb:dd:21:06:c2:fa:c8:e3:bc:43:c2:fd:30:
                    44:2f:a8:60:e7:d3:6e:b6:9b:b0:1d:f6:13:8d:42:
                    62:c2:f4:71:6f:28:89:bb:9b:c3:5e:e8:53:64:7e:
                    ed:70:dd:fd:f5:33:ec:14:dc:10:47:58:db:8e:2d:
                    63:5b:73:6f:81:b6:d8:79:31:01:80:c0:77:14:a4:
                    af:85:34:6c:e8:ed:da:7a:fb:7d:cb:a9:2a:fb:9b:
                    5a:18:42:a0:56:29:e4:92:e9:e0:80:cf:0b:b8:fc:
                    52:da:09:7a:dd:2e:0c:79:e0:b0:60:88:6d:e8:65:
                    8b:d5:fb:ea:65:f6:d2:5e:7c:34:1c:4f:1b:e5:28:
                    9c:9a:bc:b4:bd:2f:23:9d:6a:be:56:af:89:0e:11:
                    9a:b2:cd:51:8b:b5:d6:d3:9c:18:e0:2d:d4:96:e1:
                    e2:64:34:a8:a0:fe:87:7b:81:33:b7:63:59:22:c9:
                    41:59:00:44:7c:ed:60:1a:85:38:02:64:ca:16:8d:
                    0a:de:f9:8e:47:14:2f:04:24:f9:fd:d6:58:e8:eb:
                    78:70:86:87:45:91:09:06:55:20:55:49:65:2e:c6:
                    ac:ab
                Exponent: 65537 (0x10001)
        X509v3 extensions:
            X509v3 Subject Key Identifier: 
                71:C3:9D:BC:84:61:67:9E:2F:3E:A4:68:1D:CE:1A:1D:AF:E9:91:C0
            X509v3 Authority Key Identifier: 
                keyid:FF:3D:EF:B0:91:47:17:69:4F:6F:13:60:CE:45:AD:51:B9:56:0B:05

            Authority Information Access: 
                CA Issuers - URI:http://url-for-aia/Intermediate.cer

            X509v3 CRL Distribution Points: 

                Full Name:
                  URI:http://url-for-crl/Intermediate.crl

            X509v3 Key Usage: critical
                Digital Signature, Key Encipherment
            X509v3 Extended Key Usage: 
                TLS Web Server Authentication, TLS Web Client Authentication
    Signature Algorithm: sha256WithRSAEncryption
         aa:47:6d:8b:a4:17:44:75:4d:70:14:bd:44:05:ad:08:a2:57:
         34:2b:e9:20:76:d3:5a:97:b4:d7:07:78:4a:02:dc:61:a8:cc:
         e1:11:70:ca:6d:2d:50:8f:7a:bb:a2:02:52:24:95:41:6e:8f:
         48:ec:29:98:42:2d:4b:49:db:84:e4:f1:96:32:21:6e:db:40:
         34:78:22:2e:94:11:4c:d4:02:e4:d0:eb:7d:16:3f:65:59:bd:
         8b:57:1a:95:c0:d5:8b:2b:63:85:5a:c7:7d:2a:2f:f9:5a:e2:
         45:77:cf:ee:2e:01:68:de:69:e0:7e:78:f2:f5:ef:af:4c:85:
         54:7a:a2:01:d9:d9:23:d4:da:ed:49:91:fb:59:22:ee:f4:a9:
         37:84:e3:0e:3e:0f:e6:43:fd:27:d1:7b:67:76:ea:6d:e6:56:
         b5:47:d2:b7:b1:ff:d2:4e:a5:fe:ae:63:6e:f8:28:19:5e:c7:
         ec:9c:54:e4:b3:73:89:bc:d1:b0:ac:31:60:80:8e:fc:ef:c2:
         a3:ef:fc:9b:cc:8a:ad:a2:de:4f:c1:40:64:13:f0:17:0b:19:
         8c:5b:f3:d9:5a:11:b6:f1:6d:e9:52:87:f5:58:e4:8d:6b:96:
         66:48:c7:43:c6:87:0a:ea:87:2c:c6:c6:99:f1:c2:bd:01:d8:
         5d:eb:02:c3
-----BEGIN CERTIFICATE-----
MIIDjTCCAnWgAwIBAgIBATANBgkqhkiG9w0BAQsFADAXMRUwEwYDVQQDDAxJbnRl
cm1lZGlhdGUwHhcNMTUwMzAyMTIwMDAwWhcNMTYwMTAxMTIwMDAwWjARMQ8wDQYD
VQQDDAZUYXJnZXQwggEiMA0GCSqGSIb3DQEBAQUAA4IBDwAwggEKAoIBAQCso6fG
HnGqjs+hAPatTKCS6+tPGAK+cnGfOqrAtu+Z+90hBsL6yOO8Q8L9MEQvqGDn0262
m7Ad9hONQmLC9HFvKIm7m8Ne6FNkfu1w3f31M+wU3BBHWNuOLWNbc2+Btth5MQGA
wHcUpK+FNGzo7dp6+33LqSr7m1oYQqBWKeSS6eCAzwu4/FLaCXrdLgx54LBgiG3o
ZYvV++pl9tJefDQcTxvlKJyavLS9LyOdar5Wr4kOEZqyzVGLtdbTnBjgLdSW4eJk
NKig/od7gTO3Y1kiyUFZAER87WAahTgCZMoWjQre+Y5HFC8EJPn91ljo63hwhodF
kQkGVSBVSWUuxqyrAgMBAAGjgekwgeYwHQYDVR0OBBYEFHHDnbyEYWeeLz6kaB3O
Gh2v6ZHAMB8GA1UdIwQYMBaAFP8977CRRxdpT28TYM5FrVG5VgsFMD8GCCsGAQUF
BwEBBDMwMTAvBggrBgEFBQcwAoYjaHR0cDovL3VybC1mb3ItYWlhL0ludGVybWVk
aWF0ZS5jZXIwNAYDVR0fBC0wKzApoCegJYYjaHR0cDovL3VybC1mb3ItY3JsL0lu
dGVybWVkaWF0ZS5jcmwwDgYDVR0PAQH/BAQDAgWgMB0GA1UdJQQWMBQGCCsGAQUF
BwMBBggrBgEFBQcDAjANBgkqhkiG9w0BAQsFAAOCAQEAqkdti6QXRHVNcBS9RAWt
CKJXNCvpIHbTWpe01wd4SgLcYajM4RFwym0tUI96u6ICUiSVQW6PSOwpmEItS0nb
hOTxljIhbttANHgiLpQRTNQC5NDrfRY/ZVm9i1calcDViytjhVrHfSov+VriRXfP
7i4BaN5p4H548vXvr0yFVHqiAdnZI9Ta7UmR+1ki7vSpN4TjDj4P5kP9J9F7Z3bq
beZWtUfSt7H/0k6l/q5jbvgoGV7H7JxU5LNzibzRsKwxYICO/O/Co+/8m8yKraLe
T8FAZBPwFwsZjFvz2VoRtvFt6VKH9VjkjWuWZkjHQ8aHCuqHLMbGmfHCvQHYXesC
ww==
-----END CERTIFICATE-----

Certificate:
    Data:
        Version: 3 (0x2)
        Serial Number: 2 (0x2)
    Signature Algorithm: sha256WithRSAEncryption
        Issuer: CN=Root
        Validity
            Not Before: Jan  1 12:00:00 2015 GMT
            Not After : Jan  1 12:00:00 2016 GMT
        Subject: CN=Intermediate
        Subject Public Key Info:
            Public Key Algorithm: rsaEncryption
                Public-Key: (2048 bit)
                Modulus:
                    00:ab:f9:3f:ad:20:59:6b:b4:1c:0e:cf:ae:16:46:
                    92:ba:d7:7b:05:16:b9:e3:00:71:fb:36:25:c0:35:
                    75:b3:d6:c0:7e:f1:99:3b:83:f6:0d:97:b7:ea:1e:
                    7d:cd:32:bc:00:ca:b8:23:24:f3:d0:b9:7a:16:33:
                    82:69:71:ef:33:3f:7d:f4:e8:1a:41:6a:7c:44:d3:
                    19:36:7b:ec:2d:0b:3f:53:67:41:2f:c7:07:d3:f0:
                    95:a4:71:95:62:96:e7:fa:77:80:48:c4:5e:62:54:
                    d8:10:85:3d:9b:dc:74:b0:66:c7:49:d4:64:a3:92:
                    49:6a:e6:e1:4a:92:8b:65:9b:30:ae:55:16:37:0e:
                    46:b7:ff:47:72:7b:d3:d3:b4:61:7e:aa:3f:4c:a0:
                    df:f8:4c:0e:6b:96:f8:05:49:5d:0e:2c:1f:f6:83:
                    42:4c:ed:89:58:98:94:72:8d:a5:9c:2b:a8:02:67:
                    36:c1:b7:70:7c:64:cb:c8:65:68:ac:6f:b9:a7:97:
                    57:06:45:f0:cf:f6:03:c1:db:e6:f2:be:57:4a:2c:
                    36:01:35:96:4a:65:d5:b9:05:4e:5e:b0:62:2f:1d:
                    57:8e:7e:bb:ad:9e:50:76:cb:61:f5:f6:45:bb:78:
                    c9:e8:21:f4:4e:47:99:3c:7e:db:b6:e9:7a:51:7e:
                    bd:ad
                Exponent: 65537 (0x10001)
        X509v3 extensions:
            X509v3 Subject Key Identifier: 
                FF:3D:EF:B0:91:47:17:69:4F:6F:13:60:CE:45:AD:51:B9:56:0B:05
            X509v3 Authority Key Identifier: 
                keyid:BC:51:CC:60:8E:1D:48:EC:F0:3B:2C:20:26:63:AB:C0:CB:1D:69:B5

            Authority Information Access: 
                CA Issuers - URI:http://url-for-aia/Root.cer

            X509v3 CRL Distribution Points: 

                Full Name:
                  URI:http://url-for-crl/Root.crl

            X509v3 Key Usage: critical
                Certificate Sign, CRL Sign
            X509v3 Basic Constraints: critical
                CA:TRUE
    Signature Algorithm: sha256WithRSAEncryption
         3d:38:96:2b:a7:e2:04:4c:b2:7e:e5:d9:d1:c3:b3:5a:7f:3d:
         92:a7:6f:f3:5f:94:8b:5a:33:e0:11:05:16:ad:10:6f:3f:f9:
         78:a3:56:99:be:c6:df:55:f9:e3:e4:64:75:cb:65:9a:f9:d8:
         42:bc:92:45:c7:13:58:e8:d6:1a:80:08:ea:c5:05:2f:dd:8f:
         34:74:24:89:6a:a8:8d:e0:e7:e0:43:cc:91:69:dc:bb:0a:80:
         3b:b4:dd:d1:a9:da:26:18:f6:8c:7d:eb:bd:97:ae:eb:e8:cb:
         53:d2:c4:42:a1:71:86:49:95:e2:14:87:ad:4b:d6:58:d6:2b:
         74:5f:30:ad:b8:af:e7:82:5f:2b:60:6e:8e:62:6d:28:6b:b0:
         c6:88:cf:55:c9:df:a6:5f:2f:a3:c0:81:f8:d3:db:90:3e:ee:
         8c:3f:3f:55:69:2c:0a:1e:b9:c7:ef:3d:34:5a:41:55:9e:34:
         f6:81:2a:20:65:3b:85:c3:42:2a:c7:2a:4c:02:30:39:7e:2d:
         9d:2a:f9:6c:e5:bb:e6:8f:3b:02:ee:6f:a3:c9:b3:82:97:66:
         59:77:52:aa:d5:c6:ba:73:26:5a:83:c5:b3:36:8a:a1:5b:6a:
         cc:ff:4c:e4:6d:cd:1d:ed:05:7f:8a:d1:1b:63:53:2d:53:cc:
         c7:25:03:fd
-----BEGIN CERTIFICATE-----
MIIDbTCCAlWgAwIBAgIBAjANBgkqhkiG9w0BAQsFADAPMQ0wCwYDVQQDDARSb290
MB4XDTE1MDEwMTEyMDAwMFoXDTE2MDEwMTEyMDAwMFowFzEVMBMGA1UEAwwMSW50
ZXJtZWRpYXRlMIIBIjANBgkqhkiG9w0BAQEFAAOCAQ8AMIIBCgKCAQEAq/k/rSBZ
a7QcDs+uFkaSutd7BRa54wBx+zYlwDV1s9bAfvGZO4P2DZe36h59zTK8AMq4IyTz
0Ll6FjOCaXHvMz999OgaQWp8RNMZNnvsLQs/U2dBL8cH0/CVpHGVYpbn+neASMRe
YlTYEIU9m9x0sGbHSdRko5JJaubhSpKLZZswrlUWNw5Gt/9HcnvT07Rhfqo/TKDf
+EwOa5b4BUldDiwf9oNCTO2JWJiUco2lnCuoAmc2wbdwfGTLyGVorG+5p5dXBkXw
z/YDwdvm8r5XSiw2ATWWSmXVuQVOXrBiLx1Xjn67rZ5Qdsth9fZFu3jJ6CH0TkeZ
PH7btul6UX69rQIDAQABo4HLMIHIMB0GA1UdDgQWBBT/Pe+wkUcXaU9vE2DORa1R
uVYLBTAfBgNVHSMEGDAWgBS8Ucxgjh1I7PA7LCAmY6vAyx1ptTA3BggrBgEFBQcB
AQQrMCkwJwYIKwYBBQUHMAKGG2h0dHA6Ly91cmwtZm9yLWFpYS9Sb290LmNlcjAs
BgNVHR8EJTAjMCGgH6AdhhtodHRwOi8vdXJsLWZvci1jcmwvUm9vdC5jcmwwDgYD
VR0PAQH/BAQDAgEGMA8GA1UdEwEB/wQFMAMBAf8wDQYJKoZIhvcNAQELBQADggEB
AD04liun4gRMsn7l2dHDs1p/PZKnb/NflItaM+ARBRatEG8/+XijVpm+xt9V+ePk
ZHXLZZr52EK8kkXHE1jo1hqACOrFBS/djzR0JIlqqI3g5+BDzJFp3LsKgDu03dGp
2iYY9ox9672Xruvoy1PSxEKhcYZJleIUh61L1ljWK3RfMK24r+eCXytgbo5ibShr
sMaIz1XJ36ZfL6PAgfjT25A+7ow/P1VpLAoeucfvPTRaQVWeNPaBKiBlO4XDQirH
KkwCMDl+LZ0q+Wzlu+aPOwLub6PJs4KXZll3UqrVxrpzJlqDxbM2iqFbasz/TORt
zR3tBX+K0RtjUy1TzMclA/0=
-----END CERTIFICATE-----

Certificate:
    Data:
        Version: 3 (0x2)
        Serial Number: 1 (0x1)
    Signature Algorithm: sha256WithRSAEncryption
        Issuer: CN=Root
        Validity
            Not Before: Jan  1 12:00:00 2015 GMT
            Not After : Jan  1 12:00:00 2016 GMT
        Subject: CN=Root
        Subject Public Key Info:
            Public Key Algorithm: rsaEncryption
                Public-Key: (2048 bit)
                Modulus:
                    00:c4:82:4f:23:96:10:a0:b9:d9:e7:f0:8a:ca:2f:
                    33:21:c4:ab:06:e4:a8:bc:21:7b:49:db:66:ce:45:
                    0a:f8:c6:31:9a:2f:62:0c:e0:f2:23:6b:22:b6:4b:
                    91:54:cc:d7:2e:75:a0:41:8d:ce:b9:4d:f2:e5:ca:
                    4c:dc:53:cb:ff:cd:be:79:1e:e0:f2:b6:be:5f:16:
                    c4:7b:11:15:b7:24:35:fe:3a:b4:b5:17:bd:7a:9d:
                    14:1f:e7:73:bd:31:ba:02:42:35:43:1d:7a:8a:5d:
                    f8:e4:75:8c:db:b8:48:c2:d1:01:50:a7:d1:74:0d:
                    b2:ea:b9:b2:ad:49:bc:fe:e4:cf:d5:d6:28:a3:43:
                    1b:33:c7:62:64:88:62:2d:54:b8:2a:9f:01:c7:42:
                    06:a3:61:2b:d2:19:0e:98:34:8b:ff:42:be:6b:c1:
                    80:92:e8:9c:26:88:90:a6:ef:1f:cd:f7:cc:4f:af:
                    2e:7b:b7:29:ae:26:42:a9:de:b2:29:79:eb:29:71:
                    1c:8b:41:6d:82:c5:0b:56:f8:fd:f2:40:08:c6:8c:
                    62:f9:c9:d1:d8:c5:e0:e1:19:d8:9d:c4:8f:d3:b4:
                    69:41:72:d3:00:20:de:53:dc:91:2b:5f:ac:a7:8e:
                    7d:15:c0:54:90:b1:e2:81:6d:ea:08:43:a1:5c:b5:
                    b4:b7
                Exponent: 65537 (0x10001)
        X509v3 extensions:
            X509v3 Subject Key Identifier: 
                BC:51:CC:60:8E:1D:48:EC:F0:3B:2C:20:26:63:AB:C0:CB:1D:69:B5
            X509v3 Authority Key Identifier: 
                keyid:BC:51:CC:60:8E:1D:48:EC:F0:3B:2C:20:26:63:AB:C0:CB:1D:69:B5

            Authority Information Access: 
                CA Issuers - URI:http://url-for-aia/Root.cer

            X509v3 CRL Distribution Points: 

                Full Name:
                  URI:http://url-for-crl/Root.crl

            X509v3 Key Usage: critical
                Certificate Sign, CRL Sign
            X509v3 Basic Constraints: critical
                CA:TRUE
    Signature Algorithm: sha256WithRSAEncryption
         12:dc:f7:d4:f8:1c:f1:5e:26:fe:e1:3e:18:21:3f:3d:02:63:
         89:28:77:18:ed:8c:2f:85:38:18:4c:68:0c:8c:69:97:93:97:
         ab:1b:0d:0b:4c:f8:89:67:5e:a8:a1:db:4e:27:4e:d8:79:8b:
         da:4c:ab:e1:2f:1c:da:87:78:47:ea:16:b3:e8:a5:0f:a2:bf:
         34:be:4d:e2:1f:ec:2d:1d:39:b1:43:5b:c1:d4:ef:17:0f:04:
         62:dc:60:cf:0c:1b:98:5f:79:19:a4:f1:f8:51:e9:cd:5e:cb:
         59:0a:f9:1e:dd:26:b1:7e:a6:b5:14:61:a2:5c:26:5f:bf:ce:
         8f:f7:4a:58:e4:eb:79:7e:d8:91:be:c8:dc:17:5b:55:9f:9d:
         02:07:7d:7c:24:67:68:b4:00:6a:66:90:55:1f:e9:8a:d3:3c:
         38:b5:99:ac:ab:43:bb:bd:dc:28:fe:90:15:83:c6:bf:eb:9c:
         84:89:2c:7b:15:81:60:d4:c6:35:7e:13:55:58:1f:38:fd:02:
         9b:4c:47:e7:69:32:24:b2:89:3f:30:1d:2a:32:e5:e8:a2:e0:
         9d:43:b1:be:76:cd:e2:7a:20:9b:67:6c:dd:30:60:79:57:2b:
         0c:42:3f:29:8d:d4:42:83:e5:5c:b2:9e:ed:64:d1:4e:b1:ef:
         81:8c:1d:c4
-----BEGIN TRUST_ANCHOR_UNCONSTRAINED-----
MIIDZTCCAk2gAwIBAgIBATANBgkqhkiG9w0BAQsFADAPMQ0wCwYDVQQDDARSb290
MB4XDTE1MDEwMTEyMDAwMFoXDTE2MDEwMTEyMDAwMFowDzENMAsGA1UEAwwEUm9v
dDCCASIwDQYJKoZIhvcNAQEBBQADggEPADCCAQoCggEBAMSCTyOWEKC52efwisov
MyHEqwbkqLwhe0nbZs5FCvjGMZovYgzg8iNrIrZLkVTM1y51oEGNzrlN8uXKTNxT
y//Nvnke4PK2vl8WxHsRFbckNf46tLUXvXqdFB/nc70xugJCNUMdeopd+OR1jNu4
SMLRAVCn0XQNsuq5sq1JvP7kz9XWKKNDGzPHYmSIYi1UuCqfAcdCBqNhK9IZDpg0
i/9CvmvBgJLonCaIkKbvH833zE+vLnu3Ka4mQqnesil56ylxHItBbYLFC1b4/fJA
CMaMYvnJ0djF4OEZ2J3Ej9O0aUFy0wAg3lPckStfrKeOfRXAVJCx4oFt6ghDoVy1
tLcCAwEAAaOByzCByDAdBgNVHQ4EFgQUvFHMYI4dSOzwOywgJmOrwMsdabUwHwYD
VR0jBBgwFoAUvFHMYI4dSOzwOywgJmOrwMsdabUwNwYIKwYBBQUHAQEEKzApMCcG
CCsGAQUFBzAChhtodHRwOi8vdXJsLWZvci1haWEvUm9vdC5jZXIwLAYDVR0fBCUw
IzAhoB+gHYYbaHR0cDovL3VybC1mb3ItY3JsL1Jvb3QuY3JsMA4GA1UdDwEB/wQE
AwIBBjAPBgNVHRMBAf8EBTADAQH/MA0GCSqGSIb3DQEBCwUAA4IBAQAS3PfU+Bzx
Xib+4T4YIT89AmOJKHcY7YwvhTgYTGgMjGmXk5erGw0LTPiJZ16oodtOJ07YeYva
TKvhLxzah3hH6haz6KUPor80vk3iH+wtHTmxQ1vB1O8XDwRi3GDPDBuYX3kZpPH4
UenNXstZCvke3Saxfqa1FGGiXCZfv86P90pY5Ot5ftiRvsjcF1tVn50CB318JGdo
tABqZpBVH+mK0zw4tZmsq0O7vdwo/pAVg8a/65yEiSx7FYFg1MY1fhNVWB84/QKb
TEfnaTIksok/MB0qMuXoouCdQ7G+ds3ieiCbZ2zdMGB5VysMQj8pjdRCg+Vcsp7t
ZNFOse+BjB3E
-----END TRUST_ANCHOR_UNCONSTRAINED-----

150301120000Z
-----BEGIN TIME-----
MTUwMzAxMTIwMDAwWg==
-----END TIME-----

FAIL
-----BEGIN VERIFY_RESULT-----
RkFJTA==
-----END VERIFY_RESULT-----

serverAuth
-----BEGIN KEY_PURPOSE-----
c2VydmVyQXV0aA==
-----END KEY_PURPOSE-----

----- Certificate i=0 (CN=Target) -----
ERROR: Time is before notBefore


-----BEGIN ERRORS-----
LS0tLS0gQ2VydGlmaWNhdGUgaT0wIChDTj1UYXJnZXQpIC0tLS0tCkVSUk9SOiBUaW1lIGlzIGJlZm9yZSBub3RCZWZvcmUKCg==
-----END ERRORS-----
