[Created by: generate-expired-target.py]

Certificate chain with 1 intermediate, where the target is expired (violates
validity.notAfter). Verification is expected to fail.

Certificate:
    Data:
        Version: 3 (0x2)
        Serial Number: 1 (0x1)
    Signature Algorithm: sha256WithRSAEncryption
        Issuer: CN=Intermediate
        Validity
            Not Before: Jan  1 12:00:00 2015 GMT
            Not After : Mar  1 12:00:00 2015 GMT
        Subject: CN=Target
        Subject Public Key Info:
            Public Key Algorithm: rsaEncryption
                Public-Key: (2048 bit)
                Modulus:
                    00:a6:a2:e2:2b:94:f1:2d:8e:32:96:75:ec:49:9f:
                    37:c1:f3:06:90:be:8a:16:78:23:35:a9:00:47:cf:
                    d9:87:32:7f:8d:cd:1d:88:c1:5d:54:d0:1f:bd:eb:
                    fa:09:1f:63:3b:4d:a9:6d:f3:2a:f4:c0:54:5d:42:
                    e5:f6:2c:e0:f9:6e:35:6e:52:93:a1:58:a3:80:22:
                    2e:10:9b:50:5c:db:d6:4f:20:6c:a9:2d:51:82:46:
                    7b:60:f6:c4:78:dc:9a:79:e4:32:7e:98:1b:92:03:
                    c3:7f:aa:67:9c:3a:9a:cb:4c:3c:3f:5e:f9:d9:59:
                    a5:6c:8e:49:d1:e7:42:83:17:a4:a7:03:da:c1:d0:
                    a0:81:90:aa:ac:eb:7c:db:11:bf:a0:17:3d:c8:4f:
                    ff:99:35:b3:fa:02:96:1d:c0:63:ca:13:2e:18:68:
                    ce:14:26:e8:8e:99:5b:d1:a6:16:9f:08:fe:3d:38:
                    52:bc:a8:6a:f8:d7:28:c6:7a:cb:46:4a:4c:98:ac:
                    d5:e6:6b:b5:dd:47:b7:c6:f0:61:dc:df:af:e2:0a:
                    d6:3a:3f:ba:52:82:5a:d7:43:7b:90:78:38:fb:9b:
                    e5:4b:60:17:52:21:b6:16:96:17:d1:85:ba:ff:49:
                    dd:d6:09:ef:f6:a0:e6:bf:eb:f1:b4:61:c1:43:6d:
                    e5:95
                Exponent: 65537 (0x10001)
        X509v3 extensions:
            X509v3 Subject Key Identifier: 
                1E:7B:16:66:04:07:9C:19:2D:FF:9B:1C:9A:0F:3E:45:6B:BF:1E:C9
            X509v3 Authority Key Identifier: 
                keyid:CA:B8:E9:2C:83:2C:C1:BA:51:E1:CB:B6:78:C8:94:A8:45:09:45:63

            Authority Information Access: 
                CA Issuers - URI:http://url-for-aia/Intermediate.cer

            X509v3 CRL Distribution Points: 

                Full Name:
                  URI:http://url-for-crl/Intermediate.crl

            X509v3 Key Usage: critical
                Digital Signature, Key Encipherment
            X509v3 Extended Key Usage: 
                TLS Web Server Authentication, TLS Web Client Authentication
    Signature Algorithm: sha256WithRSAEncryption
         68:d0:70:03:90:29:44:fe:54:34:da:2e:57:6a:68:9b:9c:54:
         0a:92:13:07:c9:e2:1b:30:f7:9b:0a:a6:c7:6a:28:c4:41:e7:
         40:27:51:49:5d:a9:d5:11:0e:c3:86:25:96:70:5e:8e:74:da:
         17:7d:82:01:6a:d1:33:f9:0c:56:30:4c:3a:67:c4:aa:b2:d7:
         93:17:d2:73:51:71:ec:c0:88:98:7d:70:cb:a1:f7:87:dc:f3:
         2b:90:ce:50:00:a3:88:b6:2a:90:c6:42:d7:95:c3:ec:01:cf:
         0a:11:f9:50:33:d8:23:ab:9c:b3:8b:38:62:84:80:3e:35:d5:
         58:53:ab:05:c3:ef:cd:27:7f:00:aa:cb:93:d6:48:5b:cd:eb:
         9d:09:23:75:4d:3d:d6:16:69:b7:2f:b2:c1:b6:f6:f8:d4:03:
         ff:c2:b3:82:76:04:51:7e:76:ab:db:8d:31:24:a6:4b:fe:34:
         ca:9e:dd:11:71:84:37:7b:5e:0b:b1:ef:54:10:fb:ea:59:65:
         48:e8:27:4a:82:9a:a9:a8:ef:80:b1:a6:21:45:32:95:c4:ed:
         fd:1a:8a:fc:5e:e3:87:72:50:90:40:a9:c8:f3:7e:7f:26:6c:
         c9:54:87:7a:e9:09:a0:a4:f0:06:6d:ac:8f:ee:f0:62:ab:d0:
         77:8b:ce:56
-----BEGIN CERTIFICATE-----
MIIDjTCCAnWgAwIBAgIBATANBgkqhkiG9w0BAQsFADAXMRUwEwYDVQQDDAxJbnRl
cm1lZGlhdGUwHhcNMTUwMTAxMTIwMDAwWhcNMTUwMzAxMTIwMDAwWjARMQ8wDQYD
VQQDDAZUYXJnZXQwggEiMA0GCSqGSIb3DQEBAQUAA4IBDwAwggEKAoIBAQCmouIr
lPEtjjKWdexJnzfB8waQvooWeCM1qQBHz9mHMn+NzR2IwV1U0B+96/oJH2M7Talt
8yr0wFRdQuX2LOD5bjVuUpOhWKOAIi4Qm1Bc29ZPIGypLVGCRntg9sR43Jp55DJ+
mBuSA8N/qmecOprLTDw/XvnZWaVsjknR50KDF6SnA9rB0KCBkKqs63zbEb+gFz3I
T/+ZNbP6ApYdwGPKEy4YaM4UJuiOmVvRphafCP49OFK8qGr41yjGestGSkyYrNXm
a7XdR7fG8GHc36/iCtY6P7pSglrXQ3uQeDj7m+VLYBdSIbYWlhfRhbr/Sd3WCe/2
oOa/6/G0YcFDbeWVAgMBAAGjgekwgeYwHQYDVR0OBBYEFB57FmYEB5wZLf+bHJoP
PkVrvx7JMB8GA1UdIwQYMBaAFMq46SyDLMG6UeHLtnjIlKhFCUVjMD8GCCsGAQUF
BwEBBDMwMTAvBggrBgEFBQcwAoYjaHR0cDovL3VybC1mb3ItYWlhL0ludGVybWVk
aWF0ZS5jZXIwNAYDVR0fBC0wKzApoCegJYYjaHR0cDovL3VybC1mb3ItY3JsL0lu
dGVybWVkaWF0ZS5jcmwwDgYDVR0PAQH/BAQDAgWgMB0GA1UdJQQWMBQGCCsGAQUF
BwMBBggrBgEFBQcDAjANBgkqhkiG9w0BAQsFAAOCAQEAaNBwA5ApRP5UNNouV2po
m5xUCpITB8niGzD3mwqmx2ooxEHnQCdRSV2p1REOw4YllnBejnTaF32CAWrRM/kM
VjBMOmfEqrLXkxfSc1Fx7MCImH1wy6H3h9zzK5DOUACjiLYqkMZC15XD7AHPChH5
UDPYI6ucs4s4YoSAPjXVWFOrBcPvzSd/AKrLk9ZIW83rnQkjdU091hZpty+ywbb2
+NQD/8KzgnYEUX52q9uNMSSmS/40yp7dEXGEN3teC7HvVBD76lllSOgnSoKaqajv
gLGmIUUylcTt/RqK/F7jh3JQkECpyPN+fyZsyVSHeukJoKTwBm2sj+7wYqvQd4vO
Vg==
-----END CERTIFICATE-----

Certificate:
    Data:
        Version: 3 (0x2)
        Serial Number: 2 (0x2)
    Signature Algorithm: sha256WithRSAEncryption
        Issuer: CN=Root
        Validity
            Not Before: Jan  1 12:00:00 2015 GMT
            Not After : Jan  1 12:00:00 2016 GMT
        Subject: CN=Intermediate
        Subject Public Key Info:
            Public Key Algorithm: rsaEncryption
                Public-Key: (2048 bit)
                Modulus:
                    00:c5:4a:45:32:1d:7a:47:92:73:d0:af:4a:93:31:
                    6d:5b:a6:b3:68:9e:46:a3:34:5e:75:cc:a7:09:da:
                    ca:34:cf:6c:ed:74:fb:97:f5:c4:14:6f:e3:78:f4:
                    1c:3d:d3:2a:6f:1e:1f:ef:61:2a:a5:f1:e6:87:0b:
                    67:06:79:10:d6:2d:fc:f1:22:5f:28:8a:47:20:bb:
                    29:f5:5a:25:8a:de:02:73:81:5a:5b:94:84:f7:5e:
                    e4:8e:58:e6:29:21:0b:e2:86:0f:30:00:9e:a6:71:
                    e5:56:7d:b7:be:43:6d:a1:d5:75:6b:4a:ef:7a:32:
                    2b:9d:1b:9e:4f:a6:9a:21:a4:ed:ab:47:6a:af:66:
                    d3:64:f3:cd:11:0a:5e:78:ec:c8:61:95:27:45:68:
                    ac:41:c0:12:73:c6:1f:f0:45:03:ba:a5:f9:c9:ce:
                    1e:a8:cf:3e:9c:28:1c:10:3e:d5:76:84:62:f5:e9:
                    45:44:54:f6:d3:de:5b:59:52:07:9f:e1:98:7d:66:
                    d1:da:aa:67:e6:d1:e9:57:bf:6e:8a:75:8f:3c:a0:
                    27:7a:07:80:01:55:b2:e6:08:2a:45:8e:2b:7c:2b:
                    d8:dc:21:c2:63:63:d5:fe:93:48:08:8b:16:4b:48:
                    4e:8d:c0:ff:f1:49:62:a4:7b:79:26:ef:69:8c:71:
                    a7:21
                Exponent: 65537 (0x10001)
        X509v3 extensions:
            X509v3 Subject Key Identifier: 
                CA:B8:E9:2C:83:2C:C1:BA:51:E1:CB:B6:78:C8:94:A8:45:09:45:63
            X509v3 Authority Key Identifier: 
                keyid:E3:D2:BC:53:0E:ED:D3:06:BB:EC:E4:7E:D0:33:DE:1A:77:0A:62:A8

            Authority Information Access: 
                CA Issuers - URI:http://url-for-aia/Root.cer

            X509v3 CRL Distribution Points: 

                Full Name:
                  URI:http://url-for-crl/Root.crl

            X509v3 Key Usage: critical
                Certificate Sign, CRL Sign
            X509v3 Basic Constraints: critical
                CA:TRUE
    Signature Algorithm: sha256WithRSAEncryption
         0f:ca:f8:35:3d:da:a1:ba:e4:4d:dd:48:b6:38:a6:d9:f2:88:
         2d:ae:5c:f3:79:4c:d4:81:d8:ab:1e:32:e5:5a:fa:5c:12:e8:
         bc:b3:6c:e4:5c:19:8b:80:24:c8:8d:14:07:cc:2d:75:39:d8:
         e7:7c:8d:3e:03:de:19:2f:e0:7c:07:26:85:aa:0d:92:11:97:
         b5:e5:a7:f9:04:c5:22:be:82:35:10:f4:2b:7a:5f:4a:dc:c0:
         e1:64:c3:5f:62:e3:9f:cd:fa:22:c4:e4:65:5b:0c:e6:bd:f8:
         04:b0:3a:91:6c:8a:44:51:16:ca:13:92:55:9f:45:df:74:5c:
         9c:ee:6a:83:db:0b:52:2c:68:3b:ac:6e:86:d8:1d:23:6d:95:
         f5:87:d9:c9:14:0a:0f:2b:99:b1:d6:b3:38:73:a6:6e:d8:d7:
         d9:1a:c0:33:98:6e:63:14:37:10:5b:c2:7d:03:37:49:2d:d7:
         26:56:99:a2:ce:03:01:d0:b2:25:94:a2:69:e8:e0:30:42:11:
         44:a9:89:d7:96:d4:c0:10:7a:64:79:88:d1:2b:e2:8a:b6:4a:
         32:6f:2a:e1:2b:43:2a:44:b2:42:74:c8:27:1e:da:f2:9b:ac:
         c6:03:4a:d0:c3:44:87:41:ec:cd:a5:9b:68:e2:e3:fd:01:fe:
         40:a3:c2:e7
-----BEGIN CERTIFICATE-----
MIIDbTCCAlWgAwIBAgIBAjANBgkqhkiG9w0BAQsFADAPMQ0wCwYDVQQDDARSb290
MB4XDTE1MDEwMTEyMDAwMFoXDTE2MDEwMTEyMDAwMFowFzEVMBMGA1UEAwwMSW50
ZXJtZWRpYXRlMIIBIjANBgkqhkiG9w0BAQEFAAOCAQ8AMIIBCgKCAQEAxUpFMh16
R5Jz0K9KkzFtW6azaJ5GozRedcynCdrKNM9s7XT7l/XEFG/jePQcPdMqbx4f72Eq
pfHmhwtnBnkQ1i388SJfKIpHILsp9Volit4Cc4FaW5SE917kjljmKSEL4oYPMACe
pnHlVn23vkNtodV1a0rvejIrnRueT6aaIaTtq0dqr2bTZPPNEQpeeOzIYZUnRWis
QcASc8Yf8EUDuqX5yc4eqM8+nCgcED7VdoRi9elFRFT2095bWVIHn+GYfWbR2qpn
5tHpV79uinWPPKAnegeAAVWy5ggqRY4rfCvY3CHCY2PV/pNICIsWS0hOjcD/8Uli
pHt5Ju9pjHGnIQIDAQABo4HLMIHIMB0GA1UdDgQWBBTKuOksgyzBulHhy7Z4yJSo
RQlFYzAfBgNVHSMEGDAWgBTj0rxTDu3TBrvs5H7QM94adwpiqDA3BggrBgEFBQcB
AQQrMCkwJwYIKwYBBQUHMAKGG2h0dHA6Ly91cmwtZm9yLWFpYS9Sb290LmNlcjAs
BgNVHR8EJTAjMCGgH6AdhhtodHRwOi8vdXJsLWZvci1jcmwvUm9vdC5jcmwwDgYD
VR0PAQH/BAQDAgEGMA8GA1UdEwEB/wQFMAMBAf8wDQYJKoZIhvcNAQELBQADggEB
AA/K+DU92qG65E3dSLY4ptnyiC2uXPN5TNSB2KseMuVa+lwS6LyzbORcGYuAJMiN
FAfMLXU52Od8jT4D3hkv4HwHJoWqDZIRl7Xlp/kExSK+gjUQ9Ct6X0rcwOFkw19i
45/N+iLE5GVbDOa9+ASwOpFsikRRFsoTklWfRd90XJzuaoPbC1IsaDusbobYHSNt
lfWH2ckUCg8rmbHWszhzpm7Y19kawDOYbmMUNxBbwn0DN0kt1yZWmaLOAwHQsiWU
omno4DBCEUSpideW1MAQemR5iNEr4oq2SjJvKuErQypEskJ0yCce2vKbrMYDStDD
RIdB7M2lm2ji4/0B/kCjwuc=
-----END CERTIFICATE-----

Certificate:
    Data:
        Version: 3 (0x2)
        Serial Number: 1 (0x1)
    Signature Algorithm: sha256WithRSAEncryption
        Issuer: CN=Root
        Validity
            Not Before: Jan  1 12:00:00 2015 GMT
            Not After : Jan  1 12:00:00 2016 GMT
        Subject: CN=Root
        Subject Public Key Info:
            Public Key Algorithm: rsaEncryption
                Public-Key: (2048 bit)
                Modulus:
                    00:b1:cc:77:be:73:84:5e:fd:71:f9:35:59:4c:a4:
                    3c:83:2a:bb:cd:49:ee:69:c2:35:b9:00:8a:0c:29:
                    49:52:f2:89:ff:87:5a:99:e3:d7:1d:99:c8:2a:8b:
                    d8:83:44:65:89:a9:41:46:71:8a:49:73:9e:c3:96:
                    ed:12:b4:a6:ae:ba:ab:84:28:79:3d:2f:c7:37:4b:
                    85:35:37:59:94:55:2f:d0:d5:1c:c6:32:85:17:c3:
                    2d:0f:5b:92:be:75:2a:9f:05:67:74:37:59:b5:c6:
                    34:d6:7c:56:b8:d2:a2:13:d1:41:71:84:df:4b:10:
                    af:63:8d:83:6d:87:c2:aa:c1:ba:9e:0a:bc:57:36:
                    09:9d:5a:a6:e4:31:a6:8a:f1:82:5c:4f:cd:cf:79:
                    69:6f:51:89:63:82:e1:0e:78:a7:bf:43:d1:c5:be:
                    12:87:81:10:67:13:67:da:36:6f:37:03:12:32:39:
                    62:1f:a4:43:5d:d4:65:e3:44:4c:ca:da:9d:1c:22:
                    60:00:3d:fd:d1:8e:66:e2:e3:1f:d1:72:b3:53:4e:
                    2f:9b:2f:67:72:f2:9c:b7:c7:a3:0b:27:75:85:c9:
                    d3:90:7c:1c:59:ae:b9:47:25:57:08:51:45:f0:8b:
                    a0:37:62:a9:7e:3e:ee:53:08:47:c7:d5:e4:29:b1:
                    7c:4d
                Exponent: 65537 (0x10001)
        X509v3 extensions:
            X509v3 Subject Key Identifier: 
                E3:D2:BC:53:0E:ED:D3:06:BB:EC:E4:7E:D0:33:DE:1A:77:0A:62:A8
            X509v3 Authority Key Identifier: 
                keyid:E3:D2:BC:53:0E:ED:D3:06:BB:EC:E4:7E:D0:33:DE:1A:77:0A:62:A8

            Authority Information Access: 
                CA Issuers - URI:http://url-for-aia/Root.cer

            X509v3 CRL Distribution Points: 

                Full Name:
                  URI:http://url-for-crl/Root.crl

            X509v3 Key Usage: critical
                Certificate Sign, CRL Sign
            X509v3 Basic Constraints: critical
                CA:TRUE
    Signature Algorithm: sha256WithRSAEncryption
         62:ea:d8:8a:ac:91:27:7c:7e:b1:ab:a4:5e:80:2c:2a:88:0e:
         fe:f4:0e:58:6a:78:b7:84:86:fa:fa:a6:44:28:40:a1:ca:61:
         98:b7:23:14:64:15:67:20:c9:2c:83:11:de:62:9d:af:9f:bb:
         46:7b:c5:53:8a:77:88:bb:ef:04:7a:fe:d2:12:98:60:4f:9e:
         e7:0d:a5:68:41:59:9b:1e:02:4d:62:50:ee:85:e0:ce:5a:61:
         6e:eb:7c:a7:4e:1a:2c:16:53:72:89:8a:45:0a:42:b0:da:7b:
         bd:dd:22:c5:b7:f4:fc:7d:ff:4c:04:93:d2:1a:5e:78:de:b6:
         07:65:19:0e:4d:51:7f:37:e6:05:ac:61:42:ef:65:14:84:7e:
         03:80:3a:24:23:22:38:3d:60:36:45:60:d6:a5:37:f7:94:27:
         a8:e9:91:93:61:f0:1f:20:ac:3b:5f:62:d7:f0:28:1b:aa:46:
         4b:5e:36:f6:11:c7:68:d1:39:61:2d:a9:a5:8d:88:b0:bf:92:
         35:c1:7b:d4:ea:6b:d4:b7:8a:8b:c7:d9:79:93:2e:aa:73:a7:
         1e:4e:70:8d:6a:7d:1a:2b:0e:cf:7f:f0:5b:be:ec:5f:bf:f2:
         c7:da:be:c2:93:96:80:fc:e1:2a:19:d8:58:53:36:09:e0:39:
         ea:1c:9a:76
-----BEGIN TRUST_ANCHOR_UNCONSTRAINED-----
MIIDZTCCAk2gAwIBAgIBATANBgkqhkiG9w0BAQsFADAPMQ0wCwYDVQQDDARSb290
MB4XDTE1MDEwMTEyMDAwMFoXDTE2MDEwMTEyMDAwMFowDzENMAsGA1UEAwwEUm9v
dDCCASIwDQYJKoZIhvcNAQEBBQADggEPADCCAQoCggEBALHMd75zhF79cfk1WUyk
PIMqu81J7mnCNbkAigwpSVLyif+HWpnj1x2ZyCqL2INEZYmpQUZxiklznsOW7RK0
pq66q4QoeT0vxzdLhTU3WZRVL9DVHMYyhRfDLQ9bkr51Kp8FZ3Q3WbXGNNZ8VrjS
ohPRQXGE30sQr2ONg22HwqrBup4KvFc2CZ1apuQxporxglxPzc95aW9RiWOC4Q54
p79D0cW+EoeBEGcTZ9o2bzcDEjI5Yh+kQ13UZeNETMranRwiYAA9/dGOZuLjH9Fy
s1NOL5svZ3LynLfHowsndYXJ05B8HFmuuUclVwhRRfCLoDdiqX4+7lMIR8fV5Cmx
fE0CAwEAAaOByzCByDAdBgNVHQ4EFgQU49K8Uw7t0wa77OR+0DPeGncKYqgwHwYD
VR0jBBgwFoAU49K8Uw7t0wa77OR+0DPeGncKYqgwNwYIKwYBBQUHAQEEKzApMCcG
CCsGAQUFBzAChhtodHRwOi8vdXJsLWZvci1haWEvUm9vdC5jZXIwLAYDVR0fBCUw
IzAhoB+gHYYbaHR0cDovL3VybC1mb3ItY3JsL1Jvb3QuY3JsMA4GA1UdDwEB/wQE
AwIBBjAPBgNVHRMBAf8EBTADAQH/MA0GCSqGSIb3DQEBCwUAA4IBAQBi6tiKrJEn
fH6xq6RegCwqiA7+9A5Yani3hIb6+qZEKEChymGYtyMUZBVnIMksgxHeYp2vn7tG
e8VTineIu+8Eev7SEphgT57nDaVoQVmbHgJNYlDuheDOWmFu63ynThosFlNyiYpF
CkKw2nu93SLFt/T8ff9MBJPSGl543rYHZRkOTVF/N+YFrGFC72UUhH4DgDokIyI4
PWA2RWDWpTf3lCeo6ZGTYfAfIKw7X2LX8CgbqkZLXjb2Ecdo0TlhLamljYiwv5I1
wXvU6mvUt4qLx9l5ky6qc6ceTnCNan0aKw7Pf/Bbvuxfv/LH2r7Ck5aA/OEqGdhY
UzYJ4DnqHJp2
-----END TRUST_ANCHOR_UNCONSTRAINED-----

150302120000Z
-----BEGIN TIME-----
MTUwMzAyMTIwMDAwWg==
-----END TIME-----

FAIL
-----BEGIN VERIFY_RESULT-----
RkFJTA==
-----END VERIFY_RESULT-----

serverAuth
-----BEGIN KEY_PURPOSE-----
c2VydmVyQXV0aA==
-----END KEY_PURPOSE-----

----- Certificate i=0 (CN=Target) -----
ERROR: Time is after notAfter


-----BEGIN ERRORS-----
LS0tLS0gQ2VydGlmaWNhdGUgaT0wIChDTj1UYXJnZXQpIC0tLS0tCkVSUk9SOiBUaW1lIGlzIGFmdGVyIG5vdEFmdGVyCgo=
-----END ERRORS-----
