[Created by: generate-expired-intermediate.py]

Certificate chain with 1 intermediate, where the intermediate is expired
(violates validity.notAfter). Verification is expected to fail.

Certificate:
    Data:
        Version: 3 (0x2)
        Serial Number: 1 (0x1)
    Signature Algorithm: sha256WithRSAEncryption
        Issuer: CN=Intermediate
        Validity
            Not Before: Jan  1 12:00:00 2015 GMT
            Not After : Jan  1 12:00:00 2016 GMT
        Subject: CN=Target
        Subject Public Key Info:
            Public Key Algorithm: rsaEncryption
                Public-Key: (2048 bit)
                Modulus:
                    00:c0:b3:a7:c8:34:e7:e2:df:55:43:80:00:33:96:
                    78:2c:3a:ac:7e:79:5d:86:9f:df:7e:9b:7a:30:d0:
                    5b:30:2b:26:cc:06:e7:1f:13:6c:80:36:59:ec:1c:
                    4b:c9:70:c2:79:14:f4:83:2f:cf:39:a2:9d:96:5c:
                    f2:91:90:ae:8f:f6:63:f6:cc:fb:1b:eb:fe:53:9b:
                    b6:27:8b:52:bb:bb:94:1b:8b:e5:76:cc:5a:4d:d7:
                    9c:96:05:62:f4:c8:bf:87:cf:a7:6e:55:fd:b5:ab:
                    28:ae:08:c3:cd:5f:72:77:e3:d8:8d:de:1b:cb:17:
                    bb:4c:b3:3d:6d:f2:84:22:5c:fb:84:31:46:68:3e:
                    bd:b5:83:81:24:01:80:7d:eb:76:8e:1f:7b:8f:e7:
                    77:cb:8f:ca:69:77:5a:7a:56:f3:1c:3c:16:bf:00:
                    2b:9f:2d:f5:3a:59:e0:f5:84:91:d3:7a:3e:90:39:
                    44:5a:65:36:ab:5f:25:5d:9b:57:1e:13:91:97:88:
                    cb:36:39:d3:10:ee:2c:54:4d:6c:d7:22:92:37:0b:
                    04:05:8f:1d:c3:58:b4:87:7c:db:17:2b:fc:db:00:
                    eb:0f:8c:75:96:e5:12:96:37:fe:b2:d5:68:1c:67:
                    fe:fb:60:c2:30:85:ae:0d:9b:62:50:6f:32:ae:fc:
                    85:77
                Exponent: 65537 (0x10001)
        X509v3 extensions:
            X509v3 Subject Key Identifier: 
                FC:25:45:D2:F9:2D:71:1C:EA:7B:79:2C:C5:C7:37:5F:9E:2A:5F:5D
            X509v3 Authority Key Identifier: 
                keyid:4C:33:3C:86:48:60:C6:50:02:47:AF:DE:60:2F:A0:5C:96:EE:70:7B

            Authority Information Access: 
                CA Issuers - URI:http://url-for-aia/Intermediate.cer

            X509v3 CRL Distribution Points: 

                Full Name:
                  URI:http://url-for-crl/Intermediate.crl

            X509v3 Key Usage: critical
                Digital Signature, Key Encipherment
            X509v3 Extended Key Usage: 
                TLS Web Server Authentication, TLS Web Client Authentication
    Signature Algorithm: sha256WithRSAEncryption
         46:d0:27:3e:e6:49:d1:48:c4:0e:d3:0e:d0:3e:be:44:7f:0e:
         a0:38:92:84:c4:ed:60:65:1c:26:3f:12:dd:d8:e3:49:c6:c8:
         42:86:67:95:6c:61:e7:61:8c:da:0a:db:90:d0:6f:e7:9f:05:
         38:a5:4a:4e:c3:40:f8:2b:ff:67:ad:9f:70:27:10:8d:68:f2:
         ee:78:d5:a7:83:2f:e3:67:b3:47:8c:39:c9:29:97:f0:77:b7:
         fe:7f:c7:6b:aa:6d:4c:83:39:e3:dc:bd:c3:18:e3:d8:d3:50:
         8a:97:d3:ee:59:3a:62:20:5b:e7:99:77:e6:d1:d2:d3:d0:d5:
         04:7d:86:8e:26:30:05:d1:0e:0f:d6:d2:1e:49:42:67:61:81:
         3d:10:75:d6:ba:c4:07:bb:e7:43:c8:a6:f7:56:e3:2b:d4:35:
         d1:56:94:5c:0b:b6:25:02:d7:cd:74:e7:4d:1d:02:d3:43:ab:
         dd:50:9f:c4:cf:15:4c:77:87:48:1e:57:3f:3d:7e:7e:67:9b:
         ae:2f:79:ea:16:a9:cd:c6:76:cb:3c:75:75:a7:78:22:af:a9:
         b4:83:d3:b2:72:e8:43:cc:4a:8d:ee:b4:5a:ac:b2:30:96:52:
         91:26:4b:17:29:4e:53:b4:58:df:f9:1d:53:2c:66:3d:c5:d7:
         11:99:b6:f5
-----BEGIN CERTIFICATE-----
MIIDjTCCAnWgAwIBAgIBATANBgkqhkiG9w0BAQsFADAXMRUwEwYDVQQDDAxJbnRl
cm1lZGlhdGUwHhcNMTUwMTAxMTIwMDAwWhcNMTYwMTAxMTIwMDAwWjARMQ8wDQYD
VQQDDAZUYXJnZXQwggEiMA0GCSqGSIb3DQEBAQUAA4IBDwAwggEKAoIBAQDAs6fI
NOfi31VDgAAzlngsOqx+eV2Gn99+m3ow0FswKybMBucfE2yANlnsHEvJcMJ5FPSD
L885op2WXPKRkK6P9mP2zPsb6/5Tm7Yni1K7u5Qbi+V2zFpN15yWBWL0yL+Hz6du
Vf21qyiuCMPNX3J349iN3hvLF7tMsz1t8oQiXPuEMUZoPr21g4EkAYB963aOH3uP
53fLj8ppd1p6VvMcPBa/ACufLfU6WeD1hJHTej6QOURaZTarXyVdm1ceE5GXiMs2
OdMQ7ixUTWzXIpI3CwQFjx3DWLSHfNsXK/zbAOsPjHWW5RKWN/6y1WgcZ/77YMIw
ha4Nm2JQbzKu/IV3AgMBAAGjgekwgeYwHQYDVR0OBBYEFPwlRdL5LXEc6nt5LMXH
N1+eKl9dMB8GA1UdIwQYMBaAFEwzPIZIYMZQAkev3mAvoFyW7nB7MD8GCCsGAQUF
BwEBBDMwMTAvBggrBgEFBQcwAoYjaHR0cDovL3VybC1mb3ItYWlhL0ludGVybWVk
aWF0ZS5jZXIwNAYDVR0fBC0wKzApoCegJYYjaHR0cDovL3VybC1mb3ItY3JsL0lu
dGVybWVkaWF0ZS5jcmwwDgYDVR0PAQH/BAQDAgWgMB0GA1UdJQQWMBQGCCsGAQUF
BwMBBggrBgEFBQcDAjANBgkqhkiG9w0BAQsFAAOCAQEARtAnPuZJ0UjEDtMO0D6+
RH8OoDiShMTtYGUcJj8S3djjScbIQoZnlWxh52GM2grbkNBv558FOKVKTsNA+Cv/
Z62fcCcQjWjy7njVp4Mv42ezR4w5ySmX8He3/n/Ha6ptTIM549y9wxjj2NNQipfT
7lk6YiBb55l35tHS09DVBH2GjiYwBdEOD9bSHklCZ2GBPRB11rrEB7vnQ8im91bj
K9Q10VaUXAu2JQLXzXTnTR0C00Or3VCfxM8VTHeHSB5XPz1+fmebri956hapzcZ2
yzx1dad4Iq+ptIPTsnLoQ8xKje60WqyyMJZSkSZLFylOU7RY3/kdUyxmPcXXEZm2
9Q==
-----END CERTIFICATE-----

Certificate:
    Data:
        Version: 3 (0x2)
        Serial Number: 2 (0x2)
    Signature Algorithm: sha256WithRSAEncryption
        Issuer: CN=Root
        Validity
            Not Before: Jan  1 12:00:00 2015 GMT
            Not After : Mar  1 12:00:00 2015 GMT
        Subject: CN=Intermediate
        Subject Public Key Info:
            Public Key Algorithm: rsaEncryption
                Public-Key: (2048 bit)
                Modulus:
                    00:ae:f8:c2:3a:71:85:a2:bd:ca:2c:30:b7:22:3a:
                    f3:c9:24:7e:74:86:98:af:cd:13:0a:c1:4c:52:56:
                    f6:03:19:af:7d:67:73:2e:e2:99:e4:3b:f7:7a:7c:
                    dc:8d:83:61:36:c4:89:bc:14:aa:11:8d:e7:fe:3d:
                    61:e5:1a:78:88:9b:af:63:05:30:78:f8:1e:f5:92:
                    e5:2d:02:d4:b4:cb:a4:44:a4:cc:1b:38:52:fb:55:
                    4a:b9:37:d4:bb:d0:13:20:69:cb:1f:34:4c:d0:ca:
                    32:04:23:f3:52:1f:39:e8:90:a3:3d:68:f5:a9:e3:
                    fc:e3:f1:e2:c3:47:55:68:ab:7e:90:77:87:90:00:
                    e9:30:05:ea:30:07:6d:66:d6:c8:98:bd:8b:81:18:
                    c6:c5:45:26:30:ce:c8:61:6a:dc:70:7a:23:8a:4d:
                    b8:ca:94:68:a7:48:ba:d6:fb:10:89:a9:9d:5e:1c:
                    43:10:b5:de:33:68:a3:2c:91:2b:70:da:be:bd:1e:
                    b2:30:2e:b9:f7:57:fc:d9:d1:4a:92:78:34:93:df:
                    89:6a:85:1c:df:23:f3:30:fb:7d:9f:7b:b3:cc:9d:
                    85:98:f8:64:7a:34:ba:7a:51:80:01:eb:91:77:7f:
                    77:f6:65:86:9e:51:5e:4e:20:6f:c9:ed:3c:50:1c:
                    cd:8f
                Exponent: 65537 (0x10001)
        X509v3 extensions:
            X509v3 Subject Key Identifier: 
                4C:33:3C:86:48:60:C6:50:02:47:AF:DE:60:2F:A0:5C:96:EE:70:7B
            X509v3 Authority Key Identifier: 
                keyid:FB:59:3E:CC:A2:42:62:72:9F:53:96:95:3A:48:EA:16:80:C8:42:40

            Authority Information Access: 
                CA Issuers - URI:http://url-for-aia/Root.cer

            X509v3 CRL Distribution Points: 

                Full Name:
                  URI:http://url-for-crl/Root.crl

            X509v3 Key Usage: critical
                Certificate Sign, CRL Sign
            X509v3 Basic Constraints: critical
                CA:TRUE
    Signature Algorithm: sha256WithRSAEncryption
         4f:a5:3b:98:b8:a9:83:3a:35:3d:75:a8:f6:e8:59:43:95:3a:
         0b:37:dc:ac:d0:12:82:31:2a:64:c8:64:81:f4:f8:d7:28:2c:
         bf:6f:81:79:a8:21:7b:70:62:4b:7f:c8:b1:bf:69:8b:38:14:
         e8:78:aa:61:f1:6f:6b:1a:81:93:e7:c4:7b:9f:99:75:2c:90:
         e9:8d:3a:7e:4e:2f:09:f9:0a:20:04:cb:3e:c6:ed:59:f5:2e:
         2e:be:73:b4:40:4f:9d:96:f0:8c:b8:01:88:fa:bf:7a:ed:f6:
         cc:46:c5:62:1b:bb:f3:1d:3a:4b:02:7c:aa:6e:61:1f:5b:4e:
         0e:d5:3f:c3:5c:c0:5f:1a:aa:fb:bb:4f:4d:a4:45:4c:2a:cd:
         c0:c2:29:3d:1f:31:2b:0d:80:45:c7:5f:4b:09:96:88:a6:4a:
         b0:fb:66:3f:4b:41:c3:5b:a7:f7:7f:ce:cb:b5:c9:54:62:66:
         61:d1:20:73:f6:c2:e0:81:11:20:b1:a0:a5:44:3f:52:4a:77:
         9d:b9:b9:99:e7:73:a8:23:1f:02:91:03:e5:90:ad:23:00:2a:
         08:99:37:16:df:ca:70:bf:da:e9:50:1d:c5:94:81:57:97:7d:
         3f:d2:4f:91:74:94:90:2e:5c:dd:33:13:a0:83:25:4d:c0:7e:
         19:97:e3:d6
-----BEGIN CERTIFICATE-----
MIIDbTCCAlWgAwIBAgIBAjANBgkqhkiG9w0BAQsFADAPMQ0wCwYDVQQDDARSb290
MB4XDTE1MDEwMTEyMDAwMFoXDTE1MDMwMTEyMDAwMFowFzEVMBMGA1UEAwwMSW50
ZXJtZWRpYXRlMIIBIjANBgkqhkiG9w0BAQEFAAOCAQ8AMIIBCgKCAQEArvjCOnGF
or3KLDC3IjrzySR+dIaYr80TCsFMUlb2AxmvfWdzLuKZ5Dv3enzcjYNhNsSJvBSq
EY3n/j1h5Rp4iJuvYwUwePge9ZLlLQLUtMukRKTMGzhS+1VKuTfUu9ATIGnLHzRM
0MoyBCPzUh856JCjPWj1qeP84/Hiw0dVaKt+kHeHkADpMAXqMAdtZtbImL2LgRjG
xUUmMM7IYWrccHojik24ypRop0i61vsQiamdXhxDELXeM2ijLJErcNq+vR6yMC65
91f82dFKkng0k9+JaoUc3yPzMPt9n3uzzJ2FmPhkejS6elGAAeuRd3939mWGnlFe
TiBvye08UBzNjwIDAQABo4HLMIHIMB0GA1UdDgQWBBRMMzyGSGDGUAJHr95gL6Bc
lu5wezAfBgNVHSMEGDAWgBT7WT7MokJicp9TlpU6SOoWgMhCQDA3BggrBgEFBQcB
AQQrMCkwJwYIKwYBBQUHMAKGG2h0dHA6Ly91cmwtZm9yLWFpYS9Sb290LmNlcjAs
BgNVHR8EJTAjMCGgH6AdhhtodHRwOi8vdXJsLWZvci1jcmwvUm9vdC5jcmwwDgYD
VR0PAQH/BAQDAgEGMA8GA1UdEwEB/wQFMAMBAf8wDQYJKoZIhvcNAQELBQADggEB
AE+lO5i4qYM6NT11qPboWUOVOgs33KzQEoIxKmTIZIH0+NcoLL9vgXmoIXtwYkt/
yLG/aYs4FOh4qmHxb2sagZPnxHufmXUskOmNOn5OLwn5CiAEyz7G7Vn1Li6+c7RA
T52W8Iy4AYj6v3rt9sxGxWIbu/MdOksCfKpuYR9bTg7VP8NcwF8aqvu7T02kRUwq
zcDCKT0fMSsNgEXHX0sJloimSrD7Zj9LQcNbp/d/zsu1yVRiZmHRIHP2wuCBESCx
oKVEP1JKd525uZnnc6gjHwKRA+WQrSMAKgiZNxbfynC/2ulQHcWUgVeXfT/ST5F0
lJAuXN0zE6CDJU3AfhmX49Y=
-----END CERTIFICATE-----

Certificate:
    Data:
        Version: 3 (0x2)
        Serial Number: 1 (0x1)
    Signature Algorithm: sha256WithRSAEncryption
        Issuer: CN=Root
        Validity
            Not Before: Jan  1 12:00:00 2015 GMT
            Not After : Jan  1 12:00:00 2016 GMT
        Subject: CN=Root
        Subject Public Key Info:
            Public Key Algorithm: rsaEncryption
                Public-Key: (2048 bit)
                Modulus:
                    00:c9:53:af:4f:d1:35:5f:3e:69:08:13:28:41:5b:
                    69:25:b0:ee:39:75:73:4c:63:c4:08:42:0c:5e:04:
                    04:62:21:1a:92:5d:c8:6d:e8:44:6a:3b:3e:c5:6a:
                    22:56:86:db:cb:38:c8:c7:55:ed:2c:dc:bc:36:39:
                    76:96:3f:6a:5f:3d:12:43:60:b1:94:13:75:94:02:
                    8b:ad:f4:be:85:5b:ed:f1:c5:03:2c:3c:0c:e3:eb:
                    7f:ab:94:4a:79:8b:48:fd:ad:7a:c3:e0:a8:de:40:
                    ea:f0:a7:87:54:40:6e:f4:74:88:aa:2b:bb:21:bf:
                    d6:7f:da:bc:cf:52:48:3d:b6:75:0d:e2:6b:ea:03:
                    0a:d7:39:f5:78:45:63:05:1a:4b:99:40:5e:97:08:
                    0a:5d:34:63:fa:ba:de:a7:f5:1c:e8:b2:26:96:0f:
                    c9:c1:ac:6d:ef:05:8d:1c:dc:09:0b:bc:d3:f3:fb:
                    10:43:2f:b2:36:3e:cf:84:1a:37:1e:fc:81:67:c6:
                    14:87:bb:87:33:16:2a:95:cf:e7:0a:b7:52:00:05:
                    09:08:a9:a5:97:5d:be:ed:19:92:4e:6c:4f:94:7f:
                    e5:1a:34:c0:dc:3f:02:8e:ae:77:fc:b6:27:77:78:
                    48:e7:ca:a1:bd:27:1d:3c:a3:2d:8d:46:d5:a6:9d:
                    53:cd
                Exponent: 65537 (0x10001)
        X509v3 extensions:
            X509v3 Subject Key Identifier: 
                FB:59:3E:CC:A2:42:62:72:9F:53:96:95:3A:48:EA:16:80:C8:42:40
            X509v3 Authority Key Identifier: 
                keyid:FB:59:3E:CC:A2:42:62:72:9F:53:96:95:3A:48:EA:16:80:C8:42:40

            Authority Information Access: 
                CA Issuers - URI:http://url-for-aia/Root.cer

            X509v3 CRL Distribution Points: 

                Full Name:
                  URI:http://url-for-crl/Root.crl

            X509v3 Key Usage: critical
                Certificate Sign, CRL Sign
            X509v3 Basic Constraints: critical
                CA:TRUE
    Signature Algorithm: sha256WithRSAEncryption
         34:3c:af:58:31:78:ea:c0:32:23:d8:b0:8e:84:44:9c:a3:b7:
         0b:b5:a4:4b:3d:21:d2:8a:02:ec:4c:ed:ab:c3:0a:17:89:50:
         45:fc:43:0b:db:6c:e6:69:56:3c:41:b0:c9:2d:12:19:bd:a1:
         b6:a7:fa:25:a4:73:6f:32:06:b7:f5:ac:64:b3:b9:b6:44:65:
         83:b2:48:cc:3c:68:69:ae:16:0a:c0:c5:57:39:00:51:16:97:
         0e:03:7d:e7:02:65:f2:84:de:e9:a6:9d:d5:83:73:37:9d:f5:
         bc:d8:ef:dc:6f:1b:48:db:f6:ca:a0:00:d5:e6:c0:f6:94:2d:
         a9:4e:b4:4d:cf:49:7d:c4:4d:3a:68:a2:b2:d8:e8:67:77:98:
         6f:1c:2d:4a:74:13:2b:24:04:67:50:38:7e:e9:cb:0c:94:0d:
         d0:07:50:52:a5:03:10:07:6a:04:ef:33:ea:b0:70:9f:27:34:
         47:b0:f8:41:81:7e:f2:93:0b:c0:cf:c3:d7:06:59:f1:24:2a:
         61:64:7f:38:f0:4f:77:d3:92:e4:1f:e4:44:a4:b6:85:40:59:
         3d:df:f2:cc:57:ea:1a:58:1d:f8:90:d4:2d:53:67:56:c3:88:
         9d:17:0f:19:19:fc:ed:4e:cc:b9:76:fa:fc:93:e5:bf:08:e7:
         a9:d6:46:0f
-----BEGIN TRUST_ANCHOR_UNCONSTRAINED-----
MIIDZTCCAk2gAwIBAgIBATANBgkqhkiG9w0BAQsFADAPMQ0wCwYDVQQDDARSb290
MB4XDTE1MDEwMTEyMDAwMFoXDTE2MDEwMTEyMDAwMFowDzENMAsGA1UEAwwEUm9v
dDCCASIwDQYJKoZIhvcNAQEBBQADggEPADCCAQoCggEBAMlTr0/RNV8+aQgTKEFb
aSWw7jl1c0xjxAhCDF4EBGIhGpJdyG3oRGo7PsVqIlaG28s4yMdV7SzcvDY5dpY/
al89EkNgsZQTdZQCi630voVb7fHFAyw8DOPrf6uUSnmLSP2tesPgqN5A6vCnh1RA
bvR0iKoruyG/1n/avM9SSD22dQ3ia+oDCtc59XhFYwUaS5lAXpcICl00Y/q63qf1
HOiyJpYPycGsbe8FjRzcCQu80/P7EEMvsjY+z4QaNx78gWfGFIe7hzMWKpXP5wq3
UgAFCQippZddvu0Zkk5sT5R/5Ro0wNw/Ao6ud/y2J3d4SOfKob0nHTyjLY1G1aad
U80CAwEAAaOByzCByDAdBgNVHQ4EFgQU+1k+zKJCYnKfU5aVOkjqFoDIQkAwHwYD
VR0jBBgwFoAU+1k+zKJCYnKfU5aVOkjqFoDIQkAwNwYIKwYBBQUHAQEEKzApMCcG
CCsGAQUFBzAChhtodHRwOi8vdXJsLWZvci1haWEvUm9vdC5jZXIwLAYDVR0fBCUw
IzAhoB+gHYYbaHR0cDovL3VybC1mb3ItY3JsL1Jvb3QuY3JsMA4GA1UdDwEB/wQE
AwIBBjAPBgNVHRMBAf8EBTADAQH/MA0GCSqGSIb3DQEBCwUAA4IBAQA0PK9YMXjq
wDIj2LCOhESco7cLtaRLPSHSigLsTO2rwwoXiVBF/EML22zmaVY8QbDJLRIZvaG2
p/olpHNvMga39axks7m2RGWDskjMPGhprhYKwMVXOQBRFpcOA33nAmXyhN7ppp3V
g3M3nfW82O/cbxtI2/bKoADV5sD2lC2pTrRNz0l9xE06aKKy2Ohnd5hvHC1KdBMr
JARnUDh+6csMlA3QB1BSpQMQB2oE7zPqsHCfJzRHsPhBgX7ykwvAz8PXBlnxJCph
ZH848E9305LkH+REpLaFQFk93/LMV+oaWB34kNQtU2dWw4idFw8ZGfztTsy5dvr8
k+W/COep1kYP
-----END TRUST_ANCHOR_UNCONSTRAINED-----

150302120000Z
-----BEGIN TIME-----
MTUwMzAyMTIwMDAwWg==
-----END TIME-----

FAIL
-----BEGIN VERIFY_RESULT-----
RkFJTA==
-----END VERIFY_RESULT-----

[Context] Processing Certificate
  index: 0
      [Error] Time is after notAfter

-----BEGIN ERRORS-----
W0NvbnRleHRdIFByb2Nlc3NpbmcgQ2VydGlmaWNhdGUKICBpbmRleDogMAogICAgICBbRXJyb3JdIFRpbWUgaXMgYWZ0ZXIgbm90QWZ0ZXIK
-----END ERRORS-----
