[Created by: generate-expired-intermediate.py]

Certificate chain with 1 intermediate, where the intermediate is expired
(violates validity.notAfter). Verification is expected to fail.

Certificate:
    Data:
        Version: 3 (0x2)
        Serial Number: 1 (0x1)
    Signature Algorithm: sha256WithRSAEncryption
        Issuer: CN=Intermediate
        Validity
            Not Before: Jan  1 12:00:00 2015 GMT
            Not After : Jan  1 12:00:00 2016 GMT
        Subject: CN=Target
        Subject Public Key Info:
            Public Key Algorithm: rsaEncryption
                Public-Key: (2048 bit)
                Modulus:
                    00:bb:96:f1:5b:2b:5a:7e:e7:6f:38:53:81:52:60:
                    7f:76:fc:e3:03:d7:43:ea:3a:28:23:5b:03:21:6a:
                    6c:23:88:96:83:4a:e7:d0:6e:21:0d:29:28:99:a4:
                    5a:5c:75:5b:0b:82:ff:84:e1:8e:82:01:70:0a:16:
                    5d:dd:b7:2f:a8:44:66:8f:c5:18:0b:f4:5c:ac:0e:
                    55:dc:68:c3:16:9e:ea:86:b3:29:f9:5f:39:e8:c5:
                    13:51:f6:89:ee:bb:cb:81:12:e4:fa:cf:69:1b:cb:
                    46:42:f5:ef:e3:9f:c5:06:8b:30:f0:2b:6d:b0:00:
                    ce:d9:01:a2:79:39:ee:14:bc:38:b1:3d:9d:7c:b7:
                    5c:dc:6d:ae:af:6a:dd:19:5f:87:01:3a:46:db:35:
                    ef:f2:72:1b:82:25:3d:07:d4:eb:03:75:ff:d3:9f:
                    f5:8f:92:6b:86:d2:50:e1:3c:0b:78:da:2f:35:ed:
                    ee:2e:8f:bb:cb:b2:36:83:cf:13:2c:11:e5:f2:84:
                    9c:c1:6d:a7:8b:4c:2b:18:09:7e:48:3a:41:36:37:
                    f6:80:e5:99:4d:ac:13:97:be:ff:99:89:84:45:fd:
                    2f:f7:db:65:40:0c:ac:8d:26:2f:dc:13:13:01:ad:
                    41:0c:87:eb:f7:9d:bd:f6:2a:4b:a9:34:27:f0:63:
                    0d:65
                Exponent: 65537 (0x10001)
        X509v3 extensions:
            X509v3 Subject Key Identifier: 
                3B:B6:93:A0:97:08:69:A7:DA:9B:4B:98:F9:73:34:EF:E6:F0:77:7F
            X509v3 Authority Key Identifier: 
                keyid:CE:1B:E0:BB:3C:38:CE:25:A4:97:48:9E:FA:83:B5:97:B9:83:9C:AF

            Authority Information Access: 
                CA Issuers - URI:http://url-for-aia/Intermediate.cer

            X509v3 CRL Distribution Points: 

                Full Name:
                  URI:http://url-for-crl/Intermediate.crl

            X509v3 Key Usage: critical
                Digital Signature, Key Encipherment
            X509v3 Extended Key Usage: 
                TLS Web Server Authentication, TLS Web Client Authentication
    Signature Algorithm: sha256WithRSAEncryption
         39:5d:5e:53:44:d5:b1:f8:cb:10:f4:0c:d4:47:d3:57:e1:2a:
         55:b7:30:c2:41:36:b8:18:e4:df:6c:d2:3e:84:ad:a1:a4:dd:
         a3:3e:3c:9d:8c:e7:79:4b:9e:87:4c:f4:fe:42:69:40:b1:1b:
         64:ee:a2:fa:6d:ad:b3:b1:09:1a:7f:2a:74:f0:be:1a:f7:a8:
         46:5b:c7:26:e0:a6:7e:1e:42:cf:26:7b:39:ca:cc:c4:38:58:
         46:03:48:77:ea:93:23:1f:6b:24:88:f6:d0:a6:d4:eb:2c:e5:
         48:26:49:69:84:0f:84:56:12:75:ef:ec:fd:81:f4:d4:bf:51:
         da:ab:3f:77:d8:03:f4:36:41:7e:59:39:81:45:2f:22:8a:fa:
         18:d4:e4:22:4c:6a:73:b3:5f:a1:e7:17:82:1c:1a:30:0f:e8:
         2f:b5:e2:61:62:1a:cb:5c:1b:c5:2c:71:13:c4:18:c0:c6:42:
         6e:26:50:80:b2:67:f0:6e:b4:23:ae:73:c8:83:ab:41:e2:eb:
         2d:e5:ad:50:5c:38:37:3f:b9:3e:1d:5e:c4:b6:75:79:8c:2a:
         8d:a0:02:b1:fc:76:cb:70:ff:46:b2:8f:b0:66:b6:9b:b6:e6:
         ff:ad:fa:0b:d1:f3:4b:98:ed:ee:88:2a:0c:e6:62:0b:15:37:
         9d:d3:01:08
-----BEGIN CERTIFICATE-----
MIIDjTCCAnWgAwIBAgIBATANBgkqhkiG9w0BAQsFADAXMRUwEwYDVQQDDAxJbnRl
cm1lZGlhdGUwHhcNMTUwMTAxMTIwMDAwWhcNMTYwMTAxMTIwMDAwWjARMQ8wDQYD
VQQDDAZUYXJnZXQwggEiMA0GCSqGSIb3DQEBAQUAA4IBDwAwggEKAoIBAQC7lvFb
K1p+5284U4FSYH92/OMD10PqOigjWwMhamwjiJaDSufQbiENKSiZpFpcdVsLgv+E
4Y6CAXAKFl3dty+oRGaPxRgL9FysDlXcaMMWnuqGsyn5XznoxRNR9onuu8uBEuT6
z2kby0ZC9e/jn8UGizDwK22wAM7ZAaJ5Oe4UvDixPZ18t1zcba6vat0ZX4cBOkbb
Ne/ychuCJT0H1OsDdf/Tn/WPkmuG0lDhPAt42i817e4uj7vLsjaDzxMsEeXyhJzB
baeLTCsYCX5IOkE2N/aA5ZlNrBOXvv+ZiYRF/S/322VADKyNJi/cExMBrUEMh+v3
nb32KkupNCfwYw1lAgMBAAGjgekwgeYwHQYDVR0OBBYEFDu2k6CXCGmn2ptLmPlz
NO/m8Hd/MB8GA1UdIwQYMBaAFM4b4Ls8OM4lpJdInvqDtZe5g5yvMD8GCCsGAQUF
BwEBBDMwMTAvBggrBgEFBQcwAoYjaHR0cDovL3VybC1mb3ItYWlhL0ludGVybWVk
aWF0ZS5jZXIwNAYDVR0fBC0wKzApoCegJYYjaHR0cDovL3VybC1mb3ItY3JsL0lu
dGVybWVkaWF0ZS5jcmwwDgYDVR0PAQH/BAQDAgWgMB0GA1UdJQQWMBQGCCsGAQUF
BwMBBggrBgEFBQcDAjANBgkqhkiG9w0BAQsFAAOCAQEAOV1eU0TVsfjLEPQM1EfT
V+EqVbcwwkE2uBjk32zSPoStoaTdoz48nYzneUueh0z0/kJpQLEbZO6i+m2ts7EJ
Gn8qdPC+GveoRlvHJuCmfh5CzyZ7OcrMxDhYRgNId+qTIx9rJIj20KbU6yzlSCZJ
aYQPhFYSde/s/YH01L9R2qs/d9gD9DZBflk5gUUvIor6GNTkIkxqc7NfoecXghwa
MA/oL7XiYWIay1wbxSxxE8QYwMZCbiZQgLJn8G60I65zyIOrQeLrLeWtUFw4Nz+5
Ph1exLZ1eYwqjaACsfx2y3D/RrKPsGa2m7bm/636C9HzS5jt7ogqDOZiCxU3ndMB
CA==
-----END CERTIFICATE-----

Certificate:
    Data:
        Version: 3 (0x2)
        Serial Number: 2 (0x2)
    Signature Algorithm: sha256WithRSAEncryption
        Issuer: CN=Root
        Validity
            Not Before: Jan  1 12:00:00 2015 GMT
            Not After : Mar  1 12:00:00 2015 GMT
        Subject: CN=Intermediate
        Subject Public Key Info:
            Public Key Algorithm: rsaEncryption
                Public-Key: (2048 bit)
                Modulus:
                    00:d2:ac:b0:9d:ea:a3:98:bd:31:99:4a:5c:52:d4:
                    e6:36:79:ae:03:e3:6c:f2:f9:05:51:dd:3e:38:d5:
                    3c:02:e8:ea:74:66:62:c7:63:9f:ce:91:ef:c3:0b:
                    b9:08:ce:cc:cd:86:26:83:f0:c7:d2:1a:6c:21:8c:
                    68:f3:2c:f7:28:e6:20:e7:7e:78:1a:18:67:40:70:
                    f5:eb:ce:39:52:2d:35:75:00:a6:cc:13:24:47:58:
                    9b:59:7c:ec:17:b8:e4:8b:94:94:06:00:0f:16:c9:
                    14:b4:95:86:67:2e:e2:d7:16:86:81:2d:a3:4d:66:
                    60:81:cc:83:d8:6a:ca:36:9e:7b:0c:06:ab:01:a9:
                    08:99:ee:a1:ba:c3:fa:0d:4d:dd:c6:1a:59:8b:93:
                    cc:16:3e:07:62:99:3f:14:e5:04:10:c3:ec:7e:03:
                    5d:6e:a2:aa:c2:8c:13:ec:7b:18:34:2d:b9:46:a7:
                    00:24:67:3e:ff:46:f9:e9:a8:6a:00:db:8d:af:02:
                    0d:cd:1d:00:53:81:d4:d8:b0:d3:14:32:95:21:fe:
                    02:f6:27:15:55:5a:51:cc:dc:d4:ff:e5:12:28:ff:
                    af:be:23:5e:36:f6:8b:14:c2:4e:cb:c4:8b:03:79:
                    e4:19:db:a6:6b:5a:92:83:67:95:c9:c6:44:77:66:
                    ee:b7
                Exponent: 65537 (0x10001)
        X509v3 extensions:
            X509v3 Subject Key Identifier: 
                CE:1B:E0:BB:3C:38:CE:25:A4:97:48:9E:FA:83:B5:97:B9:83:9C:AF
            X509v3 Authority Key Identifier: 
                keyid:14:D6:00:BC:9A:53:1E:C0:23:29:37:45:60:EF:11:A1:AF:CE:2B:1A

            Authority Information Access: 
                CA Issuers - URI:http://url-for-aia/Root.cer

            X509v3 CRL Distribution Points: 

                Full Name:
                  URI:http://url-for-crl/Root.crl

            X509v3 Key Usage: critical
                Certificate Sign, CRL Sign
            X509v3 Basic Constraints: critical
                CA:TRUE
    Signature Algorithm: sha256WithRSAEncryption
         85:90:10:59:59:a7:08:ac:49:ac:37:1f:11:2b:ad:5e:ea:7d:
         7a:f5:10:9a:a8:33:a2:67:ac:d0:fa:0f:ac:b6:c5:c5:e8:6f:
         3a:82:72:99:b1:b1:8c:3b:1a:af:10:03:b5:a4:21:f6:3b:a0:
         a8:80:84:b0:8c:11:64:b7:e1:79:d9:a3:21:64:24:ed:97:a8:
         65:e1:62:e6:44:fa:cc:49:bd:fe:43:cc:69:ff:95:bb:6f:ac:
         58:25:3a:da:57:42:e9:4b:32:3b:c5:ab:02:87:c9:d0:ea:8a:
         7f:51:6f:b5:c0:1f:97:95:50:c1:e2:70:ac:af:fe:7d:49:bc:
         d0:80:19:a7:bc:80:28:cb:73:93:fb:06:83:29:23:bb:b1:10:
         b9:51:a9:bf:73:87:15:05:39:92:1e:ec:9a:48:b0:ea:c4:e1:
         c5:c8:22:04:aa:e2:29:d5:31:f8:b1:4c:9e:e6:0f:a5:62:68:
         71:3b:1b:7b:4d:c6:b0:01:51:ae:99:da:77:77:41:2b:c7:4b:
         d3:83:d2:a0:d9:48:0a:4a:e6:52:91:a3:27:16:7c:0d:c4:93:
         2c:fc:5c:51:bf:dc:b0:81:1a:80:d2:58:87:bc:26:08:13:cd:
         d3:c0:26:40:23:e8:6b:b0:18:95:c5:d7:6a:a2:1a:19:00:62:
         3d:92:94:45
-----BEGIN CERTIFICATE-----
MIIDbTCCAlWgAwIBAgIBAjANBgkqhkiG9w0BAQsFADAPMQ0wCwYDVQQDDARSb290
MB4XDTE1MDEwMTEyMDAwMFoXDTE1MDMwMTEyMDAwMFowFzEVMBMGA1UEAwwMSW50
ZXJtZWRpYXRlMIIBIjANBgkqhkiG9w0BAQEFAAOCAQ8AMIIBCgKCAQEA0qywneqj
mL0xmUpcUtTmNnmuA+Ns8vkFUd0+ONU8AujqdGZix2OfzpHvwwu5CM7MzYYmg/DH
0hpsIYxo8yz3KOYg5354GhhnQHD16845Ui01dQCmzBMkR1ibWXzsF7jki5SUBgAP
FskUtJWGZy7i1xaGgS2jTWZggcyD2GrKNp57DAarAakIme6husP6DU3dxhpZi5PM
Fj4HYpk/FOUEEMPsfgNdbqKqwowT7HsYNC25RqcAJGc+/0b56ahqANuNrwINzR0A
U4HU2LDTFDKVIf4C9icVVVpRzNzU/+USKP+vviNeNvaLFMJOy8SLA3nkGduma1qS
g2eVycZEd2butwIDAQABo4HLMIHIMB0GA1UdDgQWBBTOG+C7PDjOJaSXSJ76g7WX
uYOcrzAfBgNVHSMEGDAWgBQU1gC8mlMewCMpN0Vg7xGhr84rGjA3BggrBgEFBQcB
AQQrMCkwJwYIKwYBBQUHMAKGG2h0dHA6Ly91cmwtZm9yLWFpYS9Sb290LmNlcjAs
BgNVHR8EJTAjMCGgH6AdhhtodHRwOi8vdXJsLWZvci1jcmwvUm9vdC5jcmwwDgYD
VR0PAQH/BAQDAgEGMA8GA1UdEwEB/wQFMAMBAf8wDQYJKoZIhvcNAQELBQADggEB
AIWQEFlZpwisSaw3HxErrV7qfXr1EJqoM6JnrND6D6y2xcXobzqCcpmxsYw7Gq8Q
A7WkIfY7oKiAhLCMEWS34XnZoyFkJO2XqGXhYuZE+sxJvf5DzGn/lbtvrFglOtpX
QulLMjvFqwKHydDqin9Rb7XAH5eVUMHicKyv/n1JvNCAGae8gCjLc5P7BoMpI7ux
ELlRqb9zhxUFOZIe7JpIsOrE4cXIIgSq4inVMfixTJ7mD6ViaHE7G3tNxrABUa6Z
2nd3QSvHS9OD0qDZSApK5lKRoycWfA3Ekyz8XFG/3LCBGoDSWIe8JggTzdPAJkAj
6GuwGJXF12qiGhkAYj2SlEU=
-----END CERTIFICATE-----

Certificate:
    Data:
        Version: 3 (0x2)
        Serial Number: 1 (0x1)
    Signature Algorithm: sha256WithRSAEncryption
        Issuer: CN=Root
        Validity
            Not Before: Jan  1 12:00:00 2015 GMT
            Not After : Jan  1 12:00:00 2016 GMT
        Subject: CN=Root
        Subject Public Key Info:
            Public Key Algorithm: rsaEncryption
                Public-Key: (2048 bit)
                Modulus:
                    00:b6:13:fa:98:f7:b4:55:90:4b:c0:e4:41:74:47:
                    e1:ca:ac:c0:84:7e:0a:55:af:06:c5:39:50:87:8a:
                    35:c2:36:e0:01:8c:e5:4d:ff:a6:74:cc:76:b6:a5:
                    91:ce:ff:95:86:7c:d1:5d:14:b4:30:04:7d:c6:41:
                    2c:85:99:08:fa:b7:8f:92:86:3d:03:c1:83:5a:b0:
                    d2:f7:93:ba:03:9c:8c:30:2f:e4:d5:d2:a7:be:70:
                    d4:1c:71:71:00:8a:ac:df:ff:ff:27:05:27:ba:c2:
                    6a:91:33:51:d3:8b:50:3a:bc:80:80:1b:cc:ff:6c:
                    62:d2:a9:a2:c8:ef:99:02:86:2f:c0:4f:b0:84:38:
                    43:d3:78:f7:c9:53:75:4a:75:3a:e4:60:1d:64:43:
                    6b:8c:88:ff:c5:0b:f1:d2:36:9c:52:df:92:00:70:
                    ff:15:e2:0d:08:be:b1:94:b8:11:a1:40:b2:6f:aa:
                    dd:9a:bf:4a:83:93:d4:b1:bc:07:47:e9:22:55:7c:
                    f2:c1:89:8a:b0:34:b0:e8:5a:34:70:56:e7:b3:4d:
                    51:a0:9e:ba:f6:66:76:5f:dc:1f:0d:6a:18:fb:85:
                    41:dd:d4:c9:8f:0f:f6:9c:66:2a:b0:ab:af:43:16:
                    5e:79:d7:2b:f2:91:74:f6:5c:72:b4:bb:eb:ea:02:
                    1f:53
                Exponent: 65537 (0x10001)
        X509v3 extensions:
            X509v3 Subject Key Identifier: 
                14:D6:00:BC:9A:53:1E:C0:23:29:37:45:60:EF:11:A1:AF:CE:2B:1A
            X509v3 Authority Key Identifier: 
                keyid:14:D6:00:BC:9A:53:1E:C0:23:29:37:45:60:EF:11:A1:AF:CE:2B:1A

            Authority Information Access: 
                CA Issuers - URI:http://url-for-aia/Root.cer

            X509v3 CRL Distribution Points: 

                Full Name:
                  URI:http://url-for-crl/Root.crl

            X509v3 Key Usage: critical
                Certificate Sign, CRL Sign
            X509v3 Basic Constraints: critical
                CA:TRUE
    Signature Algorithm: sha256WithRSAEncryption
         a8:92:8b:16:34:ca:84:e9:d6:0c:85:9a:b2:c7:e0:ab:37:50:
         dd:68:2e:ba:93:22:17:09:53:a5:a1:4b:0d:75:8a:e6:38:8a:
         0f:eb:5e:a4:fb:2d:7f:ce:39:6c:f8:c1:2b:25:03:a3:16:49:
         61:e3:b1:04:68:c7:2b:38:f7:06:0a:e6:59:07:46:65:05:ef:
         63:90:2b:28:58:58:95:8b:7a:02:32:f3:64:fc:79:77:45:47:
         d0:9e:21:18:28:e2:1f:b1:f6:2d:af:bc:77:ff:37:c2:61:e2:
         bc:56:c5:f3:e8:ed:12:3f:9f:ab:6f:7d:2d:14:92:47:79:f7:
         1a:73:2a:f4:20:df:c6:87:10:80:2b:f7:08:09:3d:61:56:a7:
         3d:27:71:19:c7:38:b2:36:13:0a:91:2a:c5:e0:a0:72:d6:2e:
         de:ff:da:e5:80:f7:c8:55:b7:c1:d5:84:f7:31:e0:50:72:55:
         09:bc:cb:ac:84:c6:b6:91:25:73:a4:4c:a3:5d:90:a9:9b:a8:
         1a:44:d9:46:48:69:17:59:85:6e:0c:54:27:db:7d:4a:91:96:
         71:ec:ff:a1:58:41:d1:06:4a:8b:12:2b:01:fb:98:06:8a:c7:
         3e:df:01:23:a8:cf:04:d6:35:8a:95:c0:97:9f:f6:e4:38:20:
         ab:15:f3:2f
-----BEGIN TRUST_ANCHOR_UNCONSTRAINED-----
MIIDZTCCAk2gAwIBAgIBATANBgkqhkiG9w0BAQsFADAPMQ0wCwYDVQQDDARSb290
MB4XDTE1MDEwMTEyMDAwMFoXDTE2MDEwMTEyMDAwMFowDzENMAsGA1UEAwwEUm9v
dDCCASIwDQYJKoZIhvcNAQEBBQADggEPADCCAQoCggEBALYT+pj3tFWQS8DkQXRH
4cqswIR+ClWvBsU5UIeKNcI24AGM5U3/pnTMdralkc7/lYZ80V0UtDAEfcZBLIWZ
CPq3j5KGPQPBg1qw0veTugOcjDAv5NXSp75w1BxxcQCKrN///ycFJ7rCapEzUdOL
UDq8gIAbzP9sYtKposjvmQKGL8BPsIQ4Q9N498lTdUp1OuRgHWRDa4yI/8UL8dI2
nFLfkgBw/xXiDQi+sZS4EaFAsm+q3Zq/SoOT1LG8B0fpIlV88sGJirA0sOhaNHBW
57NNUaCeuvZmdl/cHw1qGPuFQd3UyY8P9pxmKrCrr0MWXnnXK/KRdPZccrS76+oC
H1MCAwEAAaOByzCByDAdBgNVHQ4EFgQUFNYAvJpTHsAjKTdFYO8Roa/OKxowHwYD
VR0jBBgwFoAUFNYAvJpTHsAjKTdFYO8Roa/OKxowNwYIKwYBBQUHAQEEKzApMCcG
CCsGAQUFBzAChhtodHRwOi8vdXJsLWZvci1haWEvUm9vdC5jZXIwLAYDVR0fBCUw
IzAhoB+gHYYbaHR0cDovL3VybC1mb3ItY3JsL1Jvb3QuY3JsMA4GA1UdDwEB/wQE
AwIBBjAPBgNVHRMBAf8EBTADAQH/MA0GCSqGSIb3DQEBCwUAA4IBAQCokosWNMqE
6dYMhZqyx+CrN1DdaC66kyIXCVOloUsNdYrmOIoP616k+y1/zjls+MErJQOjFklh
47EEaMcrOPcGCuZZB0ZlBe9jkCsoWFiVi3oCMvNk/Hl3RUfQniEYKOIfsfYtr7x3
/zfCYeK8VsXz6O0SP5+rb30tFJJHefcacyr0IN/GhxCAK/cICT1hVqc9J3EZxziy
NhMKkSrF4KBy1i7e/9rlgPfIVbfB1YT3MeBQclUJvMushMa2kSVzpEyjXZCpm6ga
RNlGSGkXWYVuDFQn231KkZZx7P+hWEHRBkqLEisB+5gGisc+3wEjqM8E1jWKlcCX
n/bkOCCrFfMv
-----END TRUST_ANCHOR_UNCONSTRAINED-----

150302120000Z
-----BEGIN TIME-----
MTUwMzAyMTIwMDAwWg==
-----END TIME-----

FAIL
-----BEGIN VERIFY_RESULT-----
RkFJTA==
-----END VERIFY_RESULT-----

serverAuth
-----BEGIN KEY_PURPOSE-----
c2VydmVyQXV0aA==
-----END KEY_PURPOSE-----

----- Certificate i=1 (CN=Intermediate) -----
ERROR: Time is after notAfter


-----BEGIN ERRORS-----
LS0tLS0gQ2VydGlmaWNhdGUgaT0xIChDTj1JbnRlcm1lZGlhdGUpIC0tLS0tCkVSUk9SOiBUaW1lIGlzIGFmdGVyIG5vdEFmdGVyCgo=
-----END ERRORS-----
