[Created by: generate-expired-constrained-root.py]

Certificate chain with 1 intermediate, where the root certificate is expired
(violates validity.notAfter). Verification is expected to succeed even though
the trust anchor is initialized with anchor constraints, since validity is
not enforced.

Certificate:
    Data:
        Version: 3 (0x2)
        Serial Number: 1 (0x1)
    Signature Algorithm: sha256WithRSAEncryption
        Issuer: CN=Intermediate
        Validity
            Not Before: Jan  1 12:00:00 2015 GMT
            Not After : Jan  1 12:00:00 2016 GMT
        Subject: CN=Target
        Subject Public Key Info:
            Public Key Algorithm: rsaEncryption
                Public-Key: (2048 bit)
                Modulus:
                    00:d9:a8:d1:eb:ee:56:1e:d5:3c:a1:b9:bf:1b:f7:
                    d0:1f:49:ad:af:ad:b4:af:e0:64:f3:f9:19:6b:95:
                    c9:ab:b1:25:65:74:91:dc:84:bc:03:0d:73:95:dd:
                    0d:6a:1b:b8:8c:75:a3:03:6f:c8:01:ff:23:b0:e9:
                    26:03:6c:24:2a:d4:e5:6b:6a:00:07:fd:b3:d4:4c:
                    ab:c3:42:15:5a:4a:68:66:58:8b:60:df:d2:22:f6:
                    e0:4e:ee:1c:c9:d0:3d:8f:bf:3c:90:d8:af:54:9e:
                    eb:1b:76:55:dc:f6:2a:a9:80:97:84:93:61:56:2c:
                    f4:b8:d3:ac:a7:db:47:37:c9:8b:4f:d2:bc:79:18:
                    52:bf:e7:ca:3f:47:6f:b9:11:da:aa:53:33:ee:05:
                    b9:8f:2f:4e:c3:a5:b6:e4:87:8d:21:e4:39:3f:a2:
                    0b:b4:87:e2:c4:b0:10:d7:0c:dd:bd:cf:2f:1f:2b:
                    a4:af:89:5a:69:00:4d:6c:74:74:4c:6f:67:cc:a2:
                    58:d3:09:d6:a8:93:98:93:11:cb:a9:6a:15:f2:bc:
                    ea:d7:1a:b3:ae:4f:45:a8:58:2f:a7:0d:d6:bf:32:
                    65:be:a9:27:be:00:c1:2c:85:bf:17:e3:b7:95:61:
                    a5:cc:ba:c7:50:ca:5e:25:03:3c:f9:33:53:f6:bd:
                    18:69
                Exponent: 65537 (0x10001)
        X509v3 extensions:
            X509v3 Subject Key Identifier: 
                B2:8B:FD:28:C3:5D:3E:84:62:BD:4D:6B:A4:EB:64:94:E5:60:35:D3
            X509v3 Authority Key Identifier: 
                keyid:ED:60:6E:83:A7:52:C3:36:D0:36:B1:A5:B5:BD:8B:AB:3F:EC:CB:1B

            Authority Information Access: 
                CA Issuers - URI:http://url-for-aia/Intermediate.cer

            X509v3 CRL Distribution Points: 

                Full Name:
                  URI:http://url-for-crl/Intermediate.crl

            X509v3 Key Usage: critical
                Digital Signature, Key Encipherment
            X509v3 Extended Key Usage: 
                TLS Web Server Authentication, TLS Web Client Authentication
    Signature Algorithm: sha256WithRSAEncryption
         7f:ea:a3:4e:d2:f6:37:e7:5d:65:58:13:c4:65:a2:00:fb:1f:
         40:1f:1d:ed:05:2d:4c:80:bf:08:59:8b:f4:d0:e4:f9:c4:0d:
         1a:c9:ff:ff:10:d1:0e:91:dc:1a:ed:16:08:de:10:de:c0:28:
         34:0c:d7:c8:52:6e:53:34:1d:93:ec:1d:38:41:7a:84:cd:c8:
         65:6e:8e:9a:95:ae:b7:0b:14:c2:90:26:29:4a:d6:ae:0b:90:
         8b:88:55:d3:86:70:f4:d4:bb:7c:e2:08:ec:47:b3:a6:fa:bc:
         fc:bb:9f:b1:8f:82:75:e0:72:b8:59:df:96:41:7c:ef:f7:f5:
         ae:c6:09:c7:f2:b9:9d:f4:d2:32:3e:0f:ab:9c:d8:d4:27:72:
         5d:e1:b7:48:47:d0:55:e8:70:a3:d5:e1:66:8c:00:71:91:c6:
         10:57:63:58:03:fd:7f:c0:29:c2:40:65:63:fc:1f:8b:56:29:
         5a:47:cc:03:fe:18:c9:0d:63:9d:01:a6:6a:dd:60:10:64:d1:
         b7:11:2e:85:de:b1:4a:07:ab:09:9d:1b:56:0e:1f:f3:2c:bf:
         82:80:61:61:9c:fb:54:5f:0e:db:8f:ac:d8:c7:7d:e1:7d:c7:
         c9:ea:d9:fe:00:2f:ab:a9:20:17:fa:0a:82:22:e8:87:66:58:
         f9:21:bf:41
-----BEGIN CERTIFICATE-----
MIIDjTCCAnWgAwIBAgIBATANBgkqhkiG9w0BAQsFADAXMRUwEwYDVQQDDAxJbnRl
cm1lZGlhdGUwHhcNMTUwMTAxMTIwMDAwWhcNMTYwMTAxMTIwMDAwWjARMQ8wDQYD
VQQDDAZUYXJnZXQwggEiMA0GCSqGSIb3DQEBAQUAA4IBDwAwggEKAoIBAQDZqNHr
7lYe1Tyhub8b99AfSa2vrbSv4GTz+RlrlcmrsSVldJHchLwDDXOV3Q1qG7iMdaMD
b8gB/yOw6SYDbCQq1OVragAH/bPUTKvDQhVaSmhmWItg39Ii9uBO7hzJ0D2PvzyQ
2K9UnusbdlXc9iqpgJeEk2FWLPS406yn20c3yYtP0rx5GFK/58o/R2+5EdqqUzPu
BbmPL07Dpbbkh40h5Dk/ogu0h+LEsBDXDN29zy8fK6SviVppAE1sdHRMb2fMoljT
Cdaok5iTEcupahXyvOrXGrOuT0WoWC+nDda/MmW+qSe+AMEshb8X47eVYaXMusdQ
yl4lAzz5M1P2vRhpAgMBAAGjgekwgeYwHQYDVR0OBBYEFLKL/SjDXT6EYr1Na6Tr
ZJTlYDXTMB8GA1UdIwQYMBaAFO1gboOnUsM20DaxpbW9i6s/7MsbMD8GCCsGAQUF
BwEBBDMwMTAvBggrBgEFBQcwAoYjaHR0cDovL3VybC1mb3ItYWlhL0ludGVybWVk
aWF0ZS5jZXIwNAYDVR0fBC0wKzApoCegJYYjaHR0cDovL3VybC1mb3ItY3JsL0lu
dGVybWVkaWF0ZS5jcmwwDgYDVR0PAQH/BAQDAgWgMB0GA1UdJQQWMBQGCCsGAQUF
BwMBBggrBgEFBQcDAjANBgkqhkiG9w0BAQsFAAOCAQEAf+qjTtL2N+ddZVgTxGWi
APsfQB8d7QUtTIC/CFmL9NDk+cQNGsn//xDRDpHcGu0WCN4Q3sAoNAzXyFJuUzQd
k+wdOEF6hM3IZW6OmpWutwsUwpAmKUrWrguQi4hV04Zw9NS7fOII7Eezpvq8/Luf
sY+CdeByuFnflkF87/f1rsYJx/K5nfTSMj4Pq5zY1CdyXeG3SEfQVehwo9XhZowA
cZHGEFdjWAP9f8ApwkBlY/wfi1YpWkfMA/4YyQ1jnQGmat1gEGTRtxEuhd6xSger
CZ0bVg4f8yy/goBhYZz7VF8O24+s2Md94X3HyerZ/gAvq6kgF/oKgiLoh2ZY+SG/
QQ==
-----END CERTIFICATE-----

Certificate:
    Data:
        Version: 3 (0x2)
        Serial Number: 2 (0x2)
    Signature Algorithm: sha256WithRSAEncryption
        Issuer: CN=Root
        Validity
            Not Before: Jan  1 12:00:00 2015 GMT
            Not After : Jan  1 12:00:00 2016 GMT
        Subject: CN=Intermediate
        Subject Public Key Info:
            Public Key Algorithm: rsaEncryption
                Public-Key: (2048 bit)
                Modulus:
                    00:9d:df:80:0d:53:d7:49:a6:44:47:34:0c:ca:ea:
                    55:9a:e0:de:39:61:df:1a:b5:97:4e:37:5b:11:78:
                    51:73:f3:2d:9a:8a:e9:b3:d7:44:f9:27:36:e9:1b:
                    d6:7a:9d:c7:7d:11:7e:cb:6d:92:2a:73:73:b9:76:
                    7b:32:b3:b9:a2:a5:ae:ea:6e:5f:fa:aa:b4:55:8b:
                    61:69:ce:1f:a3:87:ee:f1:fb:d0:18:0a:ca:34:2a:
                    57:9a:18:92:75:21:52:21:ee:23:e4:5a:41:90:34:
                    4f:08:2e:2b:1b:35:25:88:a1:4c:4b:2e:6b:21:f5:
                    6b:f6:63:63:a3:7a:d3:98:3d:6f:d0:bb:98:d0:8c:
                    cb:d5:fd:cf:3b:1d:9d:99:d1:46:2f:43:3a:86:1b:
                    ba:27:e3:d8:85:d2:03:56:7f:84:a7:d2:3a:55:2c:
                    84:02:b8:6d:75:f9:16:9f:2f:7c:93:16:48:16:b6:
                    65:df:c5:0f:6c:dc:d8:7e:24:f9:f2:89:37:90:f3:
                    da:33:48:be:08:d1:4d:f7:f3:fe:4e:dc:fd:78:a1:
                    dc:d5:45:2f:bf:a2:78:d3:5b:91:90:3e:d8:71:d4:
                    97:24:51:44:5f:28:bb:ec:ba:c7:70:af:fa:bd:fa:
                    cf:87:ca:a4:87:15:90:66:6f:79:c2:9c:3c:cb:d5:
                    74:ad
                Exponent: 65537 (0x10001)
        X509v3 extensions:
            X509v3 Subject Key Identifier: 
                ED:60:6E:83:A7:52:C3:36:D0:36:B1:A5:B5:BD:8B:AB:3F:EC:CB:1B
            X509v3 Authority Key Identifier: 
                keyid:A1:21:61:FE:00:0C:7D:FD:88:EC:4D:62:35:1D:2C:0A:05:F8:5A:4F

            Authority Information Access: 
                CA Issuers - URI:http://url-for-aia/Root.cer

            X509v3 CRL Distribution Points: 

                Full Name:
                  URI:http://url-for-crl/Root.crl

            X509v3 Key Usage: critical
                Certificate Sign, CRL Sign
            X509v3 Basic Constraints: critical
                CA:TRUE
    Signature Algorithm: sha256WithRSAEncryption
         bc:5b:90:b2:4b:fe:df:d9:0e:5a:ba:c2:2b:26:ba:f7:ec:a1:
         ac:4b:37:a5:cf:66:cc:e2:e8:48:46:ad:36:d4:05:4f:d0:d1:
         a3:15:4f:72:2c:f1:18:d6:82:de:e4:39:50:3c:0f:91:bf:24:
         4c:21:30:8d:56:7b:13:de:bd:99:8c:02:a3:eb:26:90:f1:9e:
         7a:e5:00:b5:6a:33:ca:2e:68:98:df:bf:1c:01:e1:34:42:d5:
         dd:f6:25:78:74:fa:26:09:4a:21:c5:02:39:6a:31:9f:6d:71:
         68:2b:fc:5c:8a:4e:5b:f2:0d:c9:b5:d6:5e:85:ab:39:1d:67:
         a6:ef:82:ec:2e:e0:bf:ac:12:20:62:fc:3b:05:a6:25:f7:36:
         51:83:59:27:99:39:f8:5f:3c:4a:0d:e1:c1:fd:f8:b0:d2:2d:
         6b:34:9f:43:32:53:62:61:d1:67:ac:de:f4:05:7e:20:86:ad:
         b9:c9:91:29:d2:ab:84:fd:b9:5c:94:43:b9:81:55:c9:b1:b4:
         6d:ae:44:c7:a2:72:c1:ec:53:17:c5:46:36:b2:31:58:60:85:
         fc:95:45:d9:a6:75:45:3d:54:b7:fc:da:31:20:a0:33:09:0c:
         bd:75:ca:c1:f3:99:0c:c9:5e:6b:2b:3a:f6:26:f6:1b:bb:85:
         18:a8:9c:03
-----BEGIN CERTIFICATE-----
MIIDbTCCAlWgAwIBAgIBAjANBgkqhkiG9w0BAQsFADAPMQ0wCwYDVQQDDARSb290
MB4XDTE1MDEwMTEyMDAwMFoXDTE2MDEwMTEyMDAwMFowFzEVMBMGA1UEAwwMSW50
ZXJtZWRpYXRlMIIBIjANBgkqhkiG9w0BAQEFAAOCAQ8AMIIBCgKCAQEAnd+ADVPX
SaZERzQMyupVmuDeOWHfGrWXTjdbEXhRc/Mtmorps9dE+Sc26RvWep3HfRF+y22S
KnNzuXZ7MrO5oqWu6m5f+qq0VYthac4fo4fu8fvQGArKNCpXmhiSdSFSIe4j5FpB
kDRPCC4rGzUliKFMSy5rIfVr9mNjo3rTmD1v0LuY0IzL1f3POx2dmdFGL0M6hhu6
J+PYhdIDVn+Ep9I6VSyEArhtdfkWny98kxZIFrZl38UPbNzYfiT58ok3kPPaM0i+
CNFN9/P+Ttz9eKHc1UUvv6J401uRkD7YcdSXJFFEXyi77LrHcK/6vfrPh8qkhxWQ
Zm95wpw8y9V0rQIDAQABo4HLMIHIMB0GA1UdDgQWBBTtYG6Dp1LDNtA2saW1vYur
P+zLGzAfBgNVHSMEGDAWgBShIWH+AAx9/YjsTWI1HSwKBfhaTzA3BggrBgEFBQcB
AQQrMCkwJwYIKwYBBQUHMAKGG2h0dHA6Ly91cmwtZm9yLWFpYS9Sb290LmNlcjAs
BgNVHR8EJTAjMCGgH6AdhhtodHRwOi8vdXJsLWZvci1jcmwvUm9vdC5jcmwwDgYD
VR0PAQH/BAQDAgEGMA8GA1UdEwEB/wQFMAMBAf8wDQYJKoZIhvcNAQELBQADggEB
ALxbkLJL/t/ZDlq6wismuvfsoaxLN6XPZszi6EhGrTbUBU/Q0aMVT3Is8RjWgt7k
OVA8D5G/JEwhMI1WexPevZmMAqPrJpDxnnrlALVqM8ouaJjfvxwB4TRC1d32JXh0
+iYJSiHFAjlqMZ9tcWgr/FyKTlvyDcm11l6FqzkdZ6bvguwu4L+sEiBi/DsFpiX3
NlGDWSeZOfhfPEoN4cH9+LDSLWs0n0MyU2Jh0Wes3vQFfiCGrbnJkSnSq4T9uVyU
Q7mBVcmxtG2uRMeicsHsUxfFRjayMVhghfyVRdmmdUU9VLf82jEgoDMJDL11ysHz
mQzJXmsrOvYm9hu7hRionAM=
-----END CERTIFICATE-----

Certificate:
    Data:
        Version: 3 (0x2)
        Serial Number: 1 (0x1)
    Signature Algorithm: sha256WithRSAEncryption
        Issuer: CN=Root
        Validity
            Not Before: Jan  1 12:00:00 2015 GMT
            Not After : Mar  1 12:00:00 2015 GMT
        Subject: CN=Root
        Subject Public Key Info:
            Public Key Algorithm: rsaEncryption
                Public-Key: (2048 bit)
                Modulus:
                    00:df:26:c9:a6:b0:71:99:f9:d6:a0:38:5c:35:52:
                    50:89:0a:36:ac:e3:f6:8e:0a:1c:00:a4:25:5d:f5:
                    25:e9:26:36:a4:8b:ae:ac:a5:9d:db:95:23:9b:b2:
                    b6:2d:ae:70:66:7f:74:5d:31:17:f2:2d:3c:ac:b2:
                    15:69:70:d7:53:7a:5e:2a:91:b2:77:03:6d:28:26:
                    a3:d3:41:c6:9f:2c:21:02:88:e3:68:03:b4:27:ae:
                    16:eb:14:59:2c:0d:8f:44:83:22:d9:d5:f6:e3:80:
                    62:0b:2f:3b:ab:f4:d3:76:55:2e:39:d8:4a:62:1e:
                    fa:b1:6f:6b:6f:3b:19:5b:fe:2c:04:d2:5e:64:7d:
                    38:67:5d:e5:71:4f:9f:94:f9:23:c5:72:b1:c7:0d:
                    fc:5f:b5:5e:8e:97:7f:00:94:c2:28:c7:4e:1f:15:
                    62:ba:e0:fb:b7:86:59:22:7e:f8:72:83:ed:1b:59:
                    32:4c:44:eb:54:78:85:5c:6d:87:0a:4a:b9:b2:9f:
                    60:6a:50:9d:ce:6e:4c:8f:64:44:de:ab:f5:db:c4:
                    49:c7:72:30:8c:bc:9f:cd:32:8e:a6:9c:d3:13:e9:
                    20:34:d9:3c:71:9f:64:ed:f0:47:29:20:53:f0:d1:
                    45:bd:b0:a7:87:12:74:b6:ce:8c:c5:3f:76:92:17:
                    73:ad
                Exponent: 65537 (0x10001)
        X509v3 extensions:
            X509v3 Subject Key Identifier: 
                A1:21:61:FE:00:0C:7D:FD:88:EC:4D:62:35:1D:2C:0A:05:F8:5A:4F
            X509v3 Authority Key Identifier: 
                keyid:A1:21:61:FE:00:0C:7D:FD:88:EC:4D:62:35:1D:2C:0A:05:F8:5A:4F

            Authority Information Access: 
                CA Issuers - URI:http://url-for-aia/Root.cer

            X509v3 CRL Distribution Points: 

                Full Name:
                  URI:http://url-for-crl/Root.crl

            X509v3 Key Usage: critical
                Certificate Sign, CRL Sign
            X509v3 Basic Constraints: critical
                CA:TRUE
    Signature Algorithm: sha256WithRSAEncryption
         97:67:0c:df:fc:10:7e:ef:ec:3d:93:14:55:26:8e:55:1b:76:
         c2:b2:6a:9b:00:64:75:30:e1:13:81:11:7f:98:02:f4:bd:41:
         6a:90:d3:ac:cc:c1:4c:93:d8:4f:5e:3b:e0:70:7f:7c:fd:53:
         64:29:3d:bc:8a:a5:41:64:65:36:5f:77:c9:05:2f:2b:b2:97:
         bd:80:0b:30:94:40:3c:20:51:dc:2e:8e:0d:e5:89:68:76:36:
         c5:c7:80:31:7e:e4:76:e0:2d:87:86:c3:eb:6b:9f:82:a1:d6:
         66:ce:4d:e0:d7:fa:27:e3:b6:9e:8d:5b:19:66:03:b7:27:71:
         90:b9:a7:9a:00:89:67:a5:fe:31:e2:0f:92:66:47:c0:ba:96:
         87:21:c1:63:f1:37:a3:d4:39:f6:25:47:40:52:71:9c:7e:f2:
         64:57:be:13:ec:a7:7d:d3:ac:72:cc:2e:4b:af:b1:59:05:bb:
         f9:d0:bd:e1:68:1e:21:a6:f2:5b:8d:23:ec:2a:3f:5a:bd:96:
         3e:c9:35:72:e3:10:4a:1a:66:b0:a6:44:13:54:cc:85:10:d5:
         0f:f0:90:3f:e8:7a:14:2b:c3:da:a6:af:6a:9f:d6:95:c5:5a:
         5a:30:29:9d:66:c7:6f:13:da:b9:1f:74:6b:d8:0b:07:57:5e:
         ac:e1:85:3b
-----BEGIN TRUST_ANCHOR_CONSTRAINED-----
MIIDZTCCAk2gAwIBAgIBATANBgkqhkiG9w0BAQsFADAPMQ0wCwYDVQQDDARSb290
MB4XDTE1MDEwMTEyMDAwMFoXDTE1MDMwMTEyMDAwMFowDzENMAsGA1UEAwwEUm9v
dDCCASIwDQYJKoZIhvcNAQEBBQADggEPADCCAQoCggEBAN8myaawcZn51qA4XDVS
UIkKNqzj9o4KHACkJV31JekmNqSLrqylnduVI5uyti2ucGZ/dF0xF/ItPKyyFWlw
11N6XiqRsncDbSgmo9NBxp8sIQKI42gDtCeuFusUWSwNj0SDItnV9uOAYgsvO6v0
03ZVLjnYSmIe+rFva287GVv+LATSXmR9OGdd5XFPn5T5I8VysccN/F+1Xo6XfwCU
wijHTh8VYrrg+7eGWSJ++HKD7RtZMkxE61R4hVxthwpKubKfYGpQnc5uTI9kRN6r
9dvEScdyMIy8n80yjqac0xPpIDTZPHGfZO3wRykgU/DRRb2wp4cSdLbOjMU/dpIX
c60CAwEAAaOByzCByDAdBgNVHQ4EFgQUoSFh/gAMff2I7E1iNR0sCgX4Wk8wHwYD
VR0jBBgwFoAUoSFh/gAMff2I7E1iNR0sCgX4Wk8wNwYIKwYBBQUHAQEEKzApMCcG
CCsGAQUFBzAChhtodHRwOi8vdXJsLWZvci1haWEvUm9vdC5jZXIwLAYDVR0fBCUw
IzAhoB+gHYYbaHR0cDovL3VybC1mb3ItY3JsL1Jvb3QuY3JsMA4GA1UdDwEB/wQE
AwIBBjAPBgNVHRMBAf8EBTADAQH/MA0GCSqGSIb3DQEBCwUAA4IBAQCXZwzf/BB+
7+w9kxRVJo5VG3bCsmqbAGR1MOETgRF/mAL0vUFqkNOszMFMk9hPXjvgcH98/VNk
KT28iqVBZGU2X3fJBS8rspe9gAswlEA8IFHcLo4N5YlodjbFx4AxfuR24C2HhsPr
a5+CodZmzk3g1/on47aejVsZZgO3J3GQuaeaAIlnpf4x4g+SZkfAupaHIcFj8Tej
1Dn2JUdAUnGcfvJkV74T7Kd906xyzC5Lr7FZBbv50L3haB4hpvJbjSPsKj9avZY+
yTVy4xBKGmawpkQTVMyFENUP8JA/6HoUK8Papq9qn9aVxVpaMCmdZsdvE9q5H3Rr
2AsHV16s4YU7
-----END TRUST_ANCHOR_CONSTRAINED-----

150302120000Z
-----BEGIN TIME-----
MTUwMzAyMTIwMDAwWg==
-----END TIME-----

SUCCESS
-----BEGIN VERIFY_RESULT-----
U1VDQ0VTUw==
-----END VERIFY_RESULT-----

serverAuth
-----BEGIN KEY_PURPOSE-----
c2VydmVyQXV0aA==
-----END KEY_PURPOSE-----
