[Created by: generate-expired-constrained-root.py]

Certificate chain with 1 intermediate, where the root certificate is expired
(violates validity.notAfter). Verification is expected to succeed even though
the trust anchor is initialized with anchor constraints, since validity is
not enforced.

Certificate:
    Data:
        Version: 3 (0x2)
        Serial Number: 1 (0x1)
    Signature Algorithm: sha256WithRSAEncryption
        Issuer: CN=Intermediate
        Validity
            Not Before: Jan  1 12:00:00 2015 GMT
            Not After : Jan  1 12:00:00 2016 GMT
        Subject: CN=Target
        Subject Public Key Info:
            Public Key Algorithm: rsaEncryption
                Public-Key: (2048 bit)
                Modulus:
                    00:de:6f:00:3c:55:a6:0d:08:55:ef:d0:a4:d8:57:
                    41:19:b0:78:3a:c4:48:f7:b0:4e:11:46:b1:5f:16:
                    6a:33:5d:ae:d7:d3:80:78:2e:4e:63:9f:0b:ac:47:
                    72:5b:c1:a8:b2:1c:99:2e:de:f9:f2:6e:10:73:64:
                    f7:94:95:be:e7:46:37:fd:4b:d4:95:54:bb:dd:ba:
                    99:9b:83:89:38:6e:43:22:6b:97:8b:4f:34:28:94:
                    5e:0e:31:6b:0f:70:06:6e:80:aa:1d:a3:48:c0:ed:
                    f8:6b:11:94:87:17:22:10:2e:fd:24:8c:b0:2d:34:
                    d2:1d:32:8b:66:d7:65:34:10:e1:2a:39:70:7e:55:
                    b0:ba:0c:13:a1:0c:56:2d:35:bf:67:69:4f:19:b6:
                    0d:b1:a4:71:f5:74:22:d6:87:17:09:cc:be:8a:23:
                    55:45:c8:d9:b6:1c:d9:f1:a4:51:7a:be:0d:a9:f6:
                    f6:cc:43:85:a0:eb:8d:0d:68:12:f2:77:8c:96:31:
                    12:c4:dd:68:0d:14:6a:80:ad:83:92:08:77:29:f9:
                    1f:2f:37:84:2b:75:d9:c6:80:c6:ca:ba:61:f1:40:
                    d0:d6:2c:3b:69:f2:94:1f:33:17:57:27:bb:fd:ac:
                    f1:db:22:7e:da:18:ca:4a:13:54:3d:7c:a1:0b:a0:
                    0a:a9
                Exponent: 65537 (0x10001)
        X509v3 extensions:
            X509v3 Subject Key Identifier: 
                36:B3:FD:9C:3B:AB:7A:63:A3:05:4E:3C:FB:71:11:21:D3:1D:45:AC
            X509v3 Authority Key Identifier: 
                keyid:67:DA:2F:45:54:93:91:B7:44:F5:7F:18:C4:4A:9D:AA:5D:A4:5A:56

            Authority Information Access: 
                CA Issuers - URI:http://url-for-aia/Intermediate.cer

            X509v3 CRL Distribution Points: 

                Full Name:
                  URI:http://url-for-crl/Intermediate.crl

            X509v3 Key Usage: critical
                Digital Signature, Key Encipherment
            X509v3 Extended Key Usage: 
                TLS Web Server Authentication, TLS Web Client Authentication
    Signature Algorithm: sha256WithRSAEncryption
         2c:c8:92:ca:af:b3:42:dd:4e:13:a4:71:2b:60:4c:61:a3:5d:
         67:62:bf:4f:fe:ad:07:17:44:37:80:d7:f0:4f:be:ed:26:1c:
         e2:30:53:cb:f1:d5:7c:63:3c:a5:f4:56:71:17:c4:8e:8c:52:
         e1:27:76:e3:55:54:e5:40:50:16:78:8a:70:db:19:4d:ff:b5:
         12:45:8c:9a:4f:15:3f:a8:3a:61:c5:d8:b1:f0:ca:ed:82:b2:
         44:ce:a1:58:d3:87:b6:c0:0f:69:a8:3f:f1:f1:c5:ba:46:37:
         fe:84:da:c3:b2:6e:1c:19:fb:b8:91:d2:c7:1f:54:b5:c8:a7:
         1c:ad:44:18:67:6d:18:eb:41:22:be:40:4f:a9:13:37:c5:28:
         80:dc:a0:43:cc:08:4b:e1:57:b4:b9:0b:f6:9f:97:62:55:d1:
         24:ee:d3:22:00:11:65:46:0d:78:8e:8f:68:b7:8e:e5:74:12:
         4b:e8:08:36:08:bc:5b:ec:4b:2b:72:d0:0f:2a:56:c5:b2:db:
         1a:27:6e:0c:f3:4f:e7:36:72:47:b0:d9:f7:df:48:1a:1c:2c:
         ae:3c:63:e6:c3:44:6c:5a:2e:24:11:72:9a:31:89:05:7d:f7:
         a2:ab:f3:9e:f0:24:43:3c:ea:45:b1:2f:01:be:da:a5:7c:21:
         35:9b:da:03
-----BEGIN CERTIFICATE-----
MIIDjTCCAnWgAwIBAgIBATANBgkqhkiG9w0BAQsFADAXMRUwEwYDVQQDDAxJbnRl
cm1lZGlhdGUwHhcNMTUwMTAxMTIwMDAwWhcNMTYwMTAxMTIwMDAwWjARMQ8wDQYD
VQQDDAZUYXJnZXQwggEiMA0GCSqGSIb3DQEBAQUAA4IBDwAwggEKAoIBAQDebwA8
VaYNCFXv0KTYV0EZsHg6xEj3sE4RRrFfFmozXa7X04B4Lk5jnwusR3JbwaiyHJku
3vnybhBzZPeUlb7nRjf9S9SVVLvdupmbg4k4bkMia5eLTzQolF4OMWsPcAZugKod
o0jA7fhrEZSHFyIQLv0kjLAtNNIdMotm12U0EOEqOXB+VbC6DBOhDFYtNb9naU8Z
tg2xpHH1dCLWhxcJzL6KI1VFyNm2HNnxpFF6vg2p9vbMQ4Wg640NaBLyd4yWMRLE
3WgNFGqArYOSCHcp+R8vN4QrddnGgMbKumHxQNDWLDtp8pQfMxdXJ7v9rPHbIn7a
GMpKE1Q9fKELoAqpAgMBAAGjgekwgeYwHQYDVR0OBBYEFDaz/Zw7q3pjowVOPPtx
ESHTHUWsMB8GA1UdIwQYMBaAFGfaL0VUk5G3RPV/GMRKnapdpFpWMD8GCCsGAQUF
BwEBBDMwMTAvBggrBgEFBQcwAoYjaHR0cDovL3VybC1mb3ItYWlhL0ludGVybWVk
aWF0ZS5jZXIwNAYDVR0fBC0wKzApoCegJYYjaHR0cDovL3VybC1mb3ItY3JsL0lu
dGVybWVkaWF0ZS5jcmwwDgYDVR0PAQH/BAQDAgWgMB0GA1UdJQQWMBQGCCsGAQUF
BwMBBggrBgEFBQcDAjANBgkqhkiG9w0BAQsFAAOCAQEALMiSyq+zQt1OE6RxK2BM
YaNdZ2K/T/6tBxdEN4DX8E++7SYc4jBTy/HVfGM8pfRWcRfEjoxS4Sd241VU5UBQ
FniKcNsZTf+1EkWMmk8VP6g6YcXYsfDK7YKyRM6hWNOHtsAPaag/8fHFukY3/oTa
w7JuHBn7uJHSxx9UtcinHK1EGGdtGOtBIr5AT6kTN8UogNygQ8wIS+FXtLkL9p+X
YlXRJO7TIgARZUYNeI6PaLeO5XQSS+gINgi8W+xLK3LQDypWxbLbGiduDPNP5zZy
R7DZ999IGhwsrjxj5sNEbFouJBFymjGJBX33oqvznvAkQzzqRbEvAb7apXwhNZva
Aw==
-----END CERTIFICATE-----

Certificate:
    Data:
        Version: 3 (0x2)
        Serial Number: 2 (0x2)
    Signature Algorithm: sha256WithRSAEncryption
        Issuer: CN=Root
        Validity
            Not Before: Jan  1 12:00:00 2015 GMT
            Not After : Jan  1 12:00:00 2016 GMT
        Subject: CN=Intermediate
        Subject Public Key Info:
            Public Key Algorithm: rsaEncryption
                Public-Key: (2048 bit)
                Modulus:
                    00:e7:37:c2:8d:0b:b4:b3:09:f1:4f:f2:1f:46:46:
                    6e:41:af:62:51:c9:22:5f:a8:96:e0:13:66:83:17:
                    a3:ec:f0:5a:48:91:66:78:6f:c5:cd:42:d2:c7:ca:
                    35:df:41:ec:d4:1b:4a:1a:94:d8:c8:e2:e6:8f:c8:
                    09:9f:92:67:40:c2:93:b3:dd:85:b2:83:c6:0f:07:
                    ef:54:09:f1:fc:16:a7:7a:1a:dc:57:f5:4f:bb:78:
                    bd:e8:fc:cb:9c:ae:aa:d2:f0:e2:93:52:72:c6:f4:
                    3a:1b:b6:21:21:da:0f:8e:39:47:03:34:4b:b1:ee:
                    0c:bf:f0:22:b6:b1:07:c6:f3:7e:e8:27:57:3f:e5:
                    a5:fb:f8:62:6f:d4:42:ba:15:94:6c:df:5a:cc:fb:
                    9f:6b:3c:df:de:7d:dc:44:41:94:71:b4:43:ad:85:
                    5a:3e:a6:8f:0a:d8:c4:8d:a3:5b:20:99:fc:f6:e4:
                    10:0f:52:8a:22:82:0f:62:a8:2c:33:ce:1f:50:34:
                    5b:f1:97:00:9d:33:a3:85:f7:b0:50:aa:1d:f0:d2:
                    b4:c6:6b:10:1d:5e:be:9b:cc:65:bc:ad:46:88:ba:
                    49:65:a2:62:21:53:39:22:76:bd:af:e6:18:f3:9a:
                    56:14:ff:27:a9:7e:21:5e:a2:a2:21:9b:2e:e2:8c:
                    e1:cb
                Exponent: 65537 (0x10001)
        X509v3 extensions:
            X509v3 Subject Key Identifier: 
                67:DA:2F:45:54:93:91:B7:44:F5:7F:18:C4:4A:9D:AA:5D:A4:5A:56
            X509v3 Authority Key Identifier: 
                keyid:56:E7:E2:76:12:26:8B:A6:6F:7A:E9:E2:33:F9:CE:9B:56:73:F2:F2

            Authority Information Access: 
                CA Issuers - URI:http://url-for-aia/Root.cer

            X509v3 CRL Distribution Points: 

                Full Name:
                  URI:http://url-for-crl/Root.crl

            X509v3 Key Usage: critical
                Certificate Sign, CRL Sign
            X509v3 Basic Constraints: critical
                CA:TRUE
    Signature Algorithm: sha256WithRSAEncryption
         06:d9:0a:6c:b9:69:0b:d0:77:a3:ce:81:38:fd:46:0a:fd:4c:
         0d:ca:a5:85:13:2c:e2:c4:97:90:3d:7a:57:61:cf:bb:f2:f3:
         ca:d9:a9:ba:c7:dd:b7:0b:89:a9:c5:8b:59:3a:a6:33:e6:de:
         90:53:6b:80:a9:a7:4a:99:1f:37:d2:55:40:40:1b:15:0a:f4:
         7a:24:14:6c:8e:20:5f:b5:f5:eb:7b:a4:4c:c9:71:8f:53:e2:
         9c:52:da:35:91:0d:6f:f4:a1:54:45:3a:34:a8:cc:a2:e0:a0:
         45:59:ed:d8:ae:4b:8a:73:4f:1a:6a:17:2f:3b:70:0b:1e:86:
         91:46:f7:80:e6:d2:4b:94:9c:f2:b1:62:dd:ad:ac:11:1b:60:
         b4:4e:d3:ff:9a:c0:73:88:27:ee:7b:68:ab:37:c2:8a:af:71:
         89:82:32:c1:ec:82:15:e3:d3:28:1a:41:66:c7:74:aa:ac:41:
         22:34:2c:eb:5c:8e:82:38:b3:19:30:a3:1c:9e:4a:32:14:1b:
         f3:08:c9:e0:7b:6f:12:49:42:87:53:50:aa:5e:4d:72:68:4c:
         c9:96:b0:0b:d8:88:a0:ac:28:a4:0d:b7:25:93:b0:b8:fa:96:
         b6:af:bb:76:3c:0a:6b:a4:b5:05:d9:2b:8e:94:a1:61:9f:be:
         d9:56:dd:88
-----BEGIN CERTIFICATE-----
MIIDbTCCAlWgAwIBAgIBAjANBgkqhkiG9w0BAQsFADAPMQ0wCwYDVQQDDARSb290
MB4XDTE1MDEwMTEyMDAwMFoXDTE2MDEwMTEyMDAwMFowFzEVMBMGA1UEAwwMSW50
ZXJtZWRpYXRlMIIBIjANBgkqhkiG9w0BAQEFAAOCAQ8AMIIBCgKCAQEA5zfCjQu0
swnxT/IfRkZuQa9iUckiX6iW4BNmgxej7PBaSJFmeG/FzULSx8o130Hs1BtKGpTY
yOLmj8gJn5JnQMKTs92FsoPGDwfvVAnx/BanehrcV/VPu3i96PzLnK6q0vDik1Jy
xvQ6G7YhIdoPjjlHAzRLse4Mv/AitrEHxvN+6CdXP+Wl+/hib9RCuhWUbN9azPuf
azzf3n3cREGUcbRDrYVaPqaPCtjEjaNbIJn89uQQD1KKIoIPYqgsM84fUDRb8ZcA
nTOjhfewUKod8NK0xmsQHV6+m8xlvK1GiLpJZaJiIVM5Ina9r+YY85pWFP8nqX4h
XqKiIZsu4ozhywIDAQABo4HLMIHIMB0GA1UdDgQWBBRn2i9FVJORt0T1fxjESp2q
XaRaVjAfBgNVHSMEGDAWgBRW5+J2EiaLpm966eIz+c6bVnPy8jA3BggrBgEFBQcB
AQQrMCkwJwYIKwYBBQUHMAKGG2h0dHA6Ly91cmwtZm9yLWFpYS9Sb290LmNlcjAs
BgNVHR8EJTAjMCGgH6AdhhtodHRwOi8vdXJsLWZvci1jcmwvUm9vdC5jcmwwDgYD
VR0PAQH/BAQDAgEGMA8GA1UdEwEB/wQFMAMBAf8wDQYJKoZIhvcNAQELBQADggEB
AAbZCmy5aQvQd6POgTj9Rgr9TA3KpYUTLOLEl5A9eldhz7vy88rZqbrH3bcLianF
i1k6pjPm3pBTa4Cpp0qZHzfSVUBAGxUK9HokFGyOIF+19et7pEzJcY9T4pxS2jWR
DW/0oVRFOjSozKLgoEVZ7diuS4pzTxpqFy87cAsehpFG94Dm0kuUnPKxYt2trBEb
YLRO0/+awHOIJ+57aKs3woqvcYmCMsHsghXj0ygaQWbHdKqsQSI0LOtcjoI4sxkw
oxyeSjIUG/MIyeB7bxJJQodTUKpeTXJoTMmWsAvYiKCsKKQNtyWTsLj6lravu3Y8
CmuktQXZK46UoWGfvtlW3Yg=
-----END CERTIFICATE-----

Certificate:
    Data:
        Version: 3 (0x2)
        Serial Number: 1 (0x1)
    Signature Algorithm: sha256WithRSAEncryption
        Issuer: CN=Root
        Validity
            Not Before: Jan  1 12:00:00 2015 GMT
            Not After : Mar  1 12:00:00 2015 GMT
        Subject: CN=Root
        Subject Public Key Info:
            Public Key Algorithm: rsaEncryption
                Public-Key: (2048 bit)
                Modulus:
                    00:ba:98:6c:5a:c8:0e:52:5f:2e:60:52:d5:05:66:
                    4f:2a:a2:52:b1:28:96:8e:08:35:90:28:7a:11:33:
                    ec:2b:93:81:d6:93:ec:18:d4:35:17:8e:8c:e6:74:
                    1c:fb:92:53:f4:cb:03:cf:1f:eb:3d:c7:2e:8c:26:
                    30:63:57:7a:f6:a6:34:60:35:72:4f:6c:0f:bd:9f:
                    bd:23:7b:a1:ed:ac:01:52:c2:27:46:29:3c:e9:9c:
                    33:96:1d:71:77:43:22:cc:0d:05:cc:1c:c3:04:b4:
                    5b:a1:dc:e4:b0:b1:88:18:35:17:19:a6:bc:6f:b5:
                    3b:93:34:f6:de:c0:b9:ef:f3:cd:45:11:48:de:31:
                    6e:e1:c4:d3:8a:3e:65:cf:78:af:83:ed:70:4b:bd:
                    bb:1d:3a:d9:99:38:55:81:8f:01:0c:d3:d4:a8:3b:
                    e7:c9:1e:64:a9:a1:13:a0:6f:19:6e:69:54:25:2c:
                    25:bd:6e:97:a1:21:34:d9:ec:33:b5:89:84:35:25:
                    5b:ed:08:b9:47:f6:ec:a2:1c:8e:37:5f:1d:d4:31:
                    9e:93:94:db:f8:57:f2:40:2c:45:46:2c:c9:7b:2c:
                    28:b5:79:a7:62:00:68:2a:50:50:15:69:65:07:53:
                    b5:ba:cb:43:8d:2a:09:33:fb:8f:4a:93:9f:cd:a6:
                    ee:a3
                Exponent: 65537 (0x10001)
        X509v3 extensions:
            X509v3 Subject Key Identifier: 
                56:E7:E2:76:12:26:8B:A6:6F:7A:E9:E2:33:F9:CE:9B:56:73:F2:F2
            X509v3 Authority Key Identifier: 
                keyid:56:E7:E2:76:12:26:8B:A6:6F:7A:E9:E2:33:F9:CE:9B:56:73:F2:F2

            Authority Information Access: 
                CA Issuers - URI:http://url-for-aia/Root.cer

            X509v3 CRL Distribution Points: 

                Full Name:
                  URI:http://url-for-crl/Root.crl

            X509v3 Key Usage: critical
                Certificate Sign, CRL Sign
            X509v3 Basic Constraints: critical
                CA:TRUE
    Signature Algorithm: sha256WithRSAEncryption
         4d:c4:c6:47:69:78:06:88:e5:5e:ae:c6:bc:b1:f5:7f:49:ac:
         e6:51:bc:dc:dd:7b:28:fc:ee:b1:ca:6d:bd:ad:fb:e8:76:53:
         5a:7a:2d:4c:76:b5:89:4b:69:cc:f6:2d:1b:45:f5:f8:04:cd:
         e8:34:8b:f3:3b:cb:8b:04:9e:a7:8f:e2:85:6d:20:3c:0a:8e:
         d9:d1:45:84:a7:06:f6:e9:0e:e0:fa:5d:28:89:84:6a:b2:1b:
         08:55:5f:6c:0d:d8:47:9a:cb:cc:fa:e9:b7:fe:15:fa:6c:ae:
         ab:7b:4a:c6:b2:fc:f3:96:ac:36:6c:e9:4a:ef:ad:27:75:9a:
         b9:67:7c:cd:d5:83:f3:ab:2d:4d:66:2d:c5:5e:a1:01:42:2f:
         a2:ff:5b:2f:0e:ec:e5:74:cb:15:0d:c4:e4:15:65:31:41:a3:
         f1:11:a1:18:2b:af:1e:d4:09:66:f3:d7:f6:fc:a7:6b:cc:8f:
         f7:d7:f7:7f:5e:19:50:32:d7:f9:0d:69:60:bd:b9:f0:9b:ed:
         f9:b8:81:1d:70:44:0a:49:87:b8:c2:93:46:4f:13:c1:e8:a7:
         50:f9:dc:f3:39:4f:cb:4a:85:92:ca:9b:2e:e1:b7:4c:ed:18:
         9a:9a:cd:51:12:47:dd:b9:ba:f1:36:7e:b5:34:1e:c7:4e:36:
         45:e2:ca:99
-----BEGIN TRUST_ANCHOR_CONSTRAINED-----
MIIDZTCCAk2gAwIBAgIBATANBgkqhkiG9w0BAQsFADAPMQ0wCwYDVQQDDARSb290
MB4XDTE1MDEwMTEyMDAwMFoXDTE1MDMwMTEyMDAwMFowDzENMAsGA1UEAwwEUm9v
dDCCASIwDQYJKoZIhvcNAQEBBQADggEPADCCAQoCggEBALqYbFrIDlJfLmBS1QVm
TyqiUrEolo4INZAoehEz7CuTgdaT7BjUNReOjOZ0HPuSU/TLA88f6z3HLowmMGNX
evamNGA1ck9sD72fvSN7oe2sAVLCJ0YpPOmcM5YdcXdDIswNBcwcwwS0W6Hc5LCx
iBg1FxmmvG+1O5M09t7Aue/zzUURSN4xbuHE04o+Zc94r4PtcEu9ux062Zk4VYGP
AQzT1Kg758keZKmhE6BvGW5pVCUsJb1ul6EhNNnsM7WJhDUlW+0IuUf27KIcjjdf
HdQxnpOU2/hX8kAsRUYsyXssKLV5p2IAaCpQUBVpZQdTtbrLQ40qCTP7j0qTn82m
7qMCAwEAAaOByzCByDAdBgNVHQ4EFgQUVufidhImi6ZveuniM/nOm1Zz8vIwHwYD
VR0jBBgwFoAUVufidhImi6ZveuniM/nOm1Zz8vIwNwYIKwYBBQUHAQEEKzApMCcG
CCsGAQUFBzAChhtodHRwOi8vdXJsLWZvci1haWEvUm9vdC5jZXIwLAYDVR0fBCUw
IzAhoB+gHYYbaHR0cDovL3VybC1mb3ItY3JsL1Jvb3QuY3JsMA4GA1UdDwEB/wQE
AwIBBjAPBgNVHRMBAf8EBTADAQH/MA0GCSqGSIb3DQEBCwUAA4IBAQBNxMZHaXgG
iOVersa8sfV/SazmUbzc3Xso/O6xym29rfvodlNaei1MdrWJS2nM9i0bRfX4BM3o
NIvzO8uLBJ6nj+KFbSA8Co7Z0UWEpwb26Q7g+l0oiYRqshsIVV9sDdhHmsvM+um3
/hX6bK6re0rGsvzzlqw2bOlK760ndZq5Z3zN1YPzqy1NZi3FXqEBQi+i/1svDuzl
dMsVDcTkFWUxQaPxEaEYK68e1Alm89f2/KdrzI/31/d/XhlQMtf5DWlgvbnwm+35
uIEdcEQKSYe4wpNGTxPB6KdQ+dzzOU/LSoWSypsu4bdM7Riams1REkfdubrxNn61
NB7HTjZF4sqZ
-----END TRUST_ANCHOR_CONSTRAINED-----

150302120000Z
-----BEGIN TIME-----
MTUwMzAyMTIwMDAwWg==
-----END TIME-----

SUCCESS
-----BEGIN VERIFY_RESULT-----
U1VDQ0VTUw==
-----END VERIFY_RESULT-----

serverAuth
-----BEGIN KEY_PURPOSE-----
c2VydmVyQXV0aA==
-----END KEY_PURPOSE-----
