[Created by: generate-expired-target.py]

Certificate chain with 1 intermediate, where the target is expired (violates
validity.notAfter). Verification is expected to fail.

Certificate:
    Data:
        Version: 3 (0x2)
        Serial Number: 1 (0x1)
    Signature Algorithm: sha256WithRSAEncryption
        Issuer: CN=Intermediate
        Validity
            Not Before: Jan  1 12:00:00 2015 GMT
            Not After : Mar  1 12:00:00 2015 GMT
        Subject: CN=Target
        Subject Public Key Info:
            Public Key Algorithm: rsaEncryption
                Public-Key: (2048 bit)
                Modulus:
                    00:df:82:6a:2a:fe:30:47:00:84:06:de:48:a1:fc:
                    a5:d9:2c:d5:7d:e2:71:eb:ff:b5:7b:da:8c:c7:fc:
                    38:8a:a3:64:5a:f8:01:70:e0:c0:26:d4:70:2c:08:
                    da:6b:5c:b4:40:41:aa:9e:b4:1d:05:9b:54:7c:54:
                    a4:b8:07:03:b0:69:95:98:c5:e6:7a:7f:71:6f:07:
                    dd:a5:21:59:79:7c:58:7c:00:0d:9d:18:6b:c0:3d:
                    2d:fe:c6:63:58:c6:5f:29:47:01:b6:a2:dd:bb:f4:
                    8a:8b:d0:15:3e:0b:01:18:34:0a:d4:a1:d3:e9:7a:
                    c3:5d:97:2b:c7:53:ff:49:81:34:fc:16:b4:02:f8:
                    7c:55:6e:fa:9b:4f:cd:31:1a:f5:d2:5c:8f:92:d7:
                    bd:48:50:a9:b1:c4:89:cd:6d:c8:1d:99:77:34:d1:
                    d3:61:8f:b9:f8:3b:3e:c6:b3:2e:5f:3c:d0:f7:04:
                    34:51:9f:83:4e:7b:1d:c9:59:53:81:6e:d9:f7:4b:
                    36:dc:80:9e:b4:a4:cb:5d:18:1d:d3:52:3e:d8:b3:
                    4e:28:c5:ba:2c:bd:dc:d1:e2:4a:21:e5:2a:ed:6f:
                    97:84:a9:01:89:eb:2e:21:9e:b9:4a:6a:9b:c5:fe:
                    b0:5a:34:cf:25:0f:55:53:41:be:94:b9:8d:81:44:
                    fa:b5
                Exponent: 65537 (0x10001)
        X509v3 extensions:
            X509v3 Subject Key Identifier: 
                A1:54:DE:B4:8A:C7:C9:C4:33:C6:9B:40:BF:3D:6E:CF:DB:47:EC:8C
            X509v3 Authority Key Identifier: 
                keyid:13:F7:B3:D5:1C:C9:63:BD:3A:24:01:43:AE:4A:26:96:46:55:F5:F0

            Authority Information Access: 
                CA Issuers - URI:http://url-for-aia/Intermediate.cer

            X509v3 CRL Distribution Points: 

                Full Name:
                  URI:http://url-for-crl/Intermediate.crl

            X509v3 Key Usage: critical
                Digital Signature, Key Encipherment
            X509v3 Extended Key Usage: 
                TLS Web Server Authentication, TLS Web Client Authentication
    Signature Algorithm: sha256WithRSAEncryption
         aa:f9:d5:79:52:fa:99:3e:d8:cd:ab:c3:e4:05:a9:85:c5:bf:
         78:3b:d6:14:0b:06:f4:62:77:8e:70:40:a5:b9:b4:46:52:5d:
         86:ad:52:52:f7:c3:1f:e9:e8:8a:e2:5b:23:63:bf:e8:5c:d8:
         a6:11:ad:02:94:09:04:3b:67:cb:62:a3:09:67:eb:b3:68:0f:
         81:6d:0f:d6:4e:6c:d8:a3:e5:85:8f:8f:7e:65:a4:c7:d9:ba:
         a8:05:22:2c:94:9d:8f:e4:d1:a5:5c:7e:c0:0f:39:3e:d7:b4:
         2c:df:d7:c1:ab:9e:5d:8d:28:51:d5:fa:2f:c6:fa:85:17:d4:
         05:d5:4d:d8:ee:6a:14:23:da:a0:cc:43:7b:65:54:71:e1:e1:
         79:b0:62:0a:a3:70:56:9b:53:5d:70:b7:78:6f:fd:ba:13:a7:
         99:0a:0a:b3:46:2a:7b:48:26:31:b2:50:aa:5e:29:d9:1b:55:
         1f:cb:de:2a:17:4d:ee:0d:67:2b:4e:dd:f6:54:d0:72:ec:e3:
         53:4e:24:26:a6:1e:17:e8:94:ca:a8:4a:3a:af:b8:48:51:1a:
         76:38:bd:bf:cb:c5:56:e4:a8:e4:f8:cb:cb:e9:97:ed:4e:b9:
         af:fb:e7:92:d3:b7:ba:81:a0:13:e8:09:31:f3:45:91:2a:5c:
         93:12:a9:99
-----BEGIN CERTIFICATE-----
MIIDjTCCAnWgAwIBAgIBATANBgkqhkiG9w0BAQsFADAXMRUwEwYDVQQDDAxJbnRl
cm1lZGlhdGUwHhcNMTUwMTAxMTIwMDAwWhcNMTUwMzAxMTIwMDAwWjARMQ8wDQYD
VQQDDAZUYXJnZXQwggEiMA0GCSqGSIb3DQEBAQUAA4IBDwAwggEKAoIBAQDfgmoq
/jBHAIQG3kih/KXZLNV94nHr/7V72ozH/DiKo2Ra+AFw4MAm1HAsCNprXLRAQaqe
tB0Fm1R8VKS4BwOwaZWYxeZ6f3FvB92lIVl5fFh8AA2dGGvAPS3+xmNYxl8pRwG2
ot279IqL0BU+CwEYNArUodPpesNdlyvHU/9JgTT8FrQC+HxVbvqbT80xGvXSXI+S
171IUKmxxInNbcgdmXc00dNhj7n4Oz7Gsy5fPND3BDRRn4NOex3JWVOBbtn3Szbc
gJ60pMtdGB3TUj7Ys04oxbosvdzR4koh5Srtb5eEqQGJ6y4hnrlKapvF/rBaNM8l
D1VTQb6UuY2BRPq1AgMBAAGjgekwgeYwHQYDVR0OBBYEFKFU3rSKx8nEM8abQL89
bs/bR+yMMB8GA1UdIwQYMBaAFBP3s9UcyWO9OiQBQ65KJpZGVfXwMD8GCCsGAQUF
BwEBBDMwMTAvBggrBgEFBQcwAoYjaHR0cDovL3VybC1mb3ItYWlhL0ludGVybWVk
aWF0ZS5jZXIwNAYDVR0fBC0wKzApoCegJYYjaHR0cDovL3VybC1mb3ItY3JsL0lu
dGVybWVkaWF0ZS5jcmwwDgYDVR0PAQH/BAQDAgWgMB0GA1UdJQQWMBQGCCsGAQUF
BwMBBggrBgEFBQcDAjANBgkqhkiG9w0BAQsFAAOCAQEAqvnVeVL6mT7YzavD5AWp
hcW/eDvWFAsG9GJ3jnBApbm0RlJdhq1SUvfDH+noiuJbI2O/6FzYphGtApQJBDtn
y2KjCWfrs2gPgW0P1k5s2KPlhY+PfmWkx9m6qAUiLJSdj+TRpVx+wA85Pte0LN/X
waueXY0oUdX6L8b6hRfUBdVN2O5qFCPaoMxDe2VUceHhebBiCqNwVptTXXC3eG/9
uhOnmQoKs0Yqe0gmMbJQql4p2RtVH8veKhdN7g1nK07d9lTQcuzjU04kJqYeF+iU
yqhKOq+4SFEadji9v8vFVuSo5PjLy+mX7U65r/vnktO3uoGgE+gJMfNFkSpckxKp
mQ==
-----END CERTIFICATE-----

Certificate:
    Data:
        Version: 3 (0x2)
        Serial Number: 2 (0x2)
    Signature Algorithm: sha256WithRSAEncryption
        Issuer: CN=Root
        Validity
            Not Before: Jan  1 12:00:00 2015 GMT
            Not After : Jan  1 12:00:00 2016 GMT
        Subject: CN=Intermediate
        Subject Public Key Info:
            Public Key Algorithm: rsaEncryption
                Public-Key: (2048 bit)
                Modulus:
                    00:ba:33:55:c9:1e:c0:91:17:3a:eb:30:8c:ed:23:
                    cc:1d:6d:1e:e7:6e:4e:ac:23:63:23:ae:48:87:13:
                    61:0f:0c:0b:ee:72:f7:c2:7b:95:2e:7b:25:34:08:
                    b6:e1:f5:ae:50:bf:8f:cf:81:6e:e6:26:9f:92:61:
                    c4:fb:44:9e:23:09:df:13:80:bc:38:5b:db:08:6c:
                    68:60:46:d4:e3:e0:41:91:c4:42:d5:d9:75:d2:c4:
                    df:29:b8:04:bb:96:dc:9d:e4:0b:f7:de:ab:cf:90:
                    ad:22:c8:ab:56:65:84:00:3b:b9:e6:29:b5:e2:96:
                    88:bd:95:e5:10:6d:57:ab:be:d1:f4:61:bb:1d:b4:
                    7f:f9:02:db:48:d3:21:9d:f1:03:77:bf:f9:ca:f3:
                    4e:2d:44:1c:28:1d:c5:4f:30:1b:0a:8b:71:0e:5f:
                    86:0a:3f:97:7f:47:a6:a2:3c:60:02:c6:e8:bd:e9:
                    52:b1:0b:cb:53:d4:09:f4:b6:20:23:b4:89:09:ff:
                    1a:61:e8:dd:ac:19:4d:be:94:1e:60:24:d4:6c:89:
                    03:3a:c4:44:5b:dd:7c:59:37:b7:0c:83:40:24:0e:
                    ed:ab:02:cf:cd:93:d2:3d:5d:e0:c6:c4:c5:1d:1a:
                    01:d1:e1:77:58:62:90:e1:83:af:d2:ee:31:f3:29:
                    0c:1f
                Exponent: 65537 (0x10001)
        X509v3 extensions:
            X509v3 Subject Key Identifier: 
                13:F7:B3:D5:1C:C9:63:BD:3A:24:01:43:AE:4A:26:96:46:55:F5:F0
            X509v3 Authority Key Identifier: 
                keyid:5F:B1:E2:C5:58:EB:EF:73:DC:15:A3:0F:8E:24:0C:6C:67:65:00:04

            Authority Information Access: 
                CA Issuers - URI:http://url-for-aia/Root.cer

            X509v3 CRL Distribution Points: 

                Full Name:
                  URI:http://url-for-crl/Root.crl

            X509v3 Key Usage: critical
                Certificate Sign, CRL Sign
            X509v3 Basic Constraints: critical
                CA:TRUE
    Signature Algorithm: sha256WithRSAEncryption
         a5:43:87:2e:d0:2c:51:df:a7:aa:48:b4:38:fc:1d:6f:c9:db:
         23:32:75:f2:d1:52:45:ea:4a:89:1f:e9:10:0c:22:0d:70:3e:
         f0:c1:cf:b7:a8:cd:af:d4:33:99:14:6e:62:b9:a8:0f:a6:2c:
         75:dd:d8:79:88:fc:cb:c4:7e:64:b1:2f:7a:0b:b2:a4:6c:82:
         29:7d:23:32:d3:de:a8:90:a8:77:f8:33:13:e9:3e:42:0b:32:
         e8:50:e0:af:31:2f:b9:e5:be:b7:c7:16:ca:a7:96:9e:95:24:
         d2:c1:b3:df:70:5f:7b:8a:33:6b:55:76:e8:18:32:66:0e:9a:
         60:cf:dc:30:1e:38:15:05:6e:cc:4a:1e:e7:2e:e0:5a:de:ea:
         84:a1:ce:04:fd:db:74:d6:fe:b6:4d:6b:86:38:22:78:f1:3e:
         ba:dc:8b:85:a6:2f:56:10:1f:7d:b8:96:00:4c:d6:a3:fa:93:
         fd:1b:29:64:40:7c:f8:65:3f:73:8a:7e:3e:72:c7:ce:19:74:
         51:21:26:5d:2d:41:a0:95:c9:8f:70:fd:2a:60:7a:b0:fc:e5:
         14:65:9a:3e:68:2c:4a:47:1b:5a:97:8a:31:a9:1a:1a:c9:fc:
         e3:be:c9:dd:65:0f:33:2b:f9:d9:68:5b:54:22:c4:dc:a6:21:
         42:6c:ec:64
-----BEGIN CERTIFICATE-----
MIIDbTCCAlWgAwIBAgIBAjANBgkqhkiG9w0BAQsFADAPMQ0wCwYDVQQDDARSb290
MB4XDTE1MDEwMTEyMDAwMFoXDTE2MDEwMTEyMDAwMFowFzEVMBMGA1UEAwwMSW50
ZXJtZWRpYXRlMIIBIjANBgkqhkiG9w0BAQEFAAOCAQ8AMIIBCgKCAQEAujNVyR7A
kRc66zCM7SPMHW0e525OrCNjI65IhxNhDwwL7nL3wnuVLnslNAi24fWuUL+Pz4Fu
5iafkmHE+0SeIwnfE4C8OFvbCGxoYEbU4+BBkcRC1dl10sTfKbgEu5bcneQL996r
z5CtIsirVmWEADu55im14paIvZXlEG1Xq77R9GG7HbR/+QLbSNMhnfEDd7/5yvNO
LUQcKB3FTzAbCotxDl+GCj+Xf0emojxgAsbovelSsQvLU9QJ9LYgI7SJCf8aYejd
rBlNvpQeYCTUbIkDOsREW918WTe3DINAJA7tqwLPzZPSPV3gxsTFHRoB0eF3WGKQ
4YOv0u4x8ykMHwIDAQABo4HLMIHIMB0GA1UdDgQWBBQT97PVHMljvTokAUOuSiaW
RlX18DAfBgNVHSMEGDAWgBRfseLFWOvvc9wVow+OJAxsZ2UABDA3BggrBgEFBQcB
AQQrMCkwJwYIKwYBBQUHMAKGG2h0dHA6Ly91cmwtZm9yLWFpYS9Sb290LmNlcjAs
BgNVHR8EJTAjMCGgH6AdhhtodHRwOi8vdXJsLWZvci1jcmwvUm9vdC5jcmwwDgYD
VR0PAQH/BAQDAgEGMA8GA1UdEwEB/wQFMAMBAf8wDQYJKoZIhvcNAQELBQADggEB
AKVDhy7QLFHfp6pItDj8HW/J2yMydfLRUkXqSokf6RAMIg1wPvDBz7eoza/UM5kU
bmK5qA+mLHXd2HmI/MvEfmSxL3oLsqRsgil9IzLT3qiQqHf4MxPpPkILMuhQ4K8x
L7nlvrfHFsqnlp6VJNLBs99wX3uKM2tVdugYMmYOmmDP3DAeOBUFbsxKHucu4Fre
6oShzgT923TW/rZNa4Y4InjxPrrci4WmL1YQH324lgBM1qP6k/0bKWRAfPhlP3OK
fj5yx84ZdFEhJl0tQaCVyY9w/SpgerD85RRlmj5oLEpHG1qXijGpGhrJ/OO+yd1l
DzMr+dloW1QixNymIUJs7GQ=
-----END CERTIFICATE-----

Certificate:
    Data:
        Version: 3 (0x2)
        Serial Number: 1 (0x1)
    Signature Algorithm: sha256WithRSAEncryption
        Issuer: CN=Root
        Validity
            Not Before: Jan  1 12:00:00 2015 GMT
            Not After : Jan  1 12:00:00 2016 GMT
        Subject: CN=Root
        Subject Public Key Info:
            Public Key Algorithm: rsaEncryption
                Public-Key: (2048 bit)
                Modulus:
                    00:df:9c:45:02:46:38:eb:d4:64:cd:8e:95:65:63:
                    d5:e6:71:8b:67:13:d8:bc:6d:64:73:d7:40:17:79:
                    80:a4:8d:8e:5f:bf:5e:48:b0:2f:bc:49:08:71:b4:
                    80:38:00:cd:e9:ee:2e:6e:73:8a:77:56:b4:b3:d0:
                    e3:0c:40:c9:ca:1f:9b:a0:89:68:07:34:cd:f4:f4:
                    b9:a2:c1:ca:42:0e:da:90:cf:95:89:3a:3c:de:ad:
                    a6:ff:49:6c:e2:5e:f5:0b:ff:be:06:ee:ab:e1:81:
                    e9:da:a3:b8:d5:63:af:5e:10:63:49:23:0a:1d:ca:
                    3e:bc:96:6e:82:5c:4f:ce:56:a7:8f:53:34:65:cb:
                    47:88:3e:38:4d:71:b6:8a:06:e4:ed:4f:d2:df:59:
                    3e:a7:03:a7:be:c2:14:a6:cf:9e:4b:c8:a3:25:21:
                    b2:3e:f8:cd:65:de:fc:0e:52:fd:fa:cf:d3:07:af:
                    79:53:11:bf:e6:77:ce:d8:1a:4b:4f:cb:d2:35:28:
                    f8:5a:4b:05:a2:dd:88:e1:54:ac:1a:15:8d:54:a2:
                    b7:ac:66:7a:f8:4a:2a:75:94:15:b3:44:c2:05:ff:
                    e3:a0:34:40:84:00:39:6d:6d:e1:8e:16:f3:d3:60:
                    2b:95:2f:fc:74:6e:b1:83:b7:0b:9d:9e:d8:34:45:
                    21:f7
                Exponent: 65537 (0x10001)
        X509v3 extensions:
            X509v3 Subject Key Identifier: 
                5F:B1:E2:C5:58:EB:EF:73:DC:15:A3:0F:8E:24:0C:6C:67:65:00:04
            X509v3 Authority Key Identifier: 
                keyid:5F:B1:E2:C5:58:EB:EF:73:DC:15:A3:0F:8E:24:0C:6C:67:65:00:04

            Authority Information Access: 
                CA Issuers - URI:http://url-for-aia/Root.cer

            X509v3 CRL Distribution Points: 

                Full Name:
                  URI:http://url-for-crl/Root.crl

            X509v3 Key Usage: critical
                Certificate Sign, CRL Sign
            X509v3 Basic Constraints: critical
                CA:TRUE
    Signature Algorithm: sha256WithRSAEncryption
         98:24:67:cd:0c:c3:0f:c5:09:c1:b3:b2:c3:eb:90:d5:1b:7e:
         ce:45:7e:e8:f9:ae:bd:54:46:58:4e:0f:b3:65:30:45:98:3e:
         02:bf:a0:a9:e6:9c:69:f7:94:c8:bc:3d:33:ed:ac:52:5e:65:
         58:f1:ef:4d:bd:bf:39:65:62:e1:75:35:b2:27:92:fa:9b:3d:
         92:ed:51:f3:73:9a:73:2f:2f:61:2a:1d:34:e0:a1:fa:fc:b3:
         dc:24:40:af:14:fd:d5:26:d0:5e:cb:fd:05:8b:88:f5:5c:0f:
         6f:75:68:c5:32:f1:1d:cd:a2:be:b2:66:0c:1a:4c:d6:df:1b:
         e4:09:b9:bf:32:41:59:ca:bc:48:33:b1:ec:6a:fa:4d:dc:72:
         ae:96:15:29:35:78:85:96:f9:64:05:75:50:b3:3e:b0:f8:15:
         7c:06:54:ff:36:98:2a:6d:4f:33:b0:78:1c:d3:be:12:2d:5b:
         b4:37:2b:04:1b:d8:ce:28:db:9c:6d:49:e8:6f:f6:45:75:0a:
         fb:69:dc:71:63:cd:c6:17:84:4b:8a:14:a0:ef:42:6a:6f:f2:
         a8:76:e9:c6:4b:94:d2:24:f5:aa:80:d2:b6:81:17:c6:7d:7d:
         88:36:fe:26:44:cf:36:5a:5e:de:c4:34:da:54:1e:89:1f:d6:
         98:9e:3c:f7
-----BEGIN TRUST_ANCHOR_UNCONSTRAINED-----
MIIDZTCCAk2gAwIBAgIBATANBgkqhkiG9w0BAQsFADAPMQ0wCwYDVQQDDARSb290
MB4XDTE1MDEwMTEyMDAwMFoXDTE2MDEwMTEyMDAwMFowDzENMAsGA1UEAwwEUm9v
dDCCASIwDQYJKoZIhvcNAQEBBQADggEPADCCAQoCggEBAN+cRQJGOOvUZM2OlWVj
1eZxi2cT2LxtZHPXQBd5gKSNjl+/XkiwL7xJCHG0gDgAzenuLm5zindWtLPQ4wxA
ycofm6CJaAc0zfT0uaLBykIO2pDPlYk6PN6tpv9JbOJe9Qv/vgbuq+GB6dqjuNVj
r14QY0kjCh3KPryWboJcT85Wp49TNGXLR4g+OE1xtooG5O1P0t9ZPqcDp77CFKbP
nkvIoyUhsj74zWXe/A5S/frP0weveVMRv+Z3ztgaS0/L0jUo+FpLBaLdiOFUrBoV
jVSit6xmevhKKnWUFbNEwgX/46A0QIQAOW1t4Y4W89NgK5Uv/HRusYO3C52e2DRF
IfcCAwEAAaOByzCByDAdBgNVHQ4EFgQUX7HixVjr73PcFaMPjiQMbGdlAAQwHwYD
VR0jBBgwFoAUX7HixVjr73PcFaMPjiQMbGdlAAQwNwYIKwYBBQUHAQEEKzApMCcG
CCsGAQUFBzAChhtodHRwOi8vdXJsLWZvci1haWEvUm9vdC5jZXIwLAYDVR0fBCUw
IzAhoB+gHYYbaHR0cDovL3VybC1mb3ItY3JsL1Jvb3QuY3JsMA4GA1UdDwEB/wQE
AwIBBjAPBgNVHRMBAf8EBTADAQH/MA0GCSqGSIb3DQEBCwUAA4IBAQCYJGfNDMMP
xQnBs7LD65DVG37ORX7o+a69VEZYTg+zZTBFmD4Cv6Cp5pxp95TIvD0z7axSXmVY
8e9Nvb85ZWLhdTWyJ5L6mz2S7VHzc5pzLy9hKh004KH6/LPcJECvFP3VJtBey/0F
i4j1XA9vdWjFMvEdzaK+smYMGkzW3xvkCbm/MkFZyrxIM7HsavpN3HKulhUpNXiF
lvlkBXVQsz6w+BV8BlT/NpgqbU8zsHgc074SLVu0NysEG9jOKNucbUnob/ZFdQr7
adxxY83GF4RLihSg70Jqb/KodunGS5TSJPWqgNK2gRfGfX2INv4mRM82Wl7exDTa
VB6JH9aYnjz3
-----END TRUST_ANCHOR_UNCONSTRAINED-----

150302120000Z
-----BEGIN TIME-----
MTUwMzAyMTIwMDAwWg==
-----END TIME-----

FAIL
-----BEGIN VERIFY_RESULT-----
RkFJTA==
-----END VERIFY_RESULT-----

[Context] Processing Certificate
  index: 1
      [Error] Time is after notAfter

-----BEGIN ERRORS-----
W0NvbnRleHRdIFByb2Nlc3NpbmcgQ2VydGlmaWNhdGUKICBpbmRleDogMQogICAgICBbRXJyb3JdIFRpbWUgaXMgYWZ0ZXIgbm90QWZ0ZXIK
-----END ERRORS-----
