[Created by: generate-incorrect-trust-anchor.py]

Certificate chain with 1 intermediate, but the trust anchor used is
incorrect (neither subject nor signature matches). Verification is expected to
fail.

Certificate:
    Data:
        Version: 3 (0x2)
        Serial Number: 1 (0x1)
    Signature Algorithm: sha256WithRSAEncryption
        Issuer: CN=Intermediate
        Validity
            Not Before: Jan  1 12:00:00 2015 GMT
            Not After : Jan  1 12:00:00 2016 GMT
        Subject: CN=Target
        Subject Public Key Info:
            Public Key Algorithm: rsaEncryption
                Public-Key: (2048 bit)
                Modulus:
                    00:d2:d5:0d:d0:0f:c6:e6:ff:bf:3b:49:ff:d5:9c:
                    b4:03:9b:40:b3:ed:50:78:f8:80:91:06:18:d1:6a:
                    fa:ed:0c:e4:57:24:75:fa:79:3c:30:b6:53:2b:61:
                    bc:9a:46:37:01:94:c0:9c:aa:35:16:90:5a:22:25:
                    6d:31:56:69:aa:7e:13:0c:5c:75:d0:21:31:49:02:
                    8c:17:8f:e8:a6:15:86:3f:48:c7:a2:0a:7b:2f:bb:
                    18:0f:d6:c7:21:68:66:ff:9d:d1:59:f4:0d:0a:67:
                    e9:e0:18:9b:ec:1d:00:b2:83:25:54:94:dc:0c:09:
                    e0:b6:2d:70:3e:7d:8c:87:5d:fd:cd:ba:d1:d2:0f:
                    ac:22:43:d3:00:71:b4:99:eb:83:d4:6b:8a:b5:54:
                    db:9b:02:96:99:2e:59:32:01:98:7f:15:c2:e7:ee:
                    12:61:21:ed:28:15:78:98:45:93:89:29:ee:d0:c3:
                    5b:9b:51:f3:52:01:d4:24:2d:94:cf:71:bf:1d:f4:
                    8f:a0:2d:15:b2:8c:f7:ed:fa:5b:db:23:6e:ec:0a:
                    a3:a5:41:64:55:32:f6:14:3e:cb:17:c7:29:81:65:
                    2b:51:70:0e:b3:c4:d9:8c:1d:31:ee:34:02:89:7d:
                    53:c3:69:b7:9e:ec:1f:d4:0c:92:f2:ed:d5:0e:bd:
                    aa:eb
                Exponent: 65537 (0x10001)
        X509v3 extensions:
            X509v3 Subject Key Identifier: 
                73:6C:8B:E4:86:B3:59:CE:20:E0:D2:76:8A:07:C4:B7:32:3C:51:4D
            X509v3 Authority Key Identifier: 
                keyid:28:02:89:88:59:90:49:58:6C:2B:C7:05:2C:41:3B:6C:5E:45:82:5E

            Authority Information Access: 
                CA Issuers - URI:http://url-for-aia/Intermediate.cer

            X509v3 CRL Distribution Points: 

                Full Name:
                  URI:http://url-for-crl/Intermediate.crl

            X509v3 Key Usage: critical
                Digital Signature, Key Encipherment
            X509v3 Extended Key Usage: 
                TLS Web Server Authentication, TLS Web Client Authentication
    Signature Algorithm: sha256WithRSAEncryption
         7d:c1:e7:bd:46:4a:d1:29:fc:94:59:4b:bc:9c:ec:5b:c8:f1:
         a4:de:a6:47:d3:32:3c:7d:a3:8c:73:3f:a1:9d:c6:0b:80:a6:
         18:60:c6:f5:86:92:e5:d0:c0:df:32:f2:cb:11:93:c1:9e:2c:
         25:80:3c:ca:89:ff:53:ab:f6:dd:84:d0:15:9e:24:96:59:59:
         66:16:87:47:2a:38:86:46:08:03:d2:8c:c1:b7:6c:b0:68:d0:
         23:e9:b6:85:b3:68:fe:87:2a:4c:bd:92:b7:9e:c9:65:e7:1d:
         8b:b1:39:a0:82:7a:38:e1:a1:06:54:7b:83:b1:6a:86:7a:e5:
         f3:b0:1b:8a:43:48:88:49:e9:37:70:3a:c5:2b:36:da:86:5f:
         c2:f0:89:fe:07:9f:2f:1d:d9:c7:86:29:f2:2a:4d:a4:eb:f4:
         64:60:08:ed:a4:75:90:fe:80:74:a0:7a:7f:e8:9c:76:b2:a2:
         d7:4a:d2:85:5b:95:e3:32:38:7a:c2:4d:d8:4c:3b:df:71:6c:
         d7:eb:cf:95:74:6c:65:9f:84:f1:93:32:93:48:c1:56:98:31:
         c5:92:c7:6a:d2:29:21:25:a9:4f:f3:65:bb:ca:8c:ef:2f:0c:
         21:89:2b:bf:20:09:4d:85:a7:55:ac:6a:45:ae:40:7b:60:1c:
         39:50:b8:e8
-----BEGIN CERTIFICATE-----
MIIDjTCCAnWgAwIBAgIBATANBgkqhkiG9w0BAQsFADAXMRUwEwYDVQQDDAxJbnRl
cm1lZGlhdGUwHhcNMTUwMTAxMTIwMDAwWhcNMTYwMTAxMTIwMDAwWjARMQ8wDQYD
VQQDDAZUYXJnZXQwggEiMA0GCSqGSIb3DQEBAQUAA4IBDwAwggEKAoIBAQDS1Q3Q
D8bm/787Sf/VnLQDm0Cz7VB4+ICRBhjRavrtDORXJHX6eTwwtlMrYbyaRjcBlMCc
qjUWkFoiJW0xVmmqfhMMXHXQITFJAowXj+imFYY/SMeiCnsvuxgP1schaGb/ndFZ
9A0KZ+ngGJvsHQCygyVUlNwMCeC2LXA+fYyHXf3NutHSD6wiQ9MAcbSZ64PUa4q1
VNubApaZLlkyAZh/FcLn7hJhIe0oFXiYRZOJKe7Qw1ubUfNSAdQkLZTPcb8d9I+g
LRWyjPft+lvbI27sCqOlQWRVMvYUPssXxymBZStRcA6zxNmMHTHuNAKJfVPDabee
7B/UDJLy7dUOvarrAgMBAAGjgekwgeYwHQYDVR0OBBYEFHNsi+SGs1nOIODSdooH
xLcyPFFNMB8GA1UdIwQYMBaAFCgCiYhZkElYbCvHBSxBO2xeRYJeMD8GCCsGAQUF
BwEBBDMwMTAvBggrBgEFBQcwAoYjaHR0cDovL3VybC1mb3ItYWlhL0ludGVybWVk
aWF0ZS5jZXIwNAYDVR0fBC0wKzApoCegJYYjaHR0cDovL3VybC1mb3ItY3JsL0lu
dGVybWVkaWF0ZS5jcmwwDgYDVR0PAQH/BAQDAgWgMB0GA1UdJQQWMBQGCCsGAQUF
BwMBBggrBgEFBQcDAjANBgkqhkiG9w0BAQsFAAOCAQEAfcHnvUZK0Sn8lFlLvJzs
W8jxpN6mR9MyPH2jjHM/oZ3GC4CmGGDG9YaS5dDA3zLyyxGTwZ4sJYA8yon/U6v2
3YTQFZ4klllZZhaHRyo4hkYIA9KMwbdssGjQI+m2hbNo/ocqTL2St57JZecdi7E5
oIJ6OOGhBlR7g7Fqhnrl87AbikNIiEnpN3A6xSs22oZfwvCJ/gefLx3Zx4Yp8ipN
pOv0ZGAI7aR1kP6AdKB6f+icdrKi10rShVuV4zI4esJN2Ew733Fs1+vPlXRsZZ+E
8ZMyk0jBVpgxxZLHatIpISWpT/Nlu8qM7y8MIYkrvyAJTYWnVaxqRa5Ae2AcOVC4
6A==
-----END CERTIFICATE-----

Certificate:
    Data:
        Version: 3 (0x2)
        Serial Number: 2 (0x2)
    Signature Algorithm: sha256WithRSAEncryption
        Issuer: CN=Root
        Validity
            Not Before: Jan  1 12:00:00 2015 GMT
            Not After : Jan  1 12:00:00 2016 GMT
        Subject: CN=Intermediate
        Subject Public Key Info:
            Public Key Algorithm: rsaEncryption
                Public-Key: (2048 bit)
                Modulus:
                    00:af:ce:d1:57:74:aa:26:65:67:76:e9:d3:53:12:
                    d5:66:d3:98:c6:84:6f:b5:cc:bd:8e:b5:08:c2:49:
                    06:c7:0c:8d:6e:3c:04:5a:92:8c:cf:b8:3a:25:99:
                    7e:84:aa:60:cf:ff:a1:db:9d:26:3b:60:36:69:de:
                    e9:61:34:cc:c9:4b:86:2f:00:17:0e:e3:30:3d:f3:
                    b5:f1:74:b3:8d:2a:8e:13:fb:16:16:f0:a7:b1:07:
                    0b:cc:c9:3f:f3:ee:2d:5f:3d:60:ee:e6:b1:d8:f7:
                    d6:d6:30:49:44:52:be:41:bd:2c:9d:21:f0:67:6e:
                    ed:4b:3c:b8:c7:d8:7b:8d:94:37:3c:62:e7:2d:30:
                    01:a7:5b:00:05:0b:98:62:1a:79:c0:94:8d:90:74:
                    25:03:58:f6:42:b6:4c:8c:83:dd:f7:a8:a2:96:98:
                    66:ba:52:a2:e5:70:4c:b1:00:4e:cf:24:10:40:2f:
                    5c:ca:3c:80:1f:d4:5c:23:1d:0b:08:34:d7:36:23:
                    e0:50:cf:ea:10:09:49:ff:86:81:56:1f:45:64:a5:
                    51:98:8c:60:73:f6:9b:ac:c5:32:fb:88:c3:dc:46:
                    81:33:2c:23:7e:80:9c:22:f5:f7:8b:e2:ca:d2:1e:
                    a2:c7:da:88:be:ea:1b:cb:05:2c:59:39:48:40:b7:
                    b3:8f
                Exponent: 65537 (0x10001)
        X509v3 extensions:
            X509v3 Subject Key Identifier: 
                28:02:89:88:59:90:49:58:6C:2B:C7:05:2C:41:3B:6C:5E:45:82:5E
            X509v3 Authority Key Identifier: 
                keyid:BB:D1:D5:54:45:52:ED:03:40:FE:CD:9A:4F:66:90:09:28:0E:A6:5F

            Authority Information Access: 
                CA Issuers - URI:http://url-for-aia/Root.cer

            X509v3 CRL Distribution Points: 

                Full Name:
                  URI:http://url-for-crl/Root.crl

            X509v3 Key Usage: critical
                Certificate Sign, CRL Sign
            X509v3 Basic Constraints: critical
                CA:TRUE
    Signature Algorithm: sha256WithRSAEncryption
         41:60:3c:a8:ae:a7:cf:56:c3:bd:40:b1:ce:ea:68:bf:0b:04:
         39:a0:f2:2b:41:f3:30:33:c2:35:4b:bd:84:da:6a:47:72:ef:
         5b:fa:1e:e9:a9:2b:8c:1a:a0:48:21:20:9d:a2:1b:14:48:51:
         86:a0:a8:5f:36:5e:bd:0a:17:f4:a2:49:c7:7e:b7:dc:9c:04:
         0b:c0:92:2b:f6:de:db:21:b6:7a:b2:bc:7c:5d:cb:22:6c:61:
         b0:83:84:d2:86:98:4a:20:7d:f3:cd:48:e3:30:00:70:f9:25:
         ed:15:71:7f:27:8e:cd:4b:f8:34:42:23:90:b0:1e:2a:c7:58:
         c2:74:fc:a8:34:02:04:fa:60:14:b4:68:18:3b:9d:c0:d3:77:
         ec:86:b8:43:ad:37:80:2d:13:b4:d7:a9:ad:26:25:ef:30:2a:
         0c:c4:2b:24:0b:05:f4:3b:77:e6:2f:d7:e2:8b:5d:d2:b2:2a:
         55:bc:c9:e7:68:6c:68:49:9b:1f:6f:d4:02:21:18:ad:c8:d5:
         4a:03:1b:aa:96:f1:8e:46:af:4a:40:24:4e:e7:db:e5:72:e4:
         29:0c:13:85:19:74:ef:a6:68:8c:47:d4:b9:d4:79:6b:62:e0:
         5b:55:68:2a:27:0e:14:1c:43:f7:ce:be:33:e9:a4:73:f3:03:
         49:2b:4f:be
-----BEGIN CERTIFICATE-----
MIIDbTCCAlWgAwIBAgIBAjANBgkqhkiG9w0BAQsFADAPMQ0wCwYDVQQDDARSb290
MB4XDTE1MDEwMTEyMDAwMFoXDTE2MDEwMTEyMDAwMFowFzEVMBMGA1UEAwwMSW50
ZXJtZWRpYXRlMIIBIjANBgkqhkiG9w0BAQEFAAOCAQ8AMIIBCgKCAQEAr87RV3Sq
JmVndunTUxLVZtOYxoRvtcy9jrUIwkkGxwyNbjwEWpKMz7g6JZl+hKpgz/+h250m
O2A2ad7pYTTMyUuGLwAXDuMwPfO18XSzjSqOE/sWFvCnsQcLzMk/8+4tXz1g7uax
2PfW1jBJRFK+Qb0snSHwZ27tSzy4x9h7jZQ3PGLnLTABp1sABQuYYhp5wJSNkHQl
A1j2QrZMjIPd96iilphmulKi5XBMsQBOzyQQQC9cyjyAH9RcIx0LCDTXNiPgUM/q
EAlJ/4aBVh9FZKVRmIxgc/abrMUy+4jD3EaBMywjfoCcIvX3i+LK0h6ix9qIvuob
ywUsWTlIQLezjwIDAQABo4HLMIHIMB0GA1UdDgQWBBQoAomIWZBJWGwrxwUsQTts
XkWCXjAfBgNVHSMEGDAWgBS70dVURVLtA0D+zZpPZpAJKA6mXzA3BggrBgEFBQcB
AQQrMCkwJwYIKwYBBQUHMAKGG2h0dHA6Ly91cmwtZm9yLWFpYS9Sb290LmNlcjAs
BgNVHR8EJTAjMCGgH6AdhhtodHRwOi8vdXJsLWZvci1jcmwvUm9vdC5jcmwwDgYD
VR0PAQH/BAQDAgEGMA8GA1UdEwEB/wQFMAMBAf8wDQYJKoZIhvcNAQELBQADggEB
AEFgPKiup89Ww71Asc7qaL8LBDmg8itB8zAzwjVLvYTaakdy71v6HumpK4waoEgh
IJ2iGxRIUYagqF82Xr0KF/SiScd+t9ycBAvAkiv23tshtnqyvHxdyyJsYbCDhNKG
mEogffPNSOMwAHD5Je0VcX8njs1L+DRCI5CwHirHWMJ0/Kg0AgT6YBS0aBg7ncDT
d+yGuEOtN4AtE7TXqa0mJe8wKgzEKyQLBfQ7d+Yv1+KLXdKyKlW8yedobGhJmx9v
1AIhGK3I1UoDG6qW8Y5Gr0pAJE7n2+Vy5CkME4UZdO+maIxH1LnUeWti4FtVaCon
DhQcQ/fOvjPppHPzA0krT74=
-----END CERTIFICATE-----

Certificate:
    Data:
        Version: 3 (0x2)
        Serial Number: 1 (0x1)
    Signature Algorithm: sha256WithRSAEncryption
        Issuer: CN=BogusRoot
        Validity
            Not Before: Jan  1 12:00:00 2015 GMT
            Not After : Jan  1 12:00:00 2016 GMT
        Subject: CN=BogusRoot
        Subject Public Key Info:
            Public Key Algorithm: rsaEncryption
                Public-Key: (2048 bit)
                Modulus:
                    00:b6:f8:c2:50:35:39:c4:ad:3c:b5:81:77:33:8e:
                    62:aa:ef:55:39:a6:68:1a:00:fb:98:7f:2e:c9:f7:
                    1c:14:8b:57:ae:ea:a3:30:0d:a6:99:fc:a9:a2:f9:
                    ca:11:57:2b:64:da:f1:a7:07:ac:68:17:e3:eb:d1:
                    73:ab:b8:fc:cf:fd:69:02:0f:a0:d0:63:8d:fd:76:
                    5a:a2:8d:82:6d:0c:94:7a:e2:21:79:01:db:fb:07:
                    52:4b:bc:b9:b0:b4:16:90:f1:44:53:4b:64:30:d2:
                    aa:ce:97:ff:2a:cb:d6:46:12:88:28:c5:61:3e:17:
                    4f:44:9f:a1:a3:ca:51:74:8a:37:e6:4f:a5:58:46:
                    ff:42:c5:00:20:2a:14:3d:fd:1e:88:c9:5d:9c:a1:
                    c0:66:5f:53:e4:7f:87:97:e3:45:fb:30:d5:08:67:
                    fe:7a:c3:1b:ed:0b:c0:d9:31:77:18:9f:98:58:09:
                    1b:5e:88:08:ce:c0:ba:92:bd:ca:7f:ce:3d:68:cc:
                    7c:14:4b:08:ba:d0:89:c1:8d:78:d5:55:bd:1f:af:
                    0d:70:4e:24:7f:c8:3a:e6:57:86:57:a7:8a:5c:c4:
                    b1:b2:5e:5f:3e:16:b8:5a:bb:d4:20:82:2d:a2:d7:
                    5b:35:05:18:a5:f7:f3:96:8e:ab:22:b4:dd:1a:d7:
                    bd:93
                Exponent: 65537 (0x10001)
        X509v3 extensions:
            X509v3 Subject Key Identifier: 
                6A:92:E0:5C:B1:19:9D:04:CA:11:A8:53:24:59:A3:3F:75:3F:0F:BD
            X509v3 Authority Key Identifier: 
                keyid:6A:92:E0:5C:B1:19:9D:04:CA:11:A8:53:24:59:A3:3F:75:3F:0F:BD

            Authority Information Access: 
                CA Issuers - URI:http://url-for-aia/BogusRoot.cer

            X509v3 CRL Distribution Points: 

                Full Name:
                  URI:http://url-for-crl/BogusRoot.crl

            X509v3 Key Usage: critical
                Certificate Sign, CRL Sign
            X509v3 Basic Constraints: critical
                CA:TRUE
    Signature Algorithm: sha256WithRSAEncryption
         26:e0:77:eb:1a:b0:5b:c6:64:45:f3:b8:e7:93:dc:a5:fd:0a:
         70:b8:3a:de:eb:a3:84:6b:49:1e:34:f0:22:c3:6b:f7:06:eb:
         5b:5d:5d:a5:58:10:4b:b8:20:db:8c:ad:41:6f:30:63:09:b6:
         e9:3a:a3:5e:80:b5:74:42:e0:64:ab:dd:23:16:ff:fa:a8:3f:
         d1:d2:25:cc:88:48:c8:79:8e:01:b4:b0:32:27:74:b9:2c:67:
         28:05:c2:b7:18:e2:52:0d:ff:ed:a1:43:fc:ff:d4:f0:d0:7b:
         14:aa:e6:6f:cf:b4:e4:83:30:97:67:cd:46:6b:15:d2:80:07:
         0a:d5:e7:6f:9e:59:21:07:57:43:c7:f2:bc:2b:d2:e0:31:77:
         46:92:64:39:cc:fe:30:b0:9e:c2:19:31:cd:66:6a:2d:44:35:
         8c:b9:00:b0:6a:85:71:0e:d2:a7:a1:5e:89:70:82:3e:de:f3:
         83:c8:e3:14:4b:c6:21:b9:c6:b7:43:86:37:19:11:28:fc:3b:
         f5:99:e8:5f:46:1b:32:57:68:69:0b:37:30:10:41:91:70:04:
         52:ea:e4:71:70:28:8a:91:69:03:f1:f4:3e:96:31:81:bc:51:
         8a:a6:79:7f:1f:32:99:f5:d5:79:d9:82:5b:88:0a:d4:c9:b7:
         b9:15:9f:e8
-----BEGIN TRUST_ANCHOR_UNCONSTRAINED-----
MIIDeTCCAmGgAwIBAgIBATANBgkqhkiG9w0BAQsFADAUMRIwEAYDVQQDDAlCb2d1
c1Jvb3QwHhcNMTUwMTAxMTIwMDAwWhcNMTYwMTAxMTIwMDAwWjAUMRIwEAYDVQQD
DAlCb2d1c1Jvb3QwggEiMA0GCSqGSIb3DQEBAQUAA4IBDwAwggEKAoIBAQC2+MJQ
NTnErTy1gXczjmKq71U5pmgaAPuYfy7J9xwUi1eu6qMwDaaZ/Kmi+coRVytk2vGn
B6xoF+Pr0XOruPzP/WkCD6DQY439dlqijYJtDJR64iF5Adv7B1JLvLmwtBaQ8URT
S2Qw0qrOl/8qy9ZGEogoxWE+F09En6GjylF0ijfmT6VYRv9CxQAgKhQ9/R6IyV2c
ocBmX1Pkf4eX40X7MNUIZ/56wxvtC8DZMXcYn5hYCRteiAjOwLqSvcp/zj1ozHwU
Swi60InBjXjVVb0frw1wTiR/yDrmV4ZXp4pcxLGyXl8+Frhau9Qggi2i11s1BRil
9/OWjqsitN0a172TAgMBAAGjgdUwgdIwHQYDVR0OBBYEFGqS4FyxGZ0EyhGoUyRZ
oz91Pw+9MB8GA1UdIwQYMBaAFGqS4FyxGZ0EyhGoUyRZoz91Pw+9MDwGCCsGAQUF
BwEBBDAwLjAsBggrBgEFBQcwAoYgaHR0cDovL3VybC1mb3ItYWlhL0JvZ3VzUm9v
dC5jZXIwMQYDVR0fBCowKDAmoCSgIoYgaHR0cDovL3VybC1mb3ItY3JsL0JvZ3Vz
Um9vdC5jcmwwDgYDVR0PAQH/BAQDAgEGMA8GA1UdEwEB/wQFMAMBAf8wDQYJKoZI
hvcNAQELBQADggEBACbgd+sasFvGZEXzuOeT3KX9CnC4Ot7ro4RrSR408CLDa/cG
61tdXaVYEEu4INuMrUFvMGMJtuk6o16AtXRC4GSr3SMW//qoP9HSJcyISMh5jgG0
sDIndLksZygFwrcY4lIN/+2hQ/z/1PDQexSq5m/PtOSDMJdnzUZrFdKABwrV52+e
WSEHV0PH8rwr0uAxd0aSZDnM/jCwnsIZMc1mai1ENYy5ALBqhXEO0qehXolwgj7e
84PI4xRLxiG5xrdDhjcZESj8O/WZ6F9GGzJXaGkLNzAQQZFwBFLq5HFwKIqRaQPx
9D6WMYG8UYqmeX8fMpn11XnZgluICtTJt7kVn+g=
-----END TRUST_ANCHOR_UNCONSTRAINED-----

150302120000Z
-----BEGIN TIME-----
MTUwMzAyMTIwMDAwWg==
-----END TIME-----

FAIL
-----BEGIN VERIFY_RESULT-----
RkFJTA==
-----END VERIFY_RESULT-----

serverAuth
-----BEGIN KEY_PURPOSE-----
c2VydmVyQXV0aA==
-----END KEY_PURPOSE-----

----- Certificate i=1 (CN=Intermediate) -----
ERROR: Signature verification failed
ERROR: VerifySignedData failed
ERROR: subject does not match issuer


-----BEGIN ERRORS-----
LS0tLS0gQ2VydGlmaWNhdGUgaT0xIChDTj1JbnRlcm1lZGlhdGUpIC0tLS0tCkVSUk9SOiBTaWduYXR1cmUgdmVyaWZpY2F0aW9uIGZhaWxlZApFUlJPUjogVmVyaWZ5U2lnbmVkRGF0YSBmYWlsZWQKRVJST1I6IHN1YmplY3QgZG9lcyBub3QgbWF0Y2ggaXNzdWVyCgo=
-----END ERRORS-----
