[Created by: generate-intermediate-unknown-non-critical-extension.py]

Certificate chain with 1 intermediate and a trusted root. The intermediate
has an unknown X.509v3 extension that is marked as non-critical. Verification
is expected to succeed because although unrecognized, the extension is not
critical.

Certificate:
    Data:
        Version: 3 (0x2)
        Serial Number: 1 (0x1)
    Signature Algorithm: sha256WithRSAEncryption
        Issuer: CN=Intermediate
        Validity
            Not Before: Jan  1 12:00:00 2015 GMT
            Not After : Jan  1 12:00:00 2016 GMT
        Subject: CN=Target
        Subject Public Key Info:
            Public Key Algorithm: rsaEncryption
                Public-Key: (2048 bit)
                Modulus:
                    00:bb:61:26:8a:b1:15:f2:75:3f:ed:47:c0:92:9c:
                    f2:65:a2:16:a8:21:d9:bb:40:3a:1c:a0:ce:3b:94:
                    44:6b:c2:5f:4b:f5:ae:84:f6:25:ee:6b:f6:3b:38:
                    e7:0d:f9:e8:3f:d0:48:27:ba:53:31:7d:41:a6:89:
                    36:d4:42:27:44:8f:88:af:5b:67:92:47:1b:d3:b3:
                    a0:16:e5:a9:b4:1c:aa:19:cf:ae:8b:30:e5:e2:05:
                    d2:c6:e4:72:09:f3:da:56:7e:0e:64:17:ba:dc:65:
                    6d:4d:17:ae:35:9e:fa:54:5e:be:a7:09:63:53:3b:
                    ea:71:f9:35:e0:b2:c8:0b:3b:62:e9:1e:b4:6d:2a:
                    fa:9e:5c:7e:9d:f5:cf:1b:96:15:4b:1e:ca:d5:73:
                    82:07:a9:fb:dc:e5:38:79:60:ed:ca:3c:4b:9a:ce:
                    78:78:c8:76:c0:e0:6b:f4:7a:2d:ac:12:12:75:2d:
                    e4:1c:99:01:ae:34:b5:f7:8f:7d:2e:29:fa:b5:dd:
                    79:8f:9e:e4:1d:9f:74:93:0e:94:e8:f1:9e:59:ae:
                    f4:3b:a4:ca:0a:c1:1f:34:03:e5:0d:2b:cc:3e:2c:
                    dd:4c:dc:1d:7b:2d:a6:58:1a:bb:f8:86:23:92:0f:
                    df:b7:b1:78:bb:42:d9:f6:4b:54:86:4d:f6:06:10:
                    1e:1d
                Exponent: 65537 (0x10001)
        X509v3 extensions:
            X509v3 Subject Key Identifier: 
                37:FF:20:10:71:A8:C4:95:89:AA:12:00:64:1D:63:E5:28:DE:C0:2D
            X509v3 Authority Key Identifier: 
                keyid:74:00:B4:D2:D2:F7:13:7B:35:AB:B1:20:0C:CA:4B:4A:9B:D0:32:53

            Authority Information Access: 
                CA Issuers - URI:http://url-for-aia/Intermediate.cer

            X509v3 CRL Distribution Points: 

                Full Name:
                  URI:http://url-for-crl/Intermediate.crl

            X509v3 Key Usage: critical
                Digital Signature, Key Encipherment
            X509v3 Extended Key Usage: 
                TLS Web Server Authentication, TLS Web Client Authentication
    Signature Algorithm: sha256WithRSAEncryption
         2a:2e:53:ae:ee:f2:12:91:7f:38:6b:a2:c2:d7:fb:24:7d:61:
         dc:fb:c2:13:86:4a:db:8f:4d:47:48:6a:e4:a0:f1:1b:3c:a0:
         93:7f:85:c1:96:3f:d2:4f:62:db:90:00:d2:4d:05:0c:45:58:
         96:d4:ef:25:7e:54:c0:33:d9:3d:28:e4:0b:17:98:de:c1:79:
         38:54:a7:4b:6b:e1:7c:1c:05:d6:03:72:67:df:d7:f1:48:a7:
         18:24:2e:86:90:fb:91:db:75:74:4e:f1:77:a9:da:d6:65:a2:
         5b:6d:ba:ef:e4:6c:b3:81:cf:b5:1b:bf:ee:fa:1c:4a:72:be:
         ae:5d:7f:02:84:cd:18:7a:ca:c6:6c:5c:34:af:5e:91:d7:9d:
         f9:39:54:0c:5a:44:82:44:c4:0a:f7:21:3b:21:ba:b2:87:38:
         fa:a9:0f:9c:33:f9:d3:0e:30:cf:a0:2d:4b:77:70:8a:03:4f:
         b4:7e:af:8e:cd:57:fe:5c:56:42:01:ec:39:9f:52:af:6b:be:
         1a:22:1e:70:4b:55:1d:c6:3a:97:ca:ec:66:d4:f7:3b:4f:cd:
         6b:89:71:3d:09:a8:59:86:52:c5:07:9c:ac:8e:de:10:64:5f:
         f0:8b:0a:e9:6f:7c:8a:ff:9f:20:53:5a:a8:af:6c:5c:12:b2:
         96:d2:2a:11
-----BEGIN CERTIFICATE-----
MIIDjTCCAnWgAwIBAgIBATANBgkqhkiG9w0BAQsFADAXMRUwEwYDVQQDDAxJbnRl
cm1lZGlhdGUwHhcNMTUwMTAxMTIwMDAwWhcNMTYwMTAxMTIwMDAwWjARMQ8wDQYD
VQQDDAZUYXJnZXQwggEiMA0GCSqGSIb3DQEBAQUAA4IBDwAwggEKAoIBAQC7YSaK
sRXydT/tR8CSnPJlohaoIdm7QDocoM47lERrwl9L9a6E9iXua/Y7OOcN+eg/0Egn
ulMxfUGmiTbUQidEj4ivW2eSRxvTs6AW5am0HKoZz66LMOXiBdLG5HIJ89pWfg5k
F7rcZW1NF641nvpUXr6nCWNTO+px+TXgssgLO2LpHrRtKvqeXH6d9c8blhVLHsrV
c4IHqfvc5Th5YO3KPEuaznh4yHbA4Gv0ei2sEhJ1LeQcmQGuNLX3j30uKfq13XmP
nuQdn3STDpTo8Z5ZrvQ7pMoKwR80A+UNK8w+LN1M3B17LaZYGrv4hiOSD9+3sXi7
Qtn2S1SGTfYGEB4dAgMBAAGjgekwgeYwHQYDVR0OBBYEFDf/IBBxqMSViaoSAGQd
Y+Uo3sAtMB8GA1UdIwQYMBaAFHQAtNLS9xN7NauxIAzKS0qb0DJTMD8GCCsGAQUF
BwEBBDMwMTAvBggrBgEFBQcwAoYjaHR0cDovL3VybC1mb3ItYWlhL0ludGVybWVk
aWF0ZS5jZXIwNAYDVR0fBC0wKzApoCegJYYjaHR0cDovL3VybC1mb3ItY3JsL0lu
dGVybWVkaWF0ZS5jcmwwDgYDVR0PAQH/BAQDAgWgMB0GA1UdJQQWMBQGCCsGAQUF
BwMBBggrBgEFBQcDAjANBgkqhkiG9w0BAQsFAAOCAQEAKi5Tru7yEpF/OGuiwtf7
JH1h3PvCE4ZK249NR0hq5KDxGzygk3+FwZY/0k9i25AA0k0FDEVYltTvJX5UwDPZ
PSjkCxeY3sF5OFSnS2vhfBwF1gNyZ9/X8UinGCQuhpD7kdt1dE7xd6na1mWiW226
7+Rss4HPtRu/7vocSnK+rl1/AoTNGHrKxmxcNK9ekded+TlUDFpEgkTECvchOyG6
soc4+qkPnDP50w4wz6AtS3dwigNPtH6vjs1X/lxWQgHsOZ9Sr2u+GiIecEtVHcY6
l8rsZtT3O0/Na4lxPQmoWYZSxQecrI7eEGRf8IsK6W98iv+fIFNaqK9sXBKyltIq
EQ==
-----END CERTIFICATE-----

Certificate:
    Data:
        Version: 3 (0x2)
        Serial Number: 2 (0x2)
    Signature Algorithm: sha256WithRSAEncryption
        Issuer: CN=Root
        Validity
            Not Before: Jan  1 12:00:00 2015 GMT
            Not After : Jan  1 12:00:00 2016 GMT
        Subject: CN=Intermediate
        Subject Public Key Info:
            Public Key Algorithm: rsaEncryption
                Public-Key: (2048 bit)
                Modulus:
                    00:cf:54:af:ff:58:f8:e6:17:3d:4d:7b:af:97:15:
                    62:77:a7:e2:8c:91:9f:bf:6e:96:70:51:21:77:42:
                    bc:bc:67:f5:62:4b:98:60:ec:16:14:27:bf:33:87:
                    b5:a7:db:18:ff:99:c4:9d:95:d1:fb:06:31:11:15:
                    2b:da:67:bb:7f:2f:11:92:35:62:8b:bf:dc:86:f2:
                    4c:e5:73:2d:cd:dc:81:61:17:17:af:9e:2c:2c:23:
                    53:09:84:79:4f:55:9c:66:91:e4:e3:aa:23:c8:2e:
                    2f:46:36:ed:6d:53:f5:84:6c:41:ce:b6:62:81:9c:
                    26:8f:4d:c6:29:0c:df:28:e9:f6:6e:a4:17:c7:b4:
                    06:fa:d8:08:da:94:aa:a3:97:38:6b:2d:e7:7f:3f:
                    65:e8:29:ae:2c:5c:6e:aa:70:bc:f2:2e:92:e3:57:
                    6f:b9:43:57:4e:65:bc:61:df:cc:7e:36:a6:27:cb:
                    9e:16:16:39:66:64:90:13:2c:07:3f:98:fe:20:93:
                    2a:71:62:bd:bf:d0:07:c3:a4:4c:6d:2d:70:8f:e7:
                    1b:52:09:b4:f8:eb:e7:be:d0:32:cc:d5:5c:03:35:
                    c7:61:e3:96:e5:1e:1c:82:19:40:20:8a:45:57:73:
                    6b:c6:87:90:ad:86:bd:01:59:b6:53:73:75:f9:55:
                    6f:1b
                Exponent: 65537 (0x10001)
        X509v3 extensions:
            X509v3 Subject Key Identifier: 
                74:00:B4:D2:D2:F7:13:7B:35:AB:B1:20:0C:CA:4B:4A:9B:D0:32:53
            X509v3 Authority Key Identifier: 
                keyid:54:58:C2:3C:EC:BD:73:15:7D:69:67:AC:B5:E0:23:CE:A5:1A:F1:95

            Authority Information Access: 
                CA Issuers - URI:http://url-for-aia/Root.cer

            X509v3 CRL Distribution Points: 

                Full Name:
                  URI:http://url-for-crl/Root.crl

            X509v3 Key Usage: critical
                Certificate Sign, CRL Sign
            X509v3 Basic Constraints: critical
                CA:TRUE
            1.2.3.4: 
                ....
    Signature Algorithm: sha256WithRSAEncryption
         68:eb:42:c8:db:99:8c:4c:b5:c1:23:7b:f6:a4:e9:44:09:30:
         4d:82:fd:38:e7:83:7c:54:ba:98:e6:28:78:ac:7a:75:d1:13:
         fc:ad:35:5d:4e:a9:ad:03:f1:3c:d9:8a:45:6d:a1:5d:7a:79:
         39:1a:e8:5f:61:db:b1:9d:0e:32:13:69:4a:20:d5:86:ed:51:
         12:3c:b1:ec:a8:38:d1:71:72:34:c3:fa:44:7c:ee:a5:43:1b:
         e5:b0:4f:96:20:6b:47:96:70:e8:99:7d:a7:d3:e7:0c:49:23:
         4d:7f:98:15:2f:57:ab:df:7e:d6:e8:2f:1c:b1:75:e7:8e:e9:
         5c:91:d8:54:53:33:1a:a7:69:b2:cc:ef:a2:93:18:92:3a:9b:
         61:85:ea:b1:15:39:c8:df:ef:02:b5:17:85:87:72:26:34:df:
         c6:d8:a3:14:9a:c9:86:49:b7:e7:62:81:74:4e:00:86:9a:c5:
         5e:a9:43:81:0c:fd:64:04:b0:ba:98:53:32:32:50:46:e8:52:
         f0:58:2d:c8:60:ae:6e:59:db:15:59:07:b5:38:85:e3:c6:86:
         d3:69:65:46:84:7f:4f:3e:8f:f8:f4:34:f4:11:d9:2d:6d:5b:
         74:44:c4:8d:f3:af:c1:0a:f8:d2:e4:2b:d4:f6:57:28:43:8e:
         73:cd:b6:4c
-----BEGIN CERTIFICATE-----
MIIDejCCAmKgAwIBAgIBAjANBgkqhkiG9w0BAQsFADAPMQ0wCwYDVQQDDARSb290
MB4XDTE1MDEwMTEyMDAwMFoXDTE2MDEwMTEyMDAwMFowFzEVMBMGA1UEAwwMSW50
ZXJtZWRpYXRlMIIBIjANBgkqhkiG9w0BAQEFAAOCAQ8AMIIBCgKCAQEAz1Sv/1j4
5hc9TXuvlxVid6fijJGfv26WcFEhd0K8vGf1YkuYYOwWFCe/M4e1p9sY/5nEnZXR
+wYxERUr2me7fy8RkjVii7/chvJM5XMtzdyBYRcXr54sLCNTCYR5T1WcZpHk46oj
yC4vRjbtbVP1hGxBzrZigZwmj03GKQzfKOn2bqQXx7QG+tgI2pSqo5c4ay3nfz9l
6CmuLFxuqnC88i6S41dvuUNXTmW8Yd/MfjamJ8ueFhY5ZmSQEywHP5j+IJMqcWK9
v9AHw6RMbS1wj+cbUgm0+OvnvtAyzNVcAzXHYeOW5R4cghlAIIpFV3NrxoeQrYa9
AVm2U3N1+VVvGwIDAQABo4HYMIHVMB0GA1UdDgQWBBR0ALTS0vcTezWrsSAMyktK
m9AyUzAfBgNVHSMEGDAWgBRUWMI87L1zFX1pZ6y14CPOpRrxlTA3BggrBgEFBQcB
AQQrMCkwJwYIKwYBBQUHMAKGG2h0dHA6Ly91cmwtZm9yLWFpYS9Sb290LmNlcjAs
BgNVHR8EJTAjMCGgH6AdhhtodHRwOi8vdXJsLWZvci1jcmwvUm9vdC5jcmwwDgYD
VR0PAQH/BAQDAgEGMA8GA1UdEwEB/wQFMAMBAf8wCwYDKgMEBAQBAgMEMA0GCSqG
SIb3DQEBCwUAA4IBAQBo60LI25mMTLXBI3v2pOlECTBNgv0454N8VLqY5ih4rHp1
0RP8rTVdTqmtA/E82YpFbaFdenk5GuhfYduxnQ4yE2lKINWG7VESPLHsqDjRcXI0
w/pEfO6lQxvlsE+WIGtHlnDomX2n0+cMSSNNf5gVL1er337W6C8csXXnjulckdhU
UzMap2myzO+ikxiSOpthheqxFTnI3+8CtReFh3ImNN/G2KMUmsmGSbfnYoF0TgCG
msVeqUOBDP1kBLC6mFMyMlBG6FLwWC3IYK5uWdsVWQe1OIXjxobTaWVGhH9PPo/4
9DT0EdktbVt0RMSN86/BCvjS5CvU9lcoQ45zzbZM
-----END CERTIFICATE-----

Certificate:
    Data:
        Version: 3 (0x2)
        Serial Number: 1 (0x1)
    Signature Algorithm: sha256WithRSAEncryption
        Issuer: CN=Root
        Validity
            Not Before: Jan  1 12:00:00 2015 GMT
            Not After : Jan  1 12:00:00 2016 GMT
        Subject: CN=Root
        Subject Public Key Info:
            Public Key Algorithm: rsaEncryption
                Public-Key: (2048 bit)
                Modulus:
                    00:e3:8f:54:4c:fa:f9:2a:e4:69:c6:ca:90:31:93:
                    5f:6f:66:05:43:e5:86:4f:dd:78:dd:aa:85:74:58:
                    a5:d1:60:06:32:cc:35:3f:56:6b:fe:a8:82:45:7c:
                    bb:b9:cf:b2:f2:de:a9:61:82:25:49:bd:98:b3:71:
                    8d:35:fa:86:94:15:48:f8:48:bd:02:bd:42:ee:a4:
                    88:e1:f1:cc:25:4a:da:b2:d3:5b:77:d8:09:b6:c0:
                    c9:a1:32:96:6c:55:5e:8a:db:be:52:b2:25:cd:e3:
                    4d:4d:61:6e:3e:43:40:52:9a:37:7f:b0:7b:22:f4:
                    b5:79:7f:13:5b:dc:c3:2e:aa:1b:00:21:80:27:3f:
                    d4:ea:57:2c:46:b5:cd:be:4a:e5:2a:5d:b7:85:10:
                    20:c2:11:81:c4:e7:99:5a:4e:83:53:e6:88:ff:bd:
                    69:32:9e:d6:5c:43:f5:79:52:fc:c9:3f:d3:17:cc:
                    76:bb:42:93:2f:3a:df:21:89:a2:0a:1a:22:f9:d3:
                    01:f7:c4:99:91:07:c3:46:17:03:7a:3c:a8:36:32:
                    05:62:23:66:0d:95:22:87:46:23:a7:bb:21:10:dc:
                    54:bb:29:bb:7a:44:28:8c:fb:38:8f:41:3a:d0:0c:
                    60:fe:26:ae:e0:70:71:32:e7:ac:5b:29:25:0c:a7:
                    83:9b
                Exponent: 65537 (0x10001)
        X509v3 extensions:
            X509v3 Subject Key Identifier: 
                54:58:C2:3C:EC:BD:73:15:7D:69:67:AC:B5:E0:23:CE:A5:1A:F1:95
            X509v3 Authority Key Identifier: 
                keyid:54:58:C2:3C:EC:BD:73:15:7D:69:67:AC:B5:E0:23:CE:A5:1A:F1:95

            Authority Information Access: 
                CA Issuers - URI:http://url-for-aia/Root.cer

            X509v3 CRL Distribution Points: 

                Full Name:
                  URI:http://url-for-crl/Root.crl

            X509v3 Key Usage: critical
                Certificate Sign, CRL Sign
            X509v3 Basic Constraints: critical
                CA:TRUE
    Signature Algorithm: sha256WithRSAEncryption
         d9:5c:a3:8f:f8:a8:3b:83:04:3d:4c:5e:33:16:78:2a:a5:a6:
         c9:b1:9f:3a:ac:cb:36:70:a4:3f:69:7d:2a:91:d0:dd:00:45:
         f4:a3:d0:25:fb:dd:a8:82:98:54:d5:14:2d:c3:62:1d:c6:47:
         ce:d1:c2:5d:1f:b3:07:d5:90:b3:98:e5:5f:32:cf:84:08:e1:
         92:8b:6a:5e:3a:3c:e8:05:8c:c2:11:c7:eb:0a:65:be:16:d0:
         f7:33:a1:5f:0b:ac:ac:cf:f7:cd:dd:07:9c:d3:ec:d7:90:2d:
         94:f6:04:bd:be:9a:13:de:9e:98:d1:d8:7d:6d:13:2d:55:e0:
         a8:00:80:16:df:b1:87:2d:12:32:d1:9f:ac:96:69:4c:9c:ba:
         ec:58:1f:2b:af:fc:50:63:e8:1a:ae:56:ab:cc:a9:8b:03:95:
         1f:38:13:09:4c:4d:d9:4b:22:05:88:fc:6d:ab:e4:eb:bd:ff:
         5f:ed:44:22:ca:ea:d8:aa:a8:e4:1c:78:9f:be:bb:84:05:6e:
         9d:22:3c:25:ab:f8:32:cd:69:93:b9:de:c6:d9:39:0c:0f:9a:
         de:ee:c7:3c:d7:9f:6d:ee:ef:e9:69:4c:1e:de:92:e3:e8:59:
         86:19:00:98:7e:b1:c2:5b:e2:a9:bc:a0:60:82:7d:ca:17:11:
         ac:f3:3b:24
-----BEGIN TRUST_ANCHOR_UNCONSTRAINED-----
MIIDZTCCAk2gAwIBAgIBATANBgkqhkiG9w0BAQsFADAPMQ0wCwYDVQQDDARSb290
MB4XDTE1MDEwMTEyMDAwMFoXDTE2MDEwMTEyMDAwMFowDzENMAsGA1UEAwwEUm9v
dDCCASIwDQYJKoZIhvcNAQEBBQADggEPADCCAQoCggEBAOOPVEz6+SrkacbKkDGT
X29mBUPlhk/deN2qhXRYpdFgBjLMNT9Wa/6ogkV8u7nPsvLeqWGCJUm9mLNxjTX6
hpQVSPhIvQK9Qu6kiOHxzCVK2rLTW3fYCbbAyaEylmxVXorbvlKyJc3jTU1hbj5D
QFKaN3+weyL0tXl/E1vcwy6qGwAhgCc/1OpXLEa1zb5K5Spdt4UQIMIRgcTnmVpO
g1PmiP+9aTKe1lxD9XlS/Mk/0xfMdrtCky863yGJogoaIvnTAffEmZEHw0YXA3o8
qDYyBWIjZg2VIodGI6e7IRDcVLspu3pEKIz7OI9BOtAMYP4mruBwcTLnrFspJQyn
g5sCAwEAAaOByzCByDAdBgNVHQ4EFgQUVFjCPOy9cxV9aWesteAjzqUa8ZUwHwYD
VR0jBBgwFoAUVFjCPOy9cxV9aWesteAjzqUa8ZUwNwYIKwYBBQUHAQEEKzApMCcG
CCsGAQUFBzAChhtodHRwOi8vdXJsLWZvci1haWEvUm9vdC5jZXIwLAYDVR0fBCUw
IzAhoB+gHYYbaHR0cDovL3VybC1mb3ItY3JsL1Jvb3QuY3JsMA4GA1UdDwEB/wQE
AwIBBjAPBgNVHRMBAf8EBTADAQH/MA0GCSqGSIb3DQEBCwUAA4IBAQDZXKOP+Kg7
gwQ9TF4zFngqpabJsZ86rMs2cKQ/aX0qkdDdAEX0o9Al+92ogphU1RQtw2IdxkfO
0cJdH7MH1ZCzmOVfMs+ECOGSi2peOjzoBYzCEcfrCmW+FtD3M6FfC6ysz/fN3Qec
0+zXkC2U9gS9vpoT3p6Y0dh9bRMtVeCoAIAW37GHLRIy0Z+slmlMnLrsWB8rr/xQ
Y+garlarzKmLA5UfOBMJTE3ZSyIFiPxtq+Trvf9f7UQiyurYqqjkHHifvruEBW6d
Ijwlq/gyzWmTud7G2TkMD5re7sc8159t7u/paUwe3pLj6FmGGQCYfrHCW+KpvKBg
gn3KFxGs8zsk
-----END TRUST_ANCHOR_UNCONSTRAINED-----

150302120000Z
-----BEGIN TIME-----
MTUwMzAyMTIwMDAwWg==
-----END TIME-----

SUCCESS
-----BEGIN VERIFY_RESULT-----
U1VDQ0VTUw==
-----END VERIFY_RESULT-----

serverAuth
-----BEGIN KEY_PURPOSE-----
c2VydmVyQXV0aA==
-----END KEY_PURPOSE-----
