[Created by: generate-intermediate-unknown-critical-extension.py]

Certificate chain with 1 intermediate and a trusted root. The intermediate
has an unknown X.509v3 extension (OID=1.2.3.4) that is marked as critical.
Verifying this certificate chain is expected to fail because there is an
unrecognized critical extension.

Certificate:
    Data:
        Version: 3 (0x2)
        Serial Number: 1 (0x1)
    Signature Algorithm: sha256WithRSAEncryption
        Issuer: CN=Intermediate
        Validity
            Not Before: Jan  1 12:00:00 2015 GMT
            Not After : Jan  1 12:00:00 2016 GMT
        Subject: CN=Target
        Subject Public Key Info:
            Public Key Algorithm: rsaEncryption
                Public-Key: (2048 bit)
                Modulus:
                    00:ca:ea:47:99:a6:75:27:44:09:a0:41:3f:98:17:
                    a1:8e:92:08:76:19:9a:6e:2b:f9:4b:1c:80:d3:f7:
                    db:1f:50:39:95:fb:de:4d:31:e6:d8:32:42:5c:ea:
                    28:1a:f0:a2:ef:b0:22:5e:be:14:fb:ea:ec:74:3c:
                    98:46:67:6b:ff:78:01:37:15:7c:f1:dd:4e:f8:29:
                    6f:9a:60:08:f6:e1:59:46:87:23:5a:3c:3c:93:55:
                    86:92:68:f6:0f:1f:da:82:c1:38:c8:e5:55:2b:f7:
                    44:06:4c:ff:04:bc:3b:8c:ac:5f:d8:54:7d:e3:aa:
                    87:84:0b:64:df:16:38:fb:92:3a:03:0d:40:be:c0:
                    f4:04:da:25:87:a2:46:be:56:19:21:1a:d2:6c:82:
                    c8:22:e7:fb:8f:47:29:95:34:e8:6f:3a:f3:fd:8f:
                    9f:5f:41:0d:40:0b:5c:52:9e:e1:21:eb:e9:dc:a9:
                    96:42:f5:b2:76:40:b3:a2:f4:e3:c1:99:e6:50:57:
                    52:ee:f9:7f:80:38:26:85:7c:69:34:f1:b7:af:88:
                    ee:ef:37:58:81:5c:27:4c:f9:5e:60:01:11:44:48:
                    38:6c:d7:5e:d3:e2:9c:2e:3f:f0:4c:29:54:82:f3:
                    22:4d:8a:f2:d9:e0:d8:29:99:93:a5:af:ff:f3:88:
                    49:93
                Exponent: 65537 (0x10001)
        X509v3 extensions:
            X509v3 Subject Key Identifier: 
                24:0E:D5:1E:5E:24:19:82:7B:4D:68:8C:DC:D9:B1:06:14:2A:E9:D4
            X509v3 Authority Key Identifier: 
                keyid:B8:39:FE:EF:FE:00:23:8B:C4:1B:5F:9E:7E:E8:DB:35:A5:7A:76:EE

            Authority Information Access: 
                CA Issuers - URI:http://url-for-aia/Intermediate.cer

            X509v3 CRL Distribution Points: 

                Full Name:
                  URI:http://url-for-crl/Intermediate.crl

            X509v3 Key Usage: critical
                Digital Signature, Key Encipherment
            X509v3 Extended Key Usage: 
                TLS Web Server Authentication, TLS Web Client Authentication
    Signature Algorithm: sha256WithRSAEncryption
         8e:7f:b5:2e:04:f9:3e:c9:a4:25:9d:7a:d7:20:49:61:8a:3b:
         f8:3f:6f:02:0b:66:e6:b9:16:3d:93:c6:72:04:17:ef:63:4f:
         f4:8e:a9:fd:8b:da:9b:4b:48:1e:c6:a0:89:1e:6c:e1:b6:4b:
         f9:27:5d:94:c7:c3:54:aa:a6:85:78:d3:f7:38:ad:d9:a3:ef:
         c2:39:46:47:04:d0:86:5f:dc:2d:03:8d:f1:3d:94:a2:82:6a:
         0f:33:29:b0:02:0f:99:3d:c9:ac:aa:67:cc:ae:b3:91:98:f3:
         fe:36:7c:88:47:28:23:7a:d1:95:db:8e:03:7a:7c:48:e4:4f:
         55:55:76:d0:c9:f5:fd:ea:1b:7f:ac:6e:b3:25:be:53:10:65:
         63:09:16:3b:a0:c1:f0:4f:42:1c:7a:03:34:96:63:40:05:33:
         2a:05:06:78:52:2a:6c:e6:87:87:c6:2a:a5:1d:4c:fd:4d:37:
         ed:43:80:fd:34:04:98:ec:01:17:7a:71:9b:a1:37:af:fd:53:
         42:9f:5c:80:98:96:f5:78:d7:80:20:ca:f1:67:4c:d7:ed:a5:
         ed:1b:96:df:d6:19:6e:5c:fc:bb:07:b1:93:0e:5c:a5:a4:a8:
         be:1a:0a:d8:20:c2:b0:a4:a5:b4:14:30:e0:b1:9d:97:89:00:
         cd:ca:cd:6b
-----BEGIN CERTIFICATE-----
MIIDjTCCAnWgAwIBAgIBATANBgkqhkiG9w0BAQsFADAXMRUwEwYDVQQDDAxJbnRl
cm1lZGlhdGUwHhcNMTUwMTAxMTIwMDAwWhcNMTYwMTAxMTIwMDAwWjARMQ8wDQYD
VQQDDAZUYXJnZXQwggEiMA0GCSqGSIb3DQEBAQUAA4IBDwAwggEKAoIBAQDK6keZ
pnUnRAmgQT+YF6GOkgh2GZpuK/lLHIDT99sfUDmV+95NMebYMkJc6iga8KLvsCJe
vhT76ux0PJhGZ2v/eAE3FXzx3U74KW+aYAj24VlGhyNaPDyTVYaSaPYPH9qCwTjI
5VUr90QGTP8EvDuMrF/YVH3jqoeEC2TfFjj7kjoDDUC+wPQE2iWHoka+VhkhGtJs
gsgi5/uPRymVNOhvOvP9j59fQQ1AC1xSnuEh6+ncqZZC9bJ2QLOi9OPBmeZQV1Lu
+X+AOCaFfGk08beviO7vN1iBXCdM+V5gARFESDhs117T4pwuP/BMKVSC8yJNivLZ
4NgpmZOlr//ziEmTAgMBAAGjgekwgeYwHQYDVR0OBBYEFCQO1R5eJBmCe01ojNzZ
sQYUKunUMB8GA1UdIwQYMBaAFLg5/u/+ACOLxBtfnn7o2zWlenbuMD8GCCsGAQUF
BwEBBDMwMTAvBggrBgEFBQcwAoYjaHR0cDovL3VybC1mb3ItYWlhL0ludGVybWVk
aWF0ZS5jZXIwNAYDVR0fBC0wKzApoCegJYYjaHR0cDovL3VybC1mb3ItY3JsL0lu
dGVybWVkaWF0ZS5jcmwwDgYDVR0PAQH/BAQDAgWgMB0GA1UdJQQWMBQGCCsGAQUF
BwMBBggrBgEFBQcDAjANBgkqhkiG9w0BAQsFAAOCAQEAjn+1LgT5PsmkJZ161yBJ
YYo7+D9vAgtm5rkWPZPGcgQX72NP9I6p/Yvam0tIHsagiR5s4bZL+SddlMfDVKqm
hXjT9zit2aPvwjlGRwTQhl/cLQON8T2UooJqDzMpsAIPmT3JrKpnzK6zkZjz/jZ8
iEcoI3rRlduOA3p8SORPVVV20Mn1/eobf6xusyW+UxBlYwkWO6DB8E9CHHoDNJZj
QAUzKgUGeFIqbOaHh8YqpR1M/U037UOA/TQEmOwBF3pxm6E3r/1TQp9cgJiW9XjX
gCDK8WdM1+2l7RuW39YZblz8uwexkw5cpaSovhoK2CDCsKSltBQw4LGdl4kAzcrN
aw==
-----END CERTIFICATE-----

Certificate:
    Data:
        Version: 3 (0x2)
        Serial Number: 2 (0x2)
    Signature Algorithm: sha256WithRSAEncryption
        Issuer: CN=Root
        Validity
            Not Before: Jan  1 12:00:00 2015 GMT
            Not After : Jan  1 12:00:00 2016 GMT
        Subject: CN=Intermediate
        Subject Public Key Info:
            Public Key Algorithm: rsaEncryption
                Public-Key: (2048 bit)
                Modulus:
                    00:de:2c:50:a5:d0:e9:9c:e2:1c:45:e9:e8:75:5a:
                    b9:40:38:3d:8c:c7:48:82:7f:1e:84:6a:0d:2b:f9:
                    1a:69:fd:e1:14:2e:5b:09:98:a5:c9:58:5e:b2:2f:
                    98:3e:d7:a2:e4:d6:44:20:32:6f:e5:d9:20:86:47:
                    86:e5:f5:00:66:39:73:ec:0d:e8:8e:7d:4e:e5:01:
                    00:35:1b:e6:ed:ff:49:3d:4b:b1:11:9d:cf:b7:b9:
                    f2:f6:7c:5f:13:a5:48:58:8a:c2:0a:62:9d:20:6b:
                    2f:77:13:a6:a3:18:86:0e:16:79:72:e6:e7:14:70:
                    1b:3c:5f:7d:18:73:a8:38:fd:88:86:74:ba:d5:c8:
                    8b:80:41:c4:59:6c:b5:51:3b:c0:83:be:b7:b4:05:
                    17:9a:58:6d:11:61:9e:97:89:56:47:8a:97:13:21:
                    4e:46:14:4f:db:5c:b7:12:bc:33:94:2a:a5:24:d5:
                    43:05:db:1c:11:e2:e2:7d:21:25:b8:21:a9:4d:59:
                    48:77:e1:1e:73:3a:9e:7e:ea:16:25:1b:bb:63:01:
                    b3:2f:6b:99:59:2b:d6:e7:c9:13:d1:4a:87:75:79:
                    d5:a5:1a:fa:7a:e2:53:b6:55:58:ce:e2:e4:a7:1f:
                    78:a4:cb:08:a2:7a:99:e6:30:83:97:68:6c:a8:b3:
                    37:05
                Exponent: 65537 (0x10001)
        X509v3 extensions:
            X509v3 Subject Key Identifier: 
                B8:39:FE:EF:FE:00:23:8B:C4:1B:5F:9E:7E:E8:DB:35:A5:7A:76:EE
            X509v3 Authority Key Identifier: 
                keyid:5C:80:E1:FD:9C:2A:D7:E2:15:15:1E:22:A0:FC:39:84:B8:A2:0B:42

            Authority Information Access: 
                CA Issuers - URI:http://url-for-aia/Root.cer

            X509v3 CRL Distribution Points: 

                Full Name:
                  URI:http://url-for-crl/Root.crl

            X509v3 Key Usage: critical
                Certificate Sign, CRL Sign
            X509v3 Basic Constraints: critical
                CA:TRUE
            1.2.3.4: critical
                ....
    Signature Algorithm: sha256WithRSAEncryption
         11:21:3f:43:4f:cc:37:a7:71:ca:a6:d1:ce:4f:78:b4:f5:af:
         4e:31:b7:d7:81:3b:67:19:35:eb:b1:49:d8:39:2d:e7:6f:45:
         db:91:a2:da:ed:cd:46:4b:62:3e:f2:26:7a:ee:69:8b:81:ab:
         f0:11:08:72:89:eb:28:57:bd:83:b2:71:05:28:f1:5d:22:5b:
         13:e4:3f:94:c8:28:0f:50:66:77:f9:f2:a6:08:22:38:e7:b9:
         49:19:ee:62:58:32:32:79:06:b1:d9:4c:65:ac:df:70:b0:d4:
         34:31:a4:8d:43:35:1e:3e:42:77:0c:e1:1c:b5:08:e7:22:39:
         98:b3:88:42:05:f6:6d:03:bc:8b:3c:f0:84:9b:17:e5:84:1a:
         8d:1f:9a:63:94:e0:12:7a:25:34:e4:3d:7d:76:58:ca:f4:a3:
         e6:11:33:21:06:8c:7e:91:83:e4:ce:17:0a:59:37:9d:c9:85:
         fd:0b:06:62:aa:db:a1:a7:01:df:77:a4:7b:0b:b7:d5:1c:b9:
         57:ad:ab:ce:fa:74:52:09:3b:2d:f2:d2:12:bf:e1:3b:7b:e7:
         c3:4b:db:eb:23:77:d0:59:93:cc:de:81:5c:48:da:c2:ea:ed:
         63:92:bc:af:26:80:3f:3e:69:3e:23:53:35:ff:87:43:7f:2b:
         f0:5e:23:b8
-----BEGIN CERTIFICATE-----
MIIDfTCCAmWgAwIBAgIBAjANBgkqhkiG9w0BAQsFADAPMQ0wCwYDVQQDDARSb290
MB4XDTE1MDEwMTEyMDAwMFoXDTE2MDEwMTEyMDAwMFowFzEVMBMGA1UEAwwMSW50
ZXJtZWRpYXRlMIIBIjANBgkqhkiG9w0BAQEFAAOCAQ8AMIIBCgKCAQEA3ixQpdDp
nOIcRenodVq5QDg9jMdIgn8ehGoNK/kaaf3hFC5bCZilyVhesi+YPtei5NZEIDJv
5dkghkeG5fUAZjlz7A3ojn1O5QEANRvm7f9JPUuxEZ3Pt7ny9nxfE6VIWIrCCmKd
IGsvdxOmoxiGDhZ5cubnFHAbPF99GHOoOP2IhnS61ciLgEHEWWy1UTvAg763tAUX
mlhtEWGel4lWR4qXEyFORhRP21y3ErwzlCqlJNVDBdscEeLifSEluCGpTVlId+Ee
czqefuoWJRu7YwGzL2uZWSvW58kT0UqHdXnVpRr6euJTtlVYzuLkpx94pMsIonqZ
5jCDl2hsqLM3BQIDAQABo4HbMIHYMB0GA1UdDgQWBBS4Of7v/gAji8QbX55+6Ns1
pXp27jAfBgNVHSMEGDAWgBRcgOH9nCrX4hUVHiKg/DmEuKILQjA3BggrBgEFBQcB
AQQrMCkwJwYIKwYBBQUHMAKGG2h0dHA6Ly91cmwtZm9yLWFpYS9Sb290LmNlcjAs
BgNVHR8EJTAjMCGgH6AdhhtodHRwOi8vdXJsLWZvci1jcmwvUm9vdC5jcmwwDgYD
VR0PAQH/BAQDAgEGMA8GA1UdEwEB/wQFMAMBAf8wDgYDKgMEAQH/BAQBAgMEMA0G
CSqGSIb3DQEBCwUAA4IBAQARIT9DT8w3p3HKptHOT3i09a9OMbfXgTtnGTXrsUnY
OS3nb0XbkaLa7c1GS2I+8iZ67mmLgavwEQhyiesoV72DsnEFKPFdIlsT5D+UyCgP
UGZ3+fKmCCI457lJGe5iWDIyeQax2UxlrN9wsNQ0MaSNQzUePkJ3DOEctQjnIjmY
s4hCBfZtA7yLPPCEmxflhBqNH5pjlOASeiU05D19dljK9KPmETMhBox+kYPkzhcK
WTedyYX9CwZiqtuhpwHfd6R7C7fVHLlXravO+nRSCTst8tISv+E7e+fDS9vrI3fQ
WZPM3oFcSNrC6u1jkryvJoA/Pmk+I1M1/4dDfyvwXiO4
-----END CERTIFICATE-----

Certificate:
    Data:
        Version: 3 (0x2)
        Serial Number: 1 (0x1)
    Signature Algorithm: sha256WithRSAEncryption
        Issuer: CN=Root
        Validity
            Not Before: Jan  1 12:00:00 2015 GMT
            Not After : Jan  1 12:00:00 2016 GMT
        Subject: CN=Root
        Subject Public Key Info:
            Public Key Algorithm: rsaEncryption
                Public-Key: (2048 bit)
                Modulus:
                    00:e1:06:5e:f4:68:1b:03:b0:84:e4:7d:b2:55:05:
                    ea:8b:e3:9b:fc:bd:7d:c4:6c:33:39:59:11:1e:46:
                    95:aa:07:6b:81:59:d4:0d:8c:d7:0e:c2:1e:4d:0b:
                    86:32:ab:7c:c3:d9:8e:a9:31:87:4e:9b:2a:02:49:
                    66:40:75:c2:44:c2:74:dc:12:86:ad:3a:8f:62:f9:
                    6f:87:6b:33:98:ab:72:d8:26:c1:fb:51:64:85:63:
                    fd:b1:79:d7:a1:e8:da:1c:57:21:ce:9b:ba:0b:c2:
                    d4:e3:7b:b6:58:89:97:12:5d:4c:a4:81:34:42:e7:
                    3b:85:0c:13:98:0b:63:44:99:95:e8:8e:bc:1a:33:
                    b8:c0:d0:5f:b1:f3:0a:a6:3c:c2:a0:00:c1:9b:16:
                    1c:84:55:6b:f2:fc:fe:74:40:8d:43:6f:61:29:05:
                    e3:01:41:06:37:cc:65:9b:be:f5:88:2c:c8:31:5a:
                    0a:5b:55:13:4d:1b:3f:03:85:c1:f4:7d:45:0c:50:
                    d5:4a:65:34:ea:06:fa:44:20:01:e4:16:64:4d:13:
                    35:6c:6d:18:5b:36:0a:de:3c:03:a9:f2:9e:fd:51:
                    6f:f9:dc:dc:9d:f7:25:ff:a8:b6:1a:80:2b:df:9f:
                    e3:22:ae:5c:4b:6b:d1:e0:fe:6c:87:18:93:92:d6:
                    42:13
                Exponent: 65537 (0x10001)
        X509v3 extensions:
            X509v3 Subject Key Identifier: 
                5C:80:E1:FD:9C:2A:D7:E2:15:15:1E:22:A0:FC:39:84:B8:A2:0B:42
            X509v3 Authority Key Identifier: 
                keyid:5C:80:E1:FD:9C:2A:D7:E2:15:15:1E:22:A0:FC:39:84:B8:A2:0B:42

            Authority Information Access: 
                CA Issuers - URI:http://url-for-aia/Root.cer

            X509v3 CRL Distribution Points: 

                Full Name:
                  URI:http://url-for-crl/Root.crl

            X509v3 Key Usage: critical
                Certificate Sign, CRL Sign
            X509v3 Basic Constraints: critical
                CA:TRUE
    Signature Algorithm: sha256WithRSAEncryption
         da:f3:43:e6:bf:67:83:9c:dc:b5:9e:20:9e:4a:93:97:3b:cc:
         e2:27:20:20:53:e3:6c:60:40:35:5f:13:3e:5b:8e:a8:a2:62:
         90:5a:25:ab:fe:27:02:93:4f:c3:9e:31:82:f2:56:c1:4d:8c:
         6a:14:ca:63:4c:51:2c:6d:4d:fa:62:64:45:5b:64:5d:19:d3:
         cc:17:d1:a8:f1:22:d7:62:c0:00:b4:39:fd:fc:81:24:dd:fe:
         cf:35:8e:74:47:76:7c:9c:0d:56:bc:7b:10:1f:09:07:f6:98:
         25:1b:ce:f0:bf:ce:1a:81:d1:1e:bc:c9:11:67:8c:eb:1a:9b:
         6a:13:5b:f5:a5:55:36:2e:cd:1f:d8:4b:0f:23:45:2f:27:fd:
         06:5e:20:c8:ff:16:65:90:3f:b7:f0:13:1b:af:f4:fc:ac:65:
         8a:97:21:23:6b:94:de:74:d5:35:6f:f7:0e:98:e1:c7:df:1b:
         e5:20:89:39:3c:f5:cc:a5:af:1a:bf:ba:af:01:bb:6f:86:5b:
         8e:47:2e:91:91:b3:7c:06:17:18:1a:dd:21:a4:14:07:8c:d8:
         17:42:ec:ae:21:46:ce:56:37:f5:7d:ba:75:4b:f9:1c:59:53:
         d7:2d:d0:be:2a:b8:ed:75:0a:02:a6:ed:b3:24:14:73:7b:9a:
         ad:2e:f9:cd
-----BEGIN TRUST_ANCHOR_UNCONSTRAINED-----
MIIDZTCCAk2gAwIBAgIBATANBgkqhkiG9w0BAQsFADAPMQ0wCwYDVQQDDARSb290
MB4XDTE1MDEwMTEyMDAwMFoXDTE2MDEwMTEyMDAwMFowDzENMAsGA1UEAwwEUm9v
dDCCASIwDQYJKoZIhvcNAQEBBQADggEPADCCAQoCggEBAOEGXvRoGwOwhOR9slUF
6ovjm/y9fcRsMzlZER5GlaoHa4FZ1A2M1w7CHk0LhjKrfMPZjqkxh06bKgJJZkB1
wkTCdNwShq06j2L5b4drM5irctgmwftRZIVj/bF516Ho2hxXIc6bugvC1ON7tliJ
lxJdTKSBNELnO4UME5gLY0SZleiOvBozuMDQX7HzCqY8wqAAwZsWHIRVa/L8/nRA
jUNvYSkF4wFBBjfMZZu+9YgsyDFaCltVE00bPwOFwfR9RQxQ1UplNOoG+kQgAeQW
ZE0TNWxtGFs2Ct48A6nynv1Rb/nc3J33Jf+othqAK9+f4yKuXEtr0eD+bIcYk5LW
QhMCAwEAAaOByzCByDAdBgNVHQ4EFgQUXIDh/Zwq1+IVFR4ioPw5hLiiC0IwHwYD
VR0jBBgwFoAUXIDh/Zwq1+IVFR4ioPw5hLiiC0IwNwYIKwYBBQUHAQEEKzApMCcG
CCsGAQUFBzAChhtodHRwOi8vdXJsLWZvci1haWEvUm9vdC5jZXIwLAYDVR0fBCUw
IzAhoB+gHYYbaHR0cDovL3VybC1mb3ItY3JsL1Jvb3QuY3JsMA4GA1UdDwEB/wQE
AwIBBjAPBgNVHRMBAf8EBTADAQH/MA0GCSqGSIb3DQEBCwUAA4IBAQDa80Pmv2eD
nNy1niCeSpOXO8ziJyAgU+NsYEA1XxM+W46oomKQWiWr/icCk0/DnjGC8lbBTYxq
FMpjTFEsbU36YmRFW2RdGdPMF9Go8SLXYsAAtDn9/IEk3f7PNY50R3Z8nA1WvHsQ
HwkH9pglG87wv84agdEevMkRZ4zrGptqE1v1pVU2Ls0f2EsPI0UvJ/0GXiDI/xZl
kD+38BMbr/T8rGWKlyEja5TedNU1b/cOmOHH3xvlIIk5PPXMpa8av7qvAbtvhluO
Ry6RkbN8BhcYGt0hpBQHjNgXQuyuIUbOVjf1fbp1S/kcWVPXLdC+KrjtdQoCpu2z
JBRze5qtLvnN
-----END TRUST_ANCHOR_UNCONSTRAINED-----

150302120000Z
-----BEGIN TIME-----
MTUwMzAyMTIwMDAwWg==
-----END TIME-----

FAIL
-----BEGIN VERIFY_RESULT-----
RkFJTA==
-----END VERIFY_RESULT-----

serverAuth
-----BEGIN KEY_PURPOSE-----
c2VydmVyQXV0aA==
-----END KEY_PURPOSE-----

----- Certificate i=1 (CN=Intermediate) -----
ERROR: Unconsumed critical extension
  oid: 2A0304
  value: 01020304


-----BEGIN ERRORS-----
LS0tLS0gQ2VydGlmaWNhdGUgaT0xIChDTj1JbnRlcm1lZGlhdGUpIC0tLS0tCkVSUk9SOiBVbmNvbnN1bWVkIGNyaXRpY2FsIGV4dGVuc2lvbgogIG9pZDogMkEwMzA0CiAgdmFsdWU6IDAxMDIwMzA0Cgo=
-----END ERRORS-----
