[Created by: generate-intermediate-unknown-non-critical-extension.py]

Certificate chain with 1 intermediate and a trusted root. The intermediate
has an unknown X.509v3 extension that is marked as non-critical. Verification
is expected to succeed because although unrecognized, the extension is not
critical.

Certificate:
    Data:
        Version: 3 (0x2)
        Serial Number: 1 (0x1)
    Signature Algorithm: sha256WithRSAEncryption
        Issuer: CN=Intermediate
        Validity
            Not Before: Jan  1 12:00:00 2015 GMT
            Not After : Jan  1 12:00:00 2016 GMT
        Subject: CN=Target
        Subject Public Key Info:
            Public Key Algorithm: rsaEncryption
                Public-Key: (2048 bit)
                Modulus:
                    00:b6:04:af:e9:58:68:65:f6:6e:cd:e3:fe:93:35:
                    d3:c0:06:53:75:df:15:59:23:d3:fd:42:8c:36:a1:
                    df:6b:35:3f:7d:63:57:e4:17:d9:2a:63:77:7f:d6:
                    f5:b0:85:00:70:ab:f9:5e:f3:00:4d:0f:5e:28:b8:
                    56:7b:15:f1:4e:eb:32:e0:bf:e4:83:2b:49:ff:ac:
                    3e:09:38:40:75:73:11:ee:0c:8c:d9:e6:c6:d2:44:
                    ce:99:74:78:8b:90:19:b5:32:75:45:ba:e0:76:55:
                    5f:c9:44:27:e2:91:8e:9a:21:aa:3d:be:e7:cf:1e:
                    af:08:4b:b0:cc:03:b8:c6:2b:92:ae:d6:1e:61:fa:
                    18:4e:b5:98:cc:0b:55:16:77:4c:9c:26:99:0f:3b:
                    91:22:87:19:36:b9:4f:72:c9:40:bb:d0:2b:8e:d7:
                    c3:1b:eb:2e:e4:82:a8:0e:7d:45:a1:c7:6a:e9:db:
                    d2:f7:30:9b:ad:4f:a7:04:17:2b:78:85:15:1a:8f:
                    f1:77:6c:51:c0:a8:fc:53:70:f0:32:8c:86:09:8b:
                    00:9c:3f:32:ff:cc:86:4f:4c:32:6a:f9:53:5d:36:
                    f9:55:34:8c:e4:0e:56:af:bf:f6:92:25:8a:4e:d5:
                    66:53:66:7b:b0:16:08:04:d2:56:de:c6:b0:75:2c:
                    b5:d5
                Exponent: 65537 (0x10001)
        X509v3 extensions:
            X509v3 Subject Key Identifier: 
                A7:25:2F:78:CA:01:CA:68:1D:8F:FF:93:D6:FA:FA:A3:9C:BB:C8:0E
            X509v3 Authority Key Identifier: 
                keyid:D5:16:02:7F:4F:D3:7F:21:1A:9D:CC:55:09:30:CF:EF:6C:08:1F:53

            Authority Information Access: 
                CA Issuers - URI:http://url-for-aia/Intermediate.cer

            X509v3 CRL Distribution Points: 

                Full Name:
                  URI:http://url-for-crl/Intermediate.crl

            X509v3 Key Usage: critical
                Digital Signature, Key Encipherment
            X509v3 Extended Key Usage: 
                TLS Web Server Authentication, TLS Web Client Authentication
    Signature Algorithm: sha256WithRSAEncryption
         6a:e8:e9:eb:26:54:d4:51:72:d0:4d:a3:7c:e4:5e:8d:bd:c7:
         5e:0a:ab:46:a0:88:20:15:68:56:3f:43:0d:13:60:30:eb:65:
         86:45:5b:0d:8b:c4:b0:7f:2f:18:fe:27:a7:6e:4b:10:99:05:
         25:f8:4b:9a:80:a3:36:f6:35:5e:0a:dc:0a:81:3c:fc:be:32:
         71:fc:ed:8c:d9:77:ce:25:3c:74:af:b7:ad:50:ee:dc:fe:35:
         91:15:cc:79:91:f0:48:74:68:8b:a0:e2:70:95:df:1d:b3:e5:
         c5:48:bc:9c:c3:4c:95:50:94:8d:3c:42:9a:13:e3:03:b3:df:
         43:32:bf:0f:cd:50:d9:2c:52:1c:30:9e:5f:30:02:69:66:bc:
         e5:92:63:43:ca:62:e8:d2:ae:dd:2a:e1:ac:ce:00:f0:d7:54:
         81:6b:b8:1f:b1:0e:e7:57:2b:71:17:50:4b:fb:e4:f0:37:2a:
         da:37:e2:80:4a:87:9b:d6:d5:6d:6b:b4:af:4b:43:c9:08:9d:
         57:f1:98:3c:2a:b6:58:7d:a8:83:d3:f0:b1:df:c5:bd:8b:0c:
         a8:48:91:0c:c8:eb:29:f8:54:70:b0:49:b7:f4:e3:80:cc:2e:
         37:23:23:f4:49:21:8d:22:12:8c:3e:24:a2:11:66:15:cd:68:
         96:19:3b:5f
-----BEGIN CERTIFICATE-----
MIIDjTCCAnWgAwIBAgIBATANBgkqhkiG9w0BAQsFADAXMRUwEwYDVQQDDAxJbnRl
cm1lZGlhdGUwHhcNMTUwMTAxMTIwMDAwWhcNMTYwMTAxMTIwMDAwWjARMQ8wDQYD
VQQDDAZUYXJnZXQwggEiMA0GCSqGSIb3DQEBAQUAA4IBDwAwggEKAoIBAQC2BK/p
WGhl9m7N4/6TNdPABlN13xVZI9P9Qow2od9rNT99Y1fkF9kqY3d/1vWwhQBwq/le
8wBND14ouFZ7FfFO6zLgv+SDK0n/rD4JOEB1cxHuDIzZ5sbSRM6ZdHiLkBm1MnVF
uuB2VV/JRCfikY6aIao9vufPHq8IS7DMA7jGK5Ku1h5h+hhOtZjMC1UWd0ycJpkP
O5Eihxk2uU9yyUC70CuO18Mb6y7kgqgOfUWhx2rp29L3MJutT6cEFyt4hRUaj/F3
bFHAqPxTcPAyjIYJiwCcPzL/zIZPTDJq+VNdNvlVNIzkDlavv/aSJYpO1WZTZnuw
FggE0lbexrB1LLXVAgMBAAGjgekwgeYwHQYDVR0OBBYEFKclL3jKAcpoHY//k9b6
+qOcu8gOMB8GA1UdIwQYMBaAFNUWAn9P038hGp3MVQkwz+9sCB9TMD8GCCsGAQUF
BwEBBDMwMTAvBggrBgEFBQcwAoYjaHR0cDovL3VybC1mb3ItYWlhL0ludGVybWVk
aWF0ZS5jZXIwNAYDVR0fBC0wKzApoCegJYYjaHR0cDovL3VybC1mb3ItY3JsL0lu
dGVybWVkaWF0ZS5jcmwwDgYDVR0PAQH/BAQDAgWgMB0GA1UdJQQWMBQGCCsGAQUF
BwMBBggrBgEFBQcDAjANBgkqhkiG9w0BAQsFAAOCAQEAaujp6yZU1FFy0E2jfORe
jb3HXgqrRqCIIBVoVj9DDRNgMOtlhkVbDYvEsH8vGP4np25LEJkFJfhLmoCjNvY1
XgrcCoE8/L4ycfztjNl3ziU8dK+3rVDu3P41kRXMeZHwSHRoi6DicJXfHbPlxUi8
nMNMlVCUjTxCmhPjA7PfQzK/D81Q2SxSHDCeXzACaWa85ZJjQ8pi6NKu3SrhrM4A
8NdUgWu4H7EO51crcRdQS/vk8Dcq2jfigEqHm9bVbWu0r0tDyQidV/GYPCq2WH2o
g9Pwsd/FvYsMqEiRDMjrKfhUcLBJt/TjgMwuNyMj9EkhjSISjD4kohFmFc1olhk7
Xw==
-----END CERTIFICATE-----

Certificate:
    Data:
        Version: 3 (0x2)
        Serial Number: 2 (0x2)
    Signature Algorithm: sha256WithRSAEncryption
        Issuer: CN=Root
        Validity
            Not Before: Jan  1 12:00:00 2015 GMT
            Not After : Jan  1 12:00:00 2016 GMT
        Subject: CN=Intermediate
        Subject Public Key Info:
            Public Key Algorithm: rsaEncryption
                Public-Key: (2048 bit)
                Modulus:
                    00:94:b0:d4:b6:63:20:79:6f:d7:5f:3e:0a:32:b1:
                    79:0a:be:db:d4:86:23:8d:f8:17:0d:3e:b8:49:ed:
                    d3:6a:39:db:e4:16:6b:f6:c9:03:d6:0f:60:a0:ae:
                    6c:86:18:2d:50:06:70:48:5f:9b:14:17:4d:2b:d5:
                    e4:e9:8c:19:0b:78:19:0e:d9:82:39:8f:92:f8:bc:
                    7f:cc:7a:6e:06:7c:75:e3:7e:7e:24:71:7e:19:ba:
                    64:2f:7b:60:e5:ab:c0:1a:9a:44:9d:a4:db:eb:d5:
                    5b:69:31:ab:9f:86:9c:ec:90:2f:c2:29:ea:19:15:
                    fb:85:50:89:71:67:28:70:46:f7:e4:1e:6d:e6:81:
                    49:15:7e:e9:2e:9f:14:d6:f9:02:c9:91:8f:d1:a9:
                    65:8a:cc:29:57:7b:e5:a8:08:db:19:a6:27:2f:89:
                    4b:e1:ca:3e:1e:c4:f6:65:4f:b0:26:c4:29:13:44:
                    3f:6c:49:ba:b7:99:2c:70:0c:54:7b:c2:9a:06:ce:
                    95:51:62:16:a3:0c:9e:2c:34:d0:04:65:32:41:d7:
                    db:6e:38:e9:12:8c:91:a5:0d:fe:b2:c6:b7:74:f4:
                    23:65:d9:ae:88:af:0f:12:6a:28:f0:7b:db:2b:e4:
                    6d:1b:74:de:93:e9:f6:72:f1:1c:28:8f:8a:32:37:
                    a2:65
                Exponent: 65537 (0x10001)
        X509v3 extensions:
            X509v3 Subject Key Identifier: 
                D5:16:02:7F:4F:D3:7F:21:1A:9D:CC:55:09:30:CF:EF:6C:08:1F:53
            X509v3 Authority Key Identifier: 
                keyid:99:38:AC:DE:DD:17:19:E4:9D:92:02:FD:01:4D:40:C5:2C:4E:B7:4A

            Authority Information Access: 
                CA Issuers - URI:http://url-for-aia/Root.cer

            X509v3 CRL Distribution Points: 

                Full Name:
                  URI:http://url-for-crl/Root.crl

            X509v3 Key Usage: critical
                Certificate Sign, CRL Sign
            X509v3 Basic Constraints: critical
                CA:TRUE
            1.2.3.4: 
                ....
    Signature Algorithm: sha256WithRSAEncryption
         0b:1e:08:36:25:d9:1b:97:a3:07:63:ca:17:a1:df:42:14:a5:
         6d:75:63:a8:ba:b5:94:b1:59:0b:5c:18:a7:e2:8f:a7:8b:40:
         f0:0f:cf:4d:8d:87:a0:77:44:b3:0a:b6:b2:a2:aa:25:0e:a5:
         cf:4b:6b:77:6e:e1:e2:06:19:0d:97:d9:a9:95:72:26:24:07:
         e5:cd:8c:c8:e1:c5:1f:6c:8e:42:dd:93:da:4c:6e:07:e5:6e:
         b2:e0:e6:c2:04:1d:1f:e0:4f:f0:5d:00:63:2c:ea:35:e3:dc:
         c3:14:6d:8f:86:23:ab:a8:d1:29:81:98:1e:b7:fb:34:4c:65:
         18:27:fa:f5:5e:54:e6:3e:1e:b9:24:4c:86:cd:94:81:8d:60:
         49:d7:a7:a7:de:a5:4d:30:32:88:0a:95:a9:36:01:51:20:1e:
         2f:e2:1f:b8:fb:fb:14:77:9a:37:c3:96:21:e5:8b:96:a9:a0:
         97:24:b8:1c:f5:dd:a2:1b:bb:04:c4:f3:b0:22:56:38:cc:20:
         e1:5b:51:90:7c:14:5c:5e:ce:df:b1:a9:57:a2:3b:d6:0f:56:
         3b:96:94:7e:c5:c7:a8:6e:eb:77:fe:50:1e:21:c8:0b:c2:3f:
         6f:48:d0:dd:d4:f5:29:39:3f:e1:a7:bd:c8:ba:35:d3:28:72:
         92:d4:e6:33
-----BEGIN CERTIFICATE-----
MIIDejCCAmKgAwIBAgIBAjANBgkqhkiG9w0BAQsFADAPMQ0wCwYDVQQDDARSb290
MB4XDTE1MDEwMTEyMDAwMFoXDTE2MDEwMTEyMDAwMFowFzEVMBMGA1UEAwwMSW50
ZXJtZWRpYXRlMIIBIjANBgkqhkiG9w0BAQEFAAOCAQ8AMIIBCgKCAQEAlLDUtmMg
eW/XXz4KMrF5Cr7b1IYjjfgXDT64Se3Tajnb5BZr9skD1g9goK5shhgtUAZwSF+b
FBdNK9Xk6YwZC3gZDtmCOY+S+Lx/zHpuBnx1435+JHF+GbpkL3tg5avAGppEnaTb
69VbaTGrn4ac7JAvwinqGRX7hVCJcWcocEb35B5t5oFJFX7pLp8U1vkCyZGP0all
iswpV3vlqAjbGaYnL4lL4co+HsT2ZU+wJsQpE0Q/bEm6t5kscAxUe8KaBs6VUWIW
owyeLDTQBGUyQdfbbjjpEoyRpQ3+ssa3dPQjZdmuiK8PEmoo8HvbK+RtG3Tek+n2
cvEcKI+KMjeiZQIDAQABo4HYMIHVMB0GA1UdDgQWBBTVFgJ/T9N/IRqdzFUJMM/v
bAgfUzAfBgNVHSMEGDAWgBSZOKze3RcZ5J2SAv0BTUDFLE63SjA3BggrBgEFBQcB
AQQrMCkwJwYIKwYBBQUHMAKGG2h0dHA6Ly91cmwtZm9yLWFpYS9Sb290LmNlcjAs
BgNVHR8EJTAjMCGgH6AdhhtodHRwOi8vdXJsLWZvci1jcmwvUm9vdC5jcmwwDgYD
VR0PAQH/BAQDAgEGMA8GA1UdEwEB/wQFMAMBAf8wCwYDKgMEBAQBAgMEMA0GCSqG
SIb3DQEBCwUAA4IBAQALHgg2Jdkbl6MHY8oXod9CFKVtdWOourWUsVkLXBin4o+n
i0DwD89NjYegd0SzCrayoqolDqXPS2t3buHiBhkNl9mplXImJAflzYzI4cUfbI5C
3ZPaTG4H5W6y4ObCBB0f4E/wXQBjLOo149zDFG2PhiOrqNEpgZget/s0TGUYJ/r1
XlTmPh65JEyGzZSBjWBJ16en3qVNMDKICpWpNgFRIB4v4h+4+/sUd5o3w5Yh5YuW
qaCXJLgc9d2iG7sExPOwIlY4zCDhW1GQfBRcXs7fsalXojvWD1Y7lpR+xceobut3
/lAeIcgLwj9vSNDd1PUpOT/hp73IujXTKHKS1OYz
-----END CERTIFICATE-----

Certificate:
    Data:
        Version: 3 (0x2)
        Serial Number: 1 (0x1)
    Signature Algorithm: sha256WithRSAEncryption
        Issuer: CN=Root
        Validity
            Not Before: Jan  1 12:00:00 2015 GMT
            Not After : Jan  1 12:00:00 2016 GMT
        Subject: CN=Root
        Subject Public Key Info:
            Public Key Algorithm: rsaEncryption
                Public-Key: (2048 bit)
                Modulus:
                    00:a3:83:87:29:55:0b:8e:0a:7e:d7:d3:74:4f:6c:
                    58:a6:8c:5c:09:8d:13:65:8b:94:04:8e:52:13:93:
                    9e:8c:75:2b:37:f7:9f:ca:64:92:f2:42:e9:8d:d6:
                    36:19:ab:14:e4:f3:76:16:65:68:3d:3b:51:eb:e5:
                    d0:33:af:8e:26:5b:f2:5c:4e:3d:7e:11:46:b6:2a:
                    6d:fd:3a:54:57:91:8b:6c:e1:fb:8b:08:b8:80:d3:
                    0d:2d:d0:b8:2e:1e:f0:b3:33:c5:15:0b:b0:ad:de:
                    27:68:a4:3d:3b:6c:8d:4c:a6:d0:5c:7e:58:52:01:
                    8f:fe:fb:86:5e:ce:ea:fc:33:77:28:c5:4c:ee:d0:
                    0b:cb:a7:97:7f:05:70:53:a3:61:06:fa:b3:9d:7e:
                    d5:dd:3f:ef:58:04:f8:3c:91:fc:8d:fa:ca:cd:97:
                    a4:3b:44:ac:dd:64:a7:32:08:87:0f:73:36:d7:14:
                    e0:1d:b8:29:11:97:cb:9d:79:1f:bc:c8:cc:28:ae:
                    8e:9a:2f:39:62:1f:28:aa:b9:c7:81:7c:34:96:44:
                    39:e6:00:4b:5b:0e:4b:7a:fd:ca:bf:5d:67:50:91:
                    3a:59:89:1b:3a:12:7c:7e:b9:58:54:e5:4f:97:00:
                    35:c8:a7:b9:fd:3f:5e:08:5e:ac:0c:ba:61:e8:42:
                    34:33
                Exponent: 65537 (0x10001)
        X509v3 extensions:
            X509v3 Subject Key Identifier: 
                99:38:AC:DE:DD:17:19:E4:9D:92:02:FD:01:4D:40:C5:2C:4E:B7:4A
            X509v3 Authority Key Identifier: 
                keyid:99:38:AC:DE:DD:17:19:E4:9D:92:02:FD:01:4D:40:C5:2C:4E:B7:4A

            Authority Information Access: 
                CA Issuers - URI:http://url-for-aia/Root.cer

            X509v3 CRL Distribution Points: 

                Full Name:
                  URI:http://url-for-crl/Root.crl

            X509v3 Key Usage: critical
                Certificate Sign, CRL Sign
            X509v3 Basic Constraints: critical
                CA:TRUE
    Signature Algorithm: sha256WithRSAEncryption
         47:a7:24:e7:1f:29:34:d7:8e:3a:e1:af:aa:d3:3b:32:f4:d6:
         7d:ec:ab:7c:34:59:0b:b1:33:80:6a:d4:36:4a:78:d3:3a:d6:
         97:0d:8b:81:54:09:91:b5:30:79:78:e7:52:11:ba:e8:57:af:
         f3:f8:f0:ff:17:9a:e3:d0:a0:89:81:50:e8:67:47:9b:b5:68:
         ed:99:10:1b:d6:31:58:24:dd:74:3c:8b:76:77:46:a3:b9:ca:
         b6:4b:3d:ca:b9:5b:ac:e7:92:8c:d3:f2:4a:ba:4b:2f:c6:11:
         cf:38:15:59:5a:fa:2d:d2:72:31:8f:54:a4:7e:44:a7:26:9d:
         1b:38:e0:ac:75:72:9c:71:4c:78:54:80:8f:74:b7:11:b0:5c:
         c7:69:a5:03:1e:cd:5e:c5:cd:60:0e:80:32:19:02:e0:8c:b4:
         76:e7:00:a1:e5:bc:29:31:61:a6:55:f0:72:92:78:69:6f:26:
         08:96:71:b9:42:a9:eb:cc:54:8e:d6:55:1a:26:2c:a0:b5:a6:
         df:52:86:a1:df:26:da:26:86:d5:17:5b:c9:9b:90:c0:6c:ab:
         23:1a:82:2d:ff:b6:83:ae:3c:c1:c3:85:5e:49:aa:d6:ef:fd:
         f4:4a:22:7c:90:b8:46:2e:15:63:93:0c:c5:2d:9e:f6:32:03:
         53:10:30:36
-----BEGIN TRUST_ANCHOR_UNCONSTRAINED-----
MIIDZTCCAk2gAwIBAgIBATANBgkqhkiG9w0BAQsFADAPMQ0wCwYDVQQDDARSb290
MB4XDTE1MDEwMTEyMDAwMFoXDTE2MDEwMTEyMDAwMFowDzENMAsGA1UEAwwEUm9v
dDCCASIwDQYJKoZIhvcNAQEBBQADggEPADCCAQoCggEBAKODhylVC44KftfTdE9s
WKaMXAmNE2WLlASOUhOTnox1Kzf3n8pkkvJC6Y3WNhmrFOTzdhZlaD07Uevl0DOv
jiZb8lxOPX4RRrYqbf06VFeRi2zh+4sIuIDTDS3QuC4e8LMzxRULsK3eJ2ikPTts
jUym0Fx+WFIBj/77hl7O6vwzdyjFTO7QC8unl38FcFOjYQb6s51+1d0/71gE+DyR
/I36ys2XpDtErN1kpzIIhw9zNtcU4B24KRGXy515H7zIzCiujpovOWIfKKq5x4F8
NJZEOeYAS1sOS3r9yr9dZ1CROlmJGzoSfH65WFTlT5cANcinuf0/XgherAy6YehC
NDMCAwEAAaOByzCByDAdBgNVHQ4EFgQUmTis3t0XGeSdkgL9AU1AxSxOt0owHwYD
VR0jBBgwFoAUmTis3t0XGeSdkgL9AU1AxSxOt0owNwYIKwYBBQUHAQEEKzApMCcG
CCsGAQUFBzAChhtodHRwOi8vdXJsLWZvci1haWEvUm9vdC5jZXIwLAYDVR0fBCUw
IzAhoB+gHYYbaHR0cDovL3VybC1mb3ItY3JsL1Jvb3QuY3JsMA4GA1UdDwEB/wQE
AwIBBjAPBgNVHRMBAf8EBTADAQH/MA0GCSqGSIb3DQEBCwUAA4IBAQBHpyTnHyk0
14464a+q0zsy9NZ97Kt8NFkLsTOAatQ2SnjTOtaXDYuBVAmRtTB5eOdSEbroV6/z
+PD/F5rj0KCJgVDoZ0ebtWjtmRAb1jFYJN10PIt2d0ajucq2Sz3KuVus55KM0/JK
uksvxhHPOBVZWvot0nIxj1SkfkSnJp0bOOCsdXKccUx4VICPdLcRsFzHaaUDHs1e
xc1gDoAyGQLgjLR25wCh5bwpMWGmVfByknhpbyYIlnG5QqnrzFSO1lUaJiygtabf
Uoah3ybaJobVF1vJm5DAbKsjGoIt/7aDrjzBw4VeSarW7/30SiJ8kLhGLhVjkwzF
LZ72MgNTEDA2
-----END TRUST_ANCHOR_UNCONSTRAINED-----

150302120000Z
-----BEGIN TIME-----
MTUwMzAyMTIwMDAwWg==
-----END TIME-----

SUCCESS
-----BEGIN VERIFY_RESULT-----
U1VDQ0VTUw==
-----END VERIFY_RESULT-----
