[Created by: generate-intermediate-lacks-basic-constraints.py]

Certificate chain with 1 intermediate and a trusted root. The intermediate
lacks the basic constraints extension, and hence is expected to fail validation
(RFC 5280 requires v3 signing certificates have a BasicConstaints).

Certificate:
    Data:
        Version: 3 (0x2)
        Serial Number: 1 (0x1)
    Signature Algorithm: sha256WithRSAEncryption
        Issuer: CN=Intermediate
        Validity
            Not Before: Jan  1 12:00:00 2015 GMT
            Not After : Jan  1 12:00:00 2016 GMT
        Subject: CN=Target
        Subject Public Key Info:
            Public Key Algorithm: rsaEncryption
                Public-Key: (2048 bit)
                Modulus:
                    00:bf:5a:8f:db:be:ba:83:5c:5a:e0:4a:66:41:a8:
                    39:80:40:e7:b5:92:a3:07:13:ec:65:a5:75:b2:2f:
                    9a:aa:c7:1f:8f:64:8e:6c:e0:8e:4f:2b:af:95:c0:
                    f3:86:17:46:1b:b4:1d:7a:f1:fe:32:f8:58:29:da:
                    22:31:20:8b:0f:45:be:81:80:2b:a7:25:e6:d2:fc:
                    46:fe:fe:83:b6:55:d3:32:9c:64:f5:a3:0e:ef:5a:
                    2f:ad:83:fd:44:76:7d:33:42:ef:0a:cd:fd:b0:d3:
                    2d:70:93:44:25:75:24:61:2e:d1:e2:e6:d4:17:9a:
                    42:ff:a1:67:23:9d:4b:2a:a3:e9:ba:aa:c3:9e:54:
                    12:09:8b:d8:4a:8d:22:8c:6f:b8:92:84:4b:fa:7b:
                    07:e1:82:da:a4:1d:7f:3a:d3:7d:cd:76:e0:90:41:
                    87:c9:56:39:14:30:b4:2c:1b:7d:dc:4b:48:03:cd:
                    3c:88:9a:6d:08:97:8c:01:14:14:06:f7:2a:cd:76:
                    2e:ba:74:af:76:b8:3c:dc:83:a4:9e:ab:ab:93:0e:
                    61:2e:6c:2d:18:97:95:c5:29:e6:f4:c9:96:09:d4:
                    12:ce:39:a9:1a:40:ad:c0:54:4c:fc:41:07:15:1e:
                    cd:cd:0b:9c:e0:03:af:e6:b0:b6:7a:35:fa:7c:70:
                    b3:cf
                Exponent: 65537 (0x10001)
        X509v3 extensions:
            X509v3 Subject Key Identifier: 
                A4:58:36:4B:8C:71:D3:FA:D3:04:1A:BC:36:D9:CC:78:1C:C1:E0:D6
            X509v3 Authority Key Identifier: 
                keyid:89:51:1E:D6:EA:B6:84:32:05:F0:15:A9:39:24:C0:46:25:5F:FB:8A

            Authority Information Access: 
                CA Issuers - URI:http://url-for-aia/Intermediate.cer

            X509v3 CRL Distribution Points: 

                Full Name:
                  URI:http://url-for-crl/Intermediate.crl

            X509v3 Key Usage: critical
                Digital Signature, Key Encipherment
            X509v3 Extended Key Usage: 
                TLS Web Server Authentication, TLS Web Client Authentication
    Signature Algorithm: sha256WithRSAEncryption
         8d:4b:a8:5d:f6:9a:e0:3d:6d:e5:78:57:26:00:b6:90:4d:f6:
         38:ae:30:a2:40:5e:1f:42:43:fd:2e:34:f3:03:c8:e1:e3:a5:
         17:34:37:81:f6:8d:8f:af:7b:ff:4b:5c:dd:27:0e:58:69:ba:
         46:a9:b1:31:8d:d1:b2:f7:1d:6b:ea:25:9e:00:ce:93:89:5a:
         9f:66:e1:48:1e:56:97:4e:76:60:42:c8:c9:6d:f5:dd:d2:58:
         12:d2:4a:71:85:2b:b8:df:6c:1f:ff:8e:e9:25:15:a5:d2:b4:
         82:00:59:e5:1e:9e:bd:8e:30:6f:b7:b8:b4:08:c2:85:4f:77:
         c8:66:8a:33:a4:bf:ed:13:3a:85:5f:90:1c:f4:e5:35:8f:5b:
         57:14:e4:04:e1:4e:1c:79:74:a6:2f:c3:a7:6b:d4:29:fa:d0:
         12:b9:e1:3c:94:8f:f0:49:b4:01:7b:df:87:a2:8d:e8:f1:72:
         a7:95:b2:a0:de:41:85:87:3f:01:cf:1d:77:2f:ac:17:e1:35:
         6e:4b:9e:64:a3:3e:30:e3:e3:9c:32:e9:de:4a:e3:b8:7d:12:
         36:0a:e6:bf:36:38:85:2d:df:f2:57:e4:ad:c4:f9:7f:fa:62:
         42:c2:b6:ad:3e:ae:9c:6d:aa:3d:d1:02:86:9a:4d:40:ef:9d:
         1c:71:6f:04
-----BEGIN CERTIFICATE-----
MIIDjTCCAnWgAwIBAgIBATANBgkqhkiG9w0BAQsFADAXMRUwEwYDVQQDDAxJbnRl
cm1lZGlhdGUwHhcNMTUwMTAxMTIwMDAwWhcNMTYwMTAxMTIwMDAwWjARMQ8wDQYD
VQQDDAZUYXJnZXQwggEiMA0GCSqGSIb3DQEBAQUAA4IBDwAwggEKAoIBAQC/Wo/b
vrqDXFrgSmZBqDmAQOe1kqMHE+xlpXWyL5qqxx+PZI5s4I5PK6+VwPOGF0YbtB16
8f4y+Fgp2iIxIIsPRb6BgCunJebS/Eb+/oO2VdMynGT1ow7vWi+tg/1Edn0zQu8K
zf2w0y1wk0QldSRhLtHi5tQXmkL/oWcjnUsqo+m6qsOeVBIJi9hKjSKMb7iShEv6
ewfhgtqkHX86033NduCQQYfJVjkUMLQsG33cS0gDzTyImm0Il4wBFBQG9yrNdi66
dK92uDzcg6Seq6uTDmEubC0Yl5XFKeb0yZYJ1BLOOakaQK3AVEz8QQcVHs3NC5zg
A6/msLZ6Nfp8cLPPAgMBAAGjgekwgeYwHQYDVR0OBBYEFKRYNkuMcdP60wQavDbZ
zHgcweDWMB8GA1UdIwQYMBaAFIlRHtbqtoQyBfAVqTkkwEYlX/uKMD8GCCsGAQUF
BwEBBDMwMTAvBggrBgEFBQcwAoYjaHR0cDovL3VybC1mb3ItYWlhL0ludGVybWVk
aWF0ZS5jZXIwNAYDVR0fBC0wKzApoCegJYYjaHR0cDovL3VybC1mb3ItY3JsL0lu
dGVybWVkaWF0ZS5jcmwwDgYDVR0PAQH/BAQDAgWgMB0GA1UdJQQWMBQGCCsGAQUF
BwMBBggrBgEFBQcDAjANBgkqhkiG9w0BAQsFAAOCAQEAjUuoXfaa4D1t5XhXJgC2
kE32OK4wokBeH0JD/S408wPI4eOlFzQ3gfaNj697/0tc3ScOWGm6RqmxMY3Rsvcd
a+olngDOk4lan2bhSB5Wl052YELIyW313dJYEtJKcYUruN9sH/+O6SUVpdK0ggBZ
5R6evY4wb7e4tAjChU93yGaKM6S/7RM6hV+QHPTlNY9bVxTkBOFOHHl0pi/Dp2vU
KfrQErnhPJSP8Em0AXvfh6KN6PFyp5WyoN5BhYc/Ac8ddy+sF+E1bkueZKM+MOPj
nDLp3krjuH0SNgrmvzY4hS3f8lfkrcT5f/piQsK2rT6unG2qPdEChppNQO+dHHFv
BA==
-----END CERTIFICATE-----

Certificate:
    Data:
        Version: 3 (0x2)
        Serial Number: 2 (0x2)
    Signature Algorithm: sha256WithRSAEncryption
        Issuer: CN=Root
        Validity
            Not Before: Jan  1 12:00:00 2015 GMT
            Not After : Jan  1 12:00:00 2016 GMT
        Subject: CN=Intermediate
        Subject Public Key Info:
            Public Key Algorithm: rsaEncryption
                Public-Key: (2048 bit)
                Modulus:
                    00:df:57:52:0b:c1:38:ec:8a:61:d8:2f:9c:fd:66:
                    0f:34:ab:e1:b3:fd:70:90:04:71:47:1a:3f:aa:44:
                    57:c4:a9:c2:18:64:c1:3e:5d:aa:6c:b2:0f:48:53:
                    d2:9e:08:2b:e6:ff:b1:57:3f:39:d4:7d:81:b7:69:
                    0a:4d:5d:5c:2d:17:17:81:89:77:84:b8:1c:f5:31:
                    a5:40:6c:6f:e9:e2:52:80:39:e9:71:95:b9:54:8b:
                    5a:0d:18:05:fa:c5:6d:9d:27:c9:27:bd:7d:36:5f:
                    ac:a0:42:a0:ce:66:06:6a:e0:57:9f:e2:c5:de:54:
                    f0:e5:ec:89:f0:4f:6d:7b:70:2b:6e:c1:2b:ee:4c:
                    37:91:43:40:e5:d6:ad:64:a4:a0:b8:29:37:8c:4d:
                    01:2d:85:4f:06:8e:37:ba:5c:dc:96:f8:f5:37:62:
                    5d:00:f5:85:ed:91:19:9d:cc:9a:ae:ce:7b:53:d4:
                    5e:42:9a:5a:2c:fb:e1:7a:79:55:81:4e:b5:51:2d:
                    b6:ad:10:f1:36:3e:fe:25:31:07:3c:7d:df:f6:3c:
                    bc:e3:57:4d:e0:50:6d:d5:48:53:d1:4c:a4:c6:77:
                    93:ac:be:e1:c9:3f:d3:f4:f8:3a:19:59:29:ff:46:
                    5a:b6:3e:da:69:91:4d:c7:dc:27:ac:5f:ca:e4:be:
                    99:6d
                Exponent: 65537 (0x10001)
        X509v3 extensions:
            X509v3 Subject Key Identifier: 
                89:51:1E:D6:EA:B6:84:32:05:F0:15:A9:39:24:C0:46:25:5F:FB:8A
            X509v3 Authority Key Identifier: 
                keyid:91:4D:6E:E7:EC:8F:13:8D:84:C8:44:2E:23:E9:BA:B1:A6:6D:44:96

            Authority Information Access: 
                CA Issuers - URI:http://url-for-aia/Root.cer

            X509v3 CRL Distribution Points: 

                Full Name:
                  URI:http://url-for-crl/Root.crl

            X509v3 Key Usage: critical
                Certificate Sign, CRL Sign
    Signature Algorithm: sha256WithRSAEncryption
         4b:c2:17:9e:2e:d2:af:2a:32:48:01:ca:5c:ec:24:2d:cc:81:
         49:b9:86:3a:83:5e:23:9a:b6:8b:46:e8:43:04:20:9b:23:43:
         b1:e2:a8:93:f0:1f:92:b6:5a:74:64:c1:df:29:20:40:39:fb:
         d3:91:61:5b:40:e5:b0:95:6c:20:1a:b1:b9:ef:e6:1c:1c:dd:
         61:78:86:12:7e:c2:59:d3:ed:3c:15:df:53:55:38:55:5d:b1:
         7e:b0:52:9e:4f:dc:c2:60:66:8b:c5:1e:b6:9e:59:88:b5:cb:
         07:94:d7:09:72:11:87:b3:16:d9:e7:10:c4:08:a0:48:51:e4:
         b5:08:e2:30:d2:cd:7a:17:b0:be:af:ee:d1:fc:5c:a2:76:5e:
         8e:f7:e1:c6:86:0a:8d:a9:41:86:8e:8d:08:44:69:a1:1b:c4:
         94:59:41:dc:db:52:a6:41:36:63:7e:7e:53:26:a4:71:5a:c4:
         41:ef:72:2a:1d:cd:1e:4a:df:7b:0a:5b:55:13:4e:80:34:34:
         0b:44:7e:cb:40:ed:34:54:c9:53:1c:0a:9f:39:a5:b6:92:32:
         83:b2:8e:55:4c:f7:2d:91:b0:99:dc:15:32:ea:59:3a:bd:d7:
         15:f6:09:a7:57:77:a7:64:e6:a6:87:ac:4f:46:e3:f8:e5:6a:
         0b:41:c0:82
-----BEGIN CERTIFICATE-----
MIIDXDCCAkSgAwIBAgIBAjANBgkqhkiG9w0BAQsFADAPMQ0wCwYDVQQDDARSb290
MB4XDTE1MDEwMTEyMDAwMFoXDTE2MDEwMTEyMDAwMFowFzEVMBMGA1UEAwwMSW50
ZXJtZWRpYXRlMIIBIjANBgkqhkiG9w0BAQEFAAOCAQ8AMIIBCgKCAQEA31dSC8E4
7Iph2C+c/WYPNKvhs/1wkARxRxo/qkRXxKnCGGTBPl2qbLIPSFPSnggr5v+xVz85
1H2Bt2kKTV1cLRcXgYl3hLgc9TGlQGxv6eJSgDnpcZW5VItaDRgF+sVtnSfJJ719
Nl+soEKgzmYGauBXn+LF3lTw5eyJ8E9te3ArbsEr7kw3kUNA5datZKSguCk3jE0B
LYVPBo43ulzclvj1N2JdAPWF7ZEZncyars57U9ReQppaLPvhenlVgU61US22rRDx
Nj7+JTEHPH3f9jy841dN4FBt1UhT0UykxneTrL7hyT/T9Pg6GVkp/0Zatj7aaZFN
x9wnrF/K5L6ZbQIDAQABo4G6MIG3MB0GA1UdDgQWBBSJUR7W6raEMgXwFak5JMBG
JV/7ijAfBgNVHSMEGDAWgBSRTW7n7I8TjYTIRC4j6bqxpm1EljA3BggrBgEFBQcB
AQQrMCkwJwYIKwYBBQUHMAKGG2h0dHA6Ly91cmwtZm9yLWFpYS9Sb290LmNlcjAs
BgNVHR8EJTAjMCGgH6AdhhtodHRwOi8vdXJsLWZvci1jcmwvUm9vdC5jcmwwDgYD
VR0PAQH/BAQDAgEGMA0GCSqGSIb3DQEBCwUAA4IBAQBLwheeLtKvKjJIAcpc7CQt
zIFJuYY6g14jmraLRuhDBCCbI0Ox4qiT8B+Stlp0ZMHfKSBAOfvTkWFbQOWwlWwg
GrG57+YcHN1heIYSfsJZ0+08Fd9TVThVXbF+sFKeT9zCYGaLxR62nlmItcsHlNcJ
chGHsxbZ5xDECKBIUeS1COIw0s16F7C+r+7R/Fyidl6O9+HGhgqNqUGGjo0IRGmh
G8SUWUHc21KmQTZjfn5TJqRxWsRB73IqHc0eSt97CltVE06ANDQLRH7LQO00VMlT
HAqfOaW2kjKDso5VTPctkbCZ3BUy6lk6vdcV9gmnV3enZOamh6xPRuP45WoLQcCC
-----END CERTIFICATE-----

Certificate:
    Data:
        Version: 3 (0x2)
        Serial Number: 1 (0x1)
    Signature Algorithm: sha256WithRSAEncryption
        Issuer: CN=Root
        Validity
            Not Before: Jan  1 12:00:00 2015 GMT
            Not After : Jan  1 12:00:00 2016 GMT
        Subject: CN=Root
        Subject Public Key Info:
            Public Key Algorithm: rsaEncryption
                Public-Key: (2048 bit)
                Modulus:
                    00:a0:05:db:73:c2:62:ce:b7:44:2a:d4:fa:15:84:
                    b6:22:26:47:86:56:7a:e1:d0:e9:d5:60:bb:f3:37:
                    79:79:21:c1:68:a1:db:d3:22:14:7a:04:15:0e:6c:
                    c3:1f:fe:0d:0d:b2:2e:6b:7a:19:63:f3:f8:e3:c9:
                    e9:63:8e:5b:47:98:7e:68:02:2b:e3:9a:e0:9b:04:
                    f5:04:a4:49:b9:f7:f4:e4:3d:86:34:72:62:e2:dd:
                    80:71:de:ba:6a:01:eb:a2:fb:db:1f:7c:57:b6:89:
                    2c:2d:5e:9e:3a:8d:4c:40:dc:96:9d:a4:4f:3a:e6:
                    e7:a4:63:1c:12:29:76:dd:2f:82:72:4a:d7:81:d6:
                    59:7a:88:8b:b0:7e:f4:b7:e9:5b:e1:86:8a:27:82:
                    92:77:bc:b3:38:92:93:13:59:07:5a:79:23:a9:af:
                    8c:3e:7f:c1:08:59:96:4c:4c:90:ca:0f:37:c6:52:
                    c6:bd:f4:64:8b:a4:f9:6b:dc:f5:f2:a0:62:d5:29:
                    79:9b:31:3a:6b:32:38:75:66:0a:55:9b:2d:b9:2b:
                    5d:72:bc:ec:28:d0:3c:26:3e:c4:f2:f8:a8:14:11:
                    dd:ca:3c:81:2f:20:55:4a:89:24:0e:77:d7:fa:36:
                    a7:d8:b1:c3:c1:b2:c6:c1:db:83:f0:1a:37:f8:95:
                    a2:dd
                Exponent: 65537 (0x10001)
        X509v3 extensions:
            X509v3 Subject Key Identifier: 
                91:4D:6E:E7:EC:8F:13:8D:84:C8:44:2E:23:E9:BA:B1:A6:6D:44:96
            X509v3 Authority Key Identifier: 
                keyid:91:4D:6E:E7:EC:8F:13:8D:84:C8:44:2E:23:E9:BA:B1:A6:6D:44:96

            Authority Information Access: 
                CA Issuers - URI:http://url-for-aia/Root.cer

            X509v3 CRL Distribution Points: 

                Full Name:
                  URI:http://url-for-crl/Root.crl

            X509v3 Key Usage: critical
                Certificate Sign, CRL Sign
            X509v3 Basic Constraints: critical
                CA:TRUE
    Signature Algorithm: sha256WithRSAEncryption
         63:d1:10:02:d6:c9:15:54:98:5d:1e:fb:fe:43:46:f7:43:91:
         b2:e2:68:75:1d:7c:0a:b5:85:5d:22:70:dc:89:3b:72:91:3d:
         6b:d6:90:ac:a8:ec:c9:d9:03:03:93:90:7d:ed:f9:47:b9:c4:
         93:61:eb:e0:99:eb:56:7e:ce:2b:9b:9f:3f:1d:22:b9:97:19:
         47:c3:60:33:38:af:cc:7d:19:34:42:c8:fe:26:28:af:31:1d:
         e8:36:85:c8:67:0f:f3:e0:8e:6c:2b:52:1b:32:05:e5:b5:d8:
         8c:e9:d5:43:ab:12:6b:4d:da:cc:27:11:01:1f:f4:9a:50:96:
         cb:f7:29:24:cc:d3:3f:a6:c9:01:d1:9c:e3:8c:f8:3f:ce:91:
         d7:ed:68:67:40:03:29:93:ed:0c:c1:5d:83:31:e9:12:df:96:
         a9:0e:44:9d:e5:7f:75:1b:15:58:71:ac:e5:32:ee:d6:5d:9f:
         19:11:7b:d7:5d:0c:62:f3:ab:0c:e9:a3:6a:ee:f3:c1:d7:c7:
         3a:87:9e:61:f3:20:3e:70:d4:8e:2a:1f:b0:1d:3d:f0:0c:93:
         10:ff:91:c7:5e:1a:48:c5:11:b3:89:29:2a:c1:21:f4:d3:1e:
         be:33:bc:a0:85:37:74:0b:87:f4:53:94:fc:71:35:b8:9b:f9:
         8d:c4:f0:86
-----BEGIN TRUST_ANCHOR_UNCONSTRAINED-----
MIIDZTCCAk2gAwIBAgIBATANBgkqhkiG9w0BAQsFADAPMQ0wCwYDVQQDDARSb290
MB4XDTE1MDEwMTEyMDAwMFoXDTE2MDEwMTEyMDAwMFowDzENMAsGA1UEAwwEUm9v
dDCCASIwDQYJKoZIhvcNAQEBBQADggEPADCCAQoCggEBAKAF23PCYs63RCrU+hWE
tiImR4ZWeuHQ6dVgu/M3eXkhwWih29MiFHoEFQ5swx/+DQ2yLmt6GWPz+OPJ6WOO
W0eYfmgCK+Oa4JsE9QSkSbn39OQ9hjRyYuLdgHHeumoB66L72x98V7aJLC1enjqN
TEDclp2kTzrm56RjHBIpdt0vgnJK14HWWXqIi7B+9LfpW+GGiieCkne8sziSkxNZ
B1p5I6mvjD5/wQhZlkxMkMoPN8ZSxr30ZIuk+Wvc9fKgYtUpeZsxOmsyOHVmClWb
LbkrXXK87CjQPCY+xPL4qBQR3co8gS8gVUqJJA531/o2p9ixw8GyxsHbg/AaN/iV
ot0CAwEAAaOByzCByDAdBgNVHQ4EFgQUkU1u5+yPE42EyEQuI+m6saZtRJYwHwYD
VR0jBBgwFoAUkU1u5+yPE42EyEQuI+m6saZtRJYwNwYIKwYBBQUHAQEEKzApMCcG
CCsGAQUFBzAChhtodHRwOi8vdXJsLWZvci1haWEvUm9vdC5jZXIwLAYDVR0fBCUw
IzAhoB+gHYYbaHR0cDovL3VybC1mb3ItY3JsL1Jvb3QuY3JsMA4GA1UdDwEB/wQE
AwIBBjAPBgNVHRMBAf8EBTADAQH/MA0GCSqGSIb3DQEBCwUAA4IBAQBj0RAC1skV
VJhdHvv+Q0b3Q5Gy4mh1HXwKtYVdInDciTtykT1r1pCsqOzJ2QMDk5B97flHucST
YevgmetWfs4rm58/HSK5lxlHw2AzOK/MfRk0Qsj+JiivMR3oNoXIZw/z4I5sK1Ib
MgXltdiM6dVDqxJrTdrMJxEBH/SaUJbL9ykkzNM/pskB0ZzjjPg/zpHX7WhnQAMp
k+0MwV2DMekS35apDkSd5X91GxVYcazlMu7WXZ8ZEXvXXQxi86sM6aNq7vPB18c6
h55h8yA+cNSOKh+wHT3wDJMQ/5HHXhpIxRGziSkqwSH00x6+M7yghTd0C4f0U5T8
cTW4m/mNxPCG
-----END TRUST_ANCHOR_UNCONSTRAINED-----

150302120000Z
-----BEGIN TIME-----
MTUwMzAyMTIwMDAwWg==
-----END TIME-----

FAIL
-----BEGIN VERIFY_RESULT-----
RkFJTA==
-----END VERIFY_RESULT-----

serverAuth
-----BEGIN KEY_PURPOSE-----
c2VydmVyQXV0aA==
-----END KEY_PURPOSE-----

----- Certificate i=1 (CN=Intermediate) -----
ERROR: Does not have Basic Constraints


-----BEGIN ERRORS-----
LS0tLS0gQ2VydGlmaWNhdGUgaT0xIChDTj1JbnRlcm1lZGlhdGUpIC0tLS0tCkVSUk9SOiBEb2VzIG5vdCBoYXZlIEJhc2ljIENvbnN0cmFpbnRzCgo=
-----END ERRORS-----
