[Created by: generate-intermediate-basic-constraints-ca-false.py]

Certificate chain with 1 intermediate and a trusted root. The intermediate
has a basic constraints extension that indicates it is NOT a CA. Verification
is expected to fail.

Certificate:
    Data:
        Version: 3 (0x2)
        Serial Number: 1 (0x1)
    Signature Algorithm: sha256WithRSAEncryption
        Issuer: CN=Intermediate
        Validity
            Not Before: Jan  1 12:00:00 2015 GMT
            Not After : Jan  1 12:00:00 2016 GMT
        Subject: CN=Target
        Subject Public Key Info:
            Public Key Algorithm: rsaEncryption
                Public-Key: (2048 bit)
                Modulus:
                    00:eb:2f:b6:14:8e:0e:51:b5:d4:2f:0d:ff:fd:3b:
                    e1:3b:c3:a1:2e:a4:4f:b2:c8:98:3f:95:c3:41:18:
                    7e:04:f1:03:26:cd:f4:80:4e:82:3c:d2:e9:3c:53:
                    7f:b6:ab:34:34:a2:e3:31:80:09:d3:07:4c:c4:ac:
                    b8:59:e2:36:ac:59:f5:10:59:b4:94:71:a3:aa:3b:
                    82:fb:98:83:22:3a:81:28:07:eb:df:c1:eb:95:15:
                    13:7a:3f:31:fc:64:2c:c1:e3:2b:64:4c:34:af:21:
                    e9:dd:0d:88:00:38:10:87:67:9e:a9:1f:01:32:c6:
                    24:61:86:20:36:ac:8c:95:30:98:9b:4f:f7:2b:c2:
                    67:43:fb:6a:8e:7e:a2:4b:34:cd:05:60:67:f3:16:
                    df:c9:53:de:4e:70:91:d3:ff:1a:c6:81:82:48:01:
                    3e:a1:f5:89:13:97:fd:41:fb:f0:19:12:90:08:f7:
                    5b:9e:79:a6:c9:11:73:be:98:9f:cd:06:dc:09:30:
                    b1:55:90:eb:c5:7c:5a:7c:69:18:75:99:99:07:e8:
                    95:0d:2f:31:b1:68:fe:f9:2e:2b:da:88:61:5f:0f:
                    1e:fa:d0:3c:43:64:c8:65:1b:6d:8e:b7:89:24:79:
                    e5:80:41:de:9b:22:ce:c5:bc:bd:1a:9f:f8:9f:43:
                    16:f9
                Exponent: 65537 (0x10001)
        X509v3 extensions:
            X509v3 Subject Key Identifier: 
                F2:AE:16:44:FF:CD:C4:8A:12:A7:83:1A:6F:ED:96:E6:83:92:AD:B2
            X509v3 Authority Key Identifier: 
                keyid:CC:76:BA:62:45:30:8F:0C:F1:16:BF:97:D6:1E:5F:0D:4A:E8:04:C4

            Authority Information Access: 
                CA Issuers - URI:http://url-for-aia/Intermediate.cer

            X509v3 CRL Distribution Points: 

                Full Name:
                  URI:http://url-for-crl/Intermediate.crl

            X509v3 Key Usage: critical
                Digital Signature, Key Encipherment
            X509v3 Extended Key Usage: 
                TLS Web Server Authentication, TLS Web Client Authentication
    Signature Algorithm: sha256WithRSAEncryption
         7f:a6:0e:b1:4a:2e:21:e7:f5:d6:a7:3c:c8:47:c1:89:4d:1c:
         e4:51:c2:3e:ba:7c:05:aa:ca:73:55:34:fc:e1:12:06:c3:26:
         6d:4e:22:53:71:b4:d4:55:1c:a4:86:5e:61:68:00:78:84:18:
         c3:8e:e1:c0:42:fe:7e:ed:57:be:4e:5b:e9:4b:8e:ce:8a:f4:
         93:7d:0d:73:4d:0c:7c:af:ac:14:bc:43:e3:6c:c5:bf:d8:1a:
         b8:15:55:98:27:9c:a2:a8:34:9e:64:1e:4a:f2:a2:82:60:36:
         57:ec:ab:8b:1e:17:0d:b8:82:32:ed:8e:c0:71:4c:27:94:6e:
         fc:74:5a:9e:d2:a3:47:11:d2:cb:2b:da:ca:fd:37:fc:33:1e:
         8d:a1:46:dd:3d:70:f9:d5:98:e1:4d:1b:09:44:2c:79:4e:db:
         39:25:8b:9f:97:9e:f7:11:4a:6d:e4:dc:fb:54:02:dd:39:a4:
         94:56:2b:e8:8d:18:21:a0:f3:91:cf:88:c2:2d:ac:2e:24:b3:
         d1:ff:39:1d:94:f3:8a:ca:ea:5b:cb:bc:11:03:01:ad:8c:cb:
         17:f5:8c:29:63:04:eb:52:9b:b8:a0:a2:2c:c5:d2:be:bc:fb:
         64:26:5e:01:a8:db:2e:dc:56:9c:88:0a:17:b4:76:47:14:1e:
         63:1f:49:69
-----BEGIN CERTIFICATE-----
MIIDjTCCAnWgAwIBAgIBATANBgkqhkiG9w0BAQsFADAXMRUwEwYDVQQDDAxJbnRl
cm1lZGlhdGUwHhcNMTUwMTAxMTIwMDAwWhcNMTYwMTAxMTIwMDAwWjARMQ8wDQYD
VQQDDAZUYXJnZXQwggEiMA0GCSqGSIb3DQEBAQUAA4IBDwAwggEKAoIBAQDrL7YU
jg5RtdQvDf/9O+E7w6EupE+yyJg/lcNBGH4E8QMmzfSAToI80uk8U3+2qzQ0ouMx
gAnTB0zErLhZ4jasWfUQWbSUcaOqO4L7mIMiOoEoB+vfweuVFRN6PzH8ZCzB4ytk
TDSvIendDYgAOBCHZ56pHwEyxiRhhiA2rIyVMJibT/crwmdD+2qOfqJLNM0FYGfz
Ft/JU95OcJHT/xrGgYJIAT6h9YkTl/1B+/AZEpAI91ueeabJEXO+mJ/NBtwJMLFV
kOvFfFp8aRh1mZkH6JUNLzGxaP75LivaiGFfDx760DxDZMhlG22Ot4kkeeWAQd6b
Is7FvL0an/ifQxb5AgMBAAGjgekwgeYwHQYDVR0OBBYEFPKuFkT/zcSKEqeDGm/t
luaDkq2yMB8GA1UdIwQYMBaAFMx2umJFMI8M8Ra/l9YeXw1K6ATEMD8GCCsGAQUF
BwEBBDMwMTAvBggrBgEFBQcwAoYjaHR0cDovL3VybC1mb3ItYWlhL0ludGVybWVk
aWF0ZS5jZXIwNAYDVR0fBC0wKzApoCegJYYjaHR0cDovL3VybC1mb3ItY3JsL0lu
dGVybWVkaWF0ZS5jcmwwDgYDVR0PAQH/BAQDAgWgMB0GA1UdJQQWMBQGCCsGAQUF
BwMBBggrBgEFBQcDAjANBgkqhkiG9w0BAQsFAAOCAQEAf6YOsUouIef11qc8yEfB
iU0c5FHCPrp8BarKc1U0/OESBsMmbU4iU3G01FUcpIZeYWgAeIQYw47hwEL+fu1X
vk5b6UuOzor0k30Nc00MfK+sFLxD42zFv9gauBVVmCecoqg0nmQeSvKigmA2V+yr
ix4XDbiCMu2OwHFMJ5Ru/HRantKjRxHSyyvayv03/DMejaFG3T1w+dWY4U0bCUQs
eU7bOSWLn5ee9xFKbeTc+1QC3TmklFYr6I0YIaDzkc+Iwi2sLiSz0f85HZTzisrq
W8u8EQMBrYzLF/WMKWME61KbuKCiLMXSvrz7ZCZeAajbLtxWnIgKF7R2RxQeYx9J
aQ==
-----END CERTIFICATE-----

Certificate:
    Data:
        Version: 3 (0x2)
        Serial Number: 2 (0x2)
    Signature Algorithm: sha256WithRSAEncryption
        Issuer: CN=Root
        Validity
            Not Before: Jan  1 12:00:00 2015 GMT
            Not After : Jan  1 12:00:00 2016 GMT
        Subject: CN=Intermediate
        Subject Public Key Info:
            Public Key Algorithm: rsaEncryption
                Public-Key: (2048 bit)
                Modulus:
                    00:c0:60:da:db:95:0d:0b:bd:bf:0d:7f:af:a5:83:
                    43:5e:08:ac:12:17:cd:f2:fd:70:3e:b5:33:7d:ce:
                    a7:1d:e9:4a:88:0c:83:76:71:78:38:65:91:76:70:
                    f8:8e:be:d0:cf:8f:41:82:0c:96:95:f8:90:fe:d2:
                    a6:99:58:07:f6:41:b2:eb:b0:41:8e:e2:7b:c2:26:
                    34:54:98:2e:c9:8d:df:98:1c:08:58:26:a6:9f:a2:
                    84:0e:90:1c:2d:7d:e5:01:bb:c0:cc:d1:06:b5:f3:
                    4d:61:8d:dd:cf:3c:ca:af:ac:97:c4:98:d4:4f:1c:
                    81:61:28:5c:08:77:bb:d2:b7:01:3c:e3:eb:78:95:
                    ad:0e:aa:14:18:6a:71:21:e2:12:45:df:e1:33:03:
                    03:de:2c:bc:9f:97:02:c6:cc:e0:fb:7c:05:37:6c:
                    ed:4c:84:08:b0:bc:31:a3:cd:4a:8f:1c:f6:a4:2b:
                    44:fa:7e:29:bd:41:76:b8:6b:cd:b4:cc:3d:1c:a1:
                    01:27:2a:e9:64:cf:4e:97:34:00:15:18:5b:dc:53:
                    a9:c5:c1:56:85:45:0e:e7:19:f5:b7:13:89:bc:7d:
                    b5:7e:59:13:13:c9:dc:a0:11:13:98:1c:e5:e8:f7:
                    be:37:84:99:ba:8c:22:3c:c4:59:4d:98:53:41:96:
                    6e:27
                Exponent: 65537 (0x10001)
        X509v3 extensions:
            X509v3 Subject Key Identifier: 
                CC:76:BA:62:45:30:8F:0C:F1:16:BF:97:D6:1E:5F:0D:4A:E8:04:C4
            X509v3 Authority Key Identifier: 
                keyid:C6:71:71:41:0E:54:09:71:C4:D2:63:01:B4:56:E1:D4:F0:3C:52:B3

            Authority Information Access: 
                CA Issuers - URI:http://url-for-aia/Root.cer

            X509v3 CRL Distribution Points: 

                Full Name:
                  URI:http://url-for-crl/Root.crl

            X509v3 Key Usage: critical
                Certificate Sign, CRL Sign
            X509v3 Basic Constraints: critical
                CA:FALSE
    Signature Algorithm: sha256WithRSAEncryption
         11:24:4f:5a:a7:66:92:de:89:08:f6:49:7d:0c:76:be:e2:5f:
         2f:1c:9d:f1:69:8a:f5:f7:5b:3b:24:83:40:51:06:67:61:40:
         e0:5a:64:26:70:53:3b:17:78:b4:07:3a:7c:b9:6a:44:88:f3:
         4f:2f:27:d1:1c:40:95:c4:0f:47:90:ee:da:87:f1:82:78:72:
         3f:86:f2:7e:2e:b4:d3:18:02:48:dd:a5:6f:5f:ac:a2:c0:f0:
         f6:50:6d:66:da:6f:8d:9b:b4:ce:df:fa:4f:13:e6:d3:c3:fd:
         ff:f5:72:fc:65:b8:78:19:b9:d5:00:d0:13:00:1d:1e:28:05:
         cc:dd:02:0d:48:20:24:b2:3a:1b:89:34:de:d9:24:fb:42:7f:
         8a:5a:97:23:04:00:5e:8a:eb:2f:39:c0:e6:dc:c7:1b:d9:be:
         12:df:1e:e9:62:9b:ff:cd:95:0e:9a:20:1b:6f:ae:e7:9f:33:
         78:95:9c:c8:1d:a2:9b:6e:52:ff:8a:85:94:4a:d5:98:40:a0:
         3e:ab:3a:a6:6f:21:ce:ef:06:5c:54:71:00:30:d0:aa:a6:25:
         dc:44:fc:75:ca:77:c4:84:50:4f:3b:f5:c4:b3:fc:31:00:fb:
         c2:f7:4b:6a:3b:7a:7c:34:89:fa:58:62:b3:a3:66:ea:b1:37:
         38:e1:24:49
-----BEGIN CERTIFICATE-----
MIIDajCCAlKgAwIBAgIBAjANBgkqhkiG9w0BAQsFADAPMQ0wCwYDVQQDDARSb290
MB4XDTE1MDEwMTEyMDAwMFoXDTE2MDEwMTEyMDAwMFowFzEVMBMGA1UEAwwMSW50
ZXJtZWRpYXRlMIIBIjANBgkqhkiG9w0BAQEFAAOCAQ8AMIIBCgKCAQEAwGDa25UN
C72/DX+vpYNDXgisEhfN8v1wPrUzfc6nHelKiAyDdnF4OGWRdnD4jr7Qz49BggyW
lfiQ/tKmmVgH9kGy67BBjuJ7wiY0VJguyY3fmBwIWCamn6KEDpAcLX3lAbvAzNEG
tfNNYY3dzzzKr6yXxJjUTxyBYShcCHe70rcBPOPreJWtDqoUGGpxIeISRd/hMwMD
3iy8n5cCxszg+3wFN2ztTIQIsLwxo81Kjxz2pCtE+n4pvUF2uGvNtMw9HKEBJyrp
ZM9OlzQAFRhb3FOpxcFWhUUO5xn1txOJvH21flkTE8ncoBETmBzl6Pe+N4SZuowi
PMRZTZhTQZZuJwIDAQABo4HIMIHFMB0GA1UdDgQWBBTMdrpiRTCPDPEWv5fWHl8N
SugExDAfBgNVHSMEGDAWgBTGcXFBDlQJccTSYwG0VuHU8DxSszA3BggrBgEFBQcB
AQQrMCkwJwYIKwYBBQUHMAKGG2h0dHA6Ly91cmwtZm9yLWFpYS9Sb290LmNlcjAs
BgNVHR8EJTAjMCGgH6AdhhtodHRwOi8vdXJsLWZvci1jcmwvUm9vdC5jcmwwDgYD
VR0PAQH/BAQDAgEGMAwGA1UdEwEB/wQCMAAwDQYJKoZIhvcNAQELBQADggEBABEk
T1qnZpLeiQj2SX0Mdr7iXy8cnfFpivX3Wzskg0BRBmdhQOBaZCZwUzsXeLQHOny5
akSI808vJ9EcQJXED0eQ7tqH8YJ4cj+G8n4utNMYAkjdpW9frKLA8PZQbWbab42b
tM7f+k8T5tPD/f/1cvxluHgZudUA0BMAHR4oBczdAg1IICSyOhuJNN7ZJPtCf4pa
lyMEAF6K6y85wObcxxvZvhLfHulim//NlQ6aIBtvruefM3iVnMgdoptuUv+KhZRK
1ZhAoD6rOqZvIc7vBlxUcQAw0KqmJdxE/HXKd8SEUE879cSz/DEA+8L3S2o7enw0
ifpYYrOjZuqxNzjhJEk=
-----END CERTIFICATE-----

Certificate:
    Data:
        Version: 3 (0x2)
        Serial Number: 1 (0x1)
    Signature Algorithm: sha256WithRSAEncryption
        Issuer: CN=Root
        Validity
            Not Before: Jan  1 12:00:00 2015 GMT
            Not After : Jan  1 12:00:00 2016 GMT
        Subject: CN=Root
        Subject Public Key Info:
            Public Key Algorithm: rsaEncryption
                Public-Key: (2048 bit)
                Modulus:
                    00:be:73:10:40:dd:65:86:31:5c:ae:42:67:6c:47:
                    fa:1c:5b:c5:22:46:fc:46:75:72:84:52:fe:f2:5a:
                    fd:96:65:80:75:ba:43:d5:1e:ff:d9:9e:b4:f2:d3:
                    c5:be:d6:b6:75:c9:33:e8:83:33:77:ec:17:90:e5:
                    30:56:a3:f3:00:ab:cb:e9:ae:f3:69:04:07:e3:1f:
                    11:ec:9f:78:b5:81:0a:ae:f5:52:bb:fb:ed:16:b4:
                    6e:c1:af:ca:0b:be:eb:39:af:d8:97:7d:ef:63:0d:
                    73:43:60:10:b0:71:9b:78:da:5f:19:a9:49:03:bf:
                    50:49:f3:8b:2c:93:a4:c0:f8:e5:67:0c:3d:28:9c:
                    51:f5:95:c9:7f:cc:be:6e:1a:3c:e4:20:cc:11:37:
                    48:a5:4f:54:36:23:67:80:cf:be:2e:66:d1:a8:d6:
                    83:cd:9d:40:a3:18:97:97:d5:98:d4:45:09:34:4c:
                    4d:f3:d1:03:44:90:4a:fd:86:df:9e:92:ba:b1:59:
                    9e:e1:e1:9d:1b:da:1e:a7:f0:9e:72:98:88:4c:cc:
                    1d:38:4f:d6:8f:05:53:55:67:31:c3:d1:34:3e:3b:
                    11:f4:c1:c6:63:77:17:64:dd:c6:b4:ab:bc:fd:c1:
                    1f:34:59:56:48:53:95:36:97:ca:02:d0:31:da:70:
                    70:c1
                Exponent: 65537 (0x10001)
        X509v3 extensions:
            X509v3 Subject Key Identifier: 
                C6:71:71:41:0E:54:09:71:C4:D2:63:01:B4:56:E1:D4:F0:3C:52:B3
            X509v3 Authority Key Identifier: 
                keyid:C6:71:71:41:0E:54:09:71:C4:D2:63:01:B4:56:E1:D4:F0:3C:52:B3

            Authority Information Access: 
                CA Issuers - URI:http://url-for-aia/Root.cer

            X509v3 CRL Distribution Points: 

                Full Name:
                  URI:http://url-for-crl/Root.crl

            X509v3 Key Usage: critical
                Certificate Sign, CRL Sign
            X509v3 Basic Constraints: critical
                CA:TRUE
    Signature Algorithm: sha256WithRSAEncryption
         a0:fe:16:79:26:b5:c1:85:54:21:49:ea:b6:0b:03:14:1f:bb:
         0c:e2:0c:35:d6:38:b6:0c:3e:39:d5:fb:5c:5d:db:73:99:1c:
         b7:26:e4:d8:1d:87:59:8c:33:77:e6:58:8b:ec:5c:a6:2d:06:
         c5:60:7d:c2:b3:dc:96:39:95:9e:12:06:19:2d:80:21:dc:cd:
         2c:d9:12:b4:9e:fc:e8:47:61:4e:bb:56:c5:19:62:01:bd:e4:
         70:60:91:6f:c6:5c:c8:e9:c0:af:a0:16:b9:20:cb:eb:19:9d:
         49:03:52:01:09:4b:7d:f0:20:cc:96:b6:e8:b0:4d:55:65:a9:
         dd:45:06:25:f6:54:37:8a:7a:81:c6:ce:65:18:99:a2:4b:e5:
         5a:29:5f:fc:24:6e:07:67:33:dc:70:2e:1f:02:57:53:47:c4:
         c9:2d:aa:dc:5c:d5:ce:16:30:8d:81:aa:fa:c3:92:cc:b6:a6:
         fc:cd:e8:d5:90:b6:46:a9:6b:7b:3a:64:1b:e8:a6:d1:b0:24:
         fd:e1:f5:be:d8:d8:e7:0b:f8:af:8b:9f:47:24:76:65:48:a7:
         56:40:b2:e3:1a:52:b4:ae:9b:86:01:1f:89:86:0b:c6:dd:1b:
         16:d2:6a:14:d4:de:35:19:9a:f0:7f:b2:96:56:ee:65:87:58:
         25:15:98:be
-----BEGIN TRUST_ANCHOR_UNCONSTRAINED-----
MIIDZTCCAk2gAwIBAgIBATANBgkqhkiG9w0BAQsFADAPMQ0wCwYDVQQDDARSb290
MB4XDTE1MDEwMTEyMDAwMFoXDTE2MDEwMTEyMDAwMFowDzENMAsGA1UEAwwEUm9v
dDCCASIwDQYJKoZIhvcNAQEBBQADggEPADCCAQoCggEBAL5zEEDdZYYxXK5CZ2xH
+hxbxSJG/EZ1coRS/vJa/ZZlgHW6Q9Ue/9metPLTxb7WtnXJM+iDM3fsF5DlMFaj
8wCry+mu82kEB+MfEeyfeLWBCq71Urv77Ra0bsGvygu+6zmv2Jd972MNc0NgELBx
m3jaXxmpSQO/UEnziyyTpMD45WcMPSicUfWVyX/Mvm4aPOQgzBE3SKVPVDYjZ4DP
vi5m0ajWg82dQKMYl5fVmNRFCTRMTfPRA0SQSv2G356SurFZnuHhnRvaHqfwnnKY
iEzMHThP1o8FU1VnMcPRND47EfTBxmN3F2TdxrSrvP3BHzRZVkhTlTaXygLQMdpw
cMECAwEAAaOByzCByDAdBgNVHQ4EFgQUxnFxQQ5UCXHE0mMBtFbh1PA8UrMwHwYD
VR0jBBgwFoAUxnFxQQ5UCXHE0mMBtFbh1PA8UrMwNwYIKwYBBQUHAQEEKzApMCcG
CCsGAQUFBzAChhtodHRwOi8vdXJsLWZvci1haWEvUm9vdC5jZXIwLAYDVR0fBCUw
IzAhoB+gHYYbaHR0cDovL3VybC1mb3ItY3JsL1Jvb3QuY3JsMA4GA1UdDwEB/wQE
AwIBBjAPBgNVHRMBAf8EBTADAQH/MA0GCSqGSIb3DQEBCwUAA4IBAQCg/hZ5JrXB
hVQhSeq2CwMUH7sM4gw11ji2DD451ftcXdtzmRy3JuTYHYdZjDN35liL7FymLQbF
YH3Cs9yWOZWeEgYZLYAh3M0s2RK0nvzoR2FOu1bFGWIBveRwYJFvxlzI6cCvoBa5
IMvrGZ1JA1IBCUt98CDMlrbosE1VZandRQYl9lQ3inqBxs5lGJmiS+VaKV/8JG4H
ZzPccC4fAldTR8TJLarcXNXOFjCNgar6w5LMtqb8zejVkLZGqWt7OmQb6KbRsCT9
4fW+2NjnC/ivi59HJHZlSKdWQLLjGlK0rpuGAR+JhgvG3RsW0moU1N41GZrwf7KW
Vu5lh1glFZi+
-----END TRUST_ANCHOR_UNCONSTRAINED-----

150302120000Z
-----BEGIN TIME-----
MTUwMzAyMTIwMDAwWg==
-----END TIME-----

FAIL
-----BEGIN VERIFY_RESULT-----
RkFJTA==
-----END VERIFY_RESULT-----

serverAuth
-----BEGIN KEY_PURPOSE-----
c2VydmVyQXV0aA==
-----END KEY_PURPOSE-----

----- Certificate i=1 (CN=Intermediate) -----
ERROR: Basic Constraints indicates not a CA


-----BEGIN ERRORS-----
LS0tLS0gQ2VydGlmaWNhdGUgaT0xIChDTj1JbnRlcm1lZGlhdGUpIC0tLS0tCkVSUk9SOiBCYXNpYyBDb25zdHJhaW50cyBpbmRpY2F0ZXMgbm90IGEgQ0EKCg==
-----END ERRORS-----
