[Created by: generate-intermediate-signed-with-md5.py]

Certificate chain with 1 intermediate and a trusted root. The intermediate
however is signed using the MD5 hash. Verification is expected to fail because
MD5 is too weak.

Certificate:
    Data:
        Version: 3 (0x2)
        Serial Number: 1 (0x1)
    Signature Algorithm: sha256WithRSAEncryption
        Issuer: CN=Intermediate
        Validity
            Not Before: Jan  1 12:00:00 2015 GMT
            Not After : Jan  1 12:00:00 2016 GMT
        Subject: CN=Target
        Subject Public Key Info:
            Public Key Algorithm: rsaEncryption
                Public-Key: (2048 bit)
                Modulus:
                    00:c4:84:2b:01:17:da:c2:19:ed:2c:f5:e5:d3:3a:
                    7c:e0:ae:b2:b7:08:77:73:10:3b:64:ed:d3:80:8e:
                    e6:30:bd:a7:36:de:8d:67:2e:f7:07:36:b3:3b:1e:
                    90:2e:f0:ae:e6:13:90:58:ef:c3:8d:c2:f7:cd:42:
                    5b:0d:45:0d:0e:67:c3:ee:e6:21:5b:e7:a7:f8:f2:
                    d7:82:d6:0e:be:49:bb:24:eb:7e:dc:7f:03:c1:58:
                    4a:0c:04:d4:d3:c2:f1:af:21:70:ad:d4:dd:82:ab:
                    da:fe:95:bb:cf:86:da:36:3d:b7:7b:6d:04:72:f3:
                    29:5c:f6:f5:c5:27:37:3c:68:99:3e:ec:91:dd:3f:
                    8c:79:db:9f:cc:66:1c:ad:5b:20:8f:61:64:39:91:
                    35:ef:ae:ac:4a:44:08:9c:62:5e:be:00:78:f4:90:
                    7e:b8:5a:88:d6:b7:24:fb:3e:05:0c:38:54:e8:9e:
                    3a:3c:5d:f6:8a:07:f1:d4:0f:db:fe:1f:07:4b:ed:
                    b0:84:a2:d6:fb:a3:6c:5e:9c:54:27:c0:c2:2a:06:
                    a2:d8:e1:fc:62:1e:55:c4:7c:24:fa:85:a9:c2:6b:
                    0c:cd:b6:76:43:55:c0:46:74:37:9c:3a:d2:82:a3:
                    d4:aa:3b:64:cc:8a:39:9f:37:0c:eb:fa:44:5e:49:
                    c2:07
                Exponent: 65537 (0x10001)
        X509v3 extensions:
            X509v3 Subject Key Identifier: 
                2E:E9:9C:97:E6:50:AF:13:B9:C3:CB:CE:21:70:CF:E6:C9:1D:E2:F6
            X509v3 Authority Key Identifier: 
                keyid:AF:9F:E8:B3:08:2D:62:FF:99:69:5A:52:FA:0E:FE:09:99:1B:03:BF

            Authority Information Access: 
                CA Issuers - URI:http://url-for-aia/Intermediate.cer

            X509v3 CRL Distribution Points: 

                Full Name:
                  URI:http://url-for-crl/Intermediate.crl

            X509v3 Key Usage: critical
                Digital Signature, Key Encipherment
            X509v3 Extended Key Usage: 
                TLS Web Server Authentication, TLS Web Client Authentication
    Signature Algorithm: sha256WithRSAEncryption
         50:bc:7d:72:3e:28:61:ab:86:50:31:4c:64:31:79:92:21:d0:
         e2:54:75:4f:6b:81:c1:f2:86:c7:a2:9f:9f:40:b8:56:72:8d:
         04:45:16:57:37:b0:34:28:10:4d:04:71:3d:bd:1c:c2:00:6b:
         38:74:69:2b:17:dd:dc:2e:29:98:e3:93:d6:21:2a:e5:0f:1a:
         55:94:78:38:37:b3:4a:f6:37:a1:68:3b:19:f3:56:81:6f:67:
         1a:08:ea:84:b7:37:78:64:84:5e:b3:2b:17:bd:5c:14:7d:bb:
         1a:00:2e:0e:00:99:fb:87:c3:8f:7a:fc:64:60:c8:83:f6:a7:
         d0:fc:7a:85:4c:dd:c0:ff:19:65:92:73:fa:e4:f2:99:7c:65:
         b4:0d:a8:d5:e1:2a:5d:e6:7c:2f:9a:72:c2:cb:e0:af:75:59:
         36:c7:ff:dc:40:d3:65:9b:6a:68:e8:ec:47:0c:a5:02:3c:de:
         c3:f4:44:c7:62:54:62:8a:24:b4:db:19:37:2f:98:28:ed:fb:
         92:4a:4b:16:85:ee:dd:b7:49:05:bc:84:7f:8e:c5:4f:e6:87:
         04:a2:1e:12:f7:b8:e0:d0:ca:ae:ea:34:3f:99:e2:42:60:15:
         f2:34:b8:d4:6f:7e:fa:f5:ba:76:98:49:3b:16:ca:36:51:65:
         02:d5:cc:8e
-----BEGIN CERTIFICATE-----
MIIDjTCCAnWgAwIBAgIBATANBgkqhkiG9w0BAQsFADAXMRUwEwYDVQQDDAxJbnRl
cm1lZGlhdGUwHhcNMTUwMTAxMTIwMDAwWhcNMTYwMTAxMTIwMDAwWjARMQ8wDQYD
VQQDDAZUYXJnZXQwggEiMA0GCSqGSIb3DQEBAQUAA4IBDwAwggEKAoIBAQDEhCsB
F9rCGe0s9eXTOnzgrrK3CHdzEDtk7dOAjuYwvac23o1nLvcHNrM7HpAu8K7mE5BY
78ONwvfNQlsNRQ0OZ8Pu5iFb56f48teC1g6+Sbsk637cfwPBWEoMBNTTwvGvIXCt
1N2Cq9r+lbvPhto2Pbd7bQRy8ylc9vXFJzc8aJk+7JHdP4x525/MZhytWyCPYWQ5
kTXvrqxKRAicYl6+AHj0kH64WojWtyT7PgUMOFTonjo8XfaKB/HUD9v+HwdL7bCE
otb7o2xenFQnwMIqBqLY4fxiHlXEfCT6hanCawzNtnZDVcBGdDecOtKCo9SqO2TM
ijmfNwzr+kReScIHAgMBAAGjgekwgeYwHQYDVR0OBBYEFC7pnJfmUK8TucPLziFw
z+bJHeL2MB8GA1UdIwQYMBaAFK+f6LMILWL/mWlaUvoO/gmZGwO/MD8GCCsGAQUF
BwEBBDMwMTAvBggrBgEFBQcwAoYjaHR0cDovL3VybC1mb3ItYWlhL0ludGVybWVk
aWF0ZS5jZXIwNAYDVR0fBC0wKzApoCegJYYjaHR0cDovL3VybC1mb3ItY3JsL0lu
dGVybWVkaWF0ZS5jcmwwDgYDVR0PAQH/BAQDAgWgMB0GA1UdJQQWMBQGCCsGAQUF
BwMBBggrBgEFBQcDAjANBgkqhkiG9w0BAQsFAAOCAQEAULx9cj4oYauGUDFMZDF5
kiHQ4lR1T2uBwfKGx6Kfn0C4VnKNBEUWVzewNCgQTQRxPb0cwgBrOHRpKxfd3C4p
mOOT1iEq5Q8aVZR4ODezSvY3oWg7GfNWgW9nGgjqhLc3eGSEXrMrF71cFH27GgAu
DgCZ+4fDj3r8ZGDIg/an0Px6hUzdwP8ZZZJz+uTymXxltA2o1eEqXeZ8L5pywsvg
r3VZNsf/3EDTZZtqaOjsRwylAjzew/REx2JUYooktNsZNy+YKO37kkpLFoXu3bdJ
BbyEf47FT+aHBKIeEve44NDKruo0P5niQmAV8jS41G9++vW6dphJOxbKNlFlAtXM
jg==
-----END CERTIFICATE-----

Certificate:
    Data:
        Version: 3 (0x2)
        Serial Number: 2 (0x2)
    Signature Algorithm: md5WithRSAEncryption
        Issuer: CN=Root
        Validity
            Not Before: Jan  1 12:00:00 2015 GMT
            Not After : Jan  1 12:00:00 2016 GMT
        Subject: CN=Intermediate
        Subject Public Key Info:
            Public Key Algorithm: rsaEncryption
                Public-Key: (2048 bit)
                Modulus:
                    00:df:eb:bf:48:cc:eb:45:fc:5e:33:cc:c3:37:cb:
                    9c:fb:81:43:05:8a:65:a6:a9:25:13:16:ff:2b:46:
                    0b:21:83:c4:ed:3e:f6:33:94:20:87:01:a9:8d:8a:
                    e9:c6:e6:a1:a3:40:2a:c4:8e:21:7a:e8:4b:c6:e8:
                    21:fc:0b:8f:2f:7b:a9:a4:1c:54:1f:fb:a5:a4:9d:
                    30:60:ff:44:e6:c1:bd:5e:71:d8:30:07:e0:35:a0:
                    30:c2:bb:7d:14:87:0c:82:84:77:7f:00:fa:9a:ec:
                    14:f6:54:91:98:5e:c2:b3:9c:23:f5:de:30:ae:24:
                    03:c1:25:bb:d3:f7:98:c8:c8:7a:f8:72:5d:28:82:
                    d8:b4:73:6a:9a:ce:ed:31:ed:b4:a0:ed:4f:f5:94:
                    60:f9:fb:c7:11:05:88:a1:cb:dd:f4:0f:6f:8a:bc:
                    ed:e5:f3:80:c3:48:b0:73:2f:6f:a7:42:26:00:31:
                    6d:8e:4b:63:f8:fa:36:03:7f:d2:17:e6:55:b3:0e:
                    a8:a1:4a:e2:b4:9c:4a:db:e7:71:6d:9b:21:3a:7f:
                    9f:31:94:b5:5f:d5:c2:c7:8f:9b:bc:fb:e9:19:3b:
                    85:ce:7b:00:2a:72:9b:59:0c:9b:a2:da:03:ba:91:
                    1a:5d:9f:59:a2:55:09:51:42:80:8f:5c:4e:1b:4b:
                    b6:09
                Exponent: 65537 (0x10001)
        X509v3 extensions:
            X509v3 Subject Key Identifier: 
                AF:9F:E8:B3:08:2D:62:FF:99:69:5A:52:FA:0E:FE:09:99:1B:03:BF
            X509v3 Authority Key Identifier: 
                keyid:71:AC:06:E4:64:D6:87:ED:C4:25:9C:B4:C1:47:55:53:A4:1D:C3:91

            Authority Information Access: 
                CA Issuers - URI:http://url-for-aia/Root.cer

            X509v3 CRL Distribution Points: 

                Full Name:
                  URI:http://url-for-crl/Root.crl

            X509v3 Key Usage: critical
                Certificate Sign, CRL Sign
            X509v3 Basic Constraints: critical
                CA:TRUE
    Signature Algorithm: md5WithRSAEncryption
         92:14:97:70:e2:7e:a2:bb:28:e7:32:2b:8f:6d:73:2c:21:c9:
         84:5a:52:94:2c:9c:f5:f9:e2:27:39:c2:81:7b:75:c6:ac:d3:
         ca:92:62:55:8f:f5:ab:a8:c0:bc:b6:50:3f:fc:a2:4b:1c:ef:
         64:6a:a2:b8:6c:c7:45:88:dd:45:3a:62:1c:85:9a:c3:a9:90:
         cd:ec:25:a9:3d:e2:ce:65:19:43:ca:e5:e6:fe:e4:23:26:c2:
         99:15:04:23:6e:52:57:9a:ac:1c:7b:cf:61:d9:ed:a9:d8:8c:
         5c:db:ee:89:31:91:04:8c:b6:9c:7c:ed:7b:21:2e:d4:51:59:
         84:f1:40:64:0c:57:df:7b:07:29:81:5f:96:f7:40:d7:05:2a:
         e1:8d:4f:2c:76:29:4a:33:63:8b:c4:ae:3d:1d:9c:37:7e:e2:
         4c:4e:f1:17:d0:cc:2d:89:60:9f:a7:8f:e0:51:95:8d:7f:94:
         9f:05:f9:a9:a6:f0:b8:56:ad:75:23:ca:27:8f:93:5c:c8:3a:
         44:20:a3:ed:52:90:7c:ae:23:d8:fc:d7:cf:bb:50:18:55:5e:
         56:83:cc:5f:91:95:62:c5:2f:b6:4e:55:41:dc:4b:34:cd:54:
         5c:01:fa:2e:ab:e8:7f:57:fe:c0:70:c0:00:d4:26:6e:47:6e:
         69:6d:7b:8a
-----BEGIN CERTIFICATE-----
MIIDbTCCAlWgAwIBAgIBAjANBgkqhkiG9w0BAQQFADAPMQ0wCwYDVQQDDARSb290
MB4XDTE1MDEwMTEyMDAwMFoXDTE2MDEwMTEyMDAwMFowFzEVMBMGA1UEAwwMSW50
ZXJtZWRpYXRlMIIBIjANBgkqhkiG9w0BAQEFAAOCAQ8AMIIBCgKCAQEA3+u/SMzr
RfxeM8zDN8uc+4FDBYplpqklExb/K0YLIYPE7T72M5QghwGpjYrpxuaho0AqxI4h
euhLxugh/AuPL3uppBxUH/ulpJ0wYP9E5sG9XnHYMAfgNaAwwrt9FIcMgoR3fwD6
muwU9lSRmF7Cs5wj9d4wriQDwSW70/eYyMh6+HJdKILYtHNqms7tMe20oO1P9ZRg
+fvHEQWIocvd9A9virzt5fOAw0iwcy9vp0ImADFtjktj+Po2A3/SF+ZVsw6ooUri
tJxK2+dxbZshOn+fMZS1X9XCx4+bvPvpGTuFznsAKnKbWQybotoDupEaXZ9ZolUJ
UUKAj1xOG0u2CQIDAQABo4HLMIHIMB0GA1UdDgQWBBSvn+izCC1i/5lpWlL6Dv4J
mRsDvzAfBgNVHSMEGDAWgBRxrAbkZNaH7cQlnLTBR1VTpB3DkTA3BggrBgEFBQcB
AQQrMCkwJwYIKwYBBQUHMAKGG2h0dHA6Ly91cmwtZm9yLWFpYS9Sb290LmNlcjAs
BgNVHR8EJTAjMCGgH6AdhhtodHRwOi8vdXJsLWZvci1jcmwvUm9vdC5jcmwwDgYD
VR0PAQH/BAQDAgEGMA8GA1UdEwEB/wQFMAMBAf8wDQYJKoZIhvcNAQEEBQADggEB
AJIUl3DifqK7KOcyK49tcywhyYRaUpQsnPX54ic5woF7dcas08qSYlWP9auowLy2
UD/8oksc72Rqorhsx0WI3UU6YhyFmsOpkM3sJak94s5lGUPK5eb+5CMmwpkVBCNu
UlearBx7z2HZ7anYjFzb7okxkQSMtpx87XshLtRRWYTxQGQMV997BymBX5b3QNcF
KuGNTyx2KUozY4vErj0dnDd+4kxO8RfQzC2JYJ+nj+BRlY1/lJ8F+amm8LhWrXUj
yiePk1zIOkQgo+1SkHyuI9j818+7UBhVXlaDzF+RlWLFL7ZOVUHcSzTNVFwB+i6r
6H9X/sBwwADUJm5Hbmlte4o=
-----END CERTIFICATE-----

Certificate:
    Data:
        Version: 3 (0x2)
        Serial Number: 1 (0x1)
    Signature Algorithm: sha256WithRSAEncryption
        Issuer: CN=Root
        Validity
            Not Before: Jan  1 12:00:00 2015 GMT
            Not After : Jan  1 12:00:00 2016 GMT
        Subject: CN=Root
        Subject Public Key Info:
            Public Key Algorithm: rsaEncryption
                Public-Key: (2048 bit)
                Modulus:
                    00:c8:77:60:23:34:2d:df:bf:ff:8f:8e:5f:df:c2:
                    a9:b9:21:69:87:91:1d:ef:8c:e6:be:0b:46:ab:27:
                    34:15:a1:a8:68:2f:73:76:da:8d:bc:d3:dd:43:0b:
                    b4:aa:c3:e4:b2:6b:d3:c6:a8:d8:84:4d:41:a3:d1:
                    d1:8c:7f:dc:3b:79:16:c5:f3:06:67:4f:aa:96:51:
                    fd:02:f3:b8:16:57:f7:30:37:f4:78:78:5c:42:06:
                    65:ba:d4:fa:e3:2c:db:fc:43:d8:64:e7:ca:c0:78:
                    12:6c:6c:4e:47:bc:db:d4:e4:95:da:ab:74:c2:46:
                    f6:94:ab:63:b2:89:6a:6b:05:25:c1:8a:a6:8a:ba:
                    bd:a1:a6:2c:dc:0d:44:72:89:a6:2f:03:3c:c1:d9:
                    de:21:1d:51:7c:46:e9:90:3e:cc:e3:82:35:69:73:
                    24:c0:78:73:0d:7c:52:21:82:38:fa:89:dc:e8:fb:
                    55:7d:52:9b:56:41:1a:24:7c:78:e5:aa:5a:41:67:
                    26:83:4f:ce:44:14:a2:1f:f1:5d:c8:79:57:72:97:
                    93:f8:d7:79:fe:11:64:6f:4e:e1:ea:fd:62:17:60:
                    26:1e:1a:2b:63:50:6e:ab:b0:84:26:76:8d:7f:2e:
                    b1:06:1d:72:cd:39:5c:e4:a8:77:ef:12:64:83:3c:
                    00:e9
                Exponent: 65537 (0x10001)
        X509v3 extensions:
            X509v3 Subject Key Identifier: 
                71:AC:06:E4:64:D6:87:ED:C4:25:9C:B4:C1:47:55:53:A4:1D:C3:91
            X509v3 Authority Key Identifier: 
                keyid:71:AC:06:E4:64:D6:87:ED:C4:25:9C:B4:C1:47:55:53:A4:1D:C3:91

            Authority Information Access: 
                CA Issuers - URI:http://url-for-aia/Root.cer

            X509v3 CRL Distribution Points: 

                Full Name:
                  URI:http://url-for-crl/Root.crl

            X509v3 Key Usage: critical
                Certificate Sign, CRL Sign
            X509v3 Basic Constraints: critical
                CA:TRUE
    Signature Algorithm: sha256WithRSAEncryption
         ab:13:60:41:86:ba:d3:84:bf:7d:5b:e0:a6:56:24:c2:e2:ac:
         4c:91:4c:cd:c5:81:c3:46:45:99:74:fb:c4:05:17:d0:68:e3:
         32:fa:b1:ff:d8:21:67:a7:15:91:7f:a1:68:45:08:78:1a:5b:
         d0:c2:47:72:93:98:1b:a1:b9:6a:ad:b9:a3:b0:1e:55:8f:b5:
         03:2e:3f:04:01:fc:d0:c9:8a:c6:28:08:26:37:06:e5:a2:19:
         90:37:2f:b8:e8:b5:56:16:27:32:a1:64:0c:23:29:86:e0:36:
         4d:bc:ee:dd:e0:63:21:3a:89:07:31:63:20:06:33:1e:7a:1c:
         99:25:e2:92:18:80:4a:0f:2c:cb:33:7a:54:20:9d:2a:d4:5f:
         2c:23:0a:5c:6b:e3:50:a8:cd:c9:d4:07:7d:c0:22:e5:12:a0:
         0e:b4:72:c5:93:76:64:b9:b9:37:9f:26:f8:99:0d:ad:c2:98:
         89:a5:e1:d5:07:cf:43:01:3b:df:2d:ea:e4:fd:e7:f6:4e:bb:
         d2:7c:30:2a:7b:4d:69:57:9b:61:3c:c7:94:d0:a9:de:0d:aa:
         50:de:9f:13:42:2f:f5:f6:3a:c1:5e:86:2b:a0:e1:a0:fd:43:
         8f:60:ed:ee:62:8c:23:e5:43:90:2e:fe:40:61:87:ea:9d:a0:
         2d:e0:59:77
-----BEGIN TRUST_ANCHOR_UNCONSTRAINED-----
MIIDZTCCAk2gAwIBAgIBATANBgkqhkiG9w0BAQsFADAPMQ0wCwYDVQQDDARSb290
MB4XDTE1MDEwMTEyMDAwMFoXDTE2MDEwMTEyMDAwMFowDzENMAsGA1UEAwwEUm9v
dDCCASIwDQYJKoZIhvcNAQEBBQADggEPADCCAQoCggEBAMh3YCM0Ld+//4+OX9/C
qbkhaYeRHe+M5r4LRqsnNBWhqGgvc3bajbzT3UMLtKrD5LJr08ao2IRNQaPR0Yx/
3Dt5FsXzBmdPqpZR/QLzuBZX9zA39Hh4XEIGZbrU+uMs2/xD2GTnysB4EmxsTke8
29TkldqrdMJG9pSrY7KJamsFJcGKpoq6vaGmLNwNRHKJpi8DPMHZ3iEdUXxG6ZA+
zOOCNWlzJMB4cw18UiGCOPqJ3Oj7VX1Sm1ZBGiR8eOWqWkFnJoNPzkQUoh/xXch5
V3KXk/jXef4RZG9O4er9YhdgJh4aK2NQbquwhCZ2jX8usQYdcs05XOSod+8SZIM8
AOkCAwEAAaOByzCByDAdBgNVHQ4EFgQUcawG5GTWh+3EJZy0wUdVU6Qdw5EwHwYD
VR0jBBgwFoAUcawG5GTWh+3EJZy0wUdVU6Qdw5EwNwYIKwYBBQUHAQEEKzApMCcG
CCsGAQUFBzAChhtodHRwOi8vdXJsLWZvci1haWEvUm9vdC5jZXIwLAYDVR0fBCUw
IzAhoB+gHYYbaHR0cDovL3VybC1mb3ItY3JsL1Jvb3QuY3JsMA4GA1UdDwEB/wQE
AwIBBjAPBgNVHRMBAf8EBTADAQH/MA0GCSqGSIb3DQEBCwUAA4IBAQCrE2BBhrrT
hL99W+CmViTC4qxMkUzNxYHDRkWZdPvEBRfQaOMy+rH/2CFnpxWRf6FoRQh4GlvQ
wkdyk5gboblqrbmjsB5Vj7UDLj8EAfzQyYrGKAgmNwblohmQNy+46LVWFicyoWQM
IymG4DZNvO7d4GMhOokHMWMgBjMeehyZJeKSGIBKDyzLM3pUIJ0q1F8sIwpca+NQ
qM3J1Ad9wCLlEqAOtHLFk3Zkubk3nyb4mQ2twpiJpeHVB89DATvfLerk/ef2TrvS
fDAqe01pV5thPMeU0KneDapQ3p8TQi/19jrBXoYroOGg/UOPYO3uYowj5UOQLv5A
YYfqnaAt4Fl3
-----END TRUST_ANCHOR_UNCONSTRAINED-----

150302120000Z
-----BEGIN TIME-----
MTUwMzAyMTIwMDAwWg==
-----END TIME-----

FAIL
-----BEGIN VERIFY_RESULT-----
RkFJTA==
-----END VERIFY_RESULT-----

serverAuth
-----BEGIN KEY_PURPOSE-----
c2VydmVyQXV0aA==
-----END KEY_PURPOSE-----

----- Certificate i=1 (CN=Intermediate) -----
ERROR: Unacceptable signature algorithm
ERROR: VerifySignedData failed


-----BEGIN ERRORS-----
LS0tLS0gQ2VydGlmaWNhdGUgaT0xIChDTj1JbnRlcm1lZGlhdGUpIC0tLS0tCkVSUk9SOiBVbmFjY2VwdGFibGUgc2lnbmF0dXJlIGFsZ29yaXRobQpFUlJPUjogVmVyaWZ5U2lnbmVkRGF0YSBmYWlsZWQKCg==
-----END ERRORS-----
