[Created by: generate-intermediate-lacks-signing-key-usage.py]

Certificate chain with 1 intermediate and a trusted root. The intermediate
contains a keyUsage extension, HOWEVER it does not contain the keyCertSign bit.
Hence validation is expected to fail.

Certificate:
    Data:
        Version: 3 (0x2)
        Serial Number: 1 (0x1)
    Signature Algorithm: sha256WithRSAEncryption
        Issuer: CN=Intermediate
        Validity
            Not Before: Jan  1 12:00:00 2015 GMT
            Not After : Jan  1 12:00:00 2016 GMT
        Subject: CN=Target
        Subject Public Key Info:
            Public Key Algorithm: rsaEncryption
                Public-Key: (2048 bit)
                Modulus:
                    00:c7:e4:5b:20:c1:2e:a1:89:32:d1:e5:80:0e:e3:
                    12:77:b7:98:35:d7:6b:ec:9e:9c:50:92:b2:9a:28:
                    b1:f6:e9:22:99:23:05:54:7d:67:de:8c:09:04:b7:
                    6f:93:95:d6:c7:c5:48:23:6e:d2:56:32:19:bb:ac:
                    b4:3d:3b:df:4b:40:85:48:25:2a:1b:22:c4:61:3b:
                    08:5c:26:89:63:e7:19:27:c5:58:3f:9b:4d:b2:ff:
                    b4:18:42:4d:7d:b5:a9:5a:4b:4b:46:1b:ce:bb:17:
                    0e:29:10:78:50:10:bd:d2:16:b6:63:be:94:21:c6:
                    e7:0b:d1:95:ea:d0:b5:ae:33:27:7e:02:0b:1b:4b:
                    85:9c:d7:9a:4c:d1:82:b6:8f:4d:25:e4:f0:25:96:
                    34:a7:f9:b5:e6:24:19:7c:56:54:de:b9:15:5e:39:
                    ec:bb:12:ff:57:ef:87:37:46:fa:61:bc:a5:4a:32:
                    6d:c3:35:b1:53:02:0b:cd:f1:6f:de:39:63:03:fe:
                    a1:b6:7a:67:a9:f6:d0:df:d0:24:ad:39:f0:d8:58:
                    e3:69:dd:6d:a5:ab:23:9f:be:ff:16:78:6a:0b:7e:
                    ac:82:b6:5a:d7:e9:e4:b4:3c:fa:4f:64:29:74:5a:
                    0d:fb:2e:d6:a0:c2:a8:86:3f:be:07:f7:1d:6e:ba:
                    10:d1
                Exponent: 65537 (0x10001)
        X509v3 extensions:
            X509v3 Subject Key Identifier: 
                82:4F:1E:35:E1:DD:95:CF:C7:D0:E7:CC:86:B7:EB:50:BF:33:62:07
            X509v3 Authority Key Identifier: 
                keyid:E6:A1:BA:DF:A4:01:75:1C:DE:59:26:D2:66:E6:AE:E7:8D:3E:13:C2

            Authority Information Access: 
                CA Issuers - URI:http://url-for-aia/Intermediate.cer

            X509v3 CRL Distribution Points: 

                Full Name:
                  URI:http://url-for-crl/Intermediate.crl

            X509v3 Key Usage: critical
                Digital Signature, Key Encipherment
            X509v3 Extended Key Usage: 
                TLS Web Server Authentication, TLS Web Client Authentication
    Signature Algorithm: sha256WithRSAEncryption
         4b:dc:3c:86:b5:53:1c:c6:e6:77:4d:41:cf:e8:1f:37:dd:33:
         8d:10:f9:1d:93:1d:41:96:86:79:7b:14:27:1b:70:80:10:96:
         ea:38:e5:e2:a2:91:4a:c0:a9:8b:de:49:3b:f1:74:c0:bc:ae:
         81:71:32:21:88:e5:2a:7d:41:d4:c0:e1:e7:0c:3a:d2:52:a5:
         1e:ca:19:32:c0:88:c5:16:36:cc:b6:7c:cf:af:98:b3:2d:f8:
         f8:40:08:16:52:00:ba:a2:3a:76:83:e8:cd:1d:95:d1:f1:67:
         ec:06:e2:71:1d:01:ef:bb:4e:30:73:26:ad:3a:ac:25:4e:b9:
         24:f9:9e:bb:72:b3:04:ba:ee:7e:16:bb:eb:42:66:04:14:48:
         5e:5a:7d:0b:b3:5e:40:22:6c:65:e1:5b:61:1b:b6:dd:d0:e4:
         5f:f8:b1:22:e1:d0:6c:d6:55:aa:a2:f5:9d:fa:62:f0:ab:4a:
         c4:91:db:e4:fd:7d:df:a7:02:87:5e:17:76:2e:96:56:45:56:
         cf:b2:2b:01:80:a4:81:9e:4e:a2:79:45:38:83:06:2e:61:ac:
         22:bb:41:86:b2:9c:9b:b9:1f:62:23:27:cc:d4:bc:06:df:3e:
         54:22:ed:69:02:e0:53:bc:ed:28:50:5d:82:fe:a6:8f:10:a2:
         cd:38:17:80
-----BEGIN CERTIFICATE-----
MIIDjTCCAnWgAwIBAgIBATANBgkqhkiG9w0BAQsFADAXMRUwEwYDVQQDDAxJbnRl
cm1lZGlhdGUwHhcNMTUwMTAxMTIwMDAwWhcNMTYwMTAxMTIwMDAwWjARMQ8wDQYD
VQQDDAZUYXJnZXQwggEiMA0GCSqGSIb3DQEBAQUAA4IBDwAwggEKAoIBAQDH5Fsg
wS6hiTLR5YAO4xJ3t5g112vsnpxQkrKaKLH26SKZIwVUfWfejAkEt2+TldbHxUgj
btJWMhm7rLQ9O99LQIVIJSobIsRhOwhcJolj5xknxVg/m02y/7QYQk19talaS0tG
G867Fw4pEHhQEL3SFrZjvpQhxucL0ZXq0LWuMyd+AgsbS4Wc15pM0YK2j00l5PAl
ljSn+bXmJBl8VlTeuRVeOey7Ev9X74c3RvphvKVKMm3DNbFTAgvN8W/eOWMD/qG2
emep9tDf0CStOfDYWONp3W2lqyOfvv8WeGoLfqyCtlrX6eS0PPpPZCl0Wg37Ltag
wqiGP74H9x1uuhDRAgMBAAGjgekwgeYwHQYDVR0OBBYEFIJPHjXh3ZXPx9DnzIa3
61C/M2IHMB8GA1UdIwQYMBaAFOahut+kAXUc3lkm0mbmrueNPhPCMD8GCCsGAQUF
BwEBBDMwMTAvBggrBgEFBQcwAoYjaHR0cDovL3VybC1mb3ItYWlhL0ludGVybWVk
aWF0ZS5jZXIwNAYDVR0fBC0wKzApoCegJYYjaHR0cDovL3VybC1mb3ItY3JsL0lu
dGVybWVkaWF0ZS5jcmwwDgYDVR0PAQH/BAQDAgWgMB0GA1UdJQQWMBQGCCsGAQUF
BwMBBggrBgEFBQcDAjANBgkqhkiG9w0BAQsFAAOCAQEAS9w8hrVTHMbmd01Bz+gf
N90zjRD5HZMdQZaGeXsUJxtwgBCW6jjl4qKRSsCpi95JO/F0wLyugXEyIYjlKn1B
1MDh5ww60lKlHsoZMsCIxRY2zLZ8z6+Ysy34+EAIFlIAuqI6doPozR2V0fFn7Abi
cR0B77tOMHMmrTqsJU65JPmeu3KzBLrufha760JmBBRIXlp9C7NeQCJsZeFbYRu2
3dDkX/ixIuHQbNZVqqL1nfpi8KtKxJHb5P1936cCh14Xdi6WVkVWz7IrAYCkgZ5O
onlFOIMGLmGsIrtBhrKcm7kfYiMnzNS8Bt8+VCLtaQLgU7ztKFBdgv6mjxCizTgX
gA==
-----END CERTIFICATE-----

Certificate:
    Data:
        Version: 3 (0x2)
        Serial Number: 2 (0x2)
    Signature Algorithm: sha256WithRSAEncryption
        Issuer: CN=Root
        Validity
            Not Before: Jan  1 12:00:00 2015 GMT
            Not After : Jan  1 12:00:00 2016 GMT
        Subject: CN=Intermediate
        Subject Public Key Info:
            Public Key Algorithm: rsaEncryption
                Public-Key: (2048 bit)
                Modulus:
                    00:9b:74:18:e4:63:39:09:24:c9:68:d2:cd:f3:7f:
                    29:14:e9:46:45:e6:ca:47:3f:b5:21:38:a8:f4:ac:
                    16:6c:51:16:b0:06:93:de:8a:b8:0e:28:02:52:bc:
                    19:f7:b3:c7:47:a8:d2:20:9b:30:f6:b4:e9:cc:25:
                    9e:30:f4:74:ed:73:1a:1c:4e:92:f8:8d:04:32:98:
                    36:85:34:24:7a:c5:3c:e1:bc:0d:c0:a2:7f:ff:65:
                    12:10:c0:19:6e:c1:cf:2f:04:90:b0:41:4c:42:42:
                    ed:8a:7a:5f:4c:67:79:6c:e5:15:ce:96:02:bc:73:
                    cd:4b:7a:e2:c6:54:ee:39:5b:74:39:df:b2:a9:8c:
                    81:94:b4:ae:05:a0:d2:05:65:68:ee:54:ff:0c:ab:
                    e2:d1:28:b4:4b:bc:5a:16:d1:84:24:5f:38:d3:7f:
                    7b:3e:92:ef:8a:4e:ba:d2:2b:fb:f4:df:35:e5:55:
                    82:d8:4a:5d:e6:49:4e:84:ee:bd:ea:a7:35:86:a8:
                    dc:43:02:af:a7:ca:3e:2f:c6:bc:7b:aa:07:7a:69:
                    cf:af:cb:63:89:9d:1d:6d:a8:b4:a1:64:29:bb:b7:
                    7c:bb:d5:b0:72:89:f5:f9:26:8c:e1:e1:6f:a9:ef:
                    d5:2c:66:ae:4e:c4:f5:31:ec:74:db:f9:a9:7f:86:
                    37:e1
                Exponent: 65537 (0x10001)
        X509v3 extensions:
            X509v3 Subject Key Identifier: 
                E6:A1:BA:DF:A4:01:75:1C:DE:59:26:D2:66:E6:AE:E7:8D:3E:13:C2
            X509v3 Authority Key Identifier: 
                keyid:57:30:6C:4F:34:D1:E0:27:4A:2F:E8:2A:EF:D3:75:01:24:6F:B5:FA

            Authority Information Access: 
                CA Issuers - URI:http://url-for-aia/Root.cer

            X509v3 CRL Distribution Points: 

                Full Name:
                  URI:http://url-for-crl/Root.crl

            X509v3 Key Usage: critical
                Digital Signature, Key Encipherment
            X509v3 Basic Constraints: critical
                CA:TRUE
    Signature Algorithm: sha256WithRSAEncryption
         5f:8c:fb:75:af:a0:cb:79:8e:c5:c9:6d:90:11:3d:a7:aa:12:
         ac:e9:22:15:b1:15:9a:8f:30:7b:5c:ad:f8:0a:df:38:69:4a:
         56:38:1b:ee:c4:af:63:26:13:10:40:ef:3d:42:d0:77:25:b4:
         54:59:05:72:d1:8d:61:d6:ad:7d:09:28:ba:a8:e1:99:aa:ae:
         3b:78:03:d9:56:80:23:5d:81:81:0f:96:ce:07:35:3e:cf:88:
         54:4d:7f:3c:5d:d0:03:93:3c:b7:76:9f:4d:51:37:4f:6b:8c:
         18:e2:ba:e4:4c:18:a2:c2:80:c4:a8:4d:b7:81:d4:99:9d:28:
         fe:ca:ab:a5:af:f1:0f:dd:13:84:47:be:fc:d2:88:47:d4:7c:
         be:aa:62:49:65:f2:b8:b1:4e:ad:7a:f3:e1:52:50:6b:3c:8e:
         07:df:d4:22:20:53:32:68:fa:0b:9c:8a:4a:e9:63:08:ee:eb:
         65:10:05:1d:9d:c1:2b:a3:22:4b:90:37:59:c5:9f:90:ac:8f:
         10:cb:76:3b:ca:1a:60:f5:a1:b1:26:24:05:92:2c:68:61:8e:
         03:ca:54:e6:f6:40:b2:bf:db:a8:18:9f:62:ad:05:10:e1:05:
         ce:be:2f:34:8c:1d:44:73:90:b3:4e:5b:7d:1a:2e:b6:2b:0f:
         79:da:15:4b
-----BEGIN CERTIFICATE-----
MIIDbTCCAlWgAwIBAgIBAjANBgkqhkiG9w0BAQsFADAPMQ0wCwYDVQQDDARSb290
MB4XDTE1MDEwMTEyMDAwMFoXDTE2MDEwMTEyMDAwMFowFzEVMBMGA1UEAwwMSW50
ZXJtZWRpYXRlMIIBIjANBgkqhkiG9w0BAQEFAAOCAQ8AMIIBCgKCAQEAm3QY5GM5
CSTJaNLN838pFOlGRebKRz+1ITio9KwWbFEWsAaT3oq4DigCUrwZ97PHR6jSIJsw
9rTpzCWeMPR07XMaHE6S+I0EMpg2hTQkesU84bwNwKJ//2USEMAZbsHPLwSQsEFM
QkLtinpfTGd5bOUVzpYCvHPNS3rixlTuOVt0Od+yqYyBlLSuBaDSBWVo7lT/DKvi
0Si0S7xaFtGEJF840397PpLvik660iv79N815VWC2Epd5klOhO696qc1hqjcQwKv
p8o+L8a8e6oHemnPr8tjiZ0dbai0oWQpu7d8u9Wwcon1+SaM4eFvqe/VLGauTsT1
Mex02/mpf4Y34QIDAQABo4HLMIHIMB0GA1UdDgQWBBTmobrfpAF1HN5ZJtJm5q7n
jT4TwjAfBgNVHSMEGDAWgBRXMGxPNNHgJ0ov6Crv03UBJG+1+jA3BggrBgEFBQcB
AQQrMCkwJwYIKwYBBQUHMAKGG2h0dHA6Ly91cmwtZm9yLWFpYS9Sb290LmNlcjAs
BgNVHR8EJTAjMCGgH6AdhhtodHRwOi8vdXJsLWZvci1jcmwvUm9vdC5jcmwwDgYD
VR0PAQH/BAQDAgWgMA8GA1UdEwEB/wQFMAMBAf8wDQYJKoZIhvcNAQELBQADggEB
AF+M+3WvoMt5jsXJbZARPaeqEqzpIhWxFZqPMHtcrfgK3zhpSlY4G+7Er2MmExBA
7z1C0HcltFRZBXLRjWHWrX0JKLqo4Zmqrjt4A9lWgCNdgYEPls4HNT7PiFRNfzxd
0AOTPLd2n01RN09rjBjiuuRMGKLCgMSoTbeB1JmdKP7Kq6Wv8Q/dE4RHvvzSiEfU
fL6qYkll8rixTq168+FSUGs8jgff1CIgUzJo+gucikrpYwju62UQBR2dwSujIkuQ
N1nFn5CsjxDLdjvKGmD1obEmJAWSLGhhjgPKVOb2QLK/26gYn2KtBRDhBc6+LzSM
HURzkLNOW30aLrYrD3naFUs=
-----END CERTIFICATE-----

Certificate:
    Data:
        Version: 3 (0x2)
        Serial Number: 1 (0x1)
    Signature Algorithm: sha256WithRSAEncryption
        Issuer: CN=Root
        Validity
            Not Before: Jan  1 12:00:00 2015 GMT
            Not After : Jan  1 12:00:00 2016 GMT
        Subject: CN=Root
        Subject Public Key Info:
            Public Key Algorithm: rsaEncryption
                Public-Key: (2048 bit)
                Modulus:
                    00:b0:25:1d:c5:67:18:55:8a:dd:f2:19:86:be:a3:
                    da:c1:03:6b:82:76:3f:09:83:35:0b:73:b7:53:40:
                    64:94:90:8b:5b:e5:24:a6:bb:cf:46:ce:80:44:f1:
                    85:17:86:d4:3b:9e:54:1f:7c:b4:ff:fd:c2:24:57:
                    2e:a8:9d:97:57:92:ec:f7:bb:31:32:70:53:cc:7f:
                    0f:b3:be:65:86:dc:f1:86:4b:c1:d9:df:1d:9b:d8:
                    49:4c:16:54:de:f9:a2:8f:c3:b1:38:85:ea:6b:4c:
                    04:8a:52:f6:3e:96:a4:86:9d:de:6d:be:ae:21:21:
                    f6:82:03:3f:b0:23:70:f3:6f:31:a4:70:a1:4f:9f:
                    23:c1:78:41:ff:f8:65:93:75:a5:f9:5a:74:1c:7f:
                    74:1a:55:bf:8c:66:e5:30:44:fd:3d:f3:43:9a:c8:
                    e0:43:96:41:ca:4b:9b:71:f5:ca:fe:91:d3:39:b6:
                    03:c7:58:d9:7d:8f:7c:f6:1e:55:46:a6:03:dd:d6:
                    38:b4:d2:f0:bd:b2:83:9b:ea:8b:6b:c8:5e:ff:7b:
                    05:60:84:bf:ba:7b:6d:8f:88:4a:31:c7:11:c2:4c:
                    08:e1:2e:26:19:f0:5d:08:c5:e2:61:f8:52:4a:0b:
                    92:f5:a4:d0:7c:ad:91:59:f1:3b:d8:fa:62:0d:58:
                    79:07
                Exponent: 65537 (0x10001)
        X509v3 extensions:
            X509v3 Subject Key Identifier: 
                57:30:6C:4F:34:D1:E0:27:4A:2F:E8:2A:EF:D3:75:01:24:6F:B5:FA
            X509v3 Authority Key Identifier: 
                keyid:57:30:6C:4F:34:D1:E0:27:4A:2F:E8:2A:EF:D3:75:01:24:6F:B5:FA

            Authority Information Access: 
                CA Issuers - URI:http://url-for-aia/Root.cer

            X509v3 CRL Distribution Points: 

                Full Name:
                  URI:http://url-for-crl/Root.crl

            X509v3 Key Usage: critical
                Certificate Sign, CRL Sign
            X509v3 Basic Constraints: critical
                CA:TRUE
    Signature Algorithm: sha256WithRSAEncryption
         37:42:51:57:5a:64:63:1c:1c:47:88:7d:76:dc:d7:5a:81:75:
         eb:36:20:4b:1c:99:82:1b:e6:48:f6:10:c2:1b:07:7e:12:f6:
         c9:39:47:4e:9b:30:4e:78:4a:0f:69:d5:19:51:dc:64:df:c9:
         e2:09:4e:15:55:25:5f:47:43:66:d4:4e:cc:f7:89:a2:60:dd:
         42:a7:3e:69:b3:28:d8:a3:60:2a:4e:d1:3e:65:2d:fa:c8:13:
         29:fc:0e:a8:ad:82:47:e0:fc:3b:54:1d:da:ac:fd:f3:db:39:
         d9:bb:a9:96:33:43:96:0c:95:df:be:af:a2:64:44:08:ad:5f:
         83:1b:be:a3:ad:41:a2:0f:0b:05:f5:49:4c:b5:b2:cb:a7:e4:
         30:c7:44:5a:bd:3b:34:d8:ad:27:6b:f5:83:ed:78:53:2e:d7:
         cc:b4:82:d7:52:2b:06:c4:62:96:53:23:e7:4a:8d:13:b5:95:
         3f:34:25:23:e9:0a:04:74:83:f1:c3:c9:94:2e:b0:0a:a2:b6:
         ce:dc:03:11:a2:52:7b:26:7f:5e:37:98:7b:7b:3f:99:a8:a5:
         07:4b:55:90:7a:21:a9:32:92:1d:c6:f3:55:ca:4e:a2:83:14:
         d8:1f:d2:1d:76:11:19:ae:10:81:72:35:bf:0b:fa:d1:66:a8:
         f5:19:d9:6b
-----BEGIN TRUST_ANCHOR_UNCONSTRAINED-----
MIIDZTCCAk2gAwIBAgIBATANBgkqhkiG9w0BAQsFADAPMQ0wCwYDVQQDDARSb290
MB4XDTE1MDEwMTEyMDAwMFoXDTE2MDEwMTEyMDAwMFowDzENMAsGA1UEAwwEUm9v
dDCCASIwDQYJKoZIhvcNAQEBBQADggEPADCCAQoCggEBALAlHcVnGFWK3fIZhr6j
2sEDa4J2PwmDNQtzt1NAZJSQi1vlJKa7z0bOgETxhReG1DueVB98tP/9wiRXLqid
l1eS7Pe7MTJwU8x/D7O+ZYbc8YZLwdnfHZvYSUwWVN75oo/DsTiF6mtMBIpS9j6W
pIad3m2+riEh9oIDP7AjcPNvMaRwoU+fI8F4Qf/4ZZN1pfladBx/dBpVv4xm5TBE
/T3zQ5rI4EOWQcpLm3H1yv6R0zm2A8dY2X2PfPYeVUamA93WOLTS8L2yg5vqi2vI
Xv97BWCEv7p7bY+ISjHHEcJMCOEuJhnwXQjF4mH4UkoLkvWk0HytkVnxO9j6Yg1Y
eQcCAwEAAaOByzCByDAdBgNVHQ4EFgQUVzBsTzTR4CdKL+gq79N1ASRvtfowHwYD
VR0jBBgwFoAUVzBsTzTR4CdKL+gq79N1ASRvtfowNwYIKwYBBQUHAQEEKzApMCcG
CCsGAQUFBzAChhtodHRwOi8vdXJsLWZvci1haWEvUm9vdC5jZXIwLAYDVR0fBCUw
IzAhoB+gHYYbaHR0cDovL3VybC1mb3ItY3JsL1Jvb3QuY3JsMA4GA1UdDwEB/wQE
AwIBBjAPBgNVHRMBAf8EBTADAQH/MA0GCSqGSIb3DQEBCwUAA4IBAQA3QlFXWmRj
HBxHiH123NdagXXrNiBLHJmCG+ZI9hDCGwd+EvbJOUdOmzBOeEoPadUZUdxk38ni
CU4VVSVfR0Nm1E7M94miYN1Cpz5psyjYo2AqTtE+ZS36yBMp/A6orYJH4Pw7VB3a
rP3z2znZu6mWM0OWDJXfvq+iZEQIrV+DG76jrUGiDwsF9UlMtbLLp+Qwx0RavTs0
2K0na/WD7XhTLtfMtILXUisGxGKWUyPnSo0TtZU/NCUj6QoEdIPxw8mULrAKorbO
3AMRolJ7Jn9eN5h7ez+ZqKUHS1WQeiGpMpIdxvNVyk6igxTYH9IddhEZrhCBcjW/
C/rRZqj1Gdlr
-----END TRUST_ANCHOR_UNCONSTRAINED-----

150302120000Z
-----BEGIN TIME-----
MTUwMzAyMTIwMDAwWg==
-----END TIME-----

FAIL
-----BEGIN VERIFY_RESULT-----
RkFJTA==
-----END VERIFY_RESULT-----

serverAuth
-----BEGIN KEY_PURPOSE-----
c2VydmVyQXV0aA==
-----END KEY_PURPOSE-----

----- Certificate i=1 (CN=Intermediate) -----
ERROR: keyCertSign bit is not set


-----BEGIN ERRORS-----
LS0tLS0gQ2VydGlmaWNhdGUgaT0xIChDTj1JbnRlcm1lZGlhdGUpIC0tLS0tCkVSUk9SOiBrZXlDZXJ0U2lnbiBiaXQgaXMgbm90IHNldAoK
-----END ERRORS-----
