[Created by: generate-intermediate-basic-constraints-not-critical.py]

Certificate chain with 1 intermediate and a trusted root. The intermediate
has a basic constraints extension but does not mark it as critical.
Verification is expected to succeed, since although not critical, the
basicConstraints indicates CA=true as expected.

Certificate:
    Data:
        Version: 3 (0x2)
        Serial Number: 1 (0x1)
    Signature Algorithm: sha256WithRSAEncryption
        Issuer: CN=Intermediate
        Validity
            Not Before: Jan  1 12:00:00 2015 GMT
            Not After : Jan  1 12:00:00 2016 GMT
        Subject: CN=Target
        Subject Public Key Info:
            Public Key Algorithm: rsaEncryption
                Public-Key: (2048 bit)
                Modulus:
                    00:ed:76:79:eb:55:2f:66:53:1e:8c:9b:58:a4:77:
                    cb:ac:a3:3b:a1:28:c0:e2:1d:b1:40:4e:61:89:43:
                    ac:32:7d:8b:38:61:27:16:c9:1d:6e:67:c7:06:98:
                    0d:64:e9:8f:42:82:6a:f4:e1:11:10:9c:d2:71:6c:
                    08:5e:83:d2:76:0c:47:a6:86:74:e2:f4:26:10:85:
                    9a:23:9e:d4:73:ea:f0:dc:80:43:a3:9a:23:01:b7:
                    4f:7d:26:2e:b6:e5:4c:86:89:89:da:b9:77:60:a9:
                    ff:37:57:a2:76:c0:85:53:b0:29:3a:d3:a4:83:2b:
                    f4:70:71:2d:f9:20:ff:04:95:21:8a:56:18:e7:74:
                    7f:6b:24:52:fb:79:1e:9a:5a:c6:81:5c:a2:97:bf:
                    9b:0a:d5:18:6f:f0:07:08:54:ee:40:ad:2f:13:9e:
                    75:3a:d2:7c:8a:40:a2:48:f9:10:84:ef:47:3b:5e:
                    fd:78:67:19:d1:1d:97:d5:a5:b3:08:db:f4:36:aa:
                    df:df:14:5c:24:11:38:3b:9b:ea:2e:35:c0:ae:8b:
                    2b:55:07:01:77:aa:98:b2:b4:dc:f7:4e:82:55:e7:
                    8e:ab:c5:bf:3e:c9:35:a5:b2:09:93:29:6c:c1:dc:
                    b1:17:fd:f3:1b:7d:18:97:d6:3c:68:4e:4d:c6:3a:
                    72:a9
                Exponent: 65537 (0x10001)
        X509v3 extensions:
            X509v3 Subject Key Identifier: 
                C0:8D:DC:47:E2:8A:82:BC:92:6D:8F:9F:F2:C7:F6:14:DE:09:CC:AC
            X509v3 Authority Key Identifier: 
                keyid:8A:DE:CB:21:3C:DA:E9:1D:8B:27:C3:94:11:AD:14:38:5F:9F:9F:66

            Authority Information Access: 
                CA Issuers - URI:http://url-for-aia/Intermediate.cer

            X509v3 CRL Distribution Points: 

                Full Name:
                  URI:http://url-for-crl/Intermediate.crl

            X509v3 Key Usage: critical
                Digital Signature, Key Encipherment
            X509v3 Extended Key Usage: 
                TLS Web Server Authentication, TLS Web Client Authentication
    Signature Algorithm: sha256WithRSAEncryption
         67:4f:b4:2f:37:81:5d:d5:5b:50:a7:ae:65:06:9f:b2:90:1b:
         dd:8e:5c:9e:77:05:ed:6e:50:bf:af:9d:0a:06:f0:5b:1e:ef:
         ce:b4:2b:65:d3:93:46:cf:d4:3f:6e:b1:c4:92:35:15:e3:c9:
         3e:01:56:6c:25:1f:d4:ab:04:14:f3:a5:68:33:aa:59:32:3b:
         d1:24:fe:54:2f:df:6b:58:33:ab:2f:da:c4:47:4e:09:ea:32:
         54:7e:46:52:03:23:d7:84:0d:b1:e1:8a:ee:79:cc:69:55:7e:
         df:7a:f2:8a:21:b9:ba:f6:0e:29:4b:5b:bb:18:11:01:6c:22:
         c4:17:eb:2b:6a:c7:af:f6:80:a5:c4:f3:e3:47:e0:e9:9d:47:
         f5:77:6d:d2:da:96:93:bc:2c:25:d2:ec:eb:6b:e2:de:b2:9a:
         bf:7b:41:a0:f9:07:3a:8a:00:30:14:40:6e:4f:f4:c4:c3:cb:
         d3:20:50:69:b4:ab:0a:96:44:ea:dc:e9:7a:2f:11:3a:7e:cf:
         2e:0d:60:e2:f1:78:4d:42:c2:11:84:67:4f:eb:1c:14:7b:fe:
         81:7a:93:ed:5b:4a:a1:d2:99:51:f6:a6:db:e7:d5:09:40:d1:
         f6:7c:48:71:ab:5d:b2:b2:c1:32:ae:b0:36:43:fe:1e:ab:cb:
         93:ad:c6:45
-----BEGIN CERTIFICATE-----
MIIDjTCCAnWgAwIBAgIBATANBgkqhkiG9w0BAQsFADAXMRUwEwYDVQQDDAxJbnRl
cm1lZGlhdGUwHhcNMTUwMTAxMTIwMDAwWhcNMTYwMTAxMTIwMDAwWjARMQ8wDQYD
VQQDDAZUYXJnZXQwggEiMA0GCSqGSIb3DQEBAQUAA4IBDwAwggEKAoIBAQDtdnnr
VS9mUx6Mm1ikd8usozuhKMDiHbFATmGJQ6wyfYs4YScWyR1uZ8cGmA1k6Y9Cgmr0
4REQnNJxbAheg9J2DEemhnTi9CYQhZojntRz6vDcgEOjmiMBt099Ji625UyGiYna
uXdgqf83V6J2wIVTsCk606SDK/RwcS35IP8ElSGKVhjndH9rJFL7eR6aWsaBXKKX
v5sK1Rhv8AcIVO5ArS8TnnU60nyKQKJI+RCE70c7Xv14ZxnRHZfVpbMI2/Q2qt/f
FFwkETg7m+ouNcCuiytVBwF3qpiytNz3ToJV546rxb8+yTWlsgmTKWzB3LEX/fMb
fRiX1jxoTk3GOnKpAgMBAAGjgekwgeYwHQYDVR0OBBYEFMCN3EfiioK8km2Pn/LH
9hTeCcysMB8GA1UdIwQYMBaAFIreyyE82ukdiyfDlBGtFDhfn59mMD8GCCsGAQUF
BwEBBDMwMTAvBggrBgEFBQcwAoYjaHR0cDovL3VybC1mb3ItYWlhL0ludGVybWVk
aWF0ZS5jZXIwNAYDVR0fBC0wKzApoCegJYYjaHR0cDovL3VybC1mb3ItY3JsL0lu
dGVybWVkaWF0ZS5jcmwwDgYDVR0PAQH/BAQDAgWgMB0GA1UdJQQWMBQGCCsGAQUF
BwMBBggrBgEFBQcDAjANBgkqhkiG9w0BAQsFAAOCAQEAZ0+0LzeBXdVbUKeuZQaf
spAb3Y5cnncF7W5Qv6+dCgbwWx7vzrQrZdOTRs/UP26xxJI1FePJPgFWbCUf1KsE
FPOlaDOqWTI70ST+VC/fa1gzqy/axEdOCeoyVH5GUgMj14QNseGK7nnMaVV+33ry
iiG5uvYOKUtbuxgRAWwixBfrK2rHr/aApcTz40fg6Z1H9Xdt0tqWk7wsJdLs62vi
3rKav3tBoPkHOooAMBRAbk/0xMPL0yBQabSrCpZE6tzpei8ROn7PLg1g4vF4TULC
EYRnT+scFHv+gXqT7VtKodKZUfam2+fVCUDR9nxIcatdsrLBMq6wNkP+HqvLk63G
RQ==
-----END CERTIFICATE-----

Certificate:
    Data:
        Version: 3 (0x2)
        Serial Number: 2 (0x2)
    Signature Algorithm: sha256WithRSAEncryption
        Issuer: CN=Root
        Validity
            Not Before: Jan  1 12:00:00 2015 GMT
            Not After : Jan  1 12:00:00 2016 GMT
        Subject: CN=Intermediate
        Subject Public Key Info:
            Public Key Algorithm: rsaEncryption
                Public-Key: (2048 bit)
                Modulus:
                    00:a8:ea:08:6f:d9:38:21:99:d3:63:51:e7:2e:2a:
                    a4:35:da:22:83:26:f7:cf:41:e2:7e:9a:7d:a0:59:
                    52:92:3b:46:4f:9d:da:0f:34:e6:a5:83:bb:20:9b:
                    e2:8e:70:9b:ea:dd:99:14:de:15:9c:f8:4b:04:0a:
                    53:90:09:82:77:ba:f5:04:e5:f3:8a:aa:b5:05:1d:
                    50:0c:c9:3f:2b:0a:22:a1:4c:31:ab:99:7b:11:8f:
                    a2:19:76:05:8a:de:8c:24:d2:52:73:6f:d9:1b:e9:
                    0e:06:37:04:15:8a:cf:b0:74:1c:32:e5:5d:8b:56:
                    3c:55:99:97:2c:67:5d:27:2f:21:4d:6c:da:76:93:
                    69:3d:36:65:4e:50:f8:38:6a:09:6c:87:4c:95:9d:
                    db:2d:6f:2c:2a:20:47:c7:0a:e0:df:24:fc:df:d3:
                    49:e7:30:3c:ff:a1:10:2a:4c:5d:0a:e6:12:b2:9b:
                    d7:1a:09:28:b2:71:41:16:75:9c:65:79:2a:78:c6:
                    ed:7e:e5:c2:b0:6c:15:46:aa:c7:aa:e1:86:2a:7c:
                    38:e0:ac:e6:e9:36:2a:17:93:87:3f:3f:c5:b0:7c:
                    85:39:49:c1:9a:31:88:92:d3:2c:7b:2f:a1:64:b4:
                    d2:78:11:30:61:91:27:bb:a7:fc:c4:dc:33:e8:4e:
                    9d:97
                Exponent: 65537 (0x10001)
        X509v3 extensions:
            X509v3 Subject Key Identifier: 
                8A:DE:CB:21:3C:DA:E9:1D:8B:27:C3:94:11:AD:14:38:5F:9F:9F:66
            X509v3 Authority Key Identifier: 
                keyid:B5:4F:2B:B1:6C:A2:EE:C6:B5:49:B5:77:D1:AC:82:45:75:C9:9B:1C

            Authority Information Access: 
                CA Issuers - URI:http://url-for-aia/Root.cer

            X509v3 CRL Distribution Points: 

                Full Name:
                  URI:http://url-for-crl/Root.crl

            X509v3 Key Usage: critical
                Certificate Sign, CRL Sign
            X509v3 Basic Constraints: 
                CA:TRUE
    Signature Algorithm: sha256WithRSAEncryption
         5d:26:64:34:00:76:cd:aa:49:2a:2a:35:27:da:c2:f9:84:69:
         89:81:7e:e1:03:59:d2:9d:54:21:04:4b:b9:e4:32:70:43:fd:
         9e:91:2d:37:4e:17:4f:50:0e:01:94:9e:ec:f7:82:0a:30:00:
         45:20:7d:5a:46:d1:8e:4e:51:9a:78:b7:c3:6f:a4:dd:30:fb:
         7d:4a:c4:d4:d1:1b:0c:97:06:d5:7e:75:fc:0e:d0:fb:0c:15:
         14:9f:21:1f:d5:9f:01:5f:ac:30:37:db:52:05:9b:b3:e8:d7:
         39:39:4e:2c:c7:19:6a:dd:36:83:ef:67:89:de:91:92:94:e2:
         5a:75:e4:f3:8d:ed:66:68:4d:93:1d:c9:87:58:42:84:4c:80:
         5b:6f:0a:99:b7:fa:88:b1:df:f5:d5:b7:59:65:80:27:56:db:
         1c:76:0b:f9:5f:89:38:5c:79:a3:a9:81:aa:5a:ae:ec:26:d9:
         00:ac:5a:49:86:8e:38:4e:9f:a4:ff:ad:7e:83:12:04:e0:1f:
         6a:a5:f8:57:ad:f4:0f:0f:3d:ae:36:ce:0a:8a:e5:2b:1a:71:
         d9:9d:4e:57:7e:74:fd:b8:d1:13:5e:ac:e8:2e:54:d6:99:b6:
         22:af:d4:12:5f:8e:3b:26:9d:e7:ba:a8:a7:70:26:64:e9:83:
         62:cf:68:1e
-----BEGIN CERTIFICATE-----
MIIDajCCAlKgAwIBAgIBAjANBgkqhkiG9w0BAQsFADAPMQ0wCwYDVQQDDARSb290
MB4XDTE1MDEwMTEyMDAwMFoXDTE2MDEwMTEyMDAwMFowFzEVMBMGA1UEAwwMSW50
ZXJtZWRpYXRlMIIBIjANBgkqhkiG9w0BAQEFAAOCAQ8AMIIBCgKCAQEAqOoIb9k4
IZnTY1HnLiqkNdoigyb3z0Hifpp9oFlSkjtGT53aDzTmpYO7IJvijnCb6t2ZFN4V
nPhLBApTkAmCd7r1BOXziqq1BR1QDMk/KwoioUwxq5l7EY+iGXYFit6MJNJSc2/Z
G+kOBjcEFYrPsHQcMuVdi1Y8VZmXLGddJy8hTWzadpNpPTZlTlD4OGoJbIdMlZ3b
LW8sKiBHxwrg3yT839NJ5zA8/6EQKkxdCuYSspvXGgkosnFBFnWcZXkqeMbtfuXC
sGwVRqrHquGGKnw44Kzm6TYqF5OHPz/FsHyFOUnBmjGIktMsey+hZLTSeBEwYZEn
u6f8xNwz6E6dlwIDAQABo4HIMIHFMB0GA1UdDgQWBBSK3sshPNrpHYsnw5QRrRQ4
X5+fZjAfBgNVHSMEGDAWgBS1TyuxbKLuxrVJtXfRrIJFdcmbHDA3BggrBgEFBQcB
AQQrMCkwJwYIKwYBBQUHMAKGG2h0dHA6Ly91cmwtZm9yLWFpYS9Sb290LmNlcjAs
BgNVHR8EJTAjMCGgH6AdhhtodHRwOi8vdXJsLWZvci1jcmwvUm9vdC5jcmwwDgYD
VR0PAQH/BAQDAgEGMAwGA1UdEwQFMAMBAf8wDQYJKoZIhvcNAQELBQADggEBAF0m
ZDQAds2qSSoqNSfawvmEaYmBfuEDWdKdVCEES7nkMnBD/Z6RLTdOF09QDgGUnuz3
ggowAEUgfVpG0Y5OUZp4t8NvpN0w+31KxNTRGwyXBtV+dfwO0PsMFRSfIR/VnwFf
rDA321IFm7Po1zk5TizHGWrdNoPvZ4nekZKU4lp15PON7WZoTZMdyYdYQoRMgFtv
Cpm3+oix3/XVt1llgCdW2xx2C/lfiThceaOpgaparuwm2QCsWkmGjjhOn6T/rX6D
EgTgH2ql+Fet9A8PPa42zgqK5SsacdmdTld+dP240RNerOguVNaZtiKv1BJfjjsm
nee6qKdwJmTpg2LPaB4=
-----END CERTIFICATE-----

Certificate:
    Data:
        Version: 3 (0x2)
        Serial Number: 1 (0x1)
    Signature Algorithm: sha256WithRSAEncryption
        Issuer: CN=Root
        Validity
            Not Before: Jan  1 12:00:00 2015 GMT
            Not After : Jan  1 12:00:00 2016 GMT
        Subject: CN=Root
        Subject Public Key Info:
            Public Key Algorithm: rsaEncryption
                Public-Key: (2048 bit)
                Modulus:
                    00:a3:cb:ea:d8:bd:24:ab:0c:9a:cc:b2:0e:d2:37:
                    89:9a:1c:87:6d:80:b9:74:3f:0f:f8:3a:c7:e2:8b:
                    0f:26:3a:56:7e:a0:70:bd:7a:b8:83:c3:e2:44:b9:
                    7a:98:74:41:75:e8:48:ee:42:8a:87:7f:fd:31:76:
                    f6:d6:61:3c:50:0d:68:fe:36:41:de:1f:85:d1:c1:
                    ab:2d:34:c5:13:ea:62:eb:e4:b6:0e:19:be:9f:d3:
                    dd:ed:91:14:90:85:60:44:67:17:bc:cf:e4:cb:8c:
                    eb:f2:0c:9f:90:c1:51:7c:cd:34:a3:af:51:c0:e0:
                    0c:44:bb:2c:e1:4f:1f:99:1b:ac:5a:f3:b2:c9:80:
                    53:52:82:6d:d6:4e:83:ee:1e:04:15:3c:d8:6f:b8:
                    5a:72:16:5a:f3:6d:a1:ce:0c:89:5c:ac:7b:d1:87:
                    f9:d1:69:63:20:ad:0d:fb:d5:d9:6c:8a:5a:1c:c5:
                    70:71:33:e0:84:7b:68:9e:00:80:00:a3:0d:49:2e:
                    e6:c8:5f:4a:d7:47:73:52:07:66:ee:36:da:26:f2:
                    a2:ec:f1:ed:46:4a:d6:d8:48:22:88:3a:22:45:81:
                    7c:e7:d6:0d:3a:43:76:55:50:0c:1d:f5:df:cc:86:
                    4d:62:1f:13:07:2b:6c:2a:e4:d3:90:46:7e:95:14:
                    e9:3b
                Exponent: 65537 (0x10001)
        X509v3 extensions:
            X509v3 Subject Key Identifier: 
                B5:4F:2B:B1:6C:A2:EE:C6:B5:49:B5:77:D1:AC:82:45:75:C9:9B:1C
            X509v3 Authority Key Identifier: 
                keyid:B5:4F:2B:B1:6C:A2:EE:C6:B5:49:B5:77:D1:AC:82:45:75:C9:9B:1C

            Authority Information Access: 
                CA Issuers - URI:http://url-for-aia/Root.cer

            X509v3 CRL Distribution Points: 

                Full Name:
                  URI:http://url-for-crl/Root.crl

            X509v3 Key Usage: critical
                Certificate Sign, CRL Sign
            X509v3 Basic Constraints: critical
                CA:TRUE
    Signature Algorithm: sha256WithRSAEncryption
         01:3c:59:aa:07:e9:87:6b:46:2a:63:7c:8f:89:cf:cf:29:64:
         ce:27:f8:9f:a8:00:20:90:61:28:d8:a2:f9:f1:c4:20:f7:2e:
         44:31:32:c8:e1:f8:ef:f0:ab:3e:09:a4:ea:f0:60:f2:13:d1:
         03:9e:b2:8a:ac:b1:b9:30:cf:5e:77:d5:45:25:27:49:14:3a:
         5e:c9:68:6c:4e:e6:61:8e:35:e9:fd:72:f8:8d:30:92:95:20:
         ed:5c:05:65:fc:fc:ea:a3:f7:3d:0f:a0:77:16:73:af:62:2b:
         69:e3:9f:62:df:f4:33:49:0d:48:1b:9d:6a:9d:18:ee:8a:93:
         d7:a0:b4:5e:3a:96:0f:19:aa:1d:76:7a:8a:0d:c9:3b:78:d6:
         c9:9c:34:0b:51:30:2b:85:01:94:f8:ef:88:76:e1:40:3d:dc:
         e8:62:91:8a:09:a9:e9:ae:6a:a7:b9:95:d6:b3:db:ad:e6:49:
         c1:75:8d:87:fb:cc:6f:ad:ac:de:f8:f0:e3:30:be:f3:a7:73:
         7e:4b:7d:14:72:f7:03:d2:e1:4e:ea:70:c3:a7:86:21:2b:0d:
         e5:ed:e0:d3:a9:51:8d:c1:bc:16:58:f8:06:cd:72:6a:86:74:
         30:8b:e5:76:6e:20:46:37:4a:d8:cc:b7:89:2d:e4:0e:0b:90:
         4b:38:0c:73
-----BEGIN TRUST_ANCHOR_UNCONSTRAINED-----
MIIDZTCCAk2gAwIBAgIBATANBgkqhkiG9w0BAQsFADAPMQ0wCwYDVQQDDARSb290
MB4XDTE1MDEwMTEyMDAwMFoXDTE2MDEwMTEyMDAwMFowDzENMAsGA1UEAwwEUm9v
dDCCASIwDQYJKoZIhvcNAQEBBQADggEPADCCAQoCggEBAKPL6ti9JKsMmsyyDtI3
iZoch22AuXQ/D/g6x+KLDyY6Vn6gcL16uIPD4kS5eph0QXXoSO5Ciod//TF29tZh
PFANaP42Qd4fhdHBqy00xRPqYuvktg4Zvp/T3e2RFJCFYERnF7zP5MuM6/IMn5DB
UXzNNKOvUcDgDES7LOFPH5kbrFrzssmAU1KCbdZOg+4eBBU82G+4WnIWWvNtoc4M
iVyse9GH+dFpYyCtDfvV2WyKWhzFcHEz4IR7aJ4AgACjDUku5shfStdHc1IHZu42
2ibyouzx7UZK1thIIog6IkWBfOfWDTpDdlVQDB3138yGTWIfEwcrbCrk05BGfpUU
6TsCAwEAAaOByzCByDAdBgNVHQ4EFgQUtU8rsWyi7sa1SbV30ayCRXXJmxwwHwYD
VR0jBBgwFoAUtU8rsWyi7sa1SbV30ayCRXXJmxwwNwYIKwYBBQUHAQEEKzApMCcG
CCsGAQUFBzAChhtodHRwOi8vdXJsLWZvci1haWEvUm9vdC5jZXIwLAYDVR0fBCUw
IzAhoB+gHYYbaHR0cDovL3VybC1mb3ItY3JsL1Jvb3QuY3JsMA4GA1UdDwEB/wQE
AwIBBjAPBgNVHRMBAf8EBTADAQH/MA0GCSqGSIb3DQEBCwUAA4IBAQABPFmqB+mH
a0YqY3yPic/PKWTOJ/ifqAAgkGEo2KL58cQg9y5EMTLI4fjv8Ks+CaTq8GDyE9ED
nrKKrLG5MM9ed9VFJSdJFDpeyWhsTuZhjjXp/XL4jTCSlSDtXAVl/Pzqo/c9D6B3
FnOvYitp459i3/QzSQ1IG51qnRjuipPXoLReOpYPGaoddnqKDck7eNbJnDQLUTAr
hQGU+O+IduFAPdzoYpGKCanprmqnuZXWs9ut5knBdY2H+8xvraze+PDjML7zp3N+
S30UcvcD0uFO6nDDp4YhKw3l7eDTqVGNwbwWWPgGzXJqhnQwi+V2biBGN0rYzLeJ
LeQOC5BLOAxz
-----END TRUST_ANCHOR_UNCONSTRAINED-----

150302120000Z
-----BEGIN TIME-----
MTUwMzAyMTIwMDAwWg==
-----END TIME-----

SUCCESS
-----BEGIN VERIFY_RESULT-----
U1VDQ0VTUw==
-----END VERIFY_RESULT-----

serverAuth
-----BEGIN KEY_PURPOSE-----
c2VydmVyQXV0aA==
-----END KEY_PURPOSE-----
