[Created by: generate-key-rollover.py]

A certificate tree with two self-signed root certificates(oldroot, newroot),
and a third root certificate (newrootrollover) which has the same key as newroot
but is signed by oldroot, all with the same subject and issuer.
There are two intermediates with the same key, subject and issuer
(oldintermediate signed by oldroot, and newintermediate signed by newroot).
The target certificate is signed by the intermediate key.


In graphical form:

   oldroot-------->newrootrollover  newroot
      |                      |        |
      v                      v        v
oldintermediate           newintermediate
      |                          |
      +------------+-------------+
                   |
                   v
                 target


Several chains are output:
  key-rollover-oldchain.pem:
    target<-oldintermediate<-oldroot
  key-rollover-rolloverchain.pem:
    target<-newintermediate<-newrootrollover<-oldroot
  key-rollover-longrolloverchain.pem:
    target<-newintermediate<-newroot<-newrootrollover<-oldroot
  key-rollover-newchain.pem:
    target<-newintermediate<-newroot

All of these chains should verify successfully.


Certificate:
    Data:
        Version: 3 (0x2)
        Serial Number: 1 (0x1)
    Signature Algorithm: sha256WithRSAEncryption
        Issuer: CN=Intermediate
        Validity
            Not Before: Jan  1 12:00:00 2015 GMT
            Not After : Jan  1 12:00:00 2016 GMT
        Subject: CN=Target
        Subject Public Key Info:
            Public Key Algorithm: rsaEncryption
                Public-Key: (2048 bit)
                Modulus:
                    00:c4:05:bc:50:38:65:d6:ab:9b:ee:36:82:c0:43:
                    3b:8d:75:18:05:05:2d:64:d7:f2:67:41:db:8b:2a:
                    1a:31:8d:25:b5:54:f3:80:f8:47:13:0e:b3:04:93:
                    a8:f2:d2:12:12:0d:1f:fa:fc:01:56:60:61:77:7b:
                    99:56:da:27:06:70:cc:39:22:01:a5:bd:fe:2a:aa:
                    70:52:90:cd:c6:2f:f9:81:1f:5d:6f:bb:b5:0e:3f:
                    7c:03:cf:b4:47:83:06:db:f7:29:a0:da:a9:2b:72:
                    85:74:40:a8:28:f6:09:cf:54:71:ac:48:0b:8f:1f:
                    5a:e2:ca:4e:6c:c2:ee:21:b8:24:1e:b0:4c:fa:27:
                    84:fa:87:bb:eb:48:c5:84:98:51:cc:f1:ae:93:7b:
                    92:1e:10:d9:0e:4e:1c:20:29:ef:9d:ec:a1:74:2b:
                    c4:3c:9e:42:45:ad:33:c3:6d:fa:41:55:0b:27:d1:
                    fc:6a:e3:07:ee:b7:c1:75:9f:63:34:33:97:5c:d0:
                    49:37:20:1e:fb:0e:ae:bc:2f:cb:48:c8:0d:cf:bf:
                    a3:3c:5d:63:2d:1f:d5:65:04:25:ba:84:a6:9b:14:
                    7e:7f:df:1e:b1:6f:0a:91:b4:d6:8a:a0:fd:75:8b:
                    85:cf:bd:af:27:fa:12:dc:cf:19:05:78:6f:75:50:
                    88:67
                Exponent: 65537 (0x10001)
        X509v3 extensions:
            X509v3 Subject Key Identifier: 
                46:A2:E0:16:9E:F7:65:A3:9D:F8:F6:34:A0:DC:33:8A:7A:AE:2E:89
            X509v3 Authority Key Identifier: 
                keyid:0C:8E:5E:1E:A6:96:A5:00:CF:F7:9E:14:94:BA:DC:5E:06:D6:37:ED

            Authority Information Access: 
                CA Issuers - URI:http://url-for-aia/Intermediate.cer

            X509v3 CRL Distribution Points: 

                Full Name:
                  URI:http://url-for-crl/Intermediate.crl

            X509v3 Key Usage: critical
                Digital Signature, Key Encipherment
            X509v3 Extended Key Usage: 
                TLS Web Server Authentication, TLS Web Client Authentication
    Signature Algorithm: sha256WithRSAEncryption
         6c:41:15:1d:16:82:4b:09:00:30:69:b4:64:34:6b:a9:f3:97:
         1e:6d:4c:6d:d8:77:91:21:ae:4f:50:b0:eb:f9:24:39:0d:0e:
         da:4b:dd:6a:2f:80:61:65:e1:4e:27:50:9e:1e:91:05:23:26:
         e7:b6:49:52:f1:4b:19:25:2e:f0:c7:6e:53:f3:13:33:63:97:
         6e:91:97:0d:9d:60:08:9b:dd:9f:40:28:ed:14:57:43:d8:bf:
         f6:16:65:d8:b3:b7:42:61:aa:87:75:e1:c1:93:17:ae:a2:6d:
         f6:ac:48:04:ce:88:ee:61:81:52:a3:45:e7:c3:19:bb:15:e6:
         a9:7e:e3:21:2d:44:67:34:58:63:02:f3:3f:16:63:51:fa:d8:
         8b:21:9e:8d:7a:55:98:4f:a5:cc:be:1b:75:31:37:17:79:e5:
         dc:1a:4b:5f:fa:88:61:64:8c:e6:a4:4d:33:b5:14:e2:0a:51:
         6e:d3:70:25:6f:3c:56:c3:d2:fd:c3:0a:47:f9:17:34:60:f3:
         2b:5a:76:49:fb:2c:0a:e1:94:65:74:75:b5:58:a5:90:99:2d:
         da:7e:7a:9e:a7:67:17:d2:a6:8d:a6:b3:c6:46:1c:ad:9b:73:
         ce:a7:b3:f0:f2:44:38:1e:7e:30:ab:aa:ac:64:e2:06:b4:6b:
         39:a6:7c:52
-----BEGIN CERTIFICATE-----
MIIDjTCCAnWgAwIBAgIBATANBgkqhkiG9w0BAQsFADAXMRUwEwYDVQQDDAxJbnRl
cm1lZGlhdGUwHhcNMTUwMTAxMTIwMDAwWhcNMTYwMTAxMTIwMDAwWjARMQ8wDQYD
VQQDDAZUYXJnZXQwggEiMA0GCSqGSIb3DQEBAQUAA4IBDwAwggEKAoIBAQDEBbxQ
OGXWq5vuNoLAQzuNdRgFBS1k1/JnQduLKhoxjSW1VPOA+EcTDrMEk6jy0hISDR/6
/AFWYGF3e5lW2icGcMw5IgGlvf4qqnBSkM3GL/mBH11vu7UOP3wDz7RHgwbb9ymg
2qkrcoV0QKgo9gnPVHGsSAuPH1riyk5swu4huCQesEz6J4T6h7vrSMWEmFHM8a6T
e5IeENkOThwgKe+d7KF0K8Q8nkJFrTPDbfpBVQsn0fxq4wfut8F1n2M0M5dc0Ek3
IB77Dq68L8tIyA3Pv6M8XWMtH9VlBCW6hKabFH5/3x6xbwqRtNaKoP11i4XPva8n
+hLczxkFeG91UIhnAgMBAAGjgekwgeYwHQYDVR0OBBYEFEai4Bae92Wjnfj2NKDc
M4p6ri6JMB8GA1UdIwQYMBaAFAyOXh6mlqUAz/eeFJS63F4G1jftMD8GCCsGAQUF
BwEBBDMwMTAvBggrBgEFBQcwAoYjaHR0cDovL3VybC1mb3ItYWlhL0ludGVybWVk
aWF0ZS5jZXIwNAYDVR0fBC0wKzApoCegJYYjaHR0cDovL3VybC1mb3ItY3JsL0lu
dGVybWVkaWF0ZS5jcmwwDgYDVR0PAQH/BAQDAgWgMB0GA1UdJQQWMBQGCCsGAQUF
BwMBBggrBgEFBQcDAjANBgkqhkiG9w0BAQsFAAOCAQEAbEEVHRaCSwkAMGm0ZDRr
qfOXHm1Mbdh3kSGuT1Cw6/kkOQ0O2kvdai+AYWXhTidQnh6RBSMm57ZJUvFLGSUu
8MduU/MTM2OXbpGXDZ1gCJvdn0Ao7RRXQ9i/9hZl2LO3QmGqh3XhwZMXrqJt9qxI
BM6I7mGBUqNF58MZuxXmqX7jIS1EZzRYYwLzPxZjUfrYiyGejXpVmE+lzL4bdTE3
F3nl3BpLX/qIYWSM5qRNM7UU4gpRbtNwJW88VsPS/cMKR/kXNGDzK1p2SfssCuGU
ZXR1tVilkJkt2n56nqdnF9KmjaazxkYcrZtzzqez8PJEOB5+MKuqrGTiBrRrOaZ8
Ug==
-----END CERTIFICATE-----

Certificate:
    Data:
        Version: 3 (0x2)
        Serial Number: 2 (0x2)
    Signature Algorithm: sha256WithRSAEncryption
        Issuer: CN=Root
        Validity
            Not Before: Jan  1 12:00:00 2015 GMT
            Not After : Jan  1 12:00:00 2016 GMT
        Subject: CN=Intermediate
        Subject Public Key Info:
            Public Key Algorithm: rsaEncryption
                Public-Key: (2048 bit)
                Modulus:
                    00:a6:d5:5d:39:25:98:e5:a1:89:9e:75:b4:1a:98:
                    af:76:f0:08:ba:4d:5e:41:cd:92:91:25:ac:99:c4:
                    f6:43:5b:b5:d8:43:97:7c:98:9f:0b:a5:c4:9e:88:
                    7f:67:14:f3:48:4f:d4:90:0f:ca:05:31:83:28:8b:
                    0d:9b:e8:51:b9:eb:dd:d7:fc:04:2c:8c:39:b9:a5:
                    1f:68:70:23:74:40:11:f9:97:c7:6a:05:65:4a:8e:
                    26:72:cf:e1:e7:da:d2:40:d5:d9:75:5d:85:c2:4d:
                    3e:96:01:6e:65:52:bf:70:9c:68:84:69:2c:3d:42:
                    28:64:c8:3f:c9:d5:b5:3f:80:98:e1:83:8a:f5:fc:
                    79:f9:6b:08:7a:72:3a:2e:e4:48:9d:02:bd:96:4e:
                    45:74:7a:58:43:bd:7c:0c:64:96:b9:8a:4d:9f:b3:
                    94:b7:ac:7e:50:65:b3:d0:df:dd:d9:ac:98:26:7c:
                    89:fe:b1:a9:a8:52:f4:94:b7:83:8b:25:53:88:61:
                    25:f1:dd:9f:06:6d:cc:3c:79:c8:6e:a2:67:c8:b6:
                    23:20:8b:43:fc:00:f7:58:9b:78:cb:0b:a6:b9:06:
                    6f:9d:78:45:b1:b9:d1:d0:6b:d8:38:b9:78:4a:c5:
                    18:86:96:07:76:08:27:9c:a6:97:e9:5c:ae:b2:f3:
                    e7:55
                Exponent: 65537 (0x10001)
        X509v3 extensions:
            X509v3 Subject Key Identifier: 
                0C:8E:5E:1E:A6:96:A5:00:CF:F7:9E:14:94:BA:DC:5E:06:D6:37:ED
            X509v3 Authority Key Identifier: 
                keyid:BF:31:B9:15:B8:E4:01:6E:B1:24:AC:DA:D7:4B:70:C0:D1:16:8F:FC

            Authority Information Access: 
                CA Issuers - URI:http://url-for-aia/Root.cer

            X509v3 CRL Distribution Points: 

                Full Name:
                  URI:http://url-for-crl/Root.crl

            X509v3 Key Usage: critical
                Certificate Sign, CRL Sign
            X509v3 Basic Constraints: critical
                CA:TRUE
    Signature Algorithm: sha256WithRSAEncryption
         9d:2d:bc:6c:2b:e6:50:3e:c8:99:d1:18:ea:8d:f2:6b:34:7e:
         21:bb:9d:c5:a5:f6:ee:e9:64:af:46:68:2d:d0:a3:58:55:b2:
         92:e7:8f:20:00:59:08:d4:71:43:40:09:d2:e1:30:36:c2:26:
         9f:5a:69:95:5b:c4:d5:4d:46:fa:a9:2e:ad:12:0b:46:03:09:
         5d:e3:8f:64:76:c4:a0:85:b5:9b:3e:7f:e8:5c:6f:97:e0:62:
         45:b4:69:7c:24:f4:be:b7:14:e7:42:a7:9c:d7:fc:f9:39:2a:
         76:25:3d:f5:f8:81:9a:0e:e2:ff:da:2f:3c:4f:c7:8f:2f:ba:
         de:0a:11:25:8f:ce:01:37:95:2b:23:53:d1:cb:fc:6a:a7:61:
         b1:a7:0e:8c:42:74:c6:78:b5:9a:2e:a4:af:94:f0:93:41:e9:
         8e:7e:fa:52:a3:25:b2:ef:c7:7b:61:e9:9b:fd:87:6d:95:cd:
         c3:36:2a:58:90:3b:8a:eb:82:2d:79:77:36:af:9f:b1:84:fa:
         93:00:0e:37:54:ce:bc:c9:ef:7e:16:c0:1f:62:05:70:2e:b5:
         91:d4:3f:1e:cd:a1:91:d5:16:50:a8:ed:63:61:16:83:e5:b3:
         b1:94:32:7e:11:50:90:63:49:dc:a8:f2:4f:68:42:bf:3f:c1:
         45:1a:08:42
-----BEGIN CERTIFICATE-----
MIIDbTCCAlWgAwIBAgIBAjANBgkqhkiG9w0BAQsFADAPMQ0wCwYDVQQDDARSb290
MB4XDTE1MDEwMTEyMDAwMFoXDTE2MDEwMTEyMDAwMFowFzEVMBMGA1UEAwwMSW50
ZXJtZWRpYXRlMIIBIjANBgkqhkiG9w0BAQEFAAOCAQ8AMIIBCgKCAQEAptVdOSWY
5aGJnnW0GpivdvAIuk1eQc2SkSWsmcT2Q1u12EOXfJifC6XEnoh/ZxTzSE/UkA/K
BTGDKIsNm+hRuevd1/wELIw5uaUfaHAjdEAR+ZfHagVlSo4mcs/h59rSQNXZdV2F
wk0+lgFuZVK/cJxohGksPUIoZMg/ydW1P4CY4YOK9fx5+WsIenI6LuRInQK9lk5F
dHpYQ718DGSWuYpNn7OUt6x+UGWz0N/d2ayYJnyJ/rGpqFL0lLeDiyVTiGEl8d2f
Bm3MPHnIbqJnyLYjIItD/AD3WJt4ywumuQZvnXhFsbnR0GvYOLl4SsUYhpYHdggn
nKaX6VyusvPnVQIDAQABo4HLMIHIMB0GA1UdDgQWBBQMjl4eppalAM/3nhSUutxe
BtY37TAfBgNVHSMEGDAWgBS/MbkVuOQBbrEkrNrXS3DA0RaP/DA3BggrBgEFBQcB
AQQrMCkwJwYIKwYBBQUHMAKGG2h0dHA6Ly91cmwtZm9yLWFpYS9Sb290LmNlcjAs
BgNVHR8EJTAjMCGgH6AdhhtodHRwOi8vdXJsLWZvci1jcmwvUm9vdC5jcmwwDgYD
VR0PAQH/BAQDAgEGMA8GA1UdEwEB/wQFMAMBAf8wDQYJKoZIhvcNAQELBQADggEB
AJ0tvGwr5lA+yJnRGOqN8ms0fiG7ncWl9u7pZK9GaC3Qo1hVspLnjyAAWQjUcUNA
CdLhMDbCJp9aaZVbxNVNRvqpLq0SC0YDCV3jj2R2xKCFtZs+f+hcb5fgYkW0aXwk
9L63FOdCp5zX/Pk5KnYlPfX4gZoO4v/aLzxPx48vut4KESWPzgE3lSsjU9HL/Gqn
YbGnDoxCdMZ4tZoupK+U8JNB6Y5++lKjJbLvx3th6Zv9h22VzcM2KliQO4rrgi15
dzavn7GE+pMADjdUzrzJ734WwB9iBXAutZHUPx7NoZHVFlCo7WNhFoPls7GUMn4R
UJBjSdyo8k9oQr8/wUUaCEI=
-----END CERTIFICATE-----

Certificate:
    Data:
        Version: 3 (0x2)
        Serial Number: 1 (0x1)
    Signature Algorithm: sha256WithRSAEncryption
        Issuer: CN=Root
        Validity
            Not Before: Jan  1 12:00:00 2015 GMT
            Not After : Jan  1 12:00:00 2016 GMT
        Subject: CN=Root
        Subject Public Key Info:
            Public Key Algorithm: rsaEncryption
                Public-Key: (2048 bit)
                Modulus:
                    00:e9:9e:ac:cf:f1:ea:0e:19:26:bc:7a:38:a4:5f:
                    0d:33:c4:69:32:3e:0d:ca:46:55:b5:e4:cc:63:0d:
                    b1:c7:50:99:9e:39:72:a5:05:37:22:3a:04:e0:ff:
                    9b:3e:1f:d6:b6:b5:f1:a9:38:58:a0:a2:a6:b7:7b:
                    48:6f:dc:8f:f4:32:7d:ca:a5:4f:bd:fa:26:9c:8b:
                    c1:01:ed:7f:ed:d5:f1:ef:b1:42:df:36:bd:06:8a:
                    b0:2f:49:74:65:5f:f4:01:c6:b8:3d:bf:25:fd:cb:
                    49:ce:e2:c6:a5:3e:7e:18:92:27:5f:60:82:b3:78:
                    77:39:bb:ea:05:b1:e0:c2:74:b6:7f:f4:42:7b:ae:
                    24:1b:e5:f9:ef:24:48:13:af:05:75:6c:4f:da:e3:
                    59:c4:ad:2f:46:6c:8c:dc:5a:2e:75:57:31:b7:1e:
                    8c:57:43:c7:68:4b:b9:e7:73:41:6f:45:09:79:e0:
                    cc:69:98:80:c2:9d:e0:7a:e1:e0:57:d2:6f:0f:af:
                    27:70:01:0f:2a:c1:f2:83:64:09:c7:3b:ad:80:12:
                    19:6a:b0:b1:3c:39:e3:fa:8a:a8:23:3f:f0:1f:6c:
                    8c:63:e8:9a:7c:8a:a6:fd:9b:a6:ca:46:7c:de:39:
                    5d:ba:0b:5e:17:5c:e1:0b:8f:5c:fa:79:66:96:d9:
                    d2:41
                Exponent: 65537 (0x10001)
        X509v3 extensions:
            X509v3 Subject Key Identifier: 
                BF:31:B9:15:B8:E4:01:6E:B1:24:AC:DA:D7:4B:70:C0:D1:16:8F:FC
            X509v3 Authority Key Identifier: 
                keyid:BF:31:B9:15:B8:E4:01:6E:B1:24:AC:DA:D7:4B:70:C0:D1:16:8F:FC

            Authority Information Access: 
                CA Issuers - URI:http://url-for-aia/Root.cer

            X509v3 CRL Distribution Points: 

                Full Name:
                  URI:http://url-for-crl/Root.crl

            X509v3 Key Usage: critical
                Certificate Sign, CRL Sign
            X509v3 Basic Constraints: critical
                CA:TRUE
    Signature Algorithm: sha256WithRSAEncryption
         d3:ff:ab:16:f3:f5:25:e8:4f:77:fb:d2:98:0f:62:60:29:66:
         71:d3:f9:e9:7d:06:03:1f:1e:59:0f:dc:12:39:13:47:a7:ab:
         85:a2:38:8e:bf:f4:20:e9:de:b7:61:39:cc:b3:dc:97:1d:7d:
         2d:5f:22:14:48:aa:13:6f:1f:a2:d4:c4:cb:1e:88:d5:b0:1d:
         38:7a:8d:4c:c8:14:59:58:ba:64:83:1c:80:94:0a:9a:04:e1:
         f8:b6:3f:fb:cb:3f:d5:d8:52:ea:83:d9:07:d3:6f:d0:81:ff:
         05:d0:7b:3c:ab:8c:72:86:95:9d:21:d6:9d:41:3d:47:57:8b:
         ae:fb:b2:91:0a:2a:9d:57:85:73:e5:f5:6d:cb:22:18:03:aa:
         b0:89:e4:ac:e7:5f:32:46:1e:52:3d:e2:fc:75:04:77:43:a7:
         db:85:c4:19:3a:ba:a9:a3:98:1b:c4:b5:b5:6a:ee:5a:b1:d8:
         12:da:46:5f:3e:82:90:74:8a:19:e7:84:1a:f2:10:98:67:2d:
         75:7e:eb:85:9a:ad:af:e3:e5:ee:5a:f8:61:19:1f:e6:df:e9:
         8d:a8:50:90:7e:87:25:d4:b5:5b:2f:d5:98:b7:40:1f:41:1a:
         62:48:b7:ac:c0:c0:85:7d:8c:20:8b:54:53:d2:b6:ad:a1:6d:
         fa:7d:d6:a8
-----BEGIN TRUST_ANCHOR_UNCONSTRAINED-----
MIIDZTCCAk2gAwIBAgIBATANBgkqhkiG9w0BAQsFADAPMQ0wCwYDVQQDDARSb290
MB4XDTE1MDEwMTEyMDAwMFoXDTE2MDEwMTEyMDAwMFowDzENMAsGA1UEAwwEUm9v
dDCCASIwDQYJKoZIhvcNAQEBBQADggEPADCCAQoCggEBAOmerM/x6g4ZJrx6OKRf
DTPEaTI+DcpGVbXkzGMNscdQmZ45cqUFNyI6BOD/mz4f1ra18ak4WKCiprd7SG/c
j/QyfcqlT736JpyLwQHtf+3V8e+xQt82vQaKsC9JdGVf9AHGuD2/Jf3LSc7ixqU+
fhiSJ19ggrN4dzm76gWx4MJ0tn/0QnuuJBvl+e8kSBOvBXVsT9rjWcStL0ZsjNxa
LnVXMbcejFdDx2hLuedzQW9FCXngzGmYgMKd4Hrh4FfSbw+vJ3ABDyrB8oNkCcc7
rYASGWqwsTw54/qKqCM/8B9sjGPomnyKpv2bpspGfN45XboLXhdc4QuPXPp5ZpbZ
0kECAwEAAaOByzCByDAdBgNVHQ4EFgQUvzG5FbjkAW6xJKza10twwNEWj/wwHwYD
VR0jBBgwFoAUvzG5FbjkAW6xJKza10twwNEWj/wwNwYIKwYBBQUHAQEEKzApMCcG
CCsGAQUFBzAChhtodHRwOi8vdXJsLWZvci1haWEvUm9vdC5jZXIwLAYDVR0fBCUw
IzAhoB+gHYYbaHR0cDovL3VybC1mb3ItY3JsL1Jvb3QuY3JsMA4GA1UdDwEB/wQE
AwIBBjAPBgNVHRMBAf8EBTADAQH/MA0GCSqGSIb3DQEBCwUAA4IBAQDT/6sW8/Ul
6E93+9KYD2JgKWZx0/npfQYDHx5ZD9wSORNHp6uFojiOv/Qg6d63YTnMs9yXHX0t
XyIUSKoTbx+i1MTLHojVsB04eo1MyBRZWLpkgxyAlAqaBOH4tj/7yz/V2FLqg9kH
02/Qgf8F0Hs8q4xyhpWdIdadQT1HV4uu+7KRCiqdV4Vz5fVtyyIYA6qwieSs518y
Rh5SPeL8dQR3Q6fbhcQZOrqpo5gbxLW1au5asdgS2kZfPoKQdIoZ54Qa8hCYZy11
fuuFmq2v4+XuWvhhGR/m3+mNqFCQfocl1LVbL9WYt0AfQRpiSLeswMCFfYwgi1RT
0ratoW36fdao
-----END TRUST_ANCHOR_UNCONSTRAINED-----

150302120000Z
-----BEGIN TIME-----
MTUwMzAyMTIwMDAwWg==
-----END TIME-----

SUCCESS
-----BEGIN VERIFY_RESULT-----
U1VDQ0VTUw==
-----END VERIFY_RESULT-----

serverAuth
-----BEGIN KEY_PURPOSE-----
c2VydmVyQXV0aA==
-----END KEY_PURPOSE-----
