[Created by: generate-key-rollover.py]

A certificate tree with two self-signed root certificates(oldroot, newroot),
and a third root certificate (newrootrollover) which has the same key as newroot
but is signed by oldroot, all with the same subject and issuer.
There are two intermediates with the same key, subject and issuer
(oldintermediate signed by oldroot, and newintermediate signed by newroot).
The target certificate is signed by the intermediate key.


In graphical form:

   oldroot-------->newrootrollover  newroot
      |                      |        |
      v                      v        v
oldintermediate           newintermediate
      |                          |
      +------------+-------------+
                   |
                   v
                 target


Several chains are output:
  key-rollover-oldchain.pem:
    target<-oldintermediate<-oldroot
  key-rollover-rolloverchain.pem:
    target<-newintermediate<-newrootrollover<-oldroot
  key-rollover-longrolloverchain.pem:
    target<-newintermediate<-newroot<-newrootrollover<-oldroot
  key-rollover-newchain.pem:
    target<-newintermediate<-newroot

All of these chains should verify successfully.


Certificate:
    Data:
        Version: 3 (0x2)
        Serial Number: 1 (0x1)
    Signature Algorithm: sha256WithRSAEncryption
        Issuer: CN=Intermediate
        Validity
            Not Before: Jan  1 12:00:00 2015 GMT
            Not After : Jan  1 12:00:00 2016 GMT
        Subject: CN=Target
        Subject Public Key Info:
            Public Key Algorithm: rsaEncryption
                Public-Key: (2048 bit)
                Modulus:
                    00:c4:05:bc:50:38:65:d6:ab:9b:ee:36:82:c0:43:
                    3b:8d:75:18:05:05:2d:64:d7:f2:67:41:db:8b:2a:
                    1a:31:8d:25:b5:54:f3:80:f8:47:13:0e:b3:04:93:
                    a8:f2:d2:12:12:0d:1f:fa:fc:01:56:60:61:77:7b:
                    99:56:da:27:06:70:cc:39:22:01:a5:bd:fe:2a:aa:
                    70:52:90:cd:c6:2f:f9:81:1f:5d:6f:bb:b5:0e:3f:
                    7c:03:cf:b4:47:83:06:db:f7:29:a0:da:a9:2b:72:
                    85:74:40:a8:28:f6:09:cf:54:71:ac:48:0b:8f:1f:
                    5a:e2:ca:4e:6c:c2:ee:21:b8:24:1e:b0:4c:fa:27:
                    84:fa:87:bb:eb:48:c5:84:98:51:cc:f1:ae:93:7b:
                    92:1e:10:d9:0e:4e:1c:20:29:ef:9d:ec:a1:74:2b:
                    c4:3c:9e:42:45:ad:33:c3:6d:fa:41:55:0b:27:d1:
                    fc:6a:e3:07:ee:b7:c1:75:9f:63:34:33:97:5c:d0:
                    49:37:20:1e:fb:0e:ae:bc:2f:cb:48:c8:0d:cf:bf:
                    a3:3c:5d:63:2d:1f:d5:65:04:25:ba:84:a6:9b:14:
                    7e:7f:df:1e:b1:6f:0a:91:b4:d6:8a:a0:fd:75:8b:
                    85:cf:bd:af:27:fa:12:dc:cf:19:05:78:6f:75:50:
                    88:67
                Exponent: 65537 (0x10001)
        X509v3 extensions:
            X509v3 Subject Key Identifier: 
                46:A2:E0:16:9E:F7:65:A3:9D:F8:F6:34:A0:DC:33:8A:7A:AE:2E:89
            X509v3 Authority Key Identifier: 
                keyid:0C:8E:5E:1E:A6:96:A5:00:CF:F7:9E:14:94:BA:DC:5E:06:D6:37:ED

            Authority Information Access: 
                CA Issuers - URI:http://url-for-aia/Intermediate.cer

            X509v3 CRL Distribution Points: 

                Full Name:
                  URI:http://url-for-crl/Intermediate.crl

            X509v3 Key Usage: critical
                Digital Signature, Key Encipherment
            X509v3 Extended Key Usage: 
                TLS Web Server Authentication, TLS Web Client Authentication
    Signature Algorithm: sha256WithRSAEncryption
         6c:41:15:1d:16:82:4b:09:00:30:69:b4:64:34:6b:a9:f3:97:
         1e:6d:4c:6d:d8:77:91:21:ae:4f:50:b0:eb:f9:24:39:0d:0e:
         da:4b:dd:6a:2f:80:61:65:e1:4e:27:50:9e:1e:91:05:23:26:
         e7:b6:49:52:f1:4b:19:25:2e:f0:c7:6e:53:f3:13:33:63:97:
         6e:91:97:0d:9d:60:08:9b:dd:9f:40:28:ed:14:57:43:d8:bf:
         f6:16:65:d8:b3:b7:42:61:aa:87:75:e1:c1:93:17:ae:a2:6d:
         f6:ac:48:04:ce:88:ee:61:81:52:a3:45:e7:c3:19:bb:15:e6:
         a9:7e:e3:21:2d:44:67:34:58:63:02:f3:3f:16:63:51:fa:d8:
         8b:21:9e:8d:7a:55:98:4f:a5:cc:be:1b:75:31:37:17:79:e5:
         dc:1a:4b:5f:fa:88:61:64:8c:e6:a4:4d:33:b5:14:e2:0a:51:
         6e:d3:70:25:6f:3c:56:c3:d2:fd:c3:0a:47:f9:17:34:60:f3:
         2b:5a:76:49:fb:2c:0a:e1:94:65:74:75:b5:58:a5:90:99:2d:
         da:7e:7a:9e:a7:67:17:d2:a6:8d:a6:b3:c6:46:1c:ad:9b:73:
         ce:a7:b3:f0:f2:44:38:1e:7e:30:ab:aa:ac:64:e2:06:b4:6b:
         39:a6:7c:52
-----BEGIN CERTIFICATE-----
MIIDjTCCAnWgAwIBAgIBATANBgkqhkiG9w0BAQsFADAXMRUwEwYDVQQDDAxJbnRl
cm1lZGlhdGUwHhcNMTUwMTAxMTIwMDAwWhcNMTYwMTAxMTIwMDAwWjARMQ8wDQYD
VQQDDAZUYXJnZXQwggEiMA0GCSqGSIb3DQEBAQUAA4IBDwAwggEKAoIBAQDEBbxQ
OGXWq5vuNoLAQzuNdRgFBS1k1/JnQduLKhoxjSW1VPOA+EcTDrMEk6jy0hISDR/6
/AFWYGF3e5lW2icGcMw5IgGlvf4qqnBSkM3GL/mBH11vu7UOP3wDz7RHgwbb9ymg
2qkrcoV0QKgo9gnPVHGsSAuPH1riyk5swu4huCQesEz6J4T6h7vrSMWEmFHM8a6T
e5IeENkOThwgKe+d7KF0K8Q8nkJFrTPDbfpBVQsn0fxq4wfut8F1n2M0M5dc0Ek3
IB77Dq68L8tIyA3Pv6M8XWMtH9VlBCW6hKabFH5/3x6xbwqRtNaKoP11i4XPva8n
+hLczxkFeG91UIhnAgMBAAGjgekwgeYwHQYDVR0OBBYEFEai4Bae92Wjnfj2NKDc
M4p6ri6JMB8GA1UdIwQYMBaAFAyOXh6mlqUAz/eeFJS63F4G1jftMD8GCCsGAQUF
BwEBBDMwMTAvBggrBgEFBQcwAoYjaHR0cDovL3VybC1mb3ItYWlhL0ludGVybWVk
aWF0ZS5jZXIwNAYDVR0fBC0wKzApoCegJYYjaHR0cDovL3VybC1mb3ItY3JsL0lu
dGVybWVkaWF0ZS5jcmwwDgYDVR0PAQH/BAQDAgWgMB0GA1UdJQQWMBQGCCsGAQUF
BwMBBggrBgEFBQcDAjANBgkqhkiG9w0BAQsFAAOCAQEAbEEVHRaCSwkAMGm0ZDRr
qfOXHm1Mbdh3kSGuT1Cw6/kkOQ0O2kvdai+AYWXhTidQnh6RBSMm57ZJUvFLGSUu
8MduU/MTM2OXbpGXDZ1gCJvdn0Ao7RRXQ9i/9hZl2LO3QmGqh3XhwZMXrqJt9qxI
BM6I7mGBUqNF58MZuxXmqX7jIS1EZzRYYwLzPxZjUfrYiyGejXpVmE+lzL4bdTE3
F3nl3BpLX/qIYWSM5qRNM7UU4gpRbtNwJW88VsPS/cMKR/kXNGDzK1p2SfssCuGU
ZXR1tVilkJkt2n56nqdnF9KmjaazxkYcrZtzzqez8PJEOB5+MKuqrGTiBrRrOaZ8
Ug==
-----END CERTIFICATE-----

Certificate:
    Data:
        Version: 3 (0x2)
        Serial Number: 4 (0x4)
    Signature Algorithm: sha256WithRSAEncryption
        Issuer: CN=Root
        Validity
            Not Before: Jan  2 12:00:00 2015 GMT
            Not After : Jan  1 12:00:00 2016 GMT
        Subject: CN=Intermediate
        Subject Public Key Info:
            Public Key Algorithm: rsaEncryption
                Public-Key: (2048 bit)
                Modulus:
                    00:a6:d5:5d:39:25:98:e5:a1:89:9e:75:b4:1a:98:
                    af:76:f0:08:ba:4d:5e:41:cd:92:91:25:ac:99:c4:
                    f6:43:5b:b5:d8:43:97:7c:98:9f:0b:a5:c4:9e:88:
                    7f:67:14:f3:48:4f:d4:90:0f:ca:05:31:83:28:8b:
                    0d:9b:e8:51:b9:eb:dd:d7:fc:04:2c:8c:39:b9:a5:
                    1f:68:70:23:74:40:11:f9:97:c7:6a:05:65:4a:8e:
                    26:72:cf:e1:e7:da:d2:40:d5:d9:75:5d:85:c2:4d:
                    3e:96:01:6e:65:52:bf:70:9c:68:84:69:2c:3d:42:
                    28:64:c8:3f:c9:d5:b5:3f:80:98:e1:83:8a:f5:fc:
                    79:f9:6b:08:7a:72:3a:2e:e4:48:9d:02:bd:96:4e:
                    45:74:7a:58:43:bd:7c:0c:64:96:b9:8a:4d:9f:b3:
                    94:b7:ac:7e:50:65:b3:d0:df:dd:d9:ac:98:26:7c:
                    89:fe:b1:a9:a8:52:f4:94:b7:83:8b:25:53:88:61:
                    25:f1:dd:9f:06:6d:cc:3c:79:c8:6e:a2:67:c8:b6:
                    23:20:8b:43:fc:00:f7:58:9b:78:cb:0b:a6:b9:06:
                    6f:9d:78:45:b1:b9:d1:d0:6b:d8:38:b9:78:4a:c5:
                    18:86:96:07:76:08:27:9c:a6:97:e9:5c:ae:b2:f3:
                    e7:55
                Exponent: 65537 (0x10001)
        X509v3 extensions:
            X509v3 Subject Key Identifier: 
                0C:8E:5E:1E:A6:96:A5:00:CF:F7:9E:14:94:BA:DC:5E:06:D6:37:ED
            X509v3 Authority Key Identifier: 
                keyid:61:49:35:31:AE:36:D2:18:FE:60:67:87:3A:FF:90:D5:ED:5E:BD:C0

            Authority Information Access: 
                CA Issuers - URI:http://url-for-aia/Root.cer

            X509v3 CRL Distribution Points: 

                Full Name:
                  URI:http://url-for-crl/Root.crl

            X509v3 Key Usage: critical
                Certificate Sign, CRL Sign
            X509v3 Basic Constraints: critical
                CA:TRUE
    Signature Algorithm: sha256WithRSAEncryption
         5f:b7:f2:f0:06:94:30:f6:09:86:d6:b2:dc:c6:d2:35:4d:07:
         bf:b3:45:f8:0a:44:fe:fd:80:90:a0:93:73:19:19:2c:9e:21:
         90:76:64:0c:fc:f6:26:ef:8d:e6:13:30:10:fe:7f:9f:98:9e:
         9c:9f:a1:d2:9b:ab:99:90:df:d3:96:e3:78:ae:e5:6a:a7:2e:
         81:b7:89:f2:a0:85:be:57:7f:7f:a0:30:e1:ce:02:e3:1c:31:
         1f:d5:9f:e2:db:6c:9b:ab:90:ba:0c:0c:a3:92:6b:3d:f3:88:
         4f:75:5f:42:c1:66:fe:16:93:29:3c:1f:23:f5:19:63:2d:62:
         4a:6e:05:02:82:6e:6a:38:c0:8b:27:45:80:d3:a2:34:47:ce:
         83:ed:00:7f:31:de:4e:8c:01:1f:63:d7:61:bc:ac:f9:45:dc:
         12:09:fc:4c:75:d3:46:b8:2f:95:c7:ff:21:64:37:e4:79:7e:
         2d:de:26:ef:d3:9f:2f:8f:0c:78:2f:e0:ac:10:e9:04:52:69:
         a4:78:b5:08:1a:a2:75:38:26:62:c0:74:e6:38:d1:50:44:5b:
         a2:40:8c:68:8e:6a:1f:fa:48:51:2b:db:d2:6b:98:1e:3f:b3:
         67:c6:0b:a4:a9:54:54:f1:37:40:1c:53:a3:57:a1:fa:0f:da:
         b3:aa:4d:79
-----BEGIN CERTIFICATE-----
MIIDbTCCAlWgAwIBAgIBBDANBgkqhkiG9w0BAQsFADAPMQ0wCwYDVQQDDARSb290
MB4XDTE1MDEwMjEyMDAwMFoXDTE2MDEwMTEyMDAwMFowFzEVMBMGA1UEAwwMSW50
ZXJtZWRpYXRlMIIBIjANBgkqhkiG9w0BAQEFAAOCAQ8AMIIBCgKCAQEAptVdOSWY
5aGJnnW0GpivdvAIuk1eQc2SkSWsmcT2Q1u12EOXfJifC6XEnoh/ZxTzSE/UkA/K
BTGDKIsNm+hRuevd1/wELIw5uaUfaHAjdEAR+ZfHagVlSo4mcs/h59rSQNXZdV2F
wk0+lgFuZVK/cJxohGksPUIoZMg/ydW1P4CY4YOK9fx5+WsIenI6LuRInQK9lk5F
dHpYQ718DGSWuYpNn7OUt6x+UGWz0N/d2ayYJnyJ/rGpqFL0lLeDiyVTiGEl8d2f
Bm3MPHnIbqJnyLYjIItD/AD3WJt4ywumuQZvnXhFsbnR0GvYOLl4SsUYhpYHdggn
nKaX6VyusvPnVQIDAQABo4HLMIHIMB0GA1UdDgQWBBQMjl4eppalAM/3nhSUutxe
BtY37TAfBgNVHSMEGDAWgBRhSTUxrjbSGP5gZ4c6/5DV7V69wDA3BggrBgEFBQcB
AQQrMCkwJwYIKwYBBQUHMAKGG2h0dHA6Ly91cmwtZm9yLWFpYS9Sb290LmNlcjAs
BgNVHR8EJTAjMCGgH6AdhhtodHRwOi8vdXJsLWZvci1jcmwvUm9vdC5jcmwwDgYD
VR0PAQH/BAQDAgEGMA8GA1UdEwEB/wQFMAMBAf8wDQYJKoZIhvcNAQELBQADggEB
AF+38vAGlDD2CYbWstzG0jVNB7+zRfgKRP79gJCgk3MZGSyeIZB2ZAz89ibvjeYT
MBD+f5+YnpyfodKbq5mQ39OW43iu5WqnLoG3ifKghb5Xf3+gMOHOAuMcMR/Vn+Lb
bJurkLoMDKOSaz3ziE91X0LBZv4Wkyk8HyP1GWMtYkpuBQKCbmo4wIsnRYDTojRH
zoPtAH8x3k6MAR9j12G8rPlF3BIJ/Ex100a4L5XH/yFkN+R5fi3eJu/Tny+PDHgv
4KwQ6QRSaaR4tQgaonU4JmLAdOY40VBEW6JAjGiOah/6SFEr29JrmB4/s2fGC6Sp
VFTxN0AcU6NXofoP2rOqTXk=
-----END CERTIFICATE-----

Certificate:
    Data:
        Version: 3 (0x2)
        Serial Number: 5 (0x5)
    Signature Algorithm: sha256WithRSAEncryption
        Issuer: CN=Root
        Validity
            Not Before: Jan  2 12:00:00 2015 GMT
            Not After : Jan  1 12:00:00 2016 GMT
        Subject: CN=Root
        Subject Public Key Info:
            Public Key Algorithm: rsaEncryption
                Public-Key: (2048 bit)
                Modulus:
                    00:bd:06:64:9c:f5:b5:d8:7e:e0:68:ea:1b:31:ba:
                    6f:f5:00:3e:52:b3:d6:b1:1a:2c:13:37:ec:31:55:
                    ec:0e:e1:c0:52:ba:cf:2a:0a:05:e5:a2:55:c4:0b:
                    9c:00:c7:cc:63:83:4b:d0:4c:8c:f0:74:ac:73:d5:
                    a0:59:39:d4:f2:a5:07:6f:39:ed:6c:6f:36:cc:18:
                    76:59:49:06:87:94:a5:a2:bd:92:65:95:f4:55:3e:
                    45:e0:dc:52:2f:ca:a8:01:bb:7a:ba:00:f1:ba:2d:
                    5f:4d:c2:d2:56:b0:d6:23:eb:99:7a:f5:67:ae:d3:
                    07:75:07:4d:70:5f:75:c7:c3:fd:b5:f9:26:23:7c:
                    08:8a:1b:58:09:59:9a:64:91:f5:c6:51:54:c8:27:
                    e6:53:9b:73:34:11:1e:42:6b:9c:85:e7:6e:c1:1c:
                    88:0e:cf:ca:2f:e0:fc:aa:d4:fc:24:e1:e6:4a:f4:
                    ad:02:56:08:79:aa:0d:a6:99:03:63:a7:e0:68:51:
                    6a:cb:d4:de:35:e3:7e:d0:1a:e1:eb:d9:ba:21:91:
                    b9:77:66:2d:4c:55:2f:73:c8:e7:49:a0:f1:bd:22:
                    0f:0f:ac:31:4a:76:c4:e3:2f:dc:fc:09:00:b8:a1:
                    dd:dd:d8:36:86:66:ec:63:ae:2e:4e:27:bc:0b:46:
                    be:e9
                Exponent: 65537 (0x10001)
        X509v3 extensions:
            X509v3 Subject Key Identifier: 
                61:49:35:31:AE:36:D2:18:FE:60:67:87:3A:FF:90:D5:ED:5E:BD:C0
            X509v3 Authority Key Identifier: 
                keyid:BF:31:B9:15:B8:E4:01:6E:B1:24:AC:DA:D7:4B:70:C0:D1:16:8F:FC

            Authority Information Access: 
                CA Issuers - URI:http://url-for-aia/Root.cer

            X509v3 CRL Distribution Points: 

                Full Name:
                  URI:http://url-for-crl/Root.crl

            X509v3 Key Usage: critical
                Certificate Sign, CRL Sign
            X509v3 Basic Constraints: critical
                CA:TRUE
    Signature Algorithm: sha256WithRSAEncryption
         3e:21:b0:9f:e1:0c:4c:62:3f:0a:d8:0b:97:bc:98:de:4d:18:
         b6:88:51:bd:db:59:dc:63:ed:13:fa:52:76:59:13:b3:aa:c6:
         42:3a:7e:e9:3c:cd:12:68:c0:54:55:32:8a:13:17:a4:f6:64:
         b1:22:f7:01:29:80:a6:94:c6:06:4c:e8:97:81:16:9c:ce:cf:
         ed:fc:a3:2a:19:70:8f:10:0e:32:15:dc:25:fb:45:41:87:96:
         1a:ef:7f:be:65:24:a7:0d:cf:77:f0:ce:b1:27:21:9d:c4:a1:
         24:ae:f0:9e:54:f2:f3:04:ac:fe:43:f1:c0:b5:f1:48:3c:57:
         39:fb:7e:b6:c9:b8:29:57:f5:82:2e:4f:43:60:ff:d7:3a:54:
         64:15:a4:11:c3:5f:ea:21:84:6b:ef:e6:2d:29:8c:e5:ab:d2:
         aa:9f:d4:b3:c2:ea:5f:76:e7:c8:9b:a4:76:4c:99:2b:05:96:
         60:e2:1e:f9:44:d7:c5:3a:80:e0:a4:7c:f8:ca:f8:5a:c6:63:
         2b:9c:71:5a:7d:a4:03:69:b4:e3:dd:be:1b:e4:01:b3:53:b4:
         46:5c:c2:8b:85:62:3e:f5:87:bd:5f:73:36:a0:c4:e6:a8:bc:
         58:c4:bf:84:67:e3:00:f6:98:64:30:66:ba:8b:92:b5:b2:7f:
         5d:e9:75:a7
-----BEGIN CERTIFICATE-----
MIIDZTCCAk2gAwIBAgIBBTANBgkqhkiG9w0BAQsFADAPMQ0wCwYDVQQDDARSb290
MB4XDTE1MDEwMjEyMDAwMFoXDTE2MDEwMTEyMDAwMFowDzENMAsGA1UEAwwEUm9v
dDCCASIwDQYJKoZIhvcNAQEBBQADggEPADCCAQoCggEBAL0GZJz1tdh+4GjqGzG6
b/UAPlKz1rEaLBM37DFV7A7hwFK6zyoKBeWiVcQLnADHzGODS9BMjPB0rHPVoFk5
1PKlB2857WxvNswYdllJBoeUpaK9kmWV9FU+ReDcUi/KqAG7eroA8botX03C0law
1iPrmXr1Z67TB3UHTXBfdcfD/bX5JiN8CIobWAlZmmSR9cZRVMgn5lObczQRHkJr
nIXnbsEciA7Pyi/g/KrU/CTh5kr0rQJWCHmqDaaZA2On4GhRasvU3jXjftAa4evZ
uiGRuXdmLUxVL3PI50mg8b0iDw+sMUp2xOMv3PwJALih3d3YNoZm7GOuLk4nvAtG
vukCAwEAAaOByzCByDAdBgNVHQ4EFgQUYUk1Ma420hj+YGeHOv+Q1e1evcAwHwYD
VR0jBBgwFoAUvzG5FbjkAW6xJKza10twwNEWj/wwNwYIKwYBBQUHAQEEKzApMCcG
CCsGAQUFBzAChhtodHRwOi8vdXJsLWZvci1haWEvUm9vdC5jZXIwLAYDVR0fBCUw
IzAhoB+gHYYbaHR0cDovL3VybC1mb3ItY3JsL1Jvb3QuY3JsMA4GA1UdDwEB/wQE
AwIBBjAPBgNVHRMBAf8EBTADAQH/MA0GCSqGSIb3DQEBCwUAA4IBAQA+IbCf4QxM
Yj8K2AuXvJjeTRi2iFG921ncY+0T+lJ2WROzqsZCOn7pPM0SaMBUVTKKExek9mSx
IvcBKYCmlMYGTOiXgRaczs/t/KMqGXCPEA4yFdwl+0VBh5Ya73++ZSSnDc938M6x
JyGdxKEkrvCeVPLzBKz+Q/HAtfFIPFc5+362ybgpV/WCLk9DYP/XOlRkFaQRw1/q
IYRr7+YtKYzlq9Kqn9SzwupfdufIm6R2TJkrBZZg4h75RNfFOoDgpHz4yvhaxmMr
nHFafaQDabTj3b4b5AGzU7RGXMKLhWI+9Ye9X3M2oMTmqLxYxL+EZ+MA9phkMGa6
i5K1sn9d6XWn
-----END CERTIFICATE-----

Certificate:
    Data:
        Version: 3 (0x2)
        Serial Number: 1 (0x1)
    Signature Algorithm: sha256WithRSAEncryption
        Issuer: CN=Root
        Validity
            Not Before: Jan  1 12:00:00 2015 GMT
            Not After : Jan  1 12:00:00 2016 GMT
        Subject: CN=Root
        Subject Public Key Info:
            Public Key Algorithm: rsaEncryption
                Public-Key: (2048 bit)
                Modulus:
                    00:e9:9e:ac:cf:f1:ea:0e:19:26:bc:7a:38:a4:5f:
                    0d:33:c4:69:32:3e:0d:ca:46:55:b5:e4:cc:63:0d:
                    b1:c7:50:99:9e:39:72:a5:05:37:22:3a:04:e0:ff:
                    9b:3e:1f:d6:b6:b5:f1:a9:38:58:a0:a2:a6:b7:7b:
                    48:6f:dc:8f:f4:32:7d:ca:a5:4f:bd:fa:26:9c:8b:
                    c1:01:ed:7f:ed:d5:f1:ef:b1:42:df:36:bd:06:8a:
                    b0:2f:49:74:65:5f:f4:01:c6:b8:3d:bf:25:fd:cb:
                    49:ce:e2:c6:a5:3e:7e:18:92:27:5f:60:82:b3:78:
                    77:39:bb:ea:05:b1:e0:c2:74:b6:7f:f4:42:7b:ae:
                    24:1b:e5:f9:ef:24:48:13:af:05:75:6c:4f:da:e3:
                    59:c4:ad:2f:46:6c:8c:dc:5a:2e:75:57:31:b7:1e:
                    8c:57:43:c7:68:4b:b9:e7:73:41:6f:45:09:79:e0:
                    cc:69:98:80:c2:9d:e0:7a:e1:e0:57:d2:6f:0f:af:
                    27:70:01:0f:2a:c1:f2:83:64:09:c7:3b:ad:80:12:
                    19:6a:b0:b1:3c:39:e3:fa:8a:a8:23:3f:f0:1f:6c:
                    8c:63:e8:9a:7c:8a:a6:fd:9b:a6:ca:46:7c:de:39:
                    5d:ba:0b:5e:17:5c:e1:0b:8f:5c:fa:79:66:96:d9:
                    d2:41
                Exponent: 65537 (0x10001)
        X509v3 extensions:
            X509v3 Subject Key Identifier: 
                BF:31:B9:15:B8:E4:01:6E:B1:24:AC:DA:D7:4B:70:C0:D1:16:8F:FC
            X509v3 Authority Key Identifier: 
                keyid:BF:31:B9:15:B8:E4:01:6E:B1:24:AC:DA:D7:4B:70:C0:D1:16:8F:FC

            Authority Information Access: 
                CA Issuers - URI:http://url-for-aia/Root.cer

            X509v3 CRL Distribution Points: 

                Full Name:
                  URI:http://url-for-crl/Root.crl

            X509v3 Key Usage: critical
                Certificate Sign, CRL Sign
            X509v3 Basic Constraints: critical
                CA:TRUE
    Signature Algorithm: sha256WithRSAEncryption
         d3:ff:ab:16:f3:f5:25:e8:4f:77:fb:d2:98:0f:62:60:29:66:
         71:d3:f9:e9:7d:06:03:1f:1e:59:0f:dc:12:39:13:47:a7:ab:
         85:a2:38:8e:bf:f4:20:e9:de:b7:61:39:cc:b3:dc:97:1d:7d:
         2d:5f:22:14:48:aa:13:6f:1f:a2:d4:c4:cb:1e:88:d5:b0:1d:
         38:7a:8d:4c:c8:14:59:58:ba:64:83:1c:80:94:0a:9a:04:e1:
         f8:b6:3f:fb:cb:3f:d5:d8:52:ea:83:d9:07:d3:6f:d0:81:ff:
         05:d0:7b:3c:ab:8c:72:86:95:9d:21:d6:9d:41:3d:47:57:8b:
         ae:fb:b2:91:0a:2a:9d:57:85:73:e5:f5:6d:cb:22:18:03:aa:
         b0:89:e4:ac:e7:5f:32:46:1e:52:3d:e2:fc:75:04:77:43:a7:
         db:85:c4:19:3a:ba:a9:a3:98:1b:c4:b5:b5:6a:ee:5a:b1:d8:
         12:da:46:5f:3e:82:90:74:8a:19:e7:84:1a:f2:10:98:67:2d:
         75:7e:eb:85:9a:ad:af:e3:e5:ee:5a:f8:61:19:1f:e6:df:e9:
         8d:a8:50:90:7e:87:25:d4:b5:5b:2f:d5:98:b7:40:1f:41:1a:
         62:48:b7:ac:c0:c0:85:7d:8c:20:8b:54:53:d2:b6:ad:a1:6d:
         fa:7d:d6:a8
-----BEGIN TRUST_ANCHOR_UNCONSTRAINED-----
MIIDZTCCAk2gAwIBAgIBATANBgkqhkiG9w0BAQsFADAPMQ0wCwYDVQQDDARSb290
MB4XDTE1MDEwMTEyMDAwMFoXDTE2MDEwMTEyMDAwMFowDzENMAsGA1UEAwwEUm9v
dDCCASIwDQYJKoZIhvcNAQEBBQADggEPADCCAQoCggEBAOmerM/x6g4ZJrx6OKRf
DTPEaTI+DcpGVbXkzGMNscdQmZ45cqUFNyI6BOD/mz4f1ra18ak4WKCiprd7SG/c
j/QyfcqlT736JpyLwQHtf+3V8e+xQt82vQaKsC9JdGVf9AHGuD2/Jf3LSc7ixqU+
fhiSJ19ggrN4dzm76gWx4MJ0tn/0QnuuJBvl+e8kSBOvBXVsT9rjWcStL0ZsjNxa
LnVXMbcejFdDx2hLuedzQW9FCXngzGmYgMKd4Hrh4FfSbw+vJ3ABDyrB8oNkCcc7
rYASGWqwsTw54/qKqCM/8B9sjGPomnyKpv2bpspGfN45XboLXhdc4QuPXPp5ZpbZ
0kECAwEAAaOByzCByDAdBgNVHQ4EFgQUvzG5FbjkAW6xJKza10twwNEWj/wwHwYD
VR0jBBgwFoAUvzG5FbjkAW6xJKza10twwNEWj/wwNwYIKwYBBQUHAQEEKzApMCcG
CCsGAQUFBzAChhtodHRwOi8vdXJsLWZvci1haWEvUm9vdC5jZXIwLAYDVR0fBCUw
IzAhoB+gHYYbaHR0cDovL3VybC1mb3ItY3JsL1Jvb3QuY3JsMA4GA1UdDwEB/wQE
AwIBBjAPBgNVHRMBAf8EBTADAQH/MA0GCSqGSIb3DQEBCwUAA4IBAQDT/6sW8/Ul
6E93+9KYD2JgKWZx0/npfQYDHx5ZD9wSORNHp6uFojiOv/Qg6d63YTnMs9yXHX0t
XyIUSKoTbx+i1MTLHojVsB04eo1MyBRZWLpkgxyAlAqaBOH4tj/7yz/V2FLqg9kH
02/Qgf8F0Hs8q4xyhpWdIdadQT1HV4uu+7KRCiqdV4Vz5fVtyyIYA6qwieSs518y
Rh5SPeL8dQR3Q6fbhcQZOrqpo5gbxLW1au5asdgS2kZfPoKQdIoZ54Qa8hCYZy11
fuuFmq2v4+XuWvhhGR/m3+mNqFCQfocl1LVbL9WYt0AfQRpiSLeswMCFfYwgi1RT
0ratoW36fdao
-----END TRUST_ANCHOR_UNCONSTRAINED-----

150302120000Z
-----BEGIN TIME-----
MTUwMzAyMTIwMDAwWg==
-----END TIME-----

SUCCESS
-----BEGIN VERIFY_RESULT-----
U1VDQ0VTUw==
-----END VERIFY_RESULT-----

serverAuth
-----BEGIN KEY_PURPOSE-----
c2VydmVyQXV0aA==
-----END KEY_PURPOSE-----
