[Created by: generate-non-self-signed-root.py]

Certificate chain with 1 intermediate and a trusted root. The trusted root
is NOT self signed, however its issuer is not included in the chain or root
store. Verification is expected to succeed since the root is trusted.

Certificate:
    Data:
        Version: 3 (0x2)
        Serial Number: 1 (0x1)
    Signature Algorithm: sha256WithRSAEncryption
        Issuer: CN=Intermediate
        Validity
            Not Before: Jan  1 12:00:00 2015 GMT
            Not After : Jan  1 12:00:00 2016 GMT
        Subject: CN=Target
        Subject Public Key Info:
            Public Key Algorithm: rsaEncryption
                Public-Key: (2048 bit)
                Modulus:
                    00:d0:1d:d2:c0:02:fe:ab:1e:5f:11:a8:41:9e:1a:
                    70:00:73:89:d1:39:d7:64:fe:52:f4:ed:7a:1d:e5:
                    7a:5f:d5:0c:23:91:19:0e:c3:2d:33:b7:10:a1:ab:
                    7b:69:4f:80:d4:1d:23:3c:aa:eb:9b:85:a7:92:3a:
                    fd:e4:7e:43:0d:66:b0:f1:ae:86:21:10:f1:15:02:
                    db:57:fc:8d:f4:f4:84:ce:7a:ac:93:7e:9a:2b:96:
                    c2:b6:4f:4b:6b:d3:b6:a6:b3:af:7c:8e:91:e4:95:
                    fe:33:35:e0:25:01:5b:2d:be:23:a6:db:21:69:24:
                    2e:5c:2d:c1:88:93:c3:c2:95:03:aa:18:f3:d8:0f:
                    b0:3c:7d:86:fc:c0:e4:58:17:78:61:6f:17:52:f1:
                    a7:5f:33:31:9d:f1:75:6d:2c:0d:fd:c0:55:1d:c7:
                    d3:f4:c6:dc:9c:2a:5f:20:dd:81:6c:a6:73:53:25:
                    2f:f1:55:a9:ae:74:e7:15:bb:5f:75:f1:b1:d1:69:
                    76:36:01:b0:bb:b1:b2:84:ad:60:49:8d:6c:9e:d5:
                    3c:69:ae:da:0a:a6:1e:51:02:11:21:8e:eb:d8:8c:
                    2e:e2:49:4b:67:06:98:2d:47:9d:01:49:87:3a:35:
                    36:22:cd:91:87:16:78:50:71:b3:86:41:9e:28:27:
                    b7:91
                Exponent: 65537 (0x10001)
        X509v3 extensions:
            X509v3 Subject Key Identifier: 
                AF:0E:FD:05:79:FF:C7:96:E2:6B:65:4D:31:83:3A:53:42:4E:AC:25
            X509v3 Authority Key Identifier: 
                keyid:C7:39:7C:24:26:48:4A:25:80:EC:86:32:6E:24:B7:AF:2D:3C:8C:64

            Authority Information Access: 
                CA Issuers - URI:http://url-for-aia/Intermediate.cer

            X509v3 CRL Distribution Points: 

                Full Name:
                  URI:http://url-for-crl/Intermediate.crl

            X509v3 Key Usage: critical
                Digital Signature, Key Encipherment
            X509v3 Extended Key Usage: 
                TLS Web Server Authentication, TLS Web Client Authentication
    Signature Algorithm: sha256WithRSAEncryption
         38:9c:d0:a9:cd:d2:c4:1a:a1:77:b6:2f:22:12:2d:e4:1f:f3:
         7f:05:68:0c:34:22:2b:bc:4c:4a:58:ce:9a:4b:20:e5:b0:b2:
         c7:81:a3:cc:b0:a4:d2:ce:96:ed:56:2e:bb:33:d6:a4:81:53:
         52:3a:5d:35:b1:3d:74:70:a4:f6:85:a8:60:e2:e7:79:d6:48:
         2c:3e:05:63:4b:42:10:1c:cc:5c:e8:13:ac:97:e1:7c:17:c1:
         4c:bc:6b:66:0e:e9:56:0a:92:05:94:dc:ad:3a:49:8c:f2:e6:
         31:23:33:d3:ad:ac:63:5e:18:ce:9e:85:78:c2:99:d3:7d:19:
         bd:a3:a3:83:7e:6b:2d:ed:33:df:88:2f:e4:66:77:2f:6a:4f:
         22:48:68:c8:73:58:2d:cf:8c:f1:e7:cd:e4:16:7d:5b:0d:f6:
         7a:30:43:be:1d:17:83:43:6e:13:c3:8a:8b:0b:cc:20:e8:f2:
         d6:9c:da:09:eb:1b:c1:20:69:70:29:fb:bf:96:ec:3b:c9:ae:
         e2:27:f2:6e:22:bf:04:9e:1c:6a:1a:11:b9:1e:52:b7:01:c4:
         ae:93:91:14:b4:c9:52:9f:b4:bb:34:38:5f:87:ba:c6:5a:b4:
         3c:6f:ad:f3:a9:05:40:c9:98:1b:e0:5e:a5:ff:13:9b:db:c6:
         19:df:0a:11
-----BEGIN CERTIFICATE-----
MIIDjTCCAnWgAwIBAgIBATANBgkqhkiG9w0BAQsFADAXMRUwEwYDVQQDDAxJbnRl
cm1lZGlhdGUwHhcNMTUwMTAxMTIwMDAwWhcNMTYwMTAxMTIwMDAwWjARMQ8wDQYD
VQQDDAZUYXJnZXQwggEiMA0GCSqGSIb3DQEBAQUAA4IBDwAwggEKAoIBAQDQHdLA
Av6rHl8RqEGeGnAAc4nROddk/lL07Xod5Xpf1QwjkRkOwy0ztxChq3tpT4DUHSM8
quubhaeSOv3kfkMNZrDxroYhEPEVAttX/I309ITOeqyTfporlsK2T0tr07ams698
jpHklf4zNeAlAVstviOm2yFpJC5cLcGIk8PClQOqGPPYD7A8fYb8wORYF3hhbxdS
8adfMzGd8XVtLA39wFUdx9P0xtycKl8g3YFspnNTJS/xVamudOcVu1918bHRaXY2
AbC7sbKErWBJjWye1TxprtoKph5RAhEhjuvYjC7iSUtnBpgtR50BSYc6NTYizZGH
FnhQcbOGQZ4oJ7eRAgMBAAGjgekwgeYwHQYDVR0OBBYEFK8O/QV5/8eW4mtlTTGD
OlNCTqwlMB8GA1UdIwQYMBaAFMc5fCQmSEolgOyGMm4kt68tPIxkMD8GCCsGAQUF
BwEBBDMwMTAvBggrBgEFBQcwAoYjaHR0cDovL3VybC1mb3ItYWlhL0ludGVybWVk
aWF0ZS5jZXIwNAYDVR0fBC0wKzApoCegJYYjaHR0cDovL3VybC1mb3ItY3JsL0lu
dGVybWVkaWF0ZS5jcmwwDgYDVR0PAQH/BAQDAgWgMB0GA1UdJQQWMBQGCCsGAQUF
BwMBBggrBgEFBQcDAjANBgkqhkiG9w0BAQsFAAOCAQEAOJzQqc3SxBqhd7YvIhIt
5B/zfwVoDDQiK7xMSljOmksg5bCyx4GjzLCk0s6W7VYuuzPWpIFTUjpdNbE9dHCk
9oWoYOLnedZILD4FY0tCEBzMXOgTrJfhfBfBTLxrZg7pVgqSBZTcrTpJjPLmMSMz
062sY14Yzp6FeMKZ030ZvaOjg35rLe0z34gv5GZ3L2pPIkhoyHNYLc+M8efN5BZ9
Ww32ejBDvh0Xg0NuE8OKiwvMIOjy1pzaCesbwSBpcCn7v5bsO8mu4ifybiK/BJ4c
ahoRuR5StwHErpORFLTJUp+0uzQ4X4e6xlq0PG+t86kFQMmYG+Bepf8Tm9vGGd8K
EQ==
-----END CERTIFICATE-----

Certificate:
    Data:
        Version: 3 (0x2)
        Serial Number: 1 (0x1)
    Signature Algorithm: sha256WithRSAEncryption
        Issuer: CN=Root
        Validity
            Not Before: Jan  1 12:00:00 2015 GMT
            Not After : Jan  1 12:00:00 2016 GMT
        Subject: CN=Intermediate
        Subject Public Key Info:
            Public Key Algorithm: rsaEncryption
                Public-Key: (2048 bit)
                Modulus:
                    00:be:b9:02:79:50:20:a3:e5:6d:2e:79:97:1a:94:
                    82:1d:25:8f:a5:f8:66:c3:13:91:aa:35:ec:99:d2:
                    da:75:c8:80:bc:05:2d:6c:c6:53:f2:a8:78:ed:60:
                    f4:f3:56:40:65:3d:d6:ea:fa:62:87:16:ed:eb:c7:
                    54:8e:d3:0b:61:63:bb:6d:3d:a7:7b:9e:ac:9b:dc:
                    2e:8a:68:2a:79:81:52:79:fb:d7:b7:24:29:e5:c3:
                    36:57:bd:02:20:9e:e2:73:20:82:6d:7f:7e:8f:9a:
                    0a:4e:3d:a0:1f:b3:ca:20:82:70:a6:bc:08:b7:97:
                    b3:b7:cf:04:2c:e1:96:e6:7a:6f:bf:b0:47:6a:fc:
                    fb:03:75:1a:7f:27:03:a0:5c:62:23:5c:59:94:28:
                    71:c2:a7:15:6a:87:9a:22:63:5d:a3:dd:49:b6:c2:
                    57:1b:89:d1:4a:75:dd:b8:a7:87:29:32:37:da:69:
                    15:2e:fb:37:e8:aa:db:12:7c:13:9e:44:49:b6:67:
                    eb:fa:87:36:3c:93:62:fc:f5:f7:2b:42:56:4f:3e:
                    4f:a7:3a:18:ee:45:aa:9c:ab:dc:0d:8b:74:47:e3:
                    a4:ed:69:71:7f:49:72:46:b4:d2:b5:00:eb:e0:8c:
                    32:e0:d2:35:9c:f2:34:e7:4d:a3:56:c0:1b:fd:d8:
                    f8:7f
                Exponent: 65537 (0x10001)
        X509v3 extensions:
            X509v3 Subject Key Identifier: 
                C7:39:7C:24:26:48:4A:25:80:EC:86:32:6E:24:B7:AF:2D:3C:8C:64
            X509v3 Authority Key Identifier: 
                keyid:EA:EB:56:0E:30:42:FC:D3:45:B9:0B:D8:88:4C:F0:E9:B8:D6:F4:3C

            Authority Information Access: 
                CA Issuers - URI:http://url-for-aia/Root.cer

            X509v3 CRL Distribution Points: 

                Full Name:
                  URI:http://url-for-crl/Root.crl

            X509v3 Key Usage: critical
                Certificate Sign, CRL Sign
            X509v3 Basic Constraints: critical
                CA:TRUE
    Signature Algorithm: sha256WithRSAEncryption
         1c:c7:a3:8a:bf:92:37:da:ef:79:5f:53:60:f5:ce:90:9c:51:
         4e:20:61:4c:c2:bf:8c:9a:ed:2a:c7:aa:3f:c4:9b:b3:28:db:
         7f:2c:95:18:34:d0:c0:0d:98:50:24:d0:31:de:3e:b5:ca:5f:
         2f:34:44:3c:5c:24:d3:a8:48:d1:52:68:74:20:f4:f9:7f:8b:
         40:80:b4:b6:c7:a5:95:4c:64:e1:6b:20:48:57:29:58:70:a1:
         16:3a:b7:f5:5e:25:c5:77:96:10:1c:67:03:95:fc:d0:d0:42:
         ce:26:5a:a0:6f:40:c4:83:30:96:36:f5:b9:9e:17:20:3b:a5:
         96:9f:49:cf:9b:9f:86:5e:be:13:17:1b:7e:54:0f:02:01:68:
         b7:fb:49:81:48:59:bc:ea:d3:fb:47:49:65:68:bd:2e:97:0c:
         4f:f6:3c:34:77:07:16:8b:68:66:d4:a8:68:09:57:40:6d:5d:
         bf:d2:7b:94:e3:a6:73:be:73:30:13:e9:47:71:25:17:7a:78:
         ca:7e:ef:68:ac:a5:2d:80:60:56:7e:3d:89:d5:76:3f:5f:ac:
         7f:95:65:b0:34:f3:50:9c:e8:d3:f2:23:14:50:3d:0d:fe:3a:
         73:a7:f5:13:8f:72:bb:38:04:a2:d2:6e:fa:c3:b9:f8:bc:5d:
         4a:ee:c0:34
-----BEGIN CERTIFICATE-----
MIIDbTCCAlWgAwIBAgIBATANBgkqhkiG9w0BAQsFADAPMQ0wCwYDVQQDDARSb290
MB4XDTE1MDEwMTEyMDAwMFoXDTE2MDEwMTEyMDAwMFowFzEVMBMGA1UEAwwMSW50
ZXJtZWRpYXRlMIIBIjANBgkqhkiG9w0BAQEFAAOCAQ8AMIIBCgKCAQEAvrkCeVAg
o+VtLnmXGpSCHSWPpfhmwxORqjXsmdLadciAvAUtbMZT8qh47WD081ZAZT3W6vpi
hxbt68dUjtMLYWO7bT2ne56sm9wuimgqeYFSefvXtyQp5cM2V70CIJ7icyCCbX9+
j5oKTj2gH7PKIIJwprwIt5ezt88ELOGW5npvv7BHavz7A3UafycDoFxiI1xZlChx
wqcVaoeaImNdo91JtsJXG4nRSnXduKeHKTI32mkVLvs36KrbEnwTnkRJtmfr+oc2
PJNi/PX3K0JWTz5PpzoY7kWqnKvcDYt0R+Ok7Wlxf0lyRrTStQDr4Iwy4NI1nPI0
502jVsAb/dj4fwIDAQABo4HLMIHIMB0GA1UdDgQWBBTHOXwkJkhKJYDshjJuJLev
LTyMZDAfBgNVHSMEGDAWgBTq61YOMEL800W5C9iITPDpuNb0PDA3BggrBgEFBQcB
AQQrMCkwJwYIKwYBBQUHMAKGG2h0dHA6Ly91cmwtZm9yLWFpYS9Sb290LmNlcjAs
BgNVHR8EJTAjMCGgH6AdhhtodHRwOi8vdXJsLWZvci1jcmwvUm9vdC5jcmwwDgYD
VR0PAQH/BAQDAgEGMA8GA1UdEwEB/wQFMAMBAf8wDQYJKoZIhvcNAQELBQADggEB
ABzHo4q/kjfa73lfU2D1zpCcUU4gYUzCv4ya7SrHqj/Em7Mo238slRg00MANmFAk
0DHePrXKXy80RDxcJNOoSNFSaHQg9Pl/i0CAtLbHpZVMZOFrIEhXKVhwoRY6t/Ve
JcV3lhAcZwOV/NDQQs4mWqBvQMSDMJY29bmeFyA7pZafSc+bn4ZevhMXG35UDwIB
aLf7SYFIWbzq0/tHSWVovS6XDE/2PDR3BxaLaGbUqGgJV0BtXb/Se5TjpnO+czAT
6UdxJRd6eMp+72ispS2AYFZ+PYnVdj9frH+VZbA081Cc6NPyIxRQPQ3+OnOn9ROP
crs4BKLSbvrDufi8XUruwDQ=
-----END CERTIFICATE-----

Certificate:
    Data:
        Version: 3 (0x2)
        Serial Number: 2 (0x2)
    Signature Algorithm: sha256WithRSAEncryption
        Issuer: CN=ShadowRoot
        Validity
            Not Before: Jan  1 12:00:00 2015 GMT
            Not After : Jan  1 12:00:00 2016 GMT
        Subject: CN=Root
        Subject Public Key Info:
            Public Key Algorithm: rsaEncryption
                Public-Key: (2048 bit)
                Modulus:
                    00:b6:a5:77:05:c8:3c:ec:e8:01:e4:a7:d9:ea:ae:
                    3a:b2:0f:ba:09:36:36:9e:e1:20:68:4c:c3:35:48:
                    92:ff:a1:3d:0b:0f:ba:57:dd:8a:fe:a3:6c:24:5a:
                    4d:45:64:fe:c7:6d:60:7b:eb:6a:69:f3:24:a4:4c:
                    43:34:2b:c8:f5:dd:f8:50:bb:3e:3a:71:d7:d4:7a:
                    63:43:46:c3:0d:54:0f:ba:0d:d4:47:b6:25:98:13:
                    84:c5:6a:cd:1b:57:57:6c:c1:f6:08:e8:77:e7:71:
                    5e:c3:76:56:18:7a:78:fa:e1:c9:89:17:f8:3d:c4:
                    d7:55:c0:85:5b:32:ee:db:a8:08:b2:31:87:b3:cd:
                    dd:c4:e2:06:17:39:5c:9c:45:74:c8:ce:4d:58:37:
                    de:f1:8a:a5:c9:8d:21:45:69:9c:46:3e:bf:f8:68:
                    69:20:fa:e4:14:ca:2f:94:da:ad:30:de:69:35:43:
                    32:9e:6d:b3:d9:e9:a3:21:41:75:f0:26:19:84:32:
                    33:21:c6:05:b5:6b:39:2f:3c:f9:1f:ec:52:8b:9d:
                    29:8d:c7:94:de:a3:0e:72:2b:92:e9:9d:aa:21:33:
                    d1:34:e9:4d:1d:82:4e:b0:2e:9f:c6:65:be:b6:7f:
                    f1:57:92:e5:f3:b0:ef:52:74:04:28:a2:c1:16:f4:
                    53:f7
                Exponent: 65537 (0x10001)
        X509v3 extensions:
            X509v3 Subject Key Identifier: 
                EA:EB:56:0E:30:42:FC:D3:45:B9:0B:D8:88:4C:F0:E9:B8:D6:F4:3C
            X509v3 Authority Key Identifier: 
                keyid:58:23:6F:FD:7A:05:9C:E1:4D:0D:C5:7D:77:B3:D7:75:B1:11:F8:E1

            Authority Information Access: 
                CA Issuers - URI:http://url-for-aia/ShadowRoot.cer

            X509v3 CRL Distribution Points: 

                Full Name:
                  URI:http://url-for-crl/ShadowRoot.crl

            X509v3 Key Usage: critical
                Certificate Sign, CRL Sign
            X509v3 Basic Constraints: critical
                CA:TRUE
    Signature Algorithm: sha256WithRSAEncryption
         87:93:6b:06:54:ca:38:9a:c9:34:e0:7a:50:cb:4e:1a:c2:43:
         21:02:48:fb:c1:2e:79:1c:75:06:c4:bf:c7:6d:a5:69:1b:42:
         ba:b8:7e:03:24:42:0c:81:e7:e0:77:32:82:81:df:d8:64:7d:
         0a:57:33:44:b1:e6:b9:c8:68:f8:11:bb:45:e6:42:85:27:d4:
         09:78:7e:86:a3:8b:10:16:0c:3c:e7:1e:50:33:38:47:28:37:
         ef:35:d9:66:c8:bd:f4:4f:de:13:79:f6:a2:b3:73:6e:3b:88:
         14:d4:a9:0c:91:72:85:a3:3b:ab:ff:7a:87:26:51:69:8f:fe:
         fe:53:44:42:22:e0:2e:74:25:22:f2:07:b5:50:27:a5:68:6a:
         26:16:4a:4c:7f:bd:e4:2e:1e:0d:ea:a8:f3:de:99:cf:3a:99:
         b4:48:34:2c:e7:cc:c4:1c:28:1e:65:22:33:8c:2d:7f:fd:94:
         99:f2:3e:08:e0:96:e0:22:ce:2c:f3:e3:06:ee:2e:8b:0f:6e:
         b9:ae:76:15:5d:1c:66:7f:f8:16:25:80:09:c6:b4:fb:cc:bc:
         9a:96:03:57:b4:fd:4f:e8:40:2d:46:74:84:f9:47:9e:7b:5b:
         22:1c:5e:43:53:56:c9:84:da:29:e8:f9:b6:72:3f:dc:a3:12:
         b2:34:56:4d
-----BEGIN TRUST_ANCHOR_UNCONSTRAINED-----
MIIDdzCCAl+gAwIBAgIBAjANBgkqhkiG9w0BAQsFADAVMRMwEQYDVQQDDApTaGFk
b3dSb290MB4XDTE1MDEwMTEyMDAwMFoXDTE2MDEwMTEyMDAwMFowDzENMAsGA1UE
AwwEUm9vdDCCASIwDQYJKoZIhvcNAQEBBQADggEPADCCAQoCggEBALaldwXIPOzo
AeSn2equOrIPugk2Np7hIGhMwzVIkv+hPQsPulfdiv6jbCRaTUVk/sdtYHvramnz
JKRMQzQryPXd+FC7Pjpx19R6Y0NGww1UD7oN1Ee2JZgThMVqzRtXV2zB9gjod+dx
XsN2Vhh6ePrhyYkX+D3E11XAhVsy7tuoCLIxh7PN3cTiBhc5XJxFdMjOTVg33vGK
pcmNIUVpnEY+v/hoaSD65BTKL5TarTDeaTVDMp5ts9npoyFBdfAmGYQyMyHGBbVr
OS88+R/sUoudKY3HlN6jDnIrkumdqiEz0TTpTR2CTrAun8ZlvrZ/8VeS5fOw71J0
BCiiwRb0U/cCAwEAAaOB1zCB1DAdBgNVHQ4EFgQU6utWDjBC/NNFuQvYiEzw6bjW
9DwwHwYDVR0jBBgwFoAUWCNv/XoFnOFNDcV9d7PXdbER+OEwPQYIKwYBBQUHAQEE
MTAvMC0GCCsGAQUFBzAChiFodHRwOi8vdXJsLWZvci1haWEvU2hhZG93Um9vdC5j
ZXIwMgYDVR0fBCswKTAnoCWgI4YhaHR0cDovL3VybC1mb3ItY3JsL1NoYWRvd1Jv
b3QuY3JsMA4GA1UdDwEB/wQEAwIBBjAPBgNVHRMBAf8EBTADAQH/MA0GCSqGSIb3
DQEBCwUAA4IBAQCHk2sGVMo4msk04HpQy04awkMhAkj7wS55HHUGxL/HbaVpG0K6
uH4DJEIMgefgdzKCgd/YZH0KVzNEsea5yGj4EbtF5kKFJ9QJeH6Go4sQFgw85x5Q
MzhHKDfvNdlmyL30T94Tefais3NuO4gU1KkMkXKFozur/3qHJlFpj/7+U0RCIuAu
dCUi8ge1UCelaGomFkpMf73kLh4N6qjz3pnPOpm0SDQs58zEHCgeZSIzjC1//ZSZ
8j4I4JbgIs4s8+MG7i6LD265rnYVXRxmf/gWJYAJxrT7zLyalgNXtP1P6EAtRnSE
+Ueee1siHF5DU1bJhNop6Pm2cj/coxKyNFZN
-----END TRUST_ANCHOR_UNCONSTRAINED-----

150302120000Z
-----BEGIN TIME-----
MTUwMzAyMTIwMDAwWg==
-----END TIME-----

SUCCESS
-----BEGIN VERIFY_RESULT-----
U1VDQ0VTUw==
-----END VERIFY_RESULT-----

serverAuth
-----BEGIN KEY_PURPOSE-----
c2VydmVyQXV0aA==
-----END KEY_PURPOSE-----
