[Created by: generate-target-and-intermediate.py]

Certificate chain with 1 intermediate and a trusted root. Verification is
expected to succeed.

Certificate:
    Data:
        Version: 3 (0x2)
        Serial Number: 1 (0x1)
    Signature Algorithm: sha256WithRSAEncryption
        Issuer: CN=Intermediate
        Validity
            Not Before: Jan  1 12:00:00 2015 GMT
            Not After : Jan  1 12:00:00 2016 GMT
        Subject: CN=Target
        Subject Public Key Info:
            Public Key Algorithm: rsaEncryption
                Public-Key: (2048 bit)
                Modulus:
                    00:99:a4:c0:d4:dd:a9:aa:60:8b:ae:df:d6:20:ae:
                    b9:f2:f2:ae:44:0e:1f:13:9c:cc:bb:03:81:36:91:
                    75:72:b4:f8:36:61:2b:7d:70:a9:da:e5:35:7e:e5:
                    39:a6:fa:da:45:37:fd:77:04:af:21:c3:43:c4:15:
                    9e:07:a1:4e:19:04:66:e7:bf:ae:76:b1:95:8a:9b:
                    b8:79:12:b7:ca:d3:ec:72:16:4b:47:08:89:1f:d5:
                    5d:cf:e2:a6:1e:c3:c9:28:54:41:f6:68:e4:01:a9:
                    df:4a:f1:ab:d5:45:26:1a:4e:f9:f7:11:1e:c2:43:
                    52:d9:2e:95:52:35:71:dc:6a:eb:56:ee:81:73:6a:
                    86:5b:bd:4f:a6:8f:4b:b3:4e:35:06:d5:35:8a:aa:
                    d5:f7:bd:6a:e1:79:6a:61:37:dc:a8:06:d9:5a:31:
                    ea:3b:2e:8c:8f:de:1e:47:02:c7:ca:27:00:b9:49:
                    7b:29:c4:f4:82:f2:bc:58:52:bb:f2:36:1c:10:4f:
                    a7:93:fa:46:d0:92:80:15:e7:b9:da:1d:70:21:2b:
                    9c:47:9c:17:5a:26:2d:94:8a:ce:ae:ba:ac:cb:31:
                    96:a9:e8:9e:51:73:4f:8c:bf:8c:57:d8:c8:61:0e:
                    c0:45:09:e4:56:a0:47:f9:df:97:af:9c:76:63:54:
                    c6:9b
                Exponent: 65537 (0x10001)
        X509v3 extensions:
            X509v3 Subject Key Identifier: 
                05:BE:F6:16:F8:E7:6A:1B:E6:6D:6D:5A:A4:AF:01:89:8B:98:88:E3
            X509v3 Authority Key Identifier: 
                keyid:6E:35:75:BC:3A:85:BC:B6:F7:B8:01:75:BD:9E:A8:36:8D:1E:C7:D9

            Authority Information Access: 
                CA Issuers - URI:http://url-for-aia/Intermediate.cer

            X509v3 CRL Distribution Points: 

                Full Name:
                  URI:http://url-for-crl/Intermediate.crl

            X509v3 Key Usage: critical
                Digital Signature, Key Encipherment
            X509v3 Extended Key Usage: 
                TLS Web Server Authentication, TLS Web Client Authentication
    Signature Algorithm: sha256WithRSAEncryption
         a4:7d:30:26:06:98:4b:33:c7:b7:84:04:cb:1b:1f:29:1c:b4:
         44:6e:6f:b2:5e:40:ce:e9:5d:e5:3d:ed:5c:a4:34:67:08:c0:
         10:55:f3:c8:90:43:65:d9:fc:b9:64:43:1a:fc:cb:6c:3f:fc:
         2a:48:87:60:6b:95:a6:4f:d6:6f:ac:e3:39:19:54:5d:96:6b:
         80:15:db:e3:9f:84:90:4d:23:b1:74:f2:f8:d1:4e:8e:6b:05:
         2c:28:94:05:03:90:04:98:08:e3:73:34:b6:05:1e:8e:b0:52:
         33:cf:41:ff:99:cd:26:70:12:b1:0a:5c:c7:ed:d3:87:be:fa:
         f1:24:34:42:22:35:a0:e5:7c:ef:18:b8:61:ce:a1:0a:99:7a:
         2d:3f:b9:48:36:a2:3c:5e:70:e4:36:32:a2:9d:1d:3a:37:fa:
         bf:e4:b4:89:0d:48:e7:9d:f5:9f:48:13:ec:6a:8b:e6:b3:3f:
         23:f7:94:b1:2d:cf:b4:26:f4:1b:b5:01:3b:92:bb:63:4e:d6:
         ee:ed:c0:2e:77:53:5b:3e:a5:8c:c6:b9:40:67:bb:cd:67:65:
         6b:41:46:7e:90:f9:2a:a7:5f:09:92:37:13:23:19:2d:66:cb:
         73:7e:a3:42:dd:da:ed:f6:08:8a:8a:97:ef:4b:f7:5d:22:81:
         82:95:87:7c
-----BEGIN CERTIFICATE-----
MIIDjTCCAnWgAwIBAgIBATANBgkqhkiG9w0BAQsFADAXMRUwEwYDVQQDDAxJbnRl
cm1lZGlhdGUwHhcNMTUwMTAxMTIwMDAwWhcNMTYwMTAxMTIwMDAwWjARMQ8wDQYD
VQQDDAZUYXJnZXQwggEiMA0GCSqGSIb3DQEBAQUAA4IBDwAwggEKAoIBAQCZpMDU
3amqYIuu39Ygrrny8q5EDh8TnMy7A4E2kXVytPg2YSt9cKna5TV+5Tmm+tpFN/13
BK8hw0PEFZ4HoU4ZBGbnv652sZWKm7h5ErfK0+xyFktHCIkf1V3P4qYew8koVEH2
aOQBqd9K8avVRSYaTvn3ER7CQ1LZLpVSNXHcautW7oFzaoZbvU+mj0uzTjUG1TWK
qtX3vWrheWphN9yoBtlaMeo7LoyP3h5HAsfKJwC5SXspxPSC8rxYUrvyNhwQT6eT
+kbQkoAV57naHXAhK5xHnBdaJi2Uis6uuqzLMZap6J5Rc0+Mv4xX2MhhDsBFCeRW
oEf535evnHZjVMabAgMBAAGjgekwgeYwHQYDVR0OBBYEFAW+9hb452ob5m1tWqSv
AYmLmIjjMB8GA1UdIwQYMBaAFG41dbw6hby297gBdb2eqDaNHsfZMD8GCCsGAQUF
BwEBBDMwMTAvBggrBgEFBQcwAoYjaHR0cDovL3VybC1mb3ItYWlhL0ludGVybWVk
aWF0ZS5jZXIwNAYDVR0fBC0wKzApoCegJYYjaHR0cDovL3VybC1mb3ItY3JsL0lu
dGVybWVkaWF0ZS5jcmwwDgYDVR0PAQH/BAQDAgWgMB0GA1UdJQQWMBQGCCsGAQUF
BwMBBggrBgEFBQcDAjANBgkqhkiG9w0BAQsFAAOCAQEApH0wJgaYSzPHt4QEyxsf
KRy0RG5vsl5Azuld5T3tXKQ0ZwjAEFXzyJBDZdn8uWRDGvzLbD/8KkiHYGuVpk/W
b6zjORlUXZZrgBXb45+EkE0jsXTy+NFOjmsFLCiUBQOQBJgI43M0tgUejrBSM89B
/5nNJnASsQpcx+3Th7768SQ0QiI1oOV87xi4Yc6hCpl6LT+5SDaiPF5w5DYyop0d
Ojf6v+S0iQ1I5531n0gT7GqL5rM/I/eUsS3PtCb0G7UBO5K7Y07W7u3ALndTWz6l
jMa5QGe7zWdla0FGfpD5KqdfCZI3EyMZLWbLc36jQt3a7fYIioqX70v3XSKBgpWH
fA==
-----END CERTIFICATE-----

Certificate:
    Data:
        Version: 3 (0x2)
        Serial Number: 2 (0x2)
    Signature Algorithm: sha256WithRSAEncryption
        Issuer: CN=Root
        Validity
            Not Before: Jan  1 12:00:00 2015 GMT
            Not After : Jan  1 12:00:00 2016 GMT
        Subject: CN=Intermediate
        Subject Public Key Info:
            Public Key Algorithm: rsaEncryption
                Public-Key: (2048 bit)
                Modulus:
                    00:d2:ee:b5:26:40:84:3d:98:ee:bc:3e:62:1a:09:
                    5e:53:b1:72:28:f6:70:c0:a1:08:65:6f:54:24:4c:
                    fc:bf:fe:14:25:fa:5d:a5:17:f1:00:64:b3:33:6f:
                    09:3a:0f:cc:25:87:f6:20:e4:f4:49:f3:5a:5d:a4:
                    d5:02:e7:db:20:c9:66:b4:cf:44:4d:58:4b:48:13:
                    7b:83:60:14:28:f7:5a:5b:f8:f5:34:40:81:32:bd:
                    d2:8c:34:4f:d6:5d:5f:65:dd:74:56:7a:07:7a:82:
                    c3:0b:42:d5:cb:09:30:76:41:6e:08:28:ad:0c:27:
                    51:9c:86:e1:fe:e8:85:68:aa:59:d0:f8:39:c2:59:
                    6e:95:90:de:c9:f8:df:77:5e:56:3f:d5:9d:f8:09:
                    29:ed:7c:cc:92:e7:c3:40:27:76:fc:08:4f:ae:98:
                    c9:7c:95:43:05:cc:1f:f5:b2:0b:51:ec:09:cd:22:
                    3d:7e:e4:5a:b9:4f:86:62:76:d7:c0:42:23:bb:97:
                    e1:b3:ae:af:9d:56:89:00:68:01:b0:cb:11:cc:f4:
                    ea:cd:1e:7d:32:81:d9:93:20:00:22:ed:31:78:3c:
                    62:de:73:3f:1d:38:17:4e:04:a2:58:45:36:26:95:
                    93:ab:36:f1:54:01:81:b1:c2:70:f5:06:17:47:40:
                    0e:fb
                Exponent: 65537 (0x10001)
        X509v3 extensions:
            X509v3 Subject Key Identifier: 
                6E:35:75:BC:3A:85:BC:B6:F7:B8:01:75:BD:9E:A8:36:8D:1E:C7:D9
            X509v3 Authority Key Identifier: 
                keyid:4F:DE:F3:E5:5E:F5:98:0D:CA:3A:20:2B:E9:C8:B4:5D:D0:1D:86:BF

            Authority Information Access: 
                CA Issuers - URI:http://url-for-aia/Root.cer

            X509v3 CRL Distribution Points: 

                Full Name:
                  URI:http://url-for-crl/Root.crl

            X509v3 Key Usage: critical
                Certificate Sign, CRL Sign
            X509v3 Basic Constraints: critical
                CA:TRUE
    Signature Algorithm: sha256WithRSAEncryption
         10:e4:01:2e:8b:a4:ea:e0:cc:ac:c2:57:68:b7:97:98:e2:57:
         d6:ff:e2:70:d9:de:bd:7e:44:59:da:3c:cc:1e:62:5d:a8:77:
         70:b5:fc:4c:21:50:b1:5f:4d:d8:dc:18:bf:d7:1e:40:fa:11:
         8e:40:e6:b8:38:87:a3:10:ed:97:93:ae:a6:7f:6c:cf:75:43:
         e1:88:b9:84:b3:f3:73:05:fb:24:de:2b:f1:20:65:3f:70:25:
         87:4d:e0:66:73:ca:29:52:60:88:e9:e3:5f:cc:2b:83:1c:b3:
         8c:4d:12:7b:35:70:fd:d1:1a:08:85:94:77:39:3c:b0:c5:d7:
         7e:a5:71:f3:ca:a7:98:30:69:62:f6:96:d4:f9:30:07:aa:56:
         da:ba:16:fc:1b:57:24:a0:f1:84:e2:4a:a2:97:a4:a1:82:05:
         1a:02:c7:41:2f:98:c8:e5:27:b4:85:98:72:d0:a0:e1:b5:c1:
         57:ab:aa:6b:71:79:d0:4d:91:68:18:25:f8:b4:b7:cb:1d:0c:
         74:6a:77:66:48:3f:24:b0:92:d9:22:6f:6e:54:b7:f8:8c:21:
         57:0e:a9:cc:52:ff:56:2e:42:fa:08:2e:fe:29:3c:f1:86:8b:
         74:88:68:82:3f:16:2d:06:12:57:a6:e2:b1:b7:1b:5d:3a:a1:
         75:c7:24:d7
-----BEGIN CERTIFICATE-----
MIIDbTCCAlWgAwIBAgIBAjANBgkqhkiG9w0BAQsFADAPMQ0wCwYDVQQDDARSb290
MB4XDTE1MDEwMTEyMDAwMFoXDTE2MDEwMTEyMDAwMFowFzEVMBMGA1UEAwwMSW50
ZXJtZWRpYXRlMIIBIjANBgkqhkiG9w0BAQEFAAOCAQ8AMIIBCgKCAQEA0u61JkCE
PZjuvD5iGgleU7FyKPZwwKEIZW9UJEz8v/4UJfpdpRfxAGSzM28JOg/MJYf2IOT0
SfNaXaTVAufbIMlmtM9ETVhLSBN7g2AUKPdaW/j1NECBMr3SjDRP1l1fZd10VnoH
eoLDC0LVywkwdkFuCCitDCdRnIbh/uiFaKpZ0Pg5wllulZDeyfjfd15WP9Wd+Akp
7XzMkufDQCd2/AhPrpjJfJVDBcwf9bILUewJzSI9fuRauU+GYnbXwEIju5fhs66v
nVaJAGgBsMsRzPTqzR59MoHZkyAAIu0xeDxi3nM/HTgXTgSiWEU2JpWTqzbxVAGB
scJw9QYXR0AO+wIDAQABo4HLMIHIMB0GA1UdDgQWBBRuNXW8OoW8tve4AXW9nqg2
jR7H2TAfBgNVHSMEGDAWgBRP3vPlXvWYDco6ICvpyLRd0B2GvzA3BggrBgEFBQcB
AQQrMCkwJwYIKwYBBQUHMAKGG2h0dHA6Ly91cmwtZm9yLWFpYS9Sb290LmNlcjAs
BgNVHR8EJTAjMCGgH6AdhhtodHRwOi8vdXJsLWZvci1jcmwvUm9vdC5jcmwwDgYD
VR0PAQH/BAQDAgEGMA8GA1UdEwEB/wQFMAMBAf8wDQYJKoZIhvcNAQELBQADggEB
ABDkAS6LpOrgzKzCV2i3l5jiV9b/4nDZ3r1+RFnaPMweYl2od3C1/EwhULFfTdjc
GL/XHkD6EY5A5rg4h6MQ7ZeTrqZ/bM91Q+GIuYSz83MF+yTeK/EgZT9wJYdN4GZz
yilSYIjp41/MK4Mcs4xNEns1cP3RGgiFlHc5PLDF136lcfPKp5gwaWL2ltT5MAeq
Vtq6FvwbVySg8YTiSqKXpKGCBRoCx0EvmMjlJ7SFmHLQoOG1wVerqmtxedBNkWgY
Jfi0t8sdDHRqd2ZIPySwktkib25Ut/iMIVcOqcxS/1YuQvoILv4pPPGGi3SIaII/
Fi0GElem4rG3G106oXXHJNc=
-----END CERTIFICATE-----

Certificate:
    Data:
        Version: 3 (0x2)
        Serial Number: 1 (0x1)
    Signature Algorithm: sha256WithRSAEncryption
        Issuer: CN=Root
        Validity
            Not Before: Jan  1 12:00:00 2015 GMT
            Not After : Jan  1 12:00:00 2016 GMT
        Subject: CN=Root
        Subject Public Key Info:
            Public Key Algorithm: rsaEncryption
                Public-Key: (2048 bit)
                Modulus:
                    00:ba:0d:d2:51:af:0c:48:94:37:cf:ea:83:8f:d6:
                    39:b5:c9:58:fe:59:5b:e5:61:b6:21:98:86:16:a0:
                    85:e6:cd:c8:21:81:65:4c:65:97:55:72:76:2f:c6:
                    0d:25:f8:c8:28:9f:20:d1:56:4c:06:99:ff:6d:0f:
                    24:d3:92:f1:31:25:5a:13:6c:be:4b:19:6a:65:af:
                    2f:32:be:a9:0f:f8:9b:6d:6f:10:7c:e9:24:61:4d:
                    fe:ba:e9:b5:b4:54:5e:82:f7:02:7a:e2:e2:d7:53:
                    6a:69:f4:9a:41:27:0f:50:dc:64:a1:47:84:53:3f:
                    f1:38:cd:80:a3:5a:2b:dd:96:81:8a:ea:e3:94:72:
                    f7:aa:f8:2f:cc:a9:d0:9e:36:9f:56:0c:45:ec:dd:
                    6a:05:52:85:60:99:d7:94:9f:76:7e:1d:8f:3f:50:
                    fb:33:bc:ca:f8:10:2e:db:15:b2:49:57:d8:f4:59:
                    fa:73:3b:03:32:86:a7:f1:46:a1:62:ac:67:10:73:
                    70:51:07:ff:d2:04:33:d8:7c:e2:a8:ff:8e:53:24:
                    e8:e4:96:da:fb:d1:ea:2f:9c:a9:b5:8f:c5:50:fb:
                    90:67:b1:8c:5b:8d:f7:5f:af:da:a4:fa:3c:fb:4f:
                    05:bf:56:4c:dd:d6:6e:43:54:fd:f4:a0:c9:13:93:
                    55:07
                Exponent: 65537 (0x10001)
        X509v3 extensions:
            X509v3 Subject Key Identifier: 
                4F:DE:F3:E5:5E:F5:98:0D:CA:3A:20:2B:E9:C8:B4:5D:D0:1D:86:BF
            X509v3 Authority Key Identifier: 
                keyid:4F:DE:F3:E5:5E:F5:98:0D:CA:3A:20:2B:E9:C8:B4:5D:D0:1D:86:BF

            Authority Information Access: 
                CA Issuers - URI:http://url-for-aia/Root.cer

            X509v3 CRL Distribution Points: 

                Full Name:
                  URI:http://url-for-crl/Root.crl

            X509v3 Key Usage: critical
                Certificate Sign, CRL Sign
            X509v3 Basic Constraints: critical
                CA:TRUE
    Signature Algorithm: sha256WithRSAEncryption
         75:4e:86:e1:25:9e:a8:7b:0e:65:db:bb:ca:49:e3:0c:70:df:
         07:bd:1a:83:d8:48:e1:b7:0b:39:ed:da:61:a0:98:1d:de:9b:
         5f:66:a6:33:79:43:46:1b:7d:bf:b4:e4:37:8c:96:5e:89:a8:
         8f:92:04:0f:c5:e4:0d:81:a3:76:98:c1:b0:b2:70:70:11:f6:
         8e:34:3a:82:ae:6b:7d:e9:ff:b4:58:85:20:b0:85:fc:86:89:
         40:08:62:e5:0f:34:83:82:90:da:2a:59:e4:53:53:ee:61:ac:
         46:51:ab:cb:81:1d:c1:f7:f0:c2:64:55:b9:fd:2a:67:44:3a:
         6a:af:f9:c2:55:c8:35:e6:8b:3a:d1:06:82:8f:14:ee:f1:11:
         25:db:a2:98:cc:be:bd:63:21:65:77:6e:6a:f8:d1:7e:a1:c6:
         df:48:0e:74:0d:e3:03:51:ff:f9:98:92:3c:f8:36:75:90:5e:
         09:6c:7f:3f:c1:5e:40:03:72:de:ab:ed:6f:bb:fe:f7:9d:14:
         92:5c:69:13:ba:cf:7a:d8:4b:f1:29:04:6e:bc:5f:c9:8e:52:
         b6:db:58:41:bb:8d:32:e7:5b:4b:74:bf:4c:8d:ec:07:0b:7d:
         3c:d6:2f:4d:27:11:31:15:6f:38:0d:ba:2a:53:76:2a:47:e6:
         32:52:df:ea
-----BEGIN TRUST_ANCHOR_UNCONSTRAINED-----
MIIDZTCCAk2gAwIBAgIBATANBgkqhkiG9w0BAQsFADAPMQ0wCwYDVQQDDARSb290
MB4XDTE1MDEwMTEyMDAwMFoXDTE2MDEwMTEyMDAwMFowDzENMAsGA1UEAwwEUm9v
dDCCASIwDQYJKoZIhvcNAQEBBQADggEPADCCAQoCggEBALoN0lGvDEiUN8/qg4/W
ObXJWP5ZW+VhtiGYhhaghebNyCGBZUxll1Vydi/GDSX4yCifINFWTAaZ/20PJNOS
8TElWhNsvksZamWvLzK+qQ/4m21vEHzpJGFN/rrptbRUXoL3Anri4tdTamn0mkEn
D1DcZKFHhFM/8TjNgKNaK92WgYrq45Ry96r4L8yp0J42n1YMRezdagVShWCZ15Sf
dn4djz9Q+zO8yvgQLtsVsklX2PRZ+nM7AzKGp/FGoWKsZxBzcFEH/9IEM9h84qj/
jlMk6OSW2vvR6i+cqbWPxVD7kGexjFuN91+v2qT6PPtPBb9WTN3WbkNU/fSgyROT
VQcCAwEAAaOByzCByDAdBgNVHQ4EFgQUT97z5V71mA3KOiAr6ci0XdAdhr8wHwYD
VR0jBBgwFoAUT97z5V71mA3KOiAr6ci0XdAdhr8wNwYIKwYBBQUHAQEEKzApMCcG
CCsGAQUFBzAChhtodHRwOi8vdXJsLWZvci1haWEvUm9vdC5jZXIwLAYDVR0fBCUw
IzAhoB+gHYYbaHR0cDovL3VybC1mb3ItY3JsL1Jvb3QuY3JsMA4GA1UdDwEB/wQE
AwIBBjAPBgNVHRMBAf8EBTADAQH/MA0GCSqGSIb3DQEBCwUAA4IBAQB1TobhJZ6o
ew5l27vKSeMMcN8HvRqD2Ejhtws57dphoJgd3ptfZqYzeUNGG32/tOQ3jJZeiaiP
kgQPxeQNgaN2mMGwsnBwEfaONDqCrmt96f+0WIUgsIX8holACGLlDzSDgpDaKlnk
U1PuYaxGUavLgR3B9/DCZFW5/SpnRDpqr/nCVcg15os60QaCjxTu8REl26KYzL69
YyFld25q+NF+ocbfSA50DeMDUf/5mJI8+DZ1kF4JbH8/wV5AA3Leq+1vu/73nRSS
XGkTus962EvxKQRuvF/JjlK221hBu40y51tLdL9MjewHC3081i9NJxExFW84Dboq
U3YqR+YyUt/q
-----END TRUST_ANCHOR_UNCONSTRAINED-----

150302120000Z
-----BEGIN TIME-----
MTUwMzAyMTIwMDAwWg==
-----END TIME-----

SUCCESS
-----BEGIN VERIFY_RESULT-----
U1VDQ0VTUw==
-----END VERIFY_RESULT-----
