[Created by: generate-target-not-end-entity.py]

Certificate chain with 1 intermediate, a trusted root, and a target
certificate that is also a CA. Verification is expected to succeed, as the test
code accepts any target certificate.

Certificate:
    Data:
        Version: 3 (0x2)
        Serial Number: 1 (0x1)
    Signature Algorithm: sha256WithRSAEncryption
        Issuer: CN=Intermediate
        Validity
            Not Before: Jan  1 12:00:00 2015 GMT
            Not After : Jan  1 12:00:00 2016 GMT
        Subject: CN=Target
        Subject Public Key Info:
            Public Key Algorithm: rsaEncryption
                Public-Key: (2048 bit)
                Modulus:
                    00:f5:cd:3c:3f:41:74:34:24:e9:1d:74:42:a1:a8:
                    16:8e:38:0b:ef:74:5b:38:0c:fb:18:b5:f6:08:f3:
                    7e:d6:03:ac:02:7c:38:07:dc:c2:3e:78:bd:a7:2d:
                    44:3d:6b:b4:74:42:71:c4:0c:93:c7:9a:ba:83:e9:
                    6a:12:39:ab:fd:63:f5:e9:d7:97:33:93:7c:1b:77:
                    78:c6:7a:7b:32:31:c3:68:aa:b0:b9:78:7b:c2:5a:
                    85:0b:04:b4:c1:2b:fd:ce:71:02:6a:b1:0c:f6:1a:
                    65:99:58:29:6e:95:21:69:7c:2a:c0:ff:18:90:28:
                    92:ad:40:f5:83:67:63:04:14:21:aa:d2:29:35:22:
                    03:f8:28:27:8a:69:82:de:aa:f4:1e:5e:93:19:27:
                    74:4a:6b:d5:82:d3:2e:66:cb:23:e9:34:d1:70:0f:
                    84:cb:1d:87:55:9e:1c:f2:b9:5a:e8:d0:43:dc:89:
                    a3:5c:28:61:fc:89:97:ab:ff:4a:2c:bc:c0:58:f2:
                    68:f8:d7:9f:3e:e8:b1:8c:70:5a:d0:f7:1a:d3:dd:
                    d1:24:ba:fe:15:f8:bd:ea:16:8d:ee:9e:7e:99:30:
                    22:6c:24:21:67:d1:fa:50:61:ce:65:48:5f:0e:79:
                    02:0d:e9:b1:69:d3:4c:e7:2d:5d:57:8b:d5:e8:42:
                    d4:e7
                Exponent: 65537 (0x10001)
        X509v3 extensions:
            X509v3 Subject Key Identifier: 
                B4:44:21:DE:96:81:AA:7F:9A:5B:79:CB:57:AA:3D:13:A5:4B:6A:93
            X509v3 Authority Key Identifier: 
                keyid:01:CB:1D:FC:13:00:C9:67:B2:D6:76:F2:0A:4F:9D:6A:D4:E2:9D:3D

            Authority Information Access: 
                CA Issuers - URI:http://url-for-aia/Intermediate.cer

            X509v3 CRL Distribution Points: 

                Full Name:
                  URI:http://url-for-crl/Intermediate.crl

            X509v3 Key Usage: critical
                Certificate Sign, CRL Sign
            X509v3 Basic Constraints: critical
                CA:TRUE
    Signature Algorithm: sha256WithRSAEncryption
         0e:8f:41:87:a8:42:bd:13:c8:62:be:1d:f6:ad:a4:cd:00:5d:
         21:61:73:5f:75:27:67:16:98:11:ca:0f:cd:9d:bf:96:2a:75:
         62:35:68:e0:af:f7:6f:c4:75:69:f2:a7:89:27:96:64:4f:0e:
         7e:f0:82:89:65:1e:a2:08:cd:8b:f1:e5:a0:32:c5:93:2a:62:
         4c:3c:d2:9f:95:55:5d:87:a8:fe:ef:fa:92:aa:08:76:38:67:
         0a:d3:f9:0a:b9:93:69:e6:d3:78:ab:9f:eb:ef:35:a7:24:ae:
         10:d7:3d:17:bd:86:07:c0:64:0f:d6:fc:55:c1:54:70:6c:22:
         4f:ae:c1:64:ca:fc:dc:97:eb:8b:d2:22:52:d8:52:2c:4d:d4:
         5c:df:10:52:ab:ab:b2:89:10:e8:ed:00:19:8a:65:e8:4e:8c:
         e2:5d:5b:cd:35:4c:55:24:30:be:57:f7:f0:51:ef:52:9d:34:
         60:0d:1e:f5:ba:8a:33:83:ac:db:dc:d9:2b:0b:f3:46:1c:98:
         3a:5e:5c:c7:36:7e:62:62:a4:13:68:2e:35:32:a1:bd:9d:e9:
         67:bb:58:85:3b:ea:94:1f:c7:91:35:b0:2c:ce:25:2b:9c:9f:
         60:7a:09:fa:32:1c:9d:4e:ca:ef:20:9d:ca:e1:ad:20:cd:63:
         20:ce:48:fd
-----BEGIN CERTIFICATE-----
MIIDfzCCAmegAwIBAgIBATANBgkqhkiG9w0BAQsFADAXMRUwEwYDVQQDDAxJbnRl
cm1lZGlhdGUwHhcNMTUwMTAxMTIwMDAwWhcNMTYwMTAxMTIwMDAwWjARMQ8wDQYD
VQQDDAZUYXJnZXQwggEiMA0GCSqGSIb3DQEBAQUAA4IBDwAwggEKAoIBAQD1zTw/
QXQ0JOkddEKhqBaOOAvvdFs4DPsYtfYI837WA6wCfDgH3MI+eL2nLUQ9a7R0QnHE
DJPHmrqD6WoSOav9Y/Xp15czk3wbd3jGensyMcNoqrC5eHvCWoULBLTBK/3OcQJq
sQz2GmWZWClulSFpfCrA/xiQKJKtQPWDZ2MEFCGq0ik1IgP4KCeKaYLeqvQeXpMZ
J3RKa9WC0y5myyPpNNFwD4TLHYdVnhzyuVro0EPciaNcKGH8iZer/0osvMBY8mj4
158+6LGMcFrQ9xrT3dEkuv4V+L3qFo3unn6ZMCJsJCFn0fpQYc5lSF8OeQIN6bFp
00znLV1Xi9XoQtTnAgMBAAGjgdswgdgwHQYDVR0OBBYEFLREId6Wgap/mlt5y1eq
PROlS2qTMB8GA1UdIwQYMBaAFAHLHfwTAMlnstZ28gpPnWrU4p09MD8GCCsGAQUF
BwEBBDMwMTAvBggrBgEFBQcwAoYjaHR0cDovL3VybC1mb3ItYWlhL0ludGVybWVk
aWF0ZS5jZXIwNAYDVR0fBC0wKzApoCegJYYjaHR0cDovL3VybC1mb3ItY3JsL0lu
dGVybWVkaWF0ZS5jcmwwDgYDVR0PAQH/BAQDAgEGMA8GA1UdEwEB/wQFMAMBAf8w
DQYJKoZIhvcNAQELBQADggEBAA6PQYeoQr0TyGK+HfatpM0AXSFhc191J2cWmBHK
D82dv5YqdWI1aOCv92/EdWnyp4knlmRPDn7wgollHqIIzYvx5aAyxZMqYkw80p+V
VV2HqP7v+pKqCHY4ZwrT+Qq5k2nm03irn+vvNackrhDXPRe9hgfAZA/W/FXBVHBs
Ik+uwWTK/NyX64vSIlLYUixN1FzfEFKrq7KJEOjtABmKZehOjOJdW801TFUkML5X
9/BR71KdNGANHvW6ijODrNvc2SsL80YcmDpeXMc2fmJipBNoLjUyob2d6We7WIU7
6pQfx5E1sCzOJSucn2B6CfoyHJ1Oyu8gncrhrSDNYyDOSP0=
-----END CERTIFICATE-----

Certificate:
    Data:
        Version: 3 (0x2)
        Serial Number: 2 (0x2)
    Signature Algorithm: sha256WithRSAEncryption
        Issuer: CN=Root
        Validity
            Not Before: Jan  1 12:00:00 2015 GMT
            Not After : Jan  1 12:00:00 2016 GMT
        Subject: CN=Intermediate
        Subject Public Key Info:
            Public Key Algorithm: rsaEncryption
                Public-Key: (2048 bit)
                Modulus:
                    00:d0:8e:2e:ba:a1:8d:d9:60:16:cd:17:31:c9:08:
                    43:93:94:76:48:55:a2:78:19:17:70:8e:95:25:ac:
                    f9:b9:81:33:66:8c:2c:79:b7:d9:f5:89:92:1b:d2:
                    4e:01:e9:69:e6:61:b4:d7:96:78:6d:a0:23:cf:67:
                    11:cd:fb:fe:3d:d6:b8:ad:64:3f:f6:b9:f5:17:05:
                    89:1c:fb:3d:94:c3:18:43:e4:1e:15:0f:8d:26:25:
                    de:db:f0:c0:d6:67:cc:90:f8:33:1c:d1:81:4b:63:
                    3e:c9:76:61:65:80:b4:13:97:9d:2e:99:ca:a2:6b:
                    cc:10:a6:3b:2f:20:90:ee:a5:6c:cf:f6:a0:7a:7b:
                    ce:59:c6:19:42:3f:9f:69:ab:f3:c1:2f:26:8d:fe:
                    ac:b8:ec:33:d2:d6:bb:4e:3f:80:c0:d9:12:33:35:
                    05:2d:30:ce:6b:1c:12:ea:89:6f:8a:93:15:0e:0c:
                    c0:10:7a:99:1e:3f:fb:85:88:09:82:16:f0:62:ed:
                    fb:26:63:93:71:72:9b:15:11:19:c3:36:5b:10:c1:
                    b1:12:51:2e:6a:af:c1:d1:9d:fd:8b:7f:13:19:5d:
                    ce:00:49:3d:33:32:d1:6b:c5:14:4e:10:92:4d:1f:
                    28:07:01:29:8f:fe:5d:ff:98:b8:2f:99:fc:68:21:
                    1d:1f
                Exponent: 65537 (0x10001)
        X509v3 extensions:
            X509v3 Subject Key Identifier: 
                01:CB:1D:FC:13:00:C9:67:B2:D6:76:F2:0A:4F:9D:6A:D4:E2:9D:3D
            X509v3 Authority Key Identifier: 
                keyid:2D:38:72:D3:21:CA:2A:39:AD:2D:B4:9A:10:5C:CB:58:56:82:C4:AA

            Authority Information Access: 
                CA Issuers - URI:http://url-for-aia/Root.cer

            X509v3 CRL Distribution Points: 

                Full Name:
                  URI:http://url-for-crl/Root.crl

            X509v3 Key Usage: critical
                Certificate Sign, CRL Sign
            X509v3 Basic Constraints: critical
                CA:TRUE
    Signature Algorithm: sha256WithRSAEncryption
         11:b8:7a:ac:f4:c5:c5:cc:bc:46:f9:9e:03:6d:69:f7:3c:15:
         71:be:be:15:0d:a4:b9:23:cd:e0:15:a4:51:36:86:2a:65:7e:
         7e:29:bc:58:d1:9d:11:2d:0e:22:61:65:ca:a4:9e:61:3f:16:
         23:ca:ff:91:62:34:55:56:1c:b8:83:b7:62:cb:9a:07:46:53:
         35:53:8a:04:7e:fa:12:72:af:af:04:1d:18:a4:c1:ba:5b:c7:
         db:01:97:58:01:d1:73:e9:85:fb:16:27:0f:d2:eb:ce:35:7e:
         e1:a1:91:52:d7:91:03:59:ab:c0:ed:a6:bc:7b:70:bc:af:73:
         20:10:a6:a8:f4:45:28:0e:8b:a8:f7:e8:03:64:c6:f1:3d:12:
         dc:f2:30:75:85:a9:68:44:ad:fb:ab:36:ed:8f:84:25:79:d3:
         d6:f1:c8:10:1a:ac:c4:fc:65:6b:0c:77:ef:d3:61:de:91:74:
         df:da:f3:f2:f1:07:93:5f:e0:c9:6a:6d:58:29:e1:ef:98:93:
         3a:13:82:09:ec:90:82:5a:d7:ef:1d:d4:50:b8:e6:ff:ef:8f:
         8f:9e:38:72:e5:f3:58:f9:04:90:b3:a9:a3:fd:dc:82:ab:44:
         be:bc:47:f7:79:15:31:91:1c:c1:3c:5c:86:d1:78:bc:1e:0c:
         9e:af:18:60
-----BEGIN CERTIFICATE-----
MIIDbTCCAlWgAwIBAgIBAjANBgkqhkiG9w0BAQsFADAPMQ0wCwYDVQQDDARSb290
MB4XDTE1MDEwMTEyMDAwMFoXDTE2MDEwMTEyMDAwMFowFzEVMBMGA1UEAwwMSW50
ZXJtZWRpYXRlMIIBIjANBgkqhkiG9w0BAQEFAAOCAQ8AMIIBCgKCAQEA0I4uuqGN
2WAWzRcxyQhDk5R2SFWieBkXcI6VJaz5uYEzZowsebfZ9YmSG9JOAelp5mG015Z4
baAjz2cRzfv+Pda4rWQ/9rn1FwWJHPs9lMMYQ+QeFQ+NJiXe2/DA1mfMkPgzHNGB
S2M+yXZhZYC0E5edLpnKomvMEKY7LyCQ7qVsz/agenvOWcYZQj+faavzwS8mjf6s
uOwz0ta7Tj+AwNkSMzUFLTDOaxwS6olvipMVDgzAEHqZHj/7hYgJghbwYu37JmOT
cXKbFREZwzZbEMGxElEuaq/B0Z39i38TGV3OAEk9MzLRa8UUThCSTR8oBwEpj/5d
/5i4L5n8aCEdHwIDAQABo4HLMIHIMB0GA1UdDgQWBBQByx38EwDJZ7LWdvIKT51q
1OKdPTAfBgNVHSMEGDAWgBQtOHLTIcoqOa0ttJoQXMtYVoLEqjA3BggrBgEFBQcB
AQQrMCkwJwYIKwYBBQUHMAKGG2h0dHA6Ly91cmwtZm9yLWFpYS9Sb290LmNlcjAs
BgNVHR8EJTAjMCGgH6AdhhtodHRwOi8vdXJsLWZvci1jcmwvUm9vdC5jcmwwDgYD
VR0PAQH/BAQDAgEGMA8GA1UdEwEB/wQFMAMBAf8wDQYJKoZIhvcNAQELBQADggEB
ABG4eqz0xcXMvEb5ngNtafc8FXG+vhUNpLkjzeAVpFE2hiplfn4pvFjRnREtDiJh
ZcqknmE/FiPK/5FiNFVWHLiDt2LLmgdGUzVTigR++hJyr68EHRikwbpbx9sBl1gB
0XPphfsWJw/S6841fuGhkVLXkQNZq8Dtprx7cLyvcyAQpqj0RSgOi6j36ANkxvE9
EtzyMHWFqWhErfurNu2PhCV509bxyBAarMT8ZWsMd+/TYd6RdN/a8/LxB5Nf4Mlq
bVgp4e+YkzoTggnskIJa1+8d1FC45v/vj4+eOHLl81j5BJCzqaP93IKrRL68R/d5
FTGRHME8XIbReLweDJ6vGGA=
-----END CERTIFICATE-----

Certificate:
    Data:
        Version: 3 (0x2)
        Serial Number: 1 (0x1)
    Signature Algorithm: sha256WithRSAEncryption
        Issuer: CN=Root
        Validity
            Not Before: Jan  1 12:00:00 2015 GMT
            Not After : Jan  1 12:00:00 2016 GMT
        Subject: CN=Root
        Subject Public Key Info:
            Public Key Algorithm: rsaEncryption
                Public-Key: (2048 bit)
                Modulus:
                    00:c4:68:12:a9:88:50:04:f4:70:9b:0a:1e:d1:83:
                    30:a0:36:08:fe:20:f5:bc:b4:a5:32:74:dd:4c:ab:
                    cc:73:a4:ce:25:ab:04:38:71:2d:5c:06:de:3b:c3:
                    2f:b8:d9:91:f3:28:9a:70:f4:7f:be:d5:0e:4e:00:
                    db:ce:d7:c6:9f:b2:aa:0b:5e:3a:b5:e3:ad:80:78:
                    53:f1:38:61:05:7f:00:19:e4:ec:77:b5:1d:b6:c9:
                    35:10:ca:18:c2:71:ae:c8:34:77:dc:46:26:a1:60:
                    a4:f0:dc:49:5a:fe:af:91:98:41:1c:90:50:7d:be:
                    94:61:0e:58:b6:21:48:83:2e:5f:c1:a6:0c:a6:72:
                    95:4a:a5:c5:a1:d9:bd:14:dd:7c:f4:1a:db:b1:1c:
                    09:0c:2b:60:e7:28:c0:fc:e1:36:0a:f4:68:dc:ee:
                    89:d8:0f:47:9c:e4:7b:ca:fe:65:57:2c:3b:3b:e5:
                    b4:89:c5:04:52:55:02:dc:09:44:fd:6a:19:fc:e4:
                    52:6f:78:96:41:79:3f:b8:85:5a:fe:7f:8f:5d:fc:
                    ee:ba:35:1d:eb:64:2d:e0:7b:f2:8c:17:d3:33:21:
                    9c:2d:e6:85:d2:e3:2c:0f:5b:57:2c:c5:c6:de:93:
                    24:a2:6e:1b:72:49:f5:c8:05:e2:0e:ae:68:7a:f6:
                    b5:09
                Exponent: 65537 (0x10001)
        X509v3 extensions:
            X509v3 Subject Key Identifier: 
                2D:38:72:D3:21:CA:2A:39:AD:2D:B4:9A:10:5C:CB:58:56:82:C4:AA
            X509v3 Authority Key Identifier: 
                keyid:2D:38:72:D3:21:CA:2A:39:AD:2D:B4:9A:10:5C:CB:58:56:82:C4:AA

            Authority Information Access: 
                CA Issuers - URI:http://url-for-aia/Root.cer

            X509v3 CRL Distribution Points: 

                Full Name:
                  URI:http://url-for-crl/Root.crl

            X509v3 Key Usage: critical
                Certificate Sign, CRL Sign
            X509v3 Basic Constraints: critical
                CA:TRUE
    Signature Algorithm: sha256WithRSAEncryption
         09:ee:80:43:2f:77:6c:2b:2f:51:79:35:59:ad:f0:a5:51:45:
         22:6a:0a:20:c7:eb:d1:98:c2:43:06:5a:5c:92:cb:44:24:7b:
         97:8e:18:b8:23:3c:8b:31:6d:54:0e:73:11:90:9e:8b:2c:a4:
         78:53:e6:8e:55:93:64:cc:14:04:54:a1:b6:ec:28:59:67:3a:
         64:0f:9d:51:ec:ba:35:06:af:5f:96:b5:3c:fe:62:0e:13:5a:
         ee:29:af:55:d9:22:71:b3:c8:61:1a:36:4c:c8:f9:39:80:c2:
         06:c2:54:93:fb:2f:1b:f7:01:66:42:2a:e2:08:7b:ee:3e:0d:
         e0:c6:07:fd:f1:cf:5e:d1:77:b2:46:21:c6:c5:9f:db:15:75:
         7e:ea:ec:5d:da:02:2a:42:35:7a:b5:a2:2e:86:08:8b:29:ea:
         e9:f3:b5:cd:9d:46:96:86:c7:82:ed:64:ab:74:29:53:1c:3e:
         f5:69:51:5b:11:1c:0d:c4:f0:01:31:a6:32:d2:68:af:1d:52:
         c1:c4:d9:a2:9e:da:a2:bd:19:71:fa:26:f5:28:43:6a:fd:5c:
         97:d2:bb:e0:cd:56:0e:b8:0e:f9:4d:d5:dd:a0:4e:ae:46:68:
         00:93:d6:fd:ec:85:78:f4:c9:93:96:34:65:cc:f0:72:e7:0e:
         00:3d:d0:6b
-----BEGIN TRUST_ANCHOR_UNCONSTRAINED-----
MIIDZTCCAk2gAwIBAgIBATANBgkqhkiG9w0BAQsFADAPMQ0wCwYDVQQDDARSb290
MB4XDTE1MDEwMTEyMDAwMFoXDTE2MDEwMTEyMDAwMFowDzENMAsGA1UEAwwEUm9v
dDCCASIwDQYJKoZIhvcNAQEBBQADggEPADCCAQoCggEBAMRoEqmIUAT0cJsKHtGD
MKA2CP4g9by0pTJ03UyrzHOkziWrBDhxLVwG3jvDL7jZkfMomnD0f77VDk4A287X
xp+yqgteOrXjrYB4U/E4YQV/ABnk7He1HbbJNRDKGMJxrsg0d9xGJqFgpPDcSVr+
r5GYQRyQUH2+lGEOWLYhSIMuX8GmDKZylUqlxaHZvRTdfPQa27EcCQwrYOcowPzh
Ngr0aNzuidgPR5zke8r+ZVcsOzvltInFBFJVAtwJRP1qGfzkUm94lkF5P7iFWv5/
j1387ro1HetkLeB78owX0zMhnC3mhdLjLA9bVyzFxt6TJKJuG3JJ9cgF4g6uaHr2
tQkCAwEAAaOByzCByDAdBgNVHQ4EFgQULThy0yHKKjmtLbSaEFzLWFaCxKowHwYD
VR0jBBgwFoAULThy0yHKKjmtLbSaEFzLWFaCxKowNwYIKwYBBQUHAQEEKzApMCcG
CCsGAQUFBzAChhtodHRwOi8vdXJsLWZvci1haWEvUm9vdC5jZXIwLAYDVR0fBCUw
IzAhoB+gHYYbaHR0cDovL3VybC1mb3ItY3JsL1Jvb3QuY3JsMA4GA1UdDwEB/wQE
AwIBBjAPBgNVHRMBAf8EBTADAQH/MA0GCSqGSIb3DQEBCwUAA4IBAQAJ7oBDL3ds
Ky9ReTVZrfClUUUiagogx+vRmMJDBlpckstEJHuXjhi4IzyLMW1UDnMRkJ6LLKR4
U+aOVZNkzBQEVKG27ChZZzpkD51R7Lo1Bq9flrU8/mIOE1ruKa9V2SJxs8hhGjZM
yPk5gMIGwlST+y8b9wFmQiriCHvuPg3gxgf98c9e0XeyRiHGxZ/bFXV+6uxd2gIq
QjV6taIuhgiLKerp87XNnUaWhseC7WSrdClTHD71aVFbERwNxPABMaYy0mivHVLB
xNmintqivRlx+ib1KENq/VyX0rvgzVYOuA75TdXdoE6uRmgAk9b97IV49MmTljRl
zPBy5w4APdBr
-----END TRUST_ANCHOR_UNCONSTRAINED-----

150302120000Z
-----BEGIN TIME-----
MTUwMzAyMTIwMDAwWg==
-----END TIME-----

SUCCESS
-----BEGIN VERIFY_RESULT-----
U1VDQ0VTUw==
-----END VERIFY_RESULT-----
