[Created by: generate-target-wrong-signature.py]

Certificate chain where the target has an incorrect signature. Everything
else should check out, however the digital signature contained in the target
certificate is wrong.

Certificate:
    Data:
        Version: 3 (0x2)
        Serial Number: 1 (0x1)
    Signature Algorithm: sha256WithRSAEncryption
        Issuer: CN=Intermediate
        Validity
            Not Before: Jan  1 12:00:00 2015 GMT
            Not After : Jan  1 12:00:00 2016 GMT
        Subject: CN=Target
        Subject Public Key Info:
            Public Key Algorithm: rsaEncryption
                Public-Key: (2048 bit)
                Modulus:
                    00:95:c5:73:7e:a9:8f:9f:25:a3:b1:9f:29:c6:2e:
                    d6:b2:3d:5b:a4:10:08:53:40:f7:91:79:45:96:d0:
                    66:85:85:ea:56:e6:db:07:fd:82:1d:e3:e6:11:f2:
                    da:13:64:45:bf:c6:e1:a7:4c:da:29:e7:ba:2f:27:
                    d8:cd:59:3d:69:a3:af:d6:64:4b:3e:a4:12:07:5d:
                    d4:7d:07:85:6d:9c:9d:fe:fd:8f:ff:74:b3:c9:c9:
                    86:64:7c:ee:ca:74:1b:2f:3f:7c:37:8b:d9:fa:05:
                    0a:3a:9b:93:45:d0:8d:16:3e:7a:ce:0b:bb:8f:1b:
                    cc:15:4b:a2:76:08:f5:fb:e0:98:cc:1d:a4:1a:c1:
                    f5:23:b0:28:1c:fe:5f:a4:24:68:59:fc:1d:63:bc:
                    60:9a:a6:16:2c:db:0d:66:9d:d7:6e:13:6a:53:8c:
                    5b:61:a7:3f:9f:be:c8:2a:f9:ce:ea:47:d2:d2:1b:
                    95:de:af:5d:b0:39:3d:71:f5:be:5f:80:bd:3b:3e:
                    2e:79:e8:a2:de:9c:2b:da:e5:88:cd:4e:9c:cf:cd:
                    bc:88:2e:cc:9e:3b:e4:52:2b:49:0f:31:90:3f:15:
                    0d:b5:68:ea:5e:7e:6e:f9:6c:ba:57:bd:41:33:51:
                    27:66:f9:2b:3f:ae:7c:87:07:a1:19:a5:0f:ba:bd:
                    f8:b7
                Exponent: 65537 (0x10001)
        X509v3 extensions:
            X509v3 Subject Key Identifier: 
                5E:72:8E:7C:0B:A6:A7:E8:2C:3E:36:CA:37:EF:8E:4E:46:CB:97:34
            X509v3 Authority Key Identifier: 
                keyid:DF:46:5C:25:13:E9:22:B2:C9:E4:1A:32:22:C4:97:1F:E6:0C:55:AA

            Authority Information Access: 
                CA Issuers - URI:http://url-for-aia/Intermediate.cer

            X509v3 CRL Distribution Points: 

                Full Name:
                  URI:http://url-for-crl/Intermediate.crl

            X509v3 Key Usage: critical
                Digital Signature, Key Encipherment
            X509v3 Extended Key Usage: 
                TLS Web Server Authentication, TLS Web Client Authentication
    Signature Algorithm: sha256WithRSAEncryption
         15:7a:35:37:ba:ff:11:3b:c0:ad:82:51:d0:e9:23:50:77:06:
         56:e0:84:94:2d:e4:76:94:d5:af:65:26:26:06:77:f2:6c:03:
         f4:77:6c:a3:ba:92:26:c7:a0:ea:24:06:98:78:18:24:70:44:
         08:03:d0:ef:0b:db:d9:f2:3d:35:38:17:41:69:46:62:1a:af:
         a7:44:be:1d:27:02:b3:79:1a:30:ab:06:79:6a:bd:3f:72:21:
         f2:34:47:07:ef:08:69:ae:40:1f:61:68:a7:a8:a8:5c:85:6e:
         39:61:39:ad:8a:3a:a5:d8:64:94:bd:e2:dc:1f:68:45:f0:2c:
         bf:08:d0:74:75:1c:80:30:86:87:b0:f4:eb:69:e8:16:52:45:
         bc:c3:3b:08:c9:90:9f:f8:c9:01:9b:2f:29:2b:dc:2c:af:59:
         cb:3e:07:8a:e7:e0:ca:64:2a:43:39:bf:a5:0e:d6:14:08:e9:
         9a:c1:76:7d:fb:a1:39:05:a6:43:0a:ba:ed:70:5b:f5:b8:ac:
         15:91:a4:37:24:c7:1e:d2:69:41:08:e2:2f:76:bb:e1:f8:b9:
         0d:7a:a9:57:af:25:8c:5c:73:f2:d8:2b:a6:23:c8:42:b4:28:
         ed:fe:79:2b:11:4a:2e:3c:ef:3f:13:e6:51:68:d8:1a:c3:3b:
         b3:22:62:c9
-----BEGIN CERTIFICATE-----
MIIDjTCCAnWgAwIBAgIBATANBgkqhkiG9w0BAQsFADAXMRUwEwYDVQQDDAxJbnRl
cm1lZGlhdGUwHhcNMTUwMTAxMTIwMDAwWhcNMTYwMTAxMTIwMDAwWjARMQ8wDQYD
VQQDDAZUYXJnZXQwggEiMA0GCSqGSIb3DQEBAQUAA4IBDwAwggEKAoIBAQCVxXN+
qY+fJaOxnynGLtayPVukEAhTQPeReUWW0GaFhepW5tsH/YId4+YR8toTZEW/xuGn
TNop57ovJ9jNWT1po6/WZEs+pBIHXdR9B4VtnJ3+/Y//dLPJyYZkfO7KdBsvP3w3
i9n6BQo6m5NF0I0WPnrOC7uPG8wVS6J2CPX74JjMHaQawfUjsCgc/l+kJGhZ/B1j
vGCaphYs2w1mndduE2pTjFthpz+fvsgq+c7qR9LSG5Xer12wOT1x9b5fgL07Pi55
6KLenCva5YjNTpzPzbyILsyeO+RSK0kPMZA/FQ21aOpefm75bLpXvUEzUSdm+Ss/
rnyHB6EZpQ+6vfi3AgMBAAGjgekwgeYwHQYDVR0OBBYEFF5yjnwLpqfoLD42yjfv
jk5Gy5c0MB8GA1UdIwQYMBaAFN9GXCUT6SKyyeQaMiLElx/mDFWqMD8GCCsGAQUF
BwEBBDMwMTAvBggrBgEFBQcwAoYjaHR0cDovL3VybC1mb3ItYWlhL0ludGVybWVk
aWF0ZS5jZXIwNAYDVR0fBC0wKzApoCegJYYjaHR0cDovL3VybC1mb3ItY3JsL0lu
dGVybWVkaWF0ZS5jcmwwDgYDVR0PAQH/BAQDAgWgMB0GA1UdJQQWMBQGCCsGAQUF
BwMBBggrBgEFBQcDAjANBgkqhkiG9w0BAQsFAAOCAQEAFXo1N7r/ETvArYJR0Okj
UHcGVuCElC3kdpTVr2UmJgZ38mwD9Hdso7qSJseg6iQGmHgYJHBECAPQ7wvb2fI9
NTgXQWlGYhqvp0S+HScCs3kaMKsGeWq9P3Ih8jRHB+8Iaa5AH2Fop6ioXIVuOWE5
rYo6pdhklL3i3B9oRfAsvwjQdHUcgDCGh7D062noFlJFvMM7CMmQn/jJAZsvKSvc
LK9Zyz4HiufgymQqQzm/pQ7WFAjpmsF2ffuhOQWmQwq67XBb9bisFZGkNyTHHtJp
QQjiL3a74fi5DXqpV68ljFxz8tgrpiPIQrQo7f55KxFKLjzvPxPmUWjYGsM7syJi
yQ==
-----END CERTIFICATE-----

Certificate:
    Data:
        Version: 3 (0x2)
        Serial Number: 3 (0x3)
    Signature Algorithm: sha256WithRSAEncryption
        Issuer: CN=Root
        Validity
            Not Before: Jan  1 12:00:00 2015 GMT
            Not After : Jan  1 12:00:00 2016 GMT
        Subject: CN=Intermediate
        Subject Public Key Info:
            Public Key Algorithm: rsaEncryption
                Public-Key: (2048 bit)
                Modulus:
                    00:ba:c2:3e:70:32:82:15:bd:6f:24:c3:e0:9f:a9:
                    af:46:01:cb:23:03:07:17:d8:73:73:d0:8d:46:88:
                    3f:9b:40:30:ea:cb:76:d1:dc:e5:79:c6:ed:5e:94:
                    68:49:fe:8e:be:ff:74:b4:b1:a0:fd:ec:3f:4c:f5:
                    26:40:97:d8:b2:fd:a8:e1:9a:1e:47:48:58:8a:39:
                    0f:a8:53:76:1d:d8:55:b7:ff:15:7a:1a:28:70:a7:
                    50:6f:f7:2f:d8:dd:22:bf:08:32:82:66:33:fd:7d:
                    df:55:7f:71:5b:bd:c0:c6:f4:cd:a4:52:30:a9:bd:
                    a1:a3:61:e3:7a:93:40:a7:41:b3:10:43:0f:79:12:
                    50:34:0a:a4:ad:07:53:e6:7a:b6:8c:a5:00:82:0c:
                    9f:eb:c9:f8:51:68:2c:4e:3a:da:7e:7d:6d:15:b1:
                    ff:37:dd:e6:25:cf:5e:8f:fe:b1:09:7e:f8:60:3b:
                    20:3e:99:64:e1:9a:58:ee:01:28:71:cf:ac:dd:66:
                    40:0d:d9:7b:85:8f:f2:35:90:2a:75:26:96:b4:3a:
                    f2:ef:5c:06:f1:2c:ec:07:83:d6:23:a4:ab:f4:28:
                    ad:1f:8d:cf:e2:d8:b9:1f:48:76:6f:7c:e7:8a:17:
                    5b:b5:9b:ff:17:13:6e:f4:05:47:78:91:c7:7a:03:
                    33:15
                Exponent: 65537 (0x10001)
        X509v3 extensions:
            X509v3 Subject Key Identifier: 
                D0:3F:2D:C4:6A:01:B8:7A:61:4F:B0:35:18:E6:D0:F9:55:5D:7B:B7
            X509v3 Authority Key Identifier: 
                keyid:D4:FF:80:DD:86:D2:53:18:54:65:B3:62:9A:07:67:BB:21:7D:19:77

            Authority Information Access: 
                CA Issuers - URI:http://url-for-aia/Root.cer

            X509v3 CRL Distribution Points: 

                Full Name:
                  URI:http://url-for-crl/Root.crl

            X509v3 Key Usage: critical
                Certificate Sign, CRL Sign
            X509v3 Basic Constraints: critical
                CA:TRUE
    Signature Algorithm: sha256WithRSAEncryption
         44:69:05:6c:d0:10:da:90:f7:62:5f:8a:80:93:39:f0:ee:6f:
         c5:18:df:47:40:d0:b4:73:8a:d6:68:7f:99:92:e4:34:bd:ef:
         d7:c8:8c:d9:09:b1:24:06:86:ab:9f:58:1a:d3:38:73:9b:80:
         f3:9b:a9:8c:db:ef:0d:94:54:91:45:04:42:9b:98:3c:fc:39:
         53:85:36:1d:06:59:c5:1e:50:7c:1e:e0:ec:ad:d8:44:98:13:
         a2:6b:bc:10:39:3e:3e:5b:3a:30:de:2a:a0:08:05:21:cd:d1:
         57:50:05:c2:84:c3:e8:0d:69:59:76:3d:32:aa:9a:82:0d:59:
         c6:1a:8e:fa:08:3c:18:08:b2:8b:f2:39:05:02:0e:af:7c:28:
         7e:16:44:d8:b2:e0:32:19:d7:c5:54:4c:e9:87:e0:1f:30:73:
         6a:2b:ef:9f:9d:5e:31:a6:02:39:9d:5b:e1:c5:b6:d1:cd:95:
         ba:ee:5c:3a:97:58:49:ef:26:cf:e6:eb:72:47:5b:6e:f4:cc:
         3b:1c:08:c7:2e:89:f6:91:ef:94:e3:33:83:7c:9b:d8:10:01:
         d7:ac:0f:4c:c6:01:c7:0d:84:48:bd:a7:e8:4d:09:40:a8:b2:
         f3:0a:21:71:74:0f:ab:ca:23:aa:99:80:6d:0c:42:73:14:00:
         31:1e:67:51
-----BEGIN CERTIFICATE-----
MIIDbTCCAlWgAwIBAgIBAzANBgkqhkiG9w0BAQsFADAPMQ0wCwYDVQQDDARSb290
MB4XDTE1MDEwMTEyMDAwMFoXDTE2MDEwMTEyMDAwMFowFzEVMBMGA1UEAwwMSW50
ZXJtZWRpYXRlMIIBIjANBgkqhkiG9w0BAQEFAAOCAQ8AMIIBCgKCAQEAusI+cDKC
Fb1vJMPgn6mvRgHLIwMHF9hzc9CNRog/m0Aw6st20dzlecbtXpRoSf6Ovv90tLGg
/ew/TPUmQJfYsv2o4ZoeR0hYijkPqFN2HdhVt/8VehoocKdQb/cv2N0ivwgygmYz
/X3fVX9xW73AxvTNpFIwqb2ho2HjepNAp0GzEEMPeRJQNAqkrQdT5nq2jKUAggyf
68n4UWgsTjrafn1tFbH/N93mJc9ej/6xCX74YDsgPplk4ZpY7gEocc+s3WZADdl7
hY/yNZAqdSaWtDry71wG8SzsB4PWI6Sr9CitH43P4ti5H0h2b3znihdbtZv/FxNu
9AVHeJHHegMzFQIDAQABo4HLMIHIMB0GA1UdDgQWBBTQPy3EagG4emFPsDUY5tD5
VV17tzAfBgNVHSMEGDAWgBTU/4DdhtJTGFRls2KaB2e7IX0ZdzA3BggrBgEFBQcB
AQQrMCkwJwYIKwYBBQUHMAKGG2h0dHA6Ly91cmwtZm9yLWFpYS9Sb290LmNlcjAs
BgNVHR8EJTAjMCGgH6AdhhtodHRwOi8vdXJsLWZvci1jcmwvUm9vdC5jcmwwDgYD
VR0PAQH/BAQDAgEGMA8GA1UdEwEB/wQFMAMBAf8wDQYJKoZIhvcNAQELBQADggEB
AERpBWzQENqQ92JfioCTOfDub8UY30dA0LRzitZof5mS5DS979fIjNkJsSQGhquf
WBrTOHObgPObqYzb7w2UVJFFBEKbmDz8OVOFNh0GWcUeUHwe4Oyt2ESYE6JrvBA5
Pj5bOjDeKqAIBSHN0VdQBcKEw+gNaVl2PTKqmoINWcYajvoIPBgIsovyOQUCDq98
KH4WRNiy4DIZ18VUTOmH4B8wc2or75+dXjGmAjmdW+HFttHNlbruXDqXWEnvJs/m
63JHW270zDscCMcuifaR75TjM4N8m9gQAdesD0zGAccNhEi9p+hNCUCosvMKIXF0
D6vKI6qZgG0MQnMUADEeZ1E=
-----END CERTIFICATE-----

Certificate:
    Data:
        Version: 3 (0x2)
        Serial Number: 1 (0x1)
    Signature Algorithm: sha256WithRSAEncryption
        Issuer: CN=Root
        Validity
            Not Before: Jan  1 12:00:00 2015 GMT
            Not After : Jan  1 12:00:00 2016 GMT
        Subject: CN=Root
        Subject Public Key Info:
            Public Key Algorithm: rsaEncryption
                Public-Key: (2048 bit)
                Modulus:
                    00:c8:51:b0:c3:f3:b1:5d:6e:4a:c2:41:9e:b7:88:
                    48:d3:62:d1:49:3a:0b:ab:c9:26:f3:8a:bb:ee:1e:
                    b8:4a:cb:9a:47:3f:8c:87:a2:81:f5:91:05:7c:47:
                    45:d6:5f:a1:7d:e7:dd:cd:33:eb:4e:90:65:be:31:
                    d7:2d:98:03:45:48:03:03:72:8f:0f:43:3d:3a:ad:
                    cf:bc:f5:f5:bb:7d:1d:94:1d:d4:2c:b6:3b:4a:68:
                    9e:30:54:c2:c1:69:10:f8:7c:d5:73:ae:2f:22:65:
                    94:5c:17:1e:41:eb:5a:10:80:6c:eb:04:1d:09:0e:
                    79:51:71:ce:e7:4f:90:23:4f:84:b5:4e:97:70:79:
                    eb:28:47:0a:8c:b8:43:a6:f5:df:4d:fd:44:46:18:
                    06:97:6c:52:65:4a:89:25:af:73:6e:43:6a:93:b0:
                    ec:29:97:63:a4:36:95:db:71:b6:61:c3:25:0d:3f:
                    53:2f:de:d0:b4:16:c2:b6:70:3a:34:53:02:3d:50:
                    eb:32:4a:22:62:3c:9a:74:da:b2:60:af:37:41:4c:
                    c1:df:90:74:5a:ae:5d:a4:48:dd:1b:86:06:0f:cb:
                    3e:e5:4d:ec:62:86:04:1a:cb:0f:2a:04:a0:45:d5:
                    c1:79:9e:07:df:5d:2d:c3:0c:c4:57:0a:be:7e:41:
                    43:3d
                Exponent: 65537 (0x10001)
        X509v3 extensions:
            X509v3 Subject Key Identifier: 
                D4:FF:80:DD:86:D2:53:18:54:65:B3:62:9A:07:67:BB:21:7D:19:77
            X509v3 Authority Key Identifier: 
                keyid:D4:FF:80:DD:86:D2:53:18:54:65:B3:62:9A:07:67:BB:21:7D:19:77

            Authority Information Access: 
                CA Issuers - URI:http://url-for-aia/Root.cer

            X509v3 CRL Distribution Points: 

                Full Name:
                  URI:http://url-for-crl/Root.crl

            X509v3 Key Usage: critical
                Certificate Sign, CRL Sign
            X509v3 Basic Constraints: critical
                CA:TRUE
    Signature Algorithm: sha256WithRSAEncryption
         46:ee:68:7d:1f:94:16:70:57:11:6b:6b:18:96:45:c3:d7:17:
         50:9b:f1:e6:b1:bf:ad:97:3f:ca:3e:75:37:4e:c6:b6:d3:68:
         57:f5:59:a6:44:b4:3f:e5:fe:a3:05:65:02:f5:7c:dc:da:8e:
         1f:2d:fb:9c:23:f0:c0:a6:fc:f5:f3:a9:80:f9:eb:64:f0:8b:
         2a:f1:f5:68:8d:8c:c2:37:c4:8e:d5:bb:5b:e6:fb:ec:06:f9:
         80:28:56:c2:de:9c:16:78:3f:a8:16:15:e9:26:72:8f:45:c3:
         e7:d4:78:84:3c:b4:a0:72:5e:5d:09:d8:d1:7f:66:ca:74:d6:
         26:c0:72:c0:2a:89:fa:b4:5f:fe:92:4f:01:97:0e:81:88:01:
         6b:2e:ed:af:36:30:c7:62:fd:42:63:10:3f:c4:ad:eb:ee:c5:
         fd:bc:57:08:0f:a3:0c:e5:8c:de:ab:05:b5:b4:e9:c9:d1:c8:
         66:e2:ea:4a:b0:33:e5:a4:47:22:67:7c:70:e9:02:e0:22:75:
         35:4a:39:0e:2c:27:e5:29:d6:d2:f5:39:c9:03:39:7a:35:f5:
         ff:1d:88:8d:e1:be:6b:6b:c7:4c:0c:6d:02:d4:33:7a:f5:ea:
         29:55:a9:79:94:bc:a3:01:64:4a:99:99:fc:c6:e5:38:a2:8f:
         18:cc:e7:1f
-----BEGIN TRUST_ANCHOR_UNCONSTRAINED-----
MIIDZTCCAk2gAwIBAgIBATANBgkqhkiG9w0BAQsFADAPMQ0wCwYDVQQDDARSb290
MB4XDTE1MDEwMTEyMDAwMFoXDTE2MDEwMTEyMDAwMFowDzENMAsGA1UEAwwEUm9v
dDCCASIwDQYJKoZIhvcNAQEBBQADggEPADCCAQoCggEBAMhRsMPzsV1uSsJBnreI
SNNi0Uk6C6vJJvOKu+4euErLmkc/jIeigfWRBXxHRdZfoX3n3c0z606QZb4x1y2Y
A0VIAwNyjw9DPTqtz7z19bt9HZQd1Cy2O0ponjBUwsFpEPh81XOuLyJllFwXHkHr
WhCAbOsEHQkOeVFxzudPkCNPhLVOl3B56yhHCoy4Q6b13039REYYBpdsUmVKiSWv
c25DapOw7CmXY6Q2ldtxtmHDJQ0/Uy/e0LQWwrZwOjRTAj1Q6zJKImI8mnTasmCv
N0FMwd+QdFquXaRI3RuGBg/LPuVN7GKGBBrLDyoEoEXVwXmeB99dLcMMxFcKvn5B
Qz0CAwEAAaOByzCByDAdBgNVHQ4EFgQU1P+A3YbSUxhUZbNimgdnuyF9GXcwHwYD
VR0jBBgwFoAU1P+A3YbSUxhUZbNimgdnuyF9GXcwNwYIKwYBBQUHAQEEKzApMCcG
CCsGAQUFBzAChhtodHRwOi8vdXJsLWZvci1haWEvUm9vdC5jZXIwLAYDVR0fBCUw
IzAhoB+gHYYbaHR0cDovL3VybC1mb3ItY3JsL1Jvb3QuY3JsMA4GA1UdDwEB/wQE
AwIBBjAPBgNVHRMBAf8EBTADAQH/MA0GCSqGSIb3DQEBCwUAA4IBAQBG7mh9H5QW
cFcRa2sYlkXD1xdQm/Hmsb+tlz/KPnU3Tsa202hX9VmmRLQ/5f6jBWUC9Xzc2o4f
LfucI/DApvz186mA+etk8Isq8fVojYzCN8SO1btb5vvsBvmAKFbC3pwWeD+oFhXp
JnKPRcPn1HiEPLSgcl5dCdjRf2bKdNYmwHLAKon6tF/+kk8Blw6BiAFrLu2vNjDH
Yv1CYxA/xK3r7sX9vFcID6MM5YzeqwW1tOnJ0chm4upKsDPlpEciZ3xw6QLgInU1
SjkOLCflKdbS9TnJAzl6NfX/HYiN4b5ra8dMDG0C1DN69eopVal5lLyjAWRKmZn8
xuU4oo8YzOcf
-----END TRUST_ANCHOR_UNCONSTRAINED-----

150302120000Z
-----BEGIN TIME-----
MTUwMzAyMTIwMDAwWg==
-----END TIME-----

FAIL
-----BEGIN VERIFY_RESULT-----
RkFJTA==
-----END VERIFY_RESULT-----

[Context] Processing Certificate
  index: 1
      [Error] Signature verification failed
      [Error] VerifySignedData failed

-----BEGIN ERRORS-----
W0NvbnRleHRdIFByb2Nlc3NpbmcgQ2VydGlmaWNhdGUKICBpbmRleDogMQogICAgICBbRXJyb3JdIFNpZ25hdHVyZSB2ZXJpZmljYXRpb24gZmFpbGVkCiAgICAgIFtFcnJvcl0gVmVyaWZ5U2lnbmVkRGF0YSBmYWlsZWQK
-----END ERRORS-----
