[Created by: generate-target-signed-by-512bit-rsa.py]

Certificate chain with 1 intermediate and a trusted root. The target
certificate is signed using a weak RSA key (512-bit modulus), and so
verification is expected to fail.

Certificate:
    Data:
        Version: 3 (0x2)
        Serial Number: 1 (0x1)
    Signature Algorithm: sha256WithRSAEncryption
        Issuer: CN=Intermediate
        Validity
            Not Before: Jan  1 12:00:00 2015 GMT
            Not After : Jan  1 12:00:00 2016 GMT
        Subject: CN=Target
        Subject Public Key Info:
            Public Key Algorithm: rsaEncryption
                Public-Key: (2048 bit)
                Modulus:
                    00:e6:5f:a8:d2:f3:bc:ce:7c:a1:a7:97:8a:a5:bb:
                    3a:24:dd:5b:87:a1:3c:71:b1:e3:14:2e:72:39:ec:
                    7b:1b:b6:a4:05:b5:4b:82:29:40:ef:1e:5a:2b:b5:
                    f0:62:b2:2e:f2:2d:cd:a4:fe:2f:a4:5a:b6:6a:8c:
                    b0:2f:46:f7:bc:f0:6e:71:1f:56:2f:6e:0d:5f:7d:
                    15:24:76:d7:8a:b7:66:8f:b8:25:70:ba:3f:fa:ac:
                    2b:81:99:85:49:53:ae:a5:4c:27:d9:63:d3:67:6d:
                    6a:dc:c0:84:01:5f:35:49:3c:6a:21:76:7c:1e:e0:
                    f0:f4:8d:ed:31:a8:e8:f8:0b:a1:ae:e4:d6:79:18:
                    21:51:3a:08:98:30:6b:94:54:fe:e5:92:98:2d:e8:
                    ee:12:05:53:96:21:9a:d3:cb:fc:8b:dd:0b:10:63:
                    c2:e3:de:69:f8:3a:04:db:dc:ee:07:95:19:3b:32:
                    fb:a7:5a:39:60:71:63:af:78:1d:dd:f5:5a:77:99:
                    23:76:a8:e9:1e:6f:e2:50:3c:4c:b8:fa:58:83:26:
                    1a:ee:63:7e:cb:2d:93:2c:f6:19:aa:b3:4a:57:81:
                    6a:db:d7:59:44:29:a4:e0:71:5d:07:00:6b:83:99:
                    49:3b:bc:f8:ab:d8:fe:7d:5d:ba:b4:02:f5:95:e9:
                    90:65
                Exponent: 65537 (0x10001)
        X509v3 extensions:
            X509v3 Subject Key Identifier: 
                4A:CE:67:BF:3B:63:C0:09:D1:FF:FF:E6:FE:83:5A:03:0F:C3:43:10
            X509v3 Authority Key Identifier: 
                keyid:77:0D:A9:84:E8:2A:53:B8:C9:BB:D7:0F:D7:D0:85:E8:98:1A:E3:68

            Authority Information Access: 
                CA Issuers - URI:http://url-for-aia/Intermediate.cer

            X509v3 CRL Distribution Points: 

                Full Name:
                  URI:http://url-for-crl/Intermediate.crl

            X509v3 Key Usage: critical
                Digital Signature, Key Encipherment
            X509v3 Extended Key Usage: 
                TLS Web Server Authentication, TLS Web Client Authentication
    Signature Algorithm: sha256WithRSAEncryption
         65:fb:6d:6c:1a:df:48:9c:d1:36:07:e3:94:7b:d9:ea:36:84:
         37:f2:c2:03:53:74:4b:f9:a3:91:75:f4:bf:11:14:86:b5:34:
         8e:24:3d:9a:37:25:c2:27:19:48:f3:f0:a3:a6:51:e6:61:4a:
         77:db:7a:1e:ae:f1:94:ad:de:93
-----BEGIN CERTIFICATE-----
MIICyzCCAnWgAwIBAgIBATANBgkqhkiG9w0BAQsFADAXMRUwEwYDVQQDDAxJbnRl
cm1lZGlhdGUwHhcNMTUwMTAxMTIwMDAwWhcNMTYwMTAxMTIwMDAwWjARMQ8wDQYD
VQQDDAZUYXJnZXQwggEiMA0GCSqGSIb3DQEBAQUAA4IBDwAwggEKAoIBAQDmX6jS
87zOfKGnl4qluzok3VuHoTxxseMULnI57HsbtqQFtUuCKUDvHlortfBisi7yLc2k
/i+kWrZqjLAvRve88G5xH1Yvbg1ffRUkdteKt2aPuCVwuj/6rCuBmYVJU66lTCfZ
Y9NnbWrcwIQBXzVJPGohdnwe4PD0je0xqOj4C6Gu5NZ5GCFROgiYMGuUVP7lkpgt
6O4SBVOWIZrTy/yL3QsQY8Lj3mn4OgTb3O4HlRk7MvunWjlgcWOveB3d9Vp3mSN2
qOkeb+JQPEy4+liDJhruY37LLZMs9hmqs0pXgWrb11lEKaTgcV0HAGuDmUk7vPir
2P59Xbq0AvWV6ZBlAgMBAAGjgekwgeYwHQYDVR0OBBYEFErOZ787Y8AJ0f//5v6D
WgMPw0MQMB8GA1UdIwQYMBaAFHcNqYToKlO4ybvXD9fQheiYGuNoMD8GCCsGAQUF
BwEBBDMwMTAvBggrBgEFBQcwAoYjaHR0cDovL3VybC1mb3ItYWlhL0ludGVybWVk
aWF0ZS5jZXIwNAYDVR0fBC0wKzApoCegJYYjaHR0cDovL3VybC1mb3ItY3JsL0lu
dGVybWVkaWF0ZS5jcmwwDgYDVR0PAQH/BAQDAgWgMB0GA1UdJQQWMBQGCCsGAQUF
BwMBBggrBgEFBQcDAjANBgkqhkiG9w0BAQsFAANBAGX7bWwa30ic0TYH45R72eo2
hDfywgNTdEv5o5F19L8RFIa1NI4kPZo3JcInGUjz8KOmUeZhSnfbeh6u8ZSt3pM=
-----END CERTIFICATE-----

Certificate:
    Data:
        Version: 3 (0x2)
        Serial Number: 2 (0x2)
    Signature Algorithm: sha256WithRSAEncryption
        Issuer: CN=Root
        Validity
            Not Before: Jan  1 12:00:00 2015 GMT
            Not After : Jan  1 12:00:00 2016 GMT
        Subject: CN=Intermediate
        Subject Public Key Info:
            Public Key Algorithm: rsaEncryption
                Public-Key: (512 bit)
                Modulus:
                    00:9e:57:91:28:65:2e:3a:22:df:b6:61:df:cb:09:
                    a2:92:53:3b:bc:7a:20:99:41:d7:1e:fd:da:08:98:
                    2d:dd:12:82:3c:c5:29:51:95:eb:cb:50:c0:ca:5c:
                    76:06:df:b1:b6:48:bd:87:d2:71:6f:ee:21:78:0d:
                    ca:4e:2b:f6:c7
                Exponent: 65537 (0x10001)
        X509v3 extensions:
            X509v3 Subject Key Identifier: 
                77:0D:A9:84:E8:2A:53:B8:C9:BB:D7:0F:D7:D0:85:E8:98:1A:E3:68
            X509v3 Authority Key Identifier: 
                keyid:68:01:72:7E:35:BD:80:A0:AE:59:5C:D2:1E:21:52:72:04:31:4C:E0

            Authority Information Access: 
                CA Issuers - URI:http://url-for-aia/Root.cer

            X509v3 CRL Distribution Points: 

                Full Name:
                  URI:http://url-for-crl/Root.crl

            X509v3 Key Usage: critical
                Certificate Sign, CRL Sign
            X509v3 Basic Constraints: critical
                CA:TRUE
    Signature Algorithm: sha256WithRSAEncryption
         ad:f2:3c:b7:fe:59:a6:08:95:6f:a2:3a:b8:84:05:b2:5b:94:
         1a:c0:36:8f:c2:9e:31:92:16:1a:de:e8:0b:d8:77:6a:5e:39:
         93:91:77:20:e0:93:75:be:09:65:ea:03:3c:02:f3:5f:be:14:
         40:c9:8f:e6:17:9d:bd:bd:2d:91:c2:cd:cd:f3:fe:06:a0:21:
         e5:19:a3:95:d5:77:a1:b7:c3:0b:c8:a1:b9:0e:3c:77:e0:fc:
         1c:66:dd:48:49:fd:41:74:b8:55:e3:51:16:13:3b:7c:c6:d7:
         48:65:ea:1d:6c:5d:a8:02:fb:f9:dc:74:a5:79:ee:e0:20:8a:
         14:84:d6:af:18:b5:5e:32:2d:f7:8d:e9:17:3c:50:af:cf:1c:
         3e:0c:b1:71:d4:4c:67:fe:b9:75:8a:65:72:95:0a:36:06:19:
         46:15:3c:90:a0:8e:8c:b1:cd:25:9d:06:04:98:8a:c6:f3:38:
         5e:f9:ac:45:ee:ca:1b:84:c5:59:9f:55:58:7a:01:c3:9e:ca:
         33:68:fd:bc:a3:94:46:85:d9:5a:6b:60:d9:d7:cb:47:c9:61:
         7f:dd:97:11:75:55:b9:72:3a:61:3d:dc:52:fb:29:04:f3:22:
         86:40:b8:fc:1f:cb:7b:35:3f:56:11:e7:7d:91:01:9a:13:89:
         bc:3a:2e:b9
-----BEGIN CERTIFICATE-----
MIICpTCCAY2gAwIBAgIBAjANBgkqhkiG9w0BAQsFADAPMQ0wCwYDVQQDDARSb290
MB4XDTE1MDEwMTEyMDAwMFoXDTE2MDEwMTEyMDAwMFowFzEVMBMGA1UEAwwMSW50
ZXJtZWRpYXRlMFwwDQYJKoZIhvcNAQEBBQADSwAwSAJBAJ5XkShlLjoi37Zh38sJ
opJTO7x6IJlB1x792giYLd0SgjzFKVGV68tQwMpcdgbfsbZIvYfScW/uIXgNyk4r
9scCAwEAAaOByzCByDAdBgNVHQ4EFgQUdw2phOgqU7jJu9cP19CF6Jga42gwHwYD
VR0jBBgwFoAUaAFyfjW9gKCuWVzSHiFScgQxTOAwNwYIKwYBBQUHAQEEKzApMCcG
CCsGAQUFBzAChhtodHRwOi8vdXJsLWZvci1haWEvUm9vdC5jZXIwLAYDVR0fBCUw
IzAhoB+gHYYbaHR0cDovL3VybC1mb3ItY3JsL1Jvb3QuY3JsMA4GA1UdDwEB/wQE
AwIBBjAPBgNVHRMBAf8EBTADAQH/MA0GCSqGSIb3DQEBCwUAA4IBAQCt8jy3/lmm
CJVvojq4hAWyW5QawDaPwp4xkhYa3ugL2HdqXjmTkXcg4JN1vgll6gM8AvNfvhRA
yY/mF529vS2Rws3N8/4GoCHlGaOV1Xeht8MLyKG5Djx34PwcZt1ISf1BdLhV41EW
Ezt8xtdIZeodbF2oAvv53HSlee7gIIoUhNavGLVeMi33jekXPFCvzxw+DLFx1Exn
/rl1imVylQo2BhlGFTyQoI6Msc0lnQYEmIrG8zhe+axF7sobhMVZn1VYegHDnsoz
aP28o5RGhdlaa2DZ18tHyWF/3ZcRdVW5cjphPdxS+ykE8yKGQLj8H8t7NT9WEed9
kQGaE4m8Oi65
-----END CERTIFICATE-----

Certificate:
    Data:
        Version: 3 (0x2)
        Serial Number: 1 (0x1)
    Signature Algorithm: sha256WithRSAEncryption
        Issuer: CN=Root
        Validity
            Not Before: Jan  1 12:00:00 2015 GMT
            Not After : Jan  1 12:00:00 2016 GMT
        Subject: CN=Root
        Subject Public Key Info:
            Public Key Algorithm: rsaEncryption
                Public-Key: (2048 bit)
                Modulus:
                    00:c4:1c:75:6c:84:a2:59:08:8c:30:5b:1f:63:1a:
                    b7:80:76:db:e1:82:28:60:f8:b5:dc:6b:b0:92:43:
                    d4:c9:3c:ee:8d:0c:e1:04:14:9e:2a:03:24:02:fb:
                    3c:7a:cb:d2:42:4a:9f:36:5c:a7:7e:e4:c8:3d:2c:
                    34:0a:9e:0b:43:07:87:69:0a:9d:dc:40:39:66:31:
                    71:f0:51:b8:d2:24:2e:ad:8d:3d:f6:72:40:ba:a3:
                    d8:12:fd:f6:2d:ab:23:41:3d:32:76:1d:e2:77:e2:
                    2e:0b:5d:f8:05:12:d9:08:aa:49:18:52:41:01:43:
                    f4:da:b1:a5:c9:06:2f:d7:52:b3:1b:dd:ee:16:46:
                    8b:e4:ef:f8:12:52:7d:05:29:cf:a2:b2:4b:33:66:
                    18:27:18:3a:ba:16:0f:62:7b:c2:d3:d5:19:62:1d:
                    da:6a:84:a0:2e:e3:d1:71:91:3c:91:68:c0:40:22:
                    4b:fb:0d:b6:68:80:d8:b8:f8:a0:11:f4:d9:6f:f9:
                    50:cc:76:ff:af:1c:bf:4e:12:76:d1:ea:3c:96:85:
                    76:c2:30:07:03:92:53:35:fd:26:66:7c:ea:48:ad:
                    97:e7:25:16:83:6d:84:01:cf:9f:06:0b:d7:37:79:
                    8e:68:25:44:88:72:a7:9d:2b:7c:57:24:6b:72:15:
                    a5:ed
                Exponent: 65537 (0x10001)
        X509v3 extensions:
            X509v3 Subject Key Identifier: 
                68:01:72:7E:35:BD:80:A0:AE:59:5C:D2:1E:21:52:72:04:31:4C:E0
            X509v3 Authority Key Identifier: 
                keyid:68:01:72:7E:35:BD:80:A0:AE:59:5C:D2:1E:21:52:72:04:31:4C:E0

            Authority Information Access: 
                CA Issuers - URI:http://url-for-aia/Root.cer

            X509v3 CRL Distribution Points: 

                Full Name:
                  URI:http://url-for-crl/Root.crl

            X509v3 Key Usage: critical
                Certificate Sign, CRL Sign
            X509v3 Basic Constraints: critical
                CA:TRUE
    Signature Algorithm: sha256WithRSAEncryption
         3b:71:85:c5:bf:83:55:c7:84:5e:51:cc:4b:00:35:82:f5:90:
         c0:7b:95:f5:c4:f0:ff:5b:8a:ba:83:8a:42:3a:bb:0b:5d:e6:
         0a:3a:91:2c:99:28:40:d3:49:6e:34:57:7b:de:1f:bd:d9:2c:
         b4:95:69:eb:e7:79:01:6c:ec:a9:e0:78:82:8e:68:33:56:a7:
         58:99:d4:4a:97:73:b1:bd:d7:ee:bd:07:18:a8:47:d3:28:5d:
         23:07:59:21:2a:b1:e0:3a:f0:21:24:1d:44:66:dd:29:ea:02:
         f8:17:7d:2b:b3:f8:15:3a:0d:60:42:d3:7d:f0:1d:59:30:99:
         ae:36:24:bc:c7:d1:97:4f:44:67:19:b9:ea:33:0d:e7:57:81:
         88:6e:35:3d:47:84:43:f7:f7:43:1a:dc:67:21:2e:a3:97:78:
         bc:06:46:69:04:20:8b:e8:94:4b:a8:82:c3:2a:a4:ac:59:60:
         4e:59:46:e4:7f:cc:59:21:b4:73:9e:29:51:a9:48:71:e6:f6:
         5e:ec:25:f0:8e:87:4c:b4:4d:62:12:14:65:49:a3:4c:fd:59:
         80:39:97:2a:57:f0:6f:9a:fa:cd:d0:a7:db:35:60:81:23:13:
         be:a4:29:00:bd:58:e8:e2:e1:90:24:fd:f7:4e:fe:4d:fb:c7:
         a9:2a:e8:24
-----BEGIN TRUST_ANCHOR_UNCONSTRAINED-----
MIIDZTCCAk2gAwIBAgIBATANBgkqhkiG9w0BAQsFADAPMQ0wCwYDVQQDDARSb290
MB4XDTE1MDEwMTEyMDAwMFoXDTE2MDEwMTEyMDAwMFowDzENMAsGA1UEAwwEUm9v
dDCCASIwDQYJKoZIhvcNAQEBBQADggEPADCCAQoCggEBAMQcdWyEolkIjDBbH2Ma
t4B22+GCKGD4tdxrsJJD1Mk87o0M4QQUnioDJAL7PHrL0kJKnzZcp37kyD0sNAqe
C0MHh2kKndxAOWYxcfBRuNIkLq2NPfZyQLqj2BL99i2rI0E9MnYd4nfiLgtd+AUS
2QiqSRhSQQFD9NqxpckGL9dSsxvd7hZGi+Tv+BJSfQUpz6KySzNmGCcYOroWD2J7
wtPVGWId2mqEoC7j0XGRPJFowEAiS/sNtmiA2Lj4oBH02W/5UMx2/68cv04SdtHq
PJaFdsIwBwOSUzX9JmZ86kitl+clFoNthAHPnwYL1zd5jmglRIhyp50rfFcka3IV
pe0CAwEAAaOByzCByDAdBgNVHQ4EFgQUaAFyfjW9gKCuWVzSHiFScgQxTOAwHwYD
VR0jBBgwFoAUaAFyfjW9gKCuWVzSHiFScgQxTOAwNwYIKwYBBQUHAQEEKzApMCcG
CCsGAQUFBzAChhtodHRwOi8vdXJsLWZvci1haWEvUm9vdC5jZXIwLAYDVR0fBCUw
IzAhoB+gHYYbaHR0cDovL3VybC1mb3ItY3JsL1Jvb3QuY3JsMA4GA1UdDwEB/wQE
AwIBBjAPBgNVHRMBAf8EBTADAQH/MA0GCSqGSIb3DQEBCwUAA4IBAQA7cYXFv4NV
x4ReUcxLADWC9ZDAe5X1xPD/W4q6g4pCOrsLXeYKOpEsmShA00luNFd73h+92Sy0
lWnr53kBbOyp4HiCjmgzVqdYmdRKl3OxvdfuvQcYqEfTKF0jB1khKrHgOvAhJB1E
Zt0p6gL4F30rs/gVOg1gQtN98B1ZMJmuNiS8x9GXT0RnGbnqMw3nV4GIbjU9R4RD
9/dDGtxnIS6jl3i8BkZpBCCL6JRLqILDKqSsWWBOWUbkf8xZIbRznilRqUhx5vZe
7CXwjodMtE1iEhRlSaNM/VmAOZcqV/BvmvrN0KfbNWCBIxO+pCkAvVjo4uGQJP33
Tv5N+8epKugk
-----END TRUST_ANCHOR_UNCONSTRAINED-----

150302120000Z
-----BEGIN TIME-----
MTUwMzAyMTIwMDAwWg==
-----END TIME-----

FAIL
-----BEGIN VERIFY_RESULT-----
RkFJTA==
-----END VERIFY_RESULT-----

serverAuth
-----BEGIN KEY_PURPOSE-----
c2VydmVyQXV0aA==
-----END KEY_PURPOSE-----

----- Certificate i=0 (CN=Target) -----
ERROR: RSA modulus too small
  actual: 512
  minimum: 1024
ERROR: Unacceptable modulus length for RSA key
ERROR: VerifySignedData failed


-----BEGIN ERRORS-----
LS0tLS0gQ2VydGlmaWNhdGUgaT0wIChDTj1UYXJnZXQpIC0tLS0tCkVSUk9SOiBSU0EgbW9kdWx1cyB0b28gc21hbGwKICBhY3R1YWw6IDUxMgogIG1pbmltdW06IDEwMjQKRVJST1I6IFVuYWNjZXB0YWJsZSBtb2R1bHVzIGxlbmd0aCBmb3IgUlNBIGtleQpFUlJPUjogVmVyaWZ5U2lnbmVkRGF0YSBmYWlsZWQKCg==
-----END ERRORS-----
