[Created by: generate-target-and-intermediate.py]

Certificate chain with 1 intermediate and a trusted root. Verification is
expected to succeed.

Certificate:
    Data:
        Version: 3 (0x2)
        Serial Number: 1 (0x1)
    Signature Algorithm: sha256WithRSAEncryption
        Issuer: CN=Intermediate
        Validity
            Not Before: Jan  1 12:00:00 2015 GMT
            Not After : Jan  1 12:00:00 2016 GMT
        Subject: CN=Target
        Subject Public Key Info:
            Public Key Algorithm: rsaEncryption
                Public-Key: (2048 bit)
                Modulus:
                    00:ab:d6:f2:11:cf:09:be:ed:79:b0:d0:72:db:88:
                    4e:d1:b4:17:e0:3a:01:ea:42:9f:a8:53:87:96:30:
                    df:64:be:82:ef:ec:06:45:d9:e0:9d:9f:56:3d:b9:
                    a2:bd:48:5e:c2:85:0b:41:2c:6c:8c:c2:f6:16:b0:
                    0a:ff:f8:89:8f:75:72:90:90:c2:59:58:ea:c7:89:
                    64:2d:0a:bc:24:8b:2e:de:0e:63:53:6a:fb:90:09:
                    fc:a6:59:0f:48:39:52:21:98:70:da:20:f8:81:f0:
                    c0:13:f2:b0:0a:40:be:6c:ec:ec:8a:d6:e5:5c:ce:
                    b2:f9:bf:02:7e:be:07:ff:b4:da:ef:24:af:a0:1d:
                    e4:bb:5f:cc:2f:e5:81:d0:63:e5:2f:2a:c3:a2:fb:
                    86:a6:4b:e9:86:8b:5a:37:7c:a8:ba:7a:cd:13:dd:
                    db:fb:e9:e4:fa:64:38:4f:a7:65:85:21:b8:dc:6c:
                    f3:d2:43:bf:0f:fd:46:87:e4:7d:34:99:ec:ce:86:
                    7a:49:f3:6b:c9:ba:ed:02:86:ff:b0:15:1e:d3:b2:
                    d0:7b:b0:0c:b9:88:ba:24:c2:bd:21:bb:ce:43:7b:
                    1b:b2:df:a1:72:6b:d5:62:bf:79:89:21:c1:65:1d:
                    6c:6b:a2:43:21:08:67:2f:ca:96:96:02:b0:66:77:
                    f3:23
                Exponent: 65537 (0x10001)
        X509v3 extensions:
            X509v3 Subject Key Identifier: 
                16:59:9F:7A:88:28:97:0E:C5:B2:2C:7F:4C:A2:FC:23:C4:3F:AD:47
            X509v3 Authority Key Identifier: 
                keyid:FD:99:CF:DC:B9:A6:39:F7:33:FC:A3:D6:1F:F5:5B:4E:6A:69:62:E7

            Authority Information Access: 
                CA Issuers - URI:http://url-for-aia/Intermediate.cer

            X509v3 CRL Distribution Points: 

                Full Name:
                  URI:http://url-for-crl/Intermediate.crl

            X509v3 Key Usage: critical
                Digital Signature, Key Encipherment
            X509v3 Extended Key Usage: 
                TLS Web Server Authentication, TLS Web Client Authentication
    Signature Algorithm: sha256WithRSAEncryption
         61:b6:09:72:f2:1a:e9:29:93:bd:df:88:02:a5:5f:f5:63:43:
         7e:17:da:da:eb:55:f5:b8:9f:03:d8:37:18:9f:98:1f:a7:26:
         92:cf:f5:39:6b:b6:b2:ce:ba:4f:67:a1:5e:02:07:0b:8b:95:
         59:49:63:a1:7e:ff:c5:e2:83:5d:e5:c0:a9:e6:1e:7e:09:ce:
         8d:2d:00:82:58:d6:2e:31:5c:7f:29:b3:a4:5e:d9:e9:a2:a6:
         2b:df:5a:a3:b5:38:cb:42:d9:ca:24:f3:0e:17:85:62:88:53:
         c0:d1:82:f1:e0:7b:78:29:93:d7:3a:3a:56:b4:91:98:4b:8f:
         7f:33:08:65:e5:2e:8e:52:a2:ab:8f:3a:ff:59:0e:47:cb:e1:
         27:b4:c8:74:c9:69:ab:9a:f5:8a:b0:a4:7d:cd:79:51:83:fb:
         2b:fa:1f:a1:e6:a3:f2:13:90:11:5a:25:5b:6e:30:9f:a2:94:
         60:7e:df:55:0a:42:20:84:fa:ba:ae:5b:1c:74:42:47:8e:f1:
         c8:bf:2c:07:58:b8:92:50:fd:74:3f:5e:19:ce:b3:9f:3f:dd:
         75:c3:f3:d6:f0:4b:60:e2:7c:d4:c7:70:14:4c:fd:6a:02:c8:
         f5:45:f7:d3:c2:c9:d8:be:e7:e7:1b:92:fd:cc:5a:b0:1b:2a:
         f8:a7:e3:41
-----BEGIN CERTIFICATE-----
MIIDjTCCAnWgAwIBAgIBATANBgkqhkiG9w0BAQsFADAXMRUwEwYDVQQDDAxJbnRl
cm1lZGlhdGUwHhcNMTUwMTAxMTIwMDAwWhcNMTYwMTAxMTIwMDAwWjARMQ8wDQYD
VQQDDAZUYXJnZXQwggEiMA0GCSqGSIb3DQEBAQUAA4IBDwAwggEKAoIBAQCr1vIR
zwm+7Xmw0HLbiE7RtBfgOgHqQp+oU4eWMN9kvoLv7AZF2eCdn1Y9uaK9SF7ChQtB
LGyMwvYWsAr/+ImPdXKQkMJZWOrHiWQtCrwkiy7eDmNTavuQCfymWQ9IOVIhmHDa
IPiB8MAT8rAKQL5s7OyK1uVczrL5vwJ+vgf/tNrvJK+gHeS7X8wv5YHQY+UvKsOi
+4amS+mGi1o3fKi6es0T3dv76eT6ZDhPp2WFIbjcbPPSQ78P/UaH5H00mezOhnpJ
82vJuu0Chv+wFR7TstB7sAy5iLokwr0hu85Dexuy36Fya9Viv3mJIcFlHWxrokMh
CGcvypaWArBmd/MjAgMBAAGjgekwgeYwHQYDVR0OBBYEFBZZn3qIKJcOxbIsf0yi
/CPEP61HMB8GA1UdIwQYMBaAFP2Zz9y5pjn3M/yj1h/1W05qaWLnMD8GCCsGAQUF
BwEBBDMwMTAvBggrBgEFBQcwAoYjaHR0cDovL3VybC1mb3ItYWlhL0ludGVybWVk
aWF0ZS5jZXIwNAYDVR0fBC0wKzApoCegJYYjaHR0cDovL3VybC1mb3ItY3JsL0lu
dGVybWVkaWF0ZS5jcmwwDgYDVR0PAQH/BAQDAgWgMB0GA1UdJQQWMBQGCCsGAQUF
BwMBBggrBgEFBQcDAjANBgkqhkiG9w0BAQsFAAOCAQEAYbYJcvIa6SmTvd+IAqVf
9WNDfhfa2utV9bifA9g3GJ+YH6cmks/1OWu2ss66T2ehXgIHC4uVWUljoX7/xeKD
XeXAqeYefgnOjS0AgljWLjFcfymzpF7Z6aKmK99ao7U4y0LZyiTzDheFYohTwNGC
8eB7eCmT1zo6VrSRmEuPfzMIZeUujlKiq486/1kOR8vhJ7TIdMlpq5r1irCkfc15
UYP7K/ofoeaj8hOQEVolW24wn6KUYH7fVQpCIIT6uq5bHHRCR47xyL8sB1i4klD9
dD9eGc6znz/ddcPz1vBLYOJ81MdwFEz9agLI9UX308LJ2L7n5xuS/cxasBsq+Kfj
QQ==
-----END CERTIFICATE-----

Certificate:
    Data:
        Version: 3 (0x2)
        Serial Number: 2 (0x2)
    Signature Algorithm: sha256WithRSAEncryption
        Issuer: CN=Root
        Validity
            Not Before: Jan  1 12:00:00 2015 GMT
            Not After : Jan  1 12:00:00 2016 GMT
        Subject: CN=Intermediate
        Subject Public Key Info:
            Public Key Algorithm: rsaEncryption
                Public-Key: (2048 bit)
                Modulus:
                    00:c2:39:8e:c5:e5:05:17:ac:b8:b7:d1:f5:91:ec:
                    59:62:15:67:d4:d2:4c:e8:32:9b:99:b0:28:11:44:
                    68:ef:35:96:63:9c:f7:f8:f2:7f:0e:15:a9:d3:bf:
                    34:9f:37:95:b8:59:90:53:0b:62:36:11:ac:08:cd:
                    0f:67:1f:62:91:c2:9b:5c:7e:3e:eb:83:e3:5d:27:
                    ed:11:f2:92:0b:4a:1d:96:4c:12:7c:8c:c0:b2:ed:
                    6e:46:b2:e8:c2:0d:a6:33:b2:7f:46:9c:fc:e7:b0:
                    34:80:45:c5:0d:f0:88:82:af:7f:3b:a1:e7:f7:98:
                    3b:f6:69:d3:b7:47:8b:99:bb:21:ab:d4:1c:37:62:
                    35:06:5f:dc:58:5d:f0:f3:01:b1:e9:e1:75:f1:3f:
                    5c:6a:d3:b1:16:f2:d0:5d:25:10:fc:89:48:a8:a1:
                    ce:ce:3a:97:28:0b:76:e6:8d:84:8b:0c:13:44:27:
                    61:05:c3:35:ec:06:1e:7e:2e:e0:e8:17:4b:2d:02:
                    2e:2d:45:ce:ff:8c:c0:6e:8e:7e:ef:d6:7a:e0:9c:
                    8e:54:99:15:65:af:fa:a9:ce:e8:1c:ef:59:78:eb:
                    9f:a4:c4:cb:5c:5d:31:0e:79:8f:ee:df:bf:20:9c:
                    f3:6d:1a:8f:2b:70:ed:64:03:c8:6a:17:74:44:98:
                    6b:8d
                Exponent: 65537 (0x10001)
        X509v3 extensions:
            X509v3 Subject Key Identifier: 
                FD:99:CF:DC:B9:A6:39:F7:33:FC:A3:D6:1F:F5:5B:4E:6A:69:62:E7
            X509v3 Authority Key Identifier: 
                keyid:36:71:80:E6:BA:70:6D:BD:44:11:75:BE:9D:91:C8:E5:6A:86:DB:F5

            Authority Information Access: 
                CA Issuers - URI:http://url-for-aia/Root.cer

            X509v3 CRL Distribution Points: 

                Full Name:
                  URI:http://url-for-crl/Root.crl

            X509v3 Key Usage: critical
                Certificate Sign, CRL Sign
            X509v3 Basic Constraints: critical
                CA:TRUE
    Signature Algorithm: sha256WithRSAEncryption
         28:62:d2:74:c7:a9:05:0d:f3:89:d9:43:7b:f4:85:32:19:73:
         47:df:c6:d5:6f:44:e6:9e:0c:b3:c2:5b:90:68:48:7e:d2:30:
         2e:53:23:5f:e4:cc:4c:92:5e:b0:51:95:47:69:0f:41:c7:21:
         f3:8c:96:2b:1b:ab:1f:04:f8:d1:5c:65:5f:e2:d5:31:2a:ff:
         74:82:c3:f5:59:04:e7:76:65:dc:df:e5:77:98:5e:cc:81:65:
         ac:21:aa:2b:c7:95:2c:1e:bf:aa:17:92:2a:38:a5:d5:b3:8b:
         41:60:78:1b:cf:a3:43:22:e6:3e:15:47:04:d3:1a:0b:26:b4:
         78:15:5f:df:ec:62:ac:24:4f:3d:3f:a7:59:a5:46:82:2d:30:
         91:23:23:47:fd:ba:6e:de:b8:0c:f0:34:d8:34:63:8a:a4:0c:
         c9:fa:3a:bc:38:99:cf:ad:ed:17:87:b1:b4:fa:c8:ed:55:cb:
         f4:46:35:4a:62:d1:32:bc:c3:3b:4d:53:29:2e:88:48:ec:59:
         46:c4:d3:4f:0f:11:13:ba:ee:c9:89:78:95:70:18:8c:30:6f:
         f4:03:dc:00:a7:79:0e:6e:a4:a1:99:fa:73:fb:90:5f:bd:1c:
         b8:9d:25:36:02:82:03:b9:ca:90:6e:9d:ce:0f:6e:00:3f:c0:
         32:3d:50:f4
-----BEGIN CERTIFICATE-----
MIIDbTCCAlWgAwIBAgIBAjANBgkqhkiG9w0BAQsFADAPMQ0wCwYDVQQDDARSb290
MB4XDTE1MDEwMTEyMDAwMFoXDTE2MDEwMTEyMDAwMFowFzEVMBMGA1UEAwwMSW50
ZXJtZWRpYXRlMIIBIjANBgkqhkiG9w0BAQEFAAOCAQ8AMIIBCgKCAQEAwjmOxeUF
F6y4t9H1kexZYhVn1NJM6DKbmbAoEURo7zWWY5z3+PJ/DhWp0780nzeVuFmQUwti
NhGsCM0PZx9ikcKbXH4+64PjXSftEfKSC0odlkwSfIzAsu1uRrLowg2mM7J/Rpz8
57A0gEXFDfCIgq9/O6Hn95g79mnTt0eLmbshq9QcN2I1Bl/cWF3w8wGx6eF18T9c
atOxFvLQXSUQ/IlIqKHOzjqXKAt25o2EiwwTRCdhBcM17AYefi7g6BdLLQIuLUXO
/4zAbo5+79Z64JyOVJkVZa/6qc7oHO9ZeOufpMTLXF0xDnmP7t+/IJzzbRqPK3Dt
ZAPIahd0RJhrjQIDAQABo4HLMIHIMB0GA1UdDgQWBBT9mc/cuaY59zP8o9Yf9VtO
amli5zAfBgNVHSMEGDAWgBQ2cYDmunBtvUQRdb6dkcjlaobb9TA3BggrBgEFBQcB
AQQrMCkwJwYIKwYBBQUHMAKGG2h0dHA6Ly91cmwtZm9yLWFpYS9Sb290LmNlcjAs
BgNVHR8EJTAjMCGgH6AdhhtodHRwOi8vdXJsLWZvci1jcmwvUm9vdC5jcmwwDgYD
VR0PAQH/BAQDAgEGMA8GA1UdEwEB/wQFMAMBAf8wDQYJKoZIhvcNAQELBQADggEB
AChi0nTHqQUN84nZQ3v0hTIZc0ffxtVvROaeDLPCW5BoSH7SMC5TI1/kzEySXrBR
lUdpD0HHIfOMlisbqx8E+NFcZV/i1TEq/3SCw/VZBOd2Zdzf5XeYXsyBZawhqivH
lSwev6oXkio4pdWzi0FgeBvPo0Mi5j4VRwTTGgsmtHgVX9/sYqwkTz0/p1mlRoIt
MJEjI0f9um7euAzwNNg0Y4qkDMn6Orw4mc+t7ReHsbT6yO1Vy/RGNUpi0TK8wztN
UykuiEjsWUbE008PERO67smJeJVwGIwwb/QD3ACneQ5upKGZ+nP7kF+9HLidJTYC
ggO5ypBunc4PbgA/wDI9UPQ=
-----END CERTIFICATE-----

Certificate:
    Data:
        Version: 3 (0x2)
        Serial Number: 1 (0x1)
    Signature Algorithm: sha256WithRSAEncryption
        Issuer: CN=Root
        Validity
            Not Before: Jan  1 12:00:00 2015 GMT
            Not After : Jan  1 12:00:00 2016 GMT
        Subject: CN=Root
        Subject Public Key Info:
            Public Key Algorithm: rsaEncryption
                Public-Key: (2048 bit)
                Modulus:
                    00:c0:d2:20:95:59:77:a4:3d:24:64:e8:47:fb:b2:
                    4a:c5:da:b8:22:bd:0e:d2:21:41:09:43:e9:85:da:
                    07:04:11:c4:7c:7a:27:45:14:21:a2:69:44:10:76:
                    fc:95:d0:03:57:f4:a7:39:8c:ea:06:ae:1d:fd:c0:
                    71:6f:49:94:1b:5d:58:de:a7:11:6d:f9:d1:9e:88:
                    f9:93:ad:93:28:6c:4b:15:62:f0:cf:ff:de:a5:84:
                    d2:9a:f4:27:76:e6:fa:68:a7:29:c8:11:40:31:5a:
                    2f:42:f1:65:ca:a9:18:e4:e2:8b:f4:5f:6f:63:81:
                    46:14:24:81:c6:5e:98:f2:01:93:8b:c5:f9:12:c5:
                    56:45:b9:85:3b:4d:cf:7b:b0:3f:77:e1:2d:d1:4f:
                    7a:0b:64:a8:66:bb:a2:89:3f:fc:2f:35:82:64:c7:
                    1e:97:01:cc:bf:8f:26:dc:6a:7d:d9:b2:e6:63:b7:
                    d3:49:86:2e:11:08:86:ae:56:e4:79:ec:91:5f:95:
                    26:d8:57:74:7e:be:be:95:f8:4d:34:31:23:91:76:
                    b2:2d:77:64:a6:73:d4:33:0b:23:9b:65:89:4e:af:
                    15:37:3a:10:a8:ff:f5:9c:4c:26:a7:37:a5:6a:ec:
                    56:cd:de:3a:ce:c8:6b:d6:2e:09:bd:5f:83:bd:87:
                    22:df
                Exponent: 65537 (0x10001)
        X509v3 extensions:
            X509v3 Subject Key Identifier: 
                36:71:80:E6:BA:70:6D:BD:44:11:75:BE:9D:91:C8:E5:6A:86:DB:F5
            X509v3 Authority Key Identifier: 
                keyid:36:71:80:E6:BA:70:6D:BD:44:11:75:BE:9D:91:C8:E5:6A:86:DB:F5

            Authority Information Access: 
                CA Issuers - URI:http://url-for-aia/Root.cer

            X509v3 CRL Distribution Points: 

                Full Name:
                  URI:http://url-for-crl/Root.crl

            X509v3 Key Usage: critical
                Certificate Sign, CRL Sign
            X509v3 Basic Constraints: critical
                CA:TRUE
    Signature Algorithm: sha256WithRSAEncryption
         31:81:95:51:bc:3e:b5:15:21:85:3c:07:d0:95:b1:86:87:e2:
         70:f1:01:c5:22:2d:7e:16:73:89:db:56:fd:1a:42:f6:5e:ad:
         fd:1e:ad:8b:01:ae:d9:15:9f:80:c3:d8:62:4a:f9:0d:65:bf:
         05:00:8a:5c:61:1a:62:8c:a0:f6:9c:72:e1:e6:e9:56:6b:68:
         1c:74:8c:2d:2e:8f:4f:46:65:15:4c:2e:2b:e4:a0:92:da:27:
         84:f8:89:54:70:fc:95:ba:52:1d:6b:08:14:55:6b:76:c9:05:
         59:3e:c4:54:b7:76:79:34:f7:e8:af:01:79:08:96:9f:ec:7e:
         0a:39:42:b9:e2:90:1f:3b:4c:00:f1:8f:a2:04:68:a3:75:c1:
         96:9c:9b:6c:68:5b:35:95:d8:d8:a1:dd:dd:96:9b:05:88:ba:
         31:ac:f6:5b:f0:8f:7f:70:40:8a:1c:68:0e:a5:a6:e6:67:cd:
         5c:91:2b:e7:c4:5a:f7:f7:f0:20:df:bd:12:92:ae:8b:d3:5f:
         31:1a:44:44:3f:29:15:39:c0:fd:4e:31:ec:0a:cb:78:a0:02:
         1b:66:ef:20:d7:ab:cd:19:89:3f:86:24:24:f5:ed:14:5f:40:
         d4:96:d6:51:38:78:52:6c:42:00:a1:1a:22:7b:25:0d:43:77:
         0b:1b:d2:76
-----BEGIN TRUST_ANCHOR_UNCONSTRAINED-----
MIIDZTCCAk2gAwIBAgIBATANBgkqhkiG9w0BAQsFADAPMQ0wCwYDVQQDDARSb290
MB4XDTE1MDEwMTEyMDAwMFoXDTE2MDEwMTEyMDAwMFowDzENMAsGA1UEAwwEUm9v
dDCCASIwDQYJKoZIhvcNAQEBBQADggEPADCCAQoCggEBAMDSIJVZd6Q9JGToR/uy
SsXauCK9DtIhQQlD6YXaBwQRxHx6J0UUIaJpRBB2/JXQA1f0pzmM6gauHf3AcW9J
lBtdWN6nEW350Z6I+ZOtkyhsSxVi8M//3qWE0pr0J3bm+minKcgRQDFaL0LxZcqp
GOTii/Rfb2OBRhQkgcZemPIBk4vF+RLFVkW5hTtNz3uwP3fhLdFPegtkqGa7ook/
/C81gmTHHpcBzL+PJtxqfdmy5mO300mGLhEIhq5W5HnskV+VJthXdH6+vpX4TTQx
I5F2si13ZKZz1DMLI5tliU6vFTc6EKj/9ZxMJqc3pWrsVs3eOs7Ia9YuCb1fg72H
It8CAwEAAaOByzCByDAdBgNVHQ4EFgQUNnGA5rpwbb1EEXW+nZHI5WqG2/UwHwYD
VR0jBBgwFoAUNnGA5rpwbb1EEXW+nZHI5WqG2/UwNwYIKwYBBQUHAQEEKzApMCcG
CCsGAQUFBzAChhtodHRwOi8vdXJsLWZvci1haWEvUm9vdC5jZXIwLAYDVR0fBCUw
IzAhoB+gHYYbaHR0cDovL3VybC1mb3ItY3JsL1Jvb3QuY3JsMA4GA1UdDwEB/wQE
AwIBBjAPBgNVHRMBAf8EBTADAQH/MA0GCSqGSIb3DQEBCwUAA4IBAQAxgZVRvD61
FSGFPAfQlbGGh+Jw8QHFIi1+FnOJ21b9GkL2Xq39Hq2LAa7ZFZ+Aw9hiSvkNZb8F
AIpcYRpijKD2nHLh5ulWa2gcdIwtLo9PRmUVTC4r5KCS2ieE+IlUcPyVulIdawgU
VWt2yQVZPsRUt3Z5NPforwF5CJaf7H4KOUK54pAfO0wA8Y+iBGijdcGWnJtsaFs1
ldjYod3dlpsFiLoxrPZb8I9/cECKHGgOpabmZ81ckSvnxFr39/Ag370Skq6L018x
GkREPykVOcD9TjHsCst4oAIbZu8g16vNGYk/hiQk9e0UX0DUltZROHhSbEIAoRoi
eyUNQ3cLG9J2
-----END TRUST_ANCHOR_UNCONSTRAINED-----

150302120000Z
-----BEGIN TIME-----
MTUwMzAyMTIwMDAwWg==
-----END TIME-----

SUCCESS
-----BEGIN VERIFY_RESULT-----
U1VDQ0VTUw==
-----END VERIFY_RESULT-----

serverAuth
-----BEGIN KEY_PURPOSE-----
c2VydmVyQXV0aA==
-----END KEY_PURPOSE-----
