[Created by: generate-target-signed-using-ecdsa.py]

Certificate chain with a trusted root using RSA, and intermediate using EC,
and a target certificate using RSA. Verification is expected to succeed.

Certificate:
    Data:
        Version: 3 (0x2)
        Serial Number: 1 (0x1)
    Signature Algorithm: ecdsa-with-SHA256
        Issuer: CN=Intermediate
        Validity
            Not Before: Jan  1 12:00:00 2015 GMT
            Not After : Jan  1 12:00:00 2016 GMT
        Subject: CN=Target
        Subject Public Key Info:
            Public Key Algorithm: rsaEncryption
                Public-Key: (2048 bit)
                Modulus:
                    00:c1:2c:42:ca:d9:bd:0d:55:79:40:9a:cf:f4:1b:
                    de:4e:e7:8b:77:40:55:83:bf:2c:27:72:58:db:62:
                    24:12:e2:e5:4e:36:09:95:e0:0d:5b:09:d9:f8:bf:
                    e5:f8:3a:d4:9a:c9:5a:ff:16:44:16:21:15:bc:cf:
                    f6:99:ad:5c:bf:74:9a:02:3e:91:99:28:2b:76:eb:
                    fe:14:8c:24:a2:f9:41:b3:7a:86:b2:15:34:a4:fc:
                    93:49:42:b6:ee:20:70:61:f8:8e:ae:8b:55:aa:4f:
                    3f:ec:1e:63:45:24:c4:01:c1:68:c2:cf:a7:c5:29:
                    58:a7:c2:cc:89:00:25:b0:1a:b1:a0:dd:52:e4:3c:
                    41:ff:2a:3b:97:07:63:70:13:01:3d:eb:1d:a1:12:
                    f2:27:0a:c0:47:8a:96:f4:c9:f0:2f:b1:2a:7a:fa:
                    57:f8:60:98:c5:b8:03:ce:36:fc:32:73:39:13:46:
                    5b:71:02:42:22:45:4c:11:1d:3d:e1:77:53:9c:8d:
                    0b:a0:bf:68:67:b4:b2:2b:6a:9a:1f:da:dd:dd:c2:
                    0d:0c:12:00:ff:d9:d2:36:77:52:72:32:30:ea:68:
                    bb:62:55:37:24:aa:13:92:a4:b5:8c:9d:71:19:6b:
                    4a:1a:38:b0:21:79:14:70:d3:e9:7e:92:91:fc:8a:
                    c7:35
                Exponent: 65537 (0x10001)
        X509v3 extensions:
            X509v3 Subject Key Identifier: 
                E2:9C:21:ED:AF:F9:55:73:3F:68:B8:CD:03:B2:45:FB:C8:4F:35:8C
            X509v3 Authority Key Identifier: 
                keyid:71:4E:D7:4E:A8:0A:43:13:41:FE:F4:50:09:92:D0:56:1D:44:8A:3F

            Authority Information Access: 
                CA Issuers - URI:http://url-for-aia/Intermediate.cer

            X509v3 CRL Distribution Points: 

                Full Name:
                  URI:http://url-for-crl/Intermediate.crl

            X509v3 Key Usage: critical
                Digital Signature, Key Encipherment
            X509v3 Extended Key Usage: 
                TLS Web Server Authentication, TLS Web Client Authentication
    Signature Algorithm: ecdsa-with-SHA256
         30:65:02:30:16:0c:16:b2:2c:2e:68:f7:e6:c9:e6:fc:25:67:
         ab:1b:cd:65:0b:30:ca:d4:92:0b:0a:26:40:cd:7b:47:b5:37:
         8b:84:12:b2:51:53:3e:a9:b8:d0:fa:0b:e5:ec:54:2e:02:31:
         00:e5:d7:43:9b:58:f1:7e:90:79:de:63:49:7f:5b:fe:7a:34:
         2e:5a:d1:92:13:66:3a:e0:1c:ea:77:e1:98:1c:a9:38:d5:ce:
         98:7b:1f:5b:8a:d4:01:cb:35:7a:d5:74:8a
-----BEGIN CERTIFICATE-----
MIIC7DCCAnKgAwIBAgIBATAKBggqhkjOPQQDAjAXMRUwEwYDVQQDDAxJbnRlcm1l
ZGlhdGUwHhcNMTUwMTAxMTIwMDAwWhcNMTYwMTAxMTIwMDAwWjARMQ8wDQYDVQQD
DAZUYXJnZXQwggEiMA0GCSqGSIb3DQEBAQUAA4IBDwAwggEKAoIBAQDBLELK2b0N
VXlAms/0G95O54t3QFWDvywncljbYiQS4uVONgmV4A1bCdn4v+X4OtSayVr/FkQW
IRW8z/aZrVy/dJoCPpGZKCt26/4UjCSi+UGzeoayFTSk/JNJQrbuIHBh+I6ui1Wq
Tz/sHmNFJMQBwWjCz6fFKVinwsyJACWwGrGg3VLkPEH/KjuXB2NwEwE96x2hEvIn
CsBHipb0yfAvsSp6+lf4YJjFuAPONvwyczkTRltxAkIiRUwRHT3hd1OcjQugv2hn
tLIrapof2t3dwg0MEgD/2dI2d1JyMjDqaLtiVTckqhOSpLWMnXEZa0oaOLAheRRw
0+l+kpH8isc1AgMBAAGjgekwgeYwHQYDVR0OBBYEFOKcIe2v+VVzP2i4zQOyRfvI
TzWMMB8GA1UdIwQYMBaAFHFO106oCkMTQf70UAmS0FYdRIo/MD8GCCsGAQUFBwEB
BDMwMTAvBggrBgEFBQcwAoYjaHR0cDovL3VybC1mb3ItYWlhL0ludGVybWVkaWF0
ZS5jZXIwNAYDVR0fBC0wKzApoCegJYYjaHR0cDovL3VybC1mb3ItY3JsL0ludGVy
bWVkaWF0ZS5jcmwwDgYDVR0PAQH/BAQDAgWgMB0GA1UdJQQWMBQGCCsGAQUFBwMB
BggrBgEFBQcDAjAKBggqhkjOPQQDAgNoADBlAjAWDBayLC5o9+bJ5vwlZ6sbzWUL
MMrUkgsKJkDNe0e1N4uEErJRUz6puND6C+XsVC4CMQDl10ObWPF+kHneY0l/W/56
NC5a0ZITZjrgHOp34ZgcqTjVzph7H1uK1AHLNXrVdIo=
-----END CERTIFICATE-----

Certificate:
    Data:
        Version: 3 (0x2)
        Serial Number: 2 (0x2)
    Signature Algorithm: sha256WithRSAEncryption
        Issuer: CN=Root
        Validity
            Not Before: Jan  1 12:00:00 2015 GMT
            Not After : Jan  1 12:00:00 2016 GMT
        Subject: CN=Intermediate
        Subject Public Key Info:
            Public Key Algorithm: id-ecPublicKey
                Public-Key: (384 bit)
                pub: 
                    04:ff:41:5f:16:8c:e0:75:59:3b:4a:9c:84:3e:79:
                    93:48:a5:98:7e:93:58:58:d5:c9:ca:60:b8:6d:0c:
                    84:81:40:de:22:95:f1:6e:56:49:8f:02:45:ce:fe:
                    e8:71:71:02:25:a7:47:5f:63:0e:4a:46:4d:e0:b3:
                    73:9e:d8:91:2a:ad:51:47:80:b0:f5:4a:5e:0d:93:
                    a6:78:93:a7:f9:1d:ad:b6:23:78:2e:23:e0:62:f6:
                    77:f8:1c:db:31:82:c1
                ASN1 OID: secp384r1
        X509v3 extensions:
            X509v3 Subject Key Identifier: 
                71:4E:D7:4E:A8:0A:43:13:41:FE:F4:50:09:92:D0:56:1D:44:8A:3F
            X509v3 Authority Key Identifier: 
                keyid:39:BF:53:7E:B4:7B:97:5D:7A:E5:12:6D:FA:8B:79:C5:67:3E:1E:E4

            Authority Information Access: 
                CA Issuers - URI:http://url-for-aia/Root.cer

            X509v3 CRL Distribution Points: 

                Full Name:
                  URI:http://url-for-crl/Root.crl

            X509v3 Key Usage: critical
                Certificate Sign, CRL Sign
            X509v3 Basic Constraints: critical
                CA:TRUE
    Signature Algorithm: sha256WithRSAEncryption
         d2:53:ac:75:a8:06:52:55:48:4f:d0:a3:92:51:d4:23:06:f7:
         98:2b:b4:15:2e:65:26:44:c0:75:64:c5:df:73:cd:dc:a3:5a:
         7f:86:f6:e8:6b:bd:8f:3a:7e:20:6e:b9:df:4c:07:78:f5:1d:
         b4:4c:d0:8b:0b:71:ad:74:6d:f7:48:fb:a8:45:e6:2f:87:d8:
         89:e3:de:b4:15:fa:71:47:19:c6:88:a2:9c:66:cd:44:05:22:
         f8:d8:0b:1f:72:4d:ef:98:76:15:7d:41:20:53:2b:ef:e1:35:
         31:7c:b7:8e:70:c0:23:5a:ab:9a:58:5e:0b:02:d6:9c:7c:6e:
         d0:29:ad:19:95:e2:1f:e8:18:c7:c3:25:cf:21:30:52:28:32:
         fa:cf:07:4a:19:f2:39:bd:bb:05:96:4e:11:91:9f:b4:ae:5c:
         9e:bc:ac:f4:4a:b8:9a:73:40:4b:88:05:6d:3c:9e:c7:7d:0a:
         16:4f:d1:96:67:17:fa:e6:43:8c:0e:4c:26:2e:4c:51:8b:18:
         ee:8d:e4:69:09:ca:7f:ea:8d:33:38:fa:45:e5:d7:06:74:1d:
         bd:05:32:c7:1f:fd:84:9e:42:f7:7d:f2:24:ab:54:50:ba:69:
         3e:84:15:fe:f9:20:5a:77:8a:20:af:f3:97:35:1e:16:ee:92:
         ef:9d:c7:5d
-----BEGIN CERTIFICATE-----
MIICvzCCAaegAwIBAgIBAjANBgkqhkiG9w0BAQsFADAPMQ0wCwYDVQQDDARSb290
MB4XDTE1MDEwMTEyMDAwMFoXDTE2MDEwMTEyMDAwMFowFzEVMBMGA1UEAwwMSW50
ZXJtZWRpYXRlMHYwEAYHKoZIzj0CAQYFK4EEACIDYgAE/0FfFozgdVk7SpyEPnmT
SKWYfpNYWNXJymC4bQyEgUDeIpXxblZJjwJFzv7ocXECJadHX2MOSkZN4LNzntiR
Kq1RR4Cw9UpeDZOmeJOn+R2ttiN4LiPgYvZ3+BzbMYLBo4HLMIHIMB0GA1UdDgQW
BBRxTtdOqApDE0H+9FAJktBWHUSKPzAfBgNVHSMEGDAWgBQ5v1N+tHuXXXrlEm36
i3nFZz4e5DA3BggrBgEFBQcBAQQrMCkwJwYIKwYBBQUHMAKGG2h0dHA6Ly91cmwt
Zm9yLWFpYS9Sb290LmNlcjAsBgNVHR8EJTAjMCGgH6AdhhtodHRwOi8vdXJsLWZv
ci1jcmwvUm9vdC5jcmwwDgYDVR0PAQH/BAQDAgEGMA8GA1UdEwEB/wQFMAMBAf8w
DQYJKoZIhvcNAQELBQADggEBANJTrHWoBlJVSE/Qo5JR1CMG95grtBUuZSZEwHVk
xd9zzdyjWn+G9uhrvY86fiBuud9MB3j1HbRM0IsLca10bfdI+6hF5i+H2Inj3rQV
+nFHGcaIopxmzUQFIvjYCx9yTe+YdhV9QSBTK+/hNTF8t45wwCNaq5pYXgsC1px8
btAprRmV4h/oGMfDJc8hMFIoMvrPB0oZ8jm9uwWWThGRn7SuXJ68rPRKuJpzQEuI
BW08nsd9ChZP0ZZnF/rmQ4wOTCYuTFGLGO6N5GkJyn/qjTM4+kXl1wZ0Hb0FMscf
/YSeQvd98iSrVFC6aT6EFf75IFp3iiCv85c1Hhbuku+dx10=
-----END CERTIFICATE-----

Certificate:
    Data:
        Version: 3 (0x2)
        Serial Number: 1 (0x1)
    Signature Algorithm: sha256WithRSAEncryption
        Issuer: CN=Root
        Validity
            Not Before: Jan  1 12:00:00 2015 GMT
            Not After : Jan  1 12:00:00 2016 GMT
        Subject: CN=Root
        Subject Public Key Info:
            Public Key Algorithm: rsaEncryption
                Public-Key: (2048 bit)
                Modulus:
                    00:dd:a5:d8:2e:59:ed:a6:74:62:3b:71:d5:2f:0c:
                    b5:e6:a8:d6:d3:d2:f3:38:d5:6a:14:e4:ec:7e:d0:
                    46:81:35:0e:27:96:4e:25:0c:9f:81:85:18:03:d2:
                    22:1b:14:cc:54:4b:96:0e:35:0c:4c:0f:20:69:3d:
                    ff:48:26:b4:28:6c:6a:1f:95:87:df:09:9e:ab:60:
                    43:97:3c:3a:7b:4a:d3:c6:66:ba:1a:79:71:58:29:
                    cb:78:38:19:de:12:c6:09:fa:f9:fd:13:a0:e1:0e:
                    d5:e6:c2:36:d9:dc:c5:f4:ef:08:42:e8:bf:43:d1:
                    b5:8a:c9:81:b1:9c:16:8f:8d:b2:aa:9e:61:30:ed:
                    fc:12:f0:a6:f5:9e:6a:1e:6e:d7:7c:3f:ff:76:fa:
                    6f:53:8b:49:08:84:9a:69:37:bc:f5:ee:e7:ba:ee:
                    39:5b:31:28:05:5a:39:d3:75:5a:1a:b2:5a:ef:48:
                    d4:f5:5c:ab:99:b0:41:cd:50:cd:f4:36:c3:4d:e9:
                    42:2c:9d:2c:86:ea:a8:e4:d0:c9:1f:d0:c3:92:1b:
                    ef:c0:2c:a2:ed:2a:23:2f:ba:c0:27:a5:13:98:1d:
                    d3:ba:71:91:29:ae:2c:85:44:ff:bd:b5:c2:bc:e3:
                    fc:ff:c1:78:51:57:e9:5e:ee:1e:c2:29:d1:8c:91:
                    60:9d
                Exponent: 65537 (0x10001)
        X509v3 extensions:
            X509v3 Subject Key Identifier: 
                39:BF:53:7E:B4:7B:97:5D:7A:E5:12:6D:FA:8B:79:C5:67:3E:1E:E4
            X509v3 Authority Key Identifier: 
                keyid:39:BF:53:7E:B4:7B:97:5D:7A:E5:12:6D:FA:8B:79:C5:67:3E:1E:E4

            Authority Information Access: 
                CA Issuers - URI:http://url-for-aia/Root.cer

            X509v3 CRL Distribution Points: 

                Full Name:
                  URI:http://url-for-crl/Root.crl

            X509v3 Key Usage: critical
                Certificate Sign, CRL Sign
            X509v3 Basic Constraints: critical
                CA:TRUE
    Signature Algorithm: sha256WithRSAEncryption
         0d:d6:63:36:cb:eb:0f:98:6d:d8:0a:17:d2:6e:77:43:17:e8:
         e6:36:c6:2a:40:2c:1e:64:f3:84:13:31:b9:fd:b7:6f:1d:b0:
         d3:49:55:4b:76:ac:9d:6b:9c:3e:2b:fd:c6:d2:0c:df:9b:ef:
         4a:cf:2b:9c:61:5e:6b:2a:7d:b4:08:8e:a7:2a:aa:a9:a5:0d:
         8e:e1:0a:99:fc:f7:fa:f2:34:50:6a:aa:3b:30:ac:7c:93:b1:
         dc:56:9e:2c:98:12:05:26:51:ff:c5:bf:06:44:24:7e:98:21:
         aa:32:5e:f6:25:74:6d:31:f4:6b:f6:b0:70:30:87:04:b6:89:
         3d:a0:0f:cc:a6:d4:bd:93:df:98:bc:a9:92:ca:3f:ff:ef:29:
         4b:f1:3a:6a:c8:69:89:a6:93:01:54:49:af:20:4f:4d:4d:df:
         8a:4e:4a:ba:4b:a8:5e:85:46:96:a2:64:6f:78:f9:d7:6b:e5:
         db:fb:39:42:3a:18:c7:08:ce:93:41:e3:3c:78:01:64:36:8b:
         de:78:9e:13:42:52:72:13:f6:81:df:5e:7a:45:08:4f:0d:99:
         f8:af:1e:71:d6:55:85:3a:2c:79:17:e3:df:8e:46:8d:39:13:
         a4:c9:e7:3d:f2:9d:ef:e7:b9:12:6e:e3:76:3f:e7:c6:5c:fe:
         1e:af:1b:50
-----BEGIN TRUST_ANCHOR_UNCONSTRAINED-----
MIIDZTCCAk2gAwIBAgIBATANBgkqhkiG9w0BAQsFADAPMQ0wCwYDVQQDDARSb290
MB4XDTE1MDEwMTEyMDAwMFoXDTE2MDEwMTEyMDAwMFowDzENMAsGA1UEAwwEUm9v
dDCCASIwDQYJKoZIhvcNAQEBBQADggEPADCCAQoCggEBAN2l2C5Z7aZ0Yjtx1S8M
teao1tPS8zjVahTk7H7QRoE1DieWTiUMn4GFGAPSIhsUzFRLlg41DEwPIGk9/0gm
tChsah+Vh98JnqtgQ5c8OntK08Zmuhp5cVgpy3g4Gd4Sxgn6+f0ToOEO1ebCNtnc
xfTvCELov0PRtYrJgbGcFo+NsqqeYTDt/BLwpvWeah5u13w//3b6b1OLSQiEmmk3
vPXu57ruOVsxKAVaOdN1WhqyWu9I1PVcq5mwQc1QzfQ2w03pQiydLIbqqOTQyR/Q
w5Ib78Asou0qIy+6wCelE5gd07pxkSmuLIVE/721wrzj/P/BeFFX6V7uHsIp0YyR
YJ0CAwEAAaOByzCByDAdBgNVHQ4EFgQUOb9TfrR7l1165RJt+ot5xWc+HuQwHwYD
VR0jBBgwFoAUOb9TfrR7l1165RJt+ot5xWc+HuQwNwYIKwYBBQUHAQEEKzApMCcG
CCsGAQUFBzAChhtodHRwOi8vdXJsLWZvci1haWEvUm9vdC5jZXIwLAYDVR0fBCUw
IzAhoB+gHYYbaHR0cDovL3VybC1mb3ItY3JsL1Jvb3QuY3JsMA4GA1UdDwEB/wQE
AwIBBjAPBgNVHRMBAf8EBTADAQH/MA0GCSqGSIb3DQEBCwUAA4IBAQAN1mM2y+sP
mG3YChfSbndDF+jmNsYqQCweZPOEEzG5/bdvHbDTSVVLdqyda5w+K/3G0gzfm+9K
zyucYV5rKn20CI6nKqqppQ2O4QqZ/Pf68jRQaqo7MKx8k7HcVp4smBIFJlH/xb8G
RCR+mCGqMl72JXRtMfRr9rBwMIcEtok9oA/MptS9k9+YvKmSyj//7ylL8TpqyGmJ
ppMBVEmvIE9NTd+KTkq6S6hehUaWomRvePnXa+Xb+zlCOhjHCM6TQeM8eAFkNove
eJ4TQlJyE/aB3156RQhPDZn4rx5x1lWFOix5F+PfjkaNOROkyec98p3v57kSbuN2
P+fGXP4erxtQ
-----END TRUST_ANCHOR_UNCONSTRAINED-----

150302120000Z
-----BEGIN TIME-----
MTUwMzAyMTIwMDAwWg==
-----END TIME-----

SUCCESS
-----BEGIN VERIFY_RESULT-----
U1VDQ0VTUw==
-----END VERIFY_RESULT-----
