[Created by: generate-target-signed-with-md5.py]

Certificate chain with an intermediate that uses MD5 to sign the target
certificate. This is expected to fail because MD5 is too weak.

Certificate:
    Data:
        Version: 3 (0x2)
        Serial Number: 1 (0x1)
    Signature Algorithm: md5WithRSAEncryption
        Issuer: CN=Intermediate
        Validity
            Not Before: Jan  1 12:00:00 2015 GMT
            Not After : Jan  1 12:00:00 2016 GMT
        Subject: CN=Target
        Subject Public Key Info:
            Public Key Algorithm: rsaEncryption
                Public-Key: (2048 bit)
                Modulus:
                    00:cf:73:ae:ac:92:70:4c:27:dc:ab:a3:09:0d:3d:
                    8c:39:aa:5f:85:f5:1d:6d:9b:86:9f:8a:bb:a4:81:
                    d9:6b:9a:49:8e:28:b9:d2:c2:cb:7a:4b:c2:d6:11:
                    91:b3:d0:81:e2:aa:e0:9c:ae:65:c1:11:8b:ea:d2:
                    fc:9b:1b:98:80:b2:1e:71:65:94:5c:fa:44:de:e7:
                    ac:12:61:05:97:e4:3d:f3:d8:e9:dc:7a:f8:41:91:
                    47:57:1e:c7:c1:a4:59:68:a1:a2:d6:2e:b4:5d:6c:
                    64:34:f3:92:68:3c:3e:b5:ee:50:6e:f9:ef:39:98:
                    0c:6b:da:f8:a8:b0:6a:82:16:13:a3:06:8a:1e:3c:
                    d3:ba:73:f9:bd:83:55:3e:76:d0:87:3c:8e:79:b0:
                    b6:6b:f3:da:11:6d:0f:d0:1d:2f:0b:62:48:e6:e5:
                    33:90:1d:b0:33:ed:1e:89:34:d8:a7:45:8b:c9:e4:
                    1f:8d:33:9e:7b:cb:c8:09:1d:21:2d:a9:f4:b1:bf:
                    2b:40:e2:c1:61:8b:b5:fc:3a:38:59:2c:75:16:65:
                    d9:64:be:af:45:9b:22:77:b2:27:1c:fe:47:43:da:
                    50:e6:14:26:f1:1e:63:c9:7c:7c:a5:01:db:41:36:
                    fb:09:c3:a1:b8:3e:a5:fc:7a:37:57:7a:07:13:ae:
                    44:43
                Exponent: 65537 (0x10001)
        X509v3 extensions:
            X509v3 Subject Key Identifier: 
                06:54:FE:69:6A:11:82:52:60:8B:E6:B1:29:65:C1:1E:67:0E:B7:DB
            X509v3 Authority Key Identifier: 
                keyid:E4:28:CA:C3:E7:10:CE:D3:40:BC:EB:CE:2F:95:4A:39:B8:8F:2E:F5

            Authority Information Access: 
                CA Issuers - URI:http://url-for-aia/Intermediate.cer

            X509v3 CRL Distribution Points: 

                Full Name:
                  URI:http://url-for-crl/Intermediate.crl

            X509v3 Key Usage: critical
                Digital Signature, Key Encipherment
            X509v3 Extended Key Usage: 
                TLS Web Server Authentication, TLS Web Client Authentication
    Signature Algorithm: md5WithRSAEncryption
         92:96:10:89:32:53:f5:5c:99:56:a9:2d:f3:f6:c2:a4:29:a5:
         a1:ee:21:e8:c2:65:ed:4d:ac:6e:c0:b4:36:8e:87:9b:96:91:
         6f:7c:10:13:51:f4:1e:98:f1:9f:17:ce:e8:bd:e5:b0:c4:38:
         e3:40:b9:93:6d:1a:27:fe:ba:8f:44:0f:24:04:4b:36:a4:5c:
         30:40:bb:05:27:8f:76:9b:b8:1f:bd:4d:aa:19:ed:7c:81:0c:
         96:9b:28:c5:f4:82:ab:cd:a8:be:4c:34:fc:71:3f:af:4d:6f:
         55:48:ae:a9:76:fa:2e:2b:51:97:89:2f:44:b6:2b:b0:c8:bb:
         66:a6:ea:db:c2:36:81:07:5d:fb:dc:f3:58:66:77:bd:71:21:
         67:d6:af:da:e1:e1:c0:c5:cc:15:63:e3:06:e3:e1:a6:5d:ce:
         aa:07:7e:a5:ed:9c:75:d8:4e:99:b4:4c:e6:54:47:1e:db:60:
         e4:36:ab:51:31:11:a2:61:c9:e8:27:d4:9a:dd:72:6b:e7:a8:
         cc:9c:89:cb:7d:d3:01:38:8b:59:a3:54:59:e0:ab:fa:7d:5e:
         69:3d:1b:85:30:ee:6f:fc:a6:fe:e4:bd:ea:43:cc:a5:c0:d1:
         27:fb:e9:cd:17:1a:e2:5a:04:bc:d9:4c:ce:2f:a5:33:af:02:
         36:20:23:e5
-----BEGIN CERTIFICATE-----
MIIDjTCCAnWgAwIBAgIBATANBgkqhkiG9w0BAQQFADAXMRUwEwYDVQQDDAxJbnRl
cm1lZGlhdGUwHhcNMTUwMTAxMTIwMDAwWhcNMTYwMTAxMTIwMDAwWjARMQ8wDQYD
VQQDDAZUYXJnZXQwggEiMA0GCSqGSIb3DQEBAQUAA4IBDwAwggEKAoIBAQDPc66s
knBMJ9yrowkNPYw5ql+F9R1tm4afirukgdlrmkmOKLnSwst6S8LWEZGz0IHiquCc
rmXBEYvq0vybG5iAsh5xZZRc+kTe56wSYQWX5D3z2OncevhBkUdXHsfBpFlooaLW
LrRdbGQ085JoPD617lBu+e85mAxr2viosGqCFhOjBooePNO6c/m9g1U+dtCHPI55
sLZr89oRbQ/QHS8LYkjm5TOQHbAz7R6JNNinRYvJ5B+NM557y8gJHSEtqfSxvytA
4sFhi7X8OjhZLHUWZdlkvq9FmyJ3sicc/kdD2lDmFCbxHmPJfHylAdtBNvsJw6G4
PqX8ejdXegcTrkRDAgMBAAGjgekwgeYwHQYDVR0OBBYEFAZU/mlqEYJSYIvmsSll
wR5nDrfbMB8GA1UdIwQYMBaAFOQoysPnEM7TQLzrzi+VSjm4jy71MD8GCCsGAQUF
BwEBBDMwMTAvBggrBgEFBQcwAoYjaHR0cDovL3VybC1mb3ItYWlhL0ludGVybWVk
aWF0ZS5jZXIwNAYDVR0fBC0wKzApoCegJYYjaHR0cDovL3VybC1mb3ItY3JsL0lu
dGVybWVkaWF0ZS5jcmwwDgYDVR0PAQH/BAQDAgWgMB0GA1UdJQQWMBQGCCsGAQUF
BwMBBggrBgEFBQcDAjANBgkqhkiG9w0BAQQFAAOCAQEAkpYQiTJT9VyZVqkt8/bC
pCmloe4h6MJl7U2sbsC0No6Hm5aRb3wQE1H0HpjxnxfO6L3lsMQ440C5k20aJ/66
j0QPJARLNqRcMEC7BSePdpu4H71NqhntfIEMlpsoxfSCq82ovkw0/HE/r01vVUiu
qXb6LitRl4kvRLYrsMi7Zqbq28I2gQdd+9zzWGZ3vXEhZ9av2uHhwMXMFWPjBuPh
pl3Oqgd+pe2cddhOmbRM5lRHHttg5DarUTERomHJ6CfUmt1ya+eozJyJy33TATiL
WaNUWeCr+n1eaT0bhTDub/ym/uS96kPMpcDRJ/vpzRca4loEvNlMzi+lM68CNiAj
5Q==
-----END CERTIFICATE-----

Certificate:
    Data:
        Version: 3 (0x2)
        Serial Number: 2 (0x2)
    Signature Algorithm: sha256WithRSAEncryption
        Issuer: CN=Root
        Validity
            Not Before: Jan  1 12:00:00 2015 GMT
            Not After : Jan  1 12:00:00 2016 GMT
        Subject: CN=Intermediate
        Subject Public Key Info:
            Public Key Algorithm: rsaEncryption
                Public-Key: (2048 bit)
                Modulus:
                    00:cd:f5:47:0a:01:75:30:e1:50:a9:cb:dd:cc:5d:
                    b6:f5:d1:d9:cb:eb:d1:0a:51:01:38:0a:a3:22:ff:
                    e7:05:a9:ee:dc:0f:36:2c:81:ba:04:8a:b7:ce:6e:
                    1f:51:d8:d3:3e:65:fc:1d:d0:d6:02:d8:f0:56:0a:
                    3e:6e:9b:cb:55:59:6f:1e:2c:2f:ce:94:c9:d8:db:
                    e5:a9:08:d0:55:36:9e:da:68:e8:16:e2:c1:df:07:
                    c6:99:a1:e8:0c:19:69:2f:03:fe:13:af:eb:b9:7f:
                    16:87:4d:00:56:3a:e0:66:00:f2:50:45:a1:94:88:
                    60:a4:95:ae:33:fa:fb:52:a5:29:29:2d:74:55:71:
                    e3:08:11:dc:45:6b:84:e2:00:96:67:34:d9:bc:8d:
                    f9:7c:32:9b:95:07:41:76:bb:f2:ab:47:f7:c6:03:
                    bc:d1:eb:a7:47:53:dd:e6:2d:6f:84:df:86:9e:32:
                    79:02:0b:9c:3a:f7:9c:dd:20:35:fa:6a:0e:23:f9:
                    11:9a:2e:37:f9:0c:f1:d0:7e:ee:80:4c:4b:59:9a:
                    6d:ef:ab:3d:68:9f:0d:f1:25:74:ee:b1:cb:63:92:
                    25:83:3e:d3:e4:d7:5b:77:cd:fa:ed:3a:38:82:a3:
                    e9:66:2b:fe:4c:53:58:68:4b:b5:16:7c:e0:3d:36:
                    55:85
                Exponent: 65537 (0x10001)
        X509v3 extensions:
            X509v3 Subject Key Identifier: 
                E4:28:CA:C3:E7:10:CE:D3:40:BC:EB:CE:2F:95:4A:39:B8:8F:2E:F5
            X509v3 Authority Key Identifier: 
                keyid:1E:E0:25:E8:F4:DC:28:15:B1:5A:B6:34:96:12:E4:2F:B8:E8:7C:B1

            Authority Information Access: 
                CA Issuers - URI:http://url-for-aia/Root.cer

            X509v3 CRL Distribution Points: 

                Full Name:
                  URI:http://url-for-crl/Root.crl

            X509v3 Key Usage: critical
                Certificate Sign, CRL Sign
            X509v3 Basic Constraints: critical
                CA:TRUE
    Signature Algorithm: sha256WithRSAEncryption
         7b:07:07:55:e0:50:c4:5a:26:7a:8c:ae:8f:20:a1:94:9f:0c:
         d9:ca:0a:31:0d:fe:2e:6e:ad:72:1d:bd:e4:34:e9:71:bf:d4:
         83:b8:59:13:d4:03:ae:8e:50:83:26:7f:a4:b9:ee:0e:0d:81:
         22:9c:46:41:8f:51:6c:b6:e7:83:d5:66:0f:43:2a:b4:ed:27:
         f3:bc:d1:fa:87:48:86:9e:94:6d:89:8f:08:ed:38:b5:4f:4c:
         63:c1:82:d6:06:a7:40:7c:78:6c:bd:52:de:07:f1:56:c0:23:
         d1:cd:6d:d5:dd:5f:93:de:cf:68:28:f5:46:8d:34:72:03:a0:
         58:bf:7f:0e:95:f4:0d:02:ac:5e:76:e6:b3:2e:86:14:92:44:
         4b:94:bb:16:28:fb:2a:4b:eb:29:1e:62:fc:47:4d:61:11:a2:
         b1:84:aa:81:4a:29:b4:35:3e:08:22:80:37:d2:60:08:93:97:
         0c:5d:ac:24:0f:dc:60:df:84:0b:55:43:7e:fd:6f:5f:e1:dc:
         be:d4:a6:65:03:a9:72:15:18:05:3a:f3:ab:30:06:c2:53:ce:
         63:4f:fa:09:7b:e4:b8:e2:78:14:6e:1b:45:5e:ef:8d:40:c2:
         b0:6a:0d:35:8d:bf:31:6c:9c:8e:27:40:32:39:e8:d1:73:cc:
         e8:0f:99:90
-----BEGIN CERTIFICATE-----
MIIDbTCCAlWgAwIBAgIBAjANBgkqhkiG9w0BAQsFADAPMQ0wCwYDVQQDDARSb290
MB4XDTE1MDEwMTEyMDAwMFoXDTE2MDEwMTEyMDAwMFowFzEVMBMGA1UEAwwMSW50
ZXJtZWRpYXRlMIIBIjANBgkqhkiG9w0BAQEFAAOCAQ8AMIIBCgKCAQEAzfVHCgF1
MOFQqcvdzF229dHZy+vRClEBOAqjIv/nBanu3A82LIG6BIq3zm4fUdjTPmX8HdDW
AtjwVgo+bpvLVVlvHiwvzpTJ2NvlqQjQVTae2mjoFuLB3wfGmaHoDBlpLwP+E6/r
uX8Wh00AVjrgZgDyUEWhlIhgpJWuM/r7UqUpKS10VXHjCBHcRWuE4gCWZzTZvI35
fDKblQdBdrvyq0f3xgO80eunR1Pd5i1vhN+GnjJ5AgucOvec3SA1+moOI/kRmi43
+Qzx0H7ugExLWZpt76s9aJ8N8SV07rHLY5Ilgz7T5Ndbd8367To4gqPpZiv+TFNY
aEu1FnzgPTZVhQIDAQABo4HLMIHIMB0GA1UdDgQWBBTkKMrD5xDO00C8684vlUo5
uI8u9TAfBgNVHSMEGDAWgBQe4CXo9NwoFbFatjSWEuQvuOh8sTA3BggrBgEFBQcB
AQQrMCkwJwYIKwYBBQUHMAKGG2h0dHA6Ly91cmwtZm9yLWFpYS9Sb290LmNlcjAs
BgNVHR8EJTAjMCGgH6AdhhtodHRwOi8vdXJsLWZvci1jcmwvUm9vdC5jcmwwDgYD
VR0PAQH/BAQDAgEGMA8GA1UdEwEB/wQFMAMBAf8wDQYJKoZIhvcNAQELBQADggEB
AHsHB1XgUMRaJnqMro8goZSfDNnKCjEN/i5urXIdveQ06XG/1IO4WRPUA66OUIMm
f6S57g4NgSKcRkGPUWy254PVZg9DKrTtJ/O80fqHSIaelG2JjwjtOLVPTGPBgtYG
p0B8eGy9Ut4H8VbAI9HNbdXdX5Pez2go9UaNNHIDoFi/fw6V9A0CrF525rMuhhSS
REuUuxYo+ypL6ykeYvxHTWERorGEqoFKKbQ1PggigDfSYAiTlwxdrCQP3GDfhAtV
Q379b1/h3L7UpmUDqXIVGAU686swBsJTzmNP+gl75LjieBRuG0Ve741AwrBqDTWN
vzFsnI4nQDI56NFzzOgPmZA=
-----END CERTIFICATE-----

Certificate:
    Data:
        Version: 3 (0x2)
        Serial Number: 1 (0x1)
    Signature Algorithm: sha256WithRSAEncryption
        Issuer: CN=Root
        Validity
            Not Before: Jan  1 12:00:00 2015 GMT
            Not After : Jan  1 12:00:00 2016 GMT
        Subject: CN=Root
        Subject Public Key Info:
            Public Key Algorithm: rsaEncryption
                Public-Key: (2048 bit)
                Modulus:
                    00:aa:99:af:33:b7:92:98:e2:ad:0f:2b:70:46:83:
                    a0:ea:af:9a:9a:e1:ac:18:43:3a:12:7f:d8:2e:85:
                    3f:bc:84:77:3d:b3:60:00:fb:db:47:ec:79:b4:76:
                    cc:1c:5a:22:1e:2d:6c:19:d6:e1:ae:4d:2d:46:72:
                    42:18:fd:5e:05:36:45:34:1a:b1:63:7c:99:79:2f:
                    94:81:93:b8:cb:2b:dc:5b:ca:08:80:47:20:12:7b:
                    7e:d5:7e:3d:0b:84:28:4b:4c:7f:0d:4a:bc:59:bb:
                    5e:4e:6a:9d:20:0a:ec:22:66:a8:f4:05:4e:d5:eb:
                    68:6a:3a:98:00:9e:c8:52:eb:02:82:6f:42:c9:45:
                    8f:8b:06:73:45:4b:24:f4:c6:19:d6:20:78:4a:c2:
                    2d:ab:33:78:1e:cd:d6:6b:ed:59:72:96:da:1a:12:
                    23:7d:ec:31:25:45:1c:34:f5:cc:d5:20:1b:c3:26:
                    24:9f:1a:21:31:a1:ce:90:52:78:5d:9a:42:8c:d5:
                    96:20:d2:02:a3:21:12:88:3e:30:2e:c3:1f:24:8f:
                    26:7c:35:08:c4:71:81:bc:ca:2a:f8:1d:27:af:93:
                    38:ed:d7:ad:7d:f9:0e:dc:6f:65:ce:7d:36:09:8d:
                    c0:05:42:80:ee:18:74:f3:e1:89:0f:1a:b7:f0:0b:
                    7b:21
                Exponent: 65537 (0x10001)
        X509v3 extensions:
            X509v3 Subject Key Identifier: 
                1E:E0:25:E8:F4:DC:28:15:B1:5A:B6:34:96:12:E4:2F:B8:E8:7C:B1
            X509v3 Authority Key Identifier: 
                keyid:1E:E0:25:E8:F4:DC:28:15:B1:5A:B6:34:96:12:E4:2F:B8:E8:7C:B1

            Authority Information Access: 
                CA Issuers - URI:http://url-for-aia/Root.cer

            X509v3 CRL Distribution Points: 

                Full Name:
                  URI:http://url-for-crl/Root.crl

            X509v3 Key Usage: critical
                Certificate Sign, CRL Sign
            X509v3 Basic Constraints: critical
                CA:TRUE
    Signature Algorithm: sha256WithRSAEncryption
         2d:14:c9:b5:95:04:19:aa:75:5a:11:bd:f9:41:a0:44:e0:19:
         a8:1c:18:de:b7:a8:2f:1a:6f:82:cd:05:d4:f6:55:97:23:1a:
         22:55:a0:c2:02:94:5b:62:88:81:67:ff:7b:e2:fc:98:90:23:
         2b:79:3a:54:3a:da:94:b8:e9:e0:b6:cd:44:4d:a8:2d:6b:73:
         2c:a2:81:e8:93:9f:6b:f0:92:ba:3b:eb:61:c9:c2:04:19:f5:
         fd:86:11:30:e2:63:1f:3b:ee:10:bf:a5:ca:35:c5:10:81:05:
         2c:8a:3f:ea:65:a4:17:69:5f:7d:24:61:77:5d:eb:70:69:38:
         58:7e:29:61:54:ee:e1:78:9b:8e:2c:2d:f3:2f:da:db:c5:89:
         c5:a8:46:54:ee:b0:14:e5:04:49:d2:f9:96:71:98:f9:7b:c8:
         82:21:18:3d:1e:80:f1:20:39:b1:a8:04:24:e7:03:7f:aa:56:
         90:9d:3c:b7:f3:4b:bd:da:6d:8c:a9:d7:b0:06:d8:77:b3:91:
         f6:0e:85:08:51:f1:45:ff:6e:ba:04:72:35:3b:4f:fd:49:d8:
         0c:c9:45:1c:99:68:ec:ce:d3:88:17:75:e2:20:db:42:7f:65:
         94:40:66:c7:51:cb:19:dd:50:89:c5:41:8d:04:df:7e:2c:8d:
         61:26:33:45
-----BEGIN TRUST_ANCHOR_UNCONSTRAINED-----
MIIDZTCCAk2gAwIBAgIBATANBgkqhkiG9w0BAQsFADAPMQ0wCwYDVQQDDARSb290
MB4XDTE1MDEwMTEyMDAwMFoXDTE2MDEwMTEyMDAwMFowDzENMAsGA1UEAwwEUm9v
dDCCASIwDQYJKoZIhvcNAQEBBQADggEPADCCAQoCggEBAKqZrzO3kpjirQ8rcEaD
oOqvmprhrBhDOhJ/2C6FP7yEdz2zYAD720fsebR2zBxaIh4tbBnW4a5NLUZyQhj9
XgU2RTQasWN8mXkvlIGTuMsr3FvKCIBHIBJ7ftV+PQuEKEtMfw1KvFm7Xk5qnSAK
7CJmqPQFTtXraGo6mACeyFLrAoJvQslFj4sGc0VLJPTGGdYgeErCLaszeB7N1mvt
WXKW2hoSI33sMSVFHDT1zNUgG8MmJJ8aITGhzpBSeF2aQozVliDSAqMhEog+MC7D
HySPJnw1CMRxgbzKKvgdJ6+TOO3XrX35DtxvZc59NgmNwAVCgO4YdPPhiQ8at/AL
eyECAwEAAaOByzCByDAdBgNVHQ4EFgQUHuAl6PTcKBWxWrY0lhLkL7jofLEwHwYD
VR0jBBgwFoAUHuAl6PTcKBWxWrY0lhLkL7jofLEwNwYIKwYBBQUHAQEEKzApMCcG
CCsGAQUFBzAChhtodHRwOi8vdXJsLWZvci1haWEvUm9vdC5jZXIwLAYDVR0fBCUw
IzAhoB+gHYYbaHR0cDovL3VybC1mb3ItY3JsL1Jvb3QuY3JsMA4GA1UdDwEB/wQE
AwIBBjAPBgNVHRMBAf8EBTADAQH/MA0GCSqGSIb3DQEBCwUAA4IBAQAtFMm1lQQZ
qnVaEb35QaBE4BmoHBjet6gvGm+CzQXU9lWXIxoiVaDCApRbYoiBZ/974vyYkCMr
eTpUOtqUuOngts1ETagta3MsooHok59r8JK6O+thycIEGfX9hhEw4mMfO+4Qv6XK
NcUQgQUsij/qZaQXaV99JGF3XetwaThYfilhVO7heJuOLC3zL9rbxYnFqEZU7rAU
5QRJ0vmWcZj5e8iCIRg9HoDxIDmxqAQk5wN/qlaQnTy380u92m2MqdewBth3s5H2
DoUIUfFF/266BHI1O0/9SdgMyUUcmWjsztOIF3XiINtCf2WUQGbHUcsZ3VCJxUGN
BN9+LI1hJjNF
-----END TRUST_ANCHOR_UNCONSTRAINED-----

150302120000Z
-----BEGIN TIME-----
MTUwMzAyMTIwMDAwWg==
-----END TIME-----

FAIL
-----BEGIN VERIFY_RESULT-----
RkFJTA==
-----END VERIFY_RESULT-----

serverAuth
-----BEGIN KEY_PURPOSE-----
c2VydmVyQXV0aA==
-----END KEY_PURPOSE-----

----- Certificate i=0 (CN=Target) -----
ERROR: Unacceptable signature algorithm
ERROR: VerifySignedData failed


-----BEGIN ERRORS-----
LS0tLS0gQ2VydGlmaWNhdGUgaT0wIChDTj1UYXJnZXQpIC0tLS0tCkVSUk9SOiBVbmFjY2VwdGFibGUgc2lnbmF0dXJlIGFsZ29yaXRobQpFUlJPUjogVmVyaWZ5U2lnbmVkRGF0YSBmYWlsZWQKCg==
-----END ERRORS-----
