[Created by: generate-target-signed-using-ecdsa.py]

Certificate chain with a trusted root using RSA, and intermediate using EC,
and a target certificate using RSA. Verification is expected to succeed.

Certificate:
    Data:
        Version: 3 (0x2)
        Serial Number: 1 (0x1)
    Signature Algorithm: ecdsa-with-SHA256
        Issuer: CN=Intermediate
        Validity
            Not Before: Jan  1 12:00:00 2015 GMT
            Not After : Jan  1 12:00:00 2016 GMT
        Subject: CN=Target
        Subject Public Key Info:
            Public Key Algorithm: rsaEncryption
                Public-Key: (2048 bit)
                Modulus:
                    00:cd:72:19:2b:f3:f4:0b:d9:86:07:ec:81:9e:63:
                    51:5c:dd:32:6c:6c:77:2a:01:c9:de:cf:01:50:b9:
                    c7:a9:6e:83:a8:72:d5:83:b9:32:ce:a8:e2:ba:f8:
                    32:41:4d:0f:ab:41:03:3b:4d:fa:19:43:07:85:f1:
                    1a:c8:f7:46:47:c6:0f:5a:0d:d1:f3:1d:2f:f1:12:
                    3b:cb:59:12:d8:06:fd:93:6f:95:99:63:97:0f:88:
                    47:07:82:8f:58:32:62:76:dd:55:8a:0c:61:c9:ba:
                    21:92:6f:e8:d4:2d:22:cb:cc:cc:d9:72:74:cd:38:
                    0f:ef:30:96:88:b7:a8:24:3b:03:4b:e5:23:91:c2:
                    40:98:59:b9:f7:7c:08:7b:04:b2:4f:e5:7c:e1:5d:
                    98:ed:43:67:f0:23:f0:1b:24:69:e9:48:c5:05:5b:
                    60:8e:b2:d7:54:9a:34:97:05:07:4f:e9:d4:6f:06:
                    ea:b8:26:7b:99:e1:9a:12:04:eb:a2:73:4e:17:73:
                    dc:68:4b:36:be:f0:42:d2:92:b2:3e:99:ca:b6:11:
                    d9:ea:4a:10:c8:68:c7:27:c5:7c:9b:f2:18:c7:98:
                    c8:46:c0:75:ee:dd:80:47:4f:2a:6c:3c:bc:5d:2d:
                    86:01:72:19:80:95:89:28:d8:c7:3e:36:96:69:30:
                    1b:95
                Exponent: 65537 (0x10001)
        X509v3 extensions:
            X509v3 Subject Key Identifier: 
                46:75:48:47:EF:3B:5F:4D:A8:17:46:94:F8:D2:FD:FD:59:0F:65:82
            X509v3 Authority Key Identifier: 
                keyid:6F:70:17:EA:DE:B7:B8:63:CC:DA:8C:DF:5F:22:65:D4:BA:16:37:C8

            Authority Information Access: 
                CA Issuers - URI:http://url-for-aia/Intermediate.cer

            X509v3 CRL Distribution Points: 

                Full Name:
                  URI:http://url-for-crl/Intermediate.crl

            X509v3 Key Usage: critical
                Digital Signature, Key Encipherment
            X509v3 Extended Key Usage: 
                TLS Web Server Authentication, TLS Web Client Authentication
    Signature Algorithm: ecdsa-with-SHA256
         30:66:02:31:00:94:3c:e5:44:e7:b4:c2:82:ff:18:f6:1d:a3:
         25:59:f8:50:9b:ff:20:60:87:d3:e9:47:ef:cb:8f:54:5e:ab:
         ce:81:df:1d:35:a1:77:b0:24:9b:18:78:45:a6:d4:e6:88:02:
         31:00:f4:e1:e1:f3:9f:83:b7:e6:19:21:b9:ce:8b:44:5a:eb:
         dd:1c:5d:fe:64:77:f1:8f:35:bb:0f:09:87:ac:3d:2f:28:a3:
         aa:3b:59:f0:2e:e1:ce:e0:5a:cc:b2:1a:3e:b2
-----BEGIN CERTIFICATE-----
MIIC7TCCAnKgAwIBAgIBATAKBggqhkjOPQQDAjAXMRUwEwYDVQQDDAxJbnRlcm1l
ZGlhdGUwHhcNMTUwMTAxMTIwMDAwWhcNMTYwMTAxMTIwMDAwWjARMQ8wDQYDVQQD
DAZUYXJnZXQwggEiMA0GCSqGSIb3DQEBAQUAA4IBDwAwggEKAoIBAQDNchkr8/QL
2YYH7IGeY1Fc3TJsbHcqAcnezwFQucepboOoctWDuTLOqOK6+DJBTQ+rQQM7TfoZ
QweF8RrI90ZHxg9aDdHzHS/xEjvLWRLYBv2Tb5WZY5cPiEcHgo9YMmJ23VWKDGHJ
uiGSb+jULSLLzMzZcnTNOA/vMJaIt6gkOwNL5SORwkCYWbn3fAh7BLJP5XzhXZjt
Q2fwI/AbJGnpSMUFW2COstdUmjSXBQdP6dRvBuq4JnuZ4ZoSBOuic04Xc9xoSza+
8ELSkrI+mcq2EdnqShDIaMcnxXyb8hjHmMhGwHXu3YBHTypsPLxdLYYBchmAlYko
2Mc+NpZpMBuVAgMBAAGjgekwgeYwHQYDVR0OBBYEFEZ1SEfvO19NqBdGlPjS/f1Z
D2WCMB8GA1UdIwQYMBaAFG9wF+ret7hjzNqM318iZdS6FjfIMD8GCCsGAQUFBwEB
BDMwMTAvBggrBgEFBQcwAoYjaHR0cDovL3VybC1mb3ItYWlhL0ludGVybWVkaWF0
ZS5jZXIwNAYDVR0fBC0wKzApoCegJYYjaHR0cDovL3VybC1mb3ItY3JsL0ludGVy
bWVkaWF0ZS5jcmwwDgYDVR0PAQH/BAQDAgWgMB0GA1UdJQQWMBQGCCsGAQUFBwMB
BggrBgEFBQcDAjAKBggqhkjOPQQDAgNpADBmAjEAlDzlROe0woL/GPYdoyVZ+FCb
/yBgh9PpR+/Lj1Req86B3x01oXewJJsYeEWm1OaIAjEA9OHh85+Dt+YZIbnOi0Ra
690cXf5kd/GPNbsPCYesPS8oo6o7WfAu4c7gWsyyGj6y
-----END CERTIFICATE-----

Certificate:
    Data:
        Version: 3 (0x2)
        Serial Number: 2 (0x2)
    Signature Algorithm: sha256WithRSAEncryption
        Issuer: CN=Root
        Validity
            Not Before: Jan  1 12:00:00 2015 GMT
            Not After : Jan  1 12:00:00 2016 GMT
        Subject: CN=Intermediate
        Subject Public Key Info:
            Public Key Algorithm: id-ecPublicKey
                Public-Key: (384 bit)
                pub: 
                    04:58:a6:cc:26:37:62:38:1e:61:3b:d7:6b:ee:13:
                    74:3c:a3:53:83:b6:43:50:a1:28:6b:02:3a:7d:9e:
                    a1:7b:8f:3e:f7:d3:33:bc:0a:f7:92:8d:24:cc:55:
                    af:e6:3c:c3:ee:88:cd:9d:80:4d:ce:2c:a7:41:b7:
                    d0:26:41:bb:80:d6:0c:8b:23:9a:c3:5b:87:0c:eb:
                    db:cf:86:5a:8a:17:2b:1d:f5:96:07:bc:ac:09:a2:
                    dc:7b:ee:99:70:fc:17
                ASN1 OID: secp384r1
        X509v3 extensions:
            X509v3 Subject Key Identifier: 
                6F:70:17:EA:DE:B7:B8:63:CC:DA:8C:DF:5F:22:65:D4:BA:16:37:C8
            X509v3 Authority Key Identifier: 
                keyid:44:4E:C3:7E:9D:3D:AD:EC:A9:F7:EB:5E:A4:92:86:71:2A:DC:9C:FE

            Authority Information Access: 
                CA Issuers - URI:http://url-for-aia/Root.cer

            X509v3 CRL Distribution Points: 

                Full Name:
                  URI:http://url-for-crl/Root.crl

            X509v3 Key Usage: critical
                Certificate Sign, CRL Sign
            X509v3 Basic Constraints: critical
                CA:TRUE
    Signature Algorithm: sha256WithRSAEncryption
         51:54:a1:f5:c1:21:d7:7b:04:b5:c7:e9:4a:49:f7:2a:f0:66:
         e3:f5:26:2c:1a:c2:48:bb:fc:d0:cd:3b:5f:d1:4c:ad:5c:59:
         5d:de:98:9d:56:bc:bb:6b:54:24:b1:64:7d:92:dc:2b:9f:46:
         b9:d4:4d:3b:15:40:2c:7d:b0:a6:4d:d7:cd:98:ef:89:3d:95:
         c7:b4:c0:f8:ea:7d:08:3f:cd:e6:bf:44:20:1e:6c:82:db:1d:
         53:9c:b1:3d:55:1b:5c:c4:99:35:dc:8c:ce:b3:f4:d3:e6:09:
         e0:36:07:40:59:49:74:91:ab:37:92:aa:c5:0f:34:78:9e:1a:
         02:52:fe:67:c6:13:ca:98:2e:6e:a6:f7:0b:84:af:43:1a:b9:
         da:29:e9:e1:b5:7f:73:2f:f2:65:38:b2:1d:05:5f:51:1b:31:
         8c:59:39:73:6b:14:df:72:79:31:c7:17:9c:55:37:0f:70:cf:
         96:8d:dd:26:d8:fa:fd:e8:bf:f3:43:7a:bb:26:47:14:31:28:
         4b:36:c2:91:24:cb:50:c3:30:51:5f:77:3f:ed:ef:40:b2:a7:
         72:57:27:83:30:17:6c:83:5e:b8:d2:6f:0b:39:72:eb:6c:d3:
         5b:22:9e:35:e9:fb:68:56:20:e6:35:a9:18:8d:20:99:7f:8b:
         2a:2a:51:01
-----BEGIN CERTIFICATE-----
MIICvzCCAaegAwIBAgIBAjANBgkqhkiG9w0BAQsFADAPMQ0wCwYDVQQDDARSb290
MB4XDTE1MDEwMTEyMDAwMFoXDTE2MDEwMTEyMDAwMFowFzEVMBMGA1UEAwwMSW50
ZXJtZWRpYXRlMHYwEAYHKoZIzj0CAQYFK4EEACIDYgAEWKbMJjdiOB5hO9dr7hN0
PKNTg7ZDUKEoawI6fZ6he48+99MzvAr3ko0kzFWv5jzD7ojNnYBNziynQbfQJkG7
gNYMiyOaw1uHDOvbz4ZaihcrHfWWB7ysCaLce+6ZcPwXo4HLMIHIMB0GA1UdDgQW
BBRvcBfq3re4Y8zajN9fImXUuhY3yDAfBgNVHSMEGDAWgBRETsN+nT2t7Kn3616k
koZxKtyc/jA3BggrBgEFBQcBAQQrMCkwJwYIKwYBBQUHMAKGG2h0dHA6Ly91cmwt
Zm9yLWFpYS9Sb290LmNlcjAsBgNVHR8EJTAjMCGgH6AdhhtodHRwOi8vdXJsLWZv
ci1jcmwvUm9vdC5jcmwwDgYDVR0PAQH/BAQDAgEGMA8GA1UdEwEB/wQFMAMBAf8w
DQYJKoZIhvcNAQELBQADggEBAFFUofXBIdd7BLXH6UpJ9yrwZuP1Jiwawki7/NDN
O1/RTK1cWV3emJ1WvLtrVCSxZH2S3CufRrnUTTsVQCx9sKZN182Y74k9lce0wPjq
fQg/zea/RCAebILbHVOcsT1VG1zEmTXcjM6z9NPmCeA2B0BZSXSRqzeSqsUPNHie
GgJS/mfGE8qYLm6m9wuEr0Maudop6eG1f3Mv8mU4sh0FX1EbMYxZOXNrFN9yeTHH
F5xVNw9wz5aN3SbY+v3ov/NDersmRxQxKEs2wpEky1DDMFFfdz/t70Cyp3JXJ4Mw
F2yDXrjSbws5cuts01sinjXp+2hWIOY1qRiNIJl/iyoqUQE=
-----END CERTIFICATE-----

Certificate:
    Data:
        Version: 3 (0x2)
        Serial Number: 1 (0x1)
    Signature Algorithm: sha256WithRSAEncryption
        Issuer: CN=Root
        Validity
            Not Before: Jan  1 12:00:00 2015 GMT
            Not After : Jan  1 12:00:00 2016 GMT
        Subject: CN=Root
        Subject Public Key Info:
            Public Key Algorithm: rsaEncryption
                Public-Key: (2048 bit)
                Modulus:
                    00:de:88:c0:64:47:79:b2:3c:ad:8a:e2:ec:86:38:
                    86:cf:f6:c1:83:5f:68:b8:8d:28:12:8b:b1:29:d1:
                    33:b9:d4:44:22:03:65:86:27:ea:f4:5e:fc:14:50:
                    0b:35:36:18:c5:80:ce:b5:c2:a4:1a:10:a4:79:37:
                    ea:1c:c1:14:08:14:1c:3a:72:ec:60:3f:72:47:ea:
                    a5:ca:af:06:60:c7:6a:53:21:c7:f9:d6:0a:1e:58:
                    55:37:79:e3:e1:e4:11:69:40:76:75:40:e3:51:20:
                    c9:55:ab:67:4f:ea:ab:0f:ad:cd:0a:bf:54:cd:12:
                    d2:a8:b8:11:79:8f:f2:94:54:6f:74:6c:b3:b7:64:
                    5e:a7:c4:ec:bd:fe:0a:b2:dc:72:25:45:32:b9:33:
                    02:b4:e0:6f:4f:65:a5:eb:2b:31:b3:24:58:61:5f:
                    11:ef:83:b3:2c:98:86:d1:6d:8e:11:fa:fa:22:e4:
                    6e:16:64:15:3a:71:7c:30:36:f5:85:51:c7:b9:aa:
                    a4:dd:70:8b:41:fe:45:b3:42:40:fc:8d:31:6b:11:
                    4c:20:b3:14:eb:33:f9:62:13:30:8c:ba:12:10:a2:
                    1e:a6:18:63:80:80:6f:fe:03:01:61:a4:4e:2c:78:
                    f0:cd:a3:db:d2:6c:99:1d:f6:4f:e2:1d:42:cd:c7:
                    31:e1
                Exponent: 65537 (0x10001)
        X509v3 extensions:
            X509v3 Subject Key Identifier: 
                44:4E:C3:7E:9D:3D:AD:EC:A9:F7:EB:5E:A4:92:86:71:2A:DC:9C:FE
            X509v3 Authority Key Identifier: 
                keyid:44:4E:C3:7E:9D:3D:AD:EC:A9:F7:EB:5E:A4:92:86:71:2A:DC:9C:FE

            Authority Information Access: 
                CA Issuers - URI:http://url-for-aia/Root.cer

            X509v3 CRL Distribution Points: 

                Full Name:
                  URI:http://url-for-crl/Root.crl

            X509v3 Key Usage: critical
                Certificate Sign, CRL Sign
            X509v3 Basic Constraints: critical
                CA:TRUE
    Signature Algorithm: sha256WithRSAEncryption
         58:da:b3:6f:d4:de:ab:8c:36:f6:53:8d:23:b6:d8:7d:3d:fb:
         b7:08:25:07:aa:cd:f4:45:4d:df:1f:52:ed:eb:ef:ce:0b:c1:
         96:d0:4c:6a:0b:d4:99:a0:82:1a:d5:4f:0c:4c:c9:bb:e8:4c:
         84:14:c4:4a:f4:7d:f2:1d:4c:79:8f:e4:8f:9b:94:5d:b6:69:
         b5:7e:83:4c:78:47:cb:c0:41:21:7e:d6:41:59:1c:1a:b4:e4:
         5c:16:10:2a:fb:1c:f8:31:76:18:42:a1:2c:20:61:0e:b2:3a:
         f3:3b:fb:87:e3:cc:ab:57:4a:1d:e7:aa:9a:b5:21:42:f6:e8:
         4c:2b:65:84:fc:01:02:ef:79:d1:77:7e:da:8b:6b:8e:83:fd:
         71:a2:bd:4b:1b:3f:bd:da:30:a4:01:0a:8d:bc:6d:bb:1b:f0:
         39:ea:51:02:7f:af:a3:bf:75:e6:93:9a:79:26:18:14:bd:9e:
         cd:c1:8d:a1:4f:f4:df:53:4e:78:8b:ef:31:5b:75:f5:78:8a:
         0e:2f:fd:74:cb:48:2a:8e:3f:23:9d:7e:98:63:1f:37:6c:1b:
         2b:93:12:39:4f:31:17:2c:68:3f:e7:86:44:0d:38:e0:2f:47:
         ae:05:a0:ec:fe:36:39:f4:2a:21:16:67:1a:4c:22:b2:35:76:
         99:ad:17:ea
-----BEGIN TRUST_ANCHOR_UNCONSTRAINED-----
MIIDZTCCAk2gAwIBAgIBATANBgkqhkiG9w0BAQsFADAPMQ0wCwYDVQQDDARSb290
MB4XDTE1MDEwMTEyMDAwMFoXDTE2MDEwMTEyMDAwMFowDzENMAsGA1UEAwwEUm9v
dDCCASIwDQYJKoZIhvcNAQEBBQADggEPADCCAQoCggEBAN6IwGRHebI8rYri7IY4
hs/2wYNfaLiNKBKLsSnRM7nURCIDZYYn6vRe/BRQCzU2GMWAzrXCpBoQpHk36hzB
FAgUHDpy7GA/ckfqpcqvBmDHalMhx/nWCh5YVTd54+HkEWlAdnVA41EgyVWrZ0/q
qw+tzQq/VM0S0qi4EXmP8pRUb3Rss7dkXqfE7L3+CrLcciVFMrkzArTgb09lpesr
MbMkWGFfEe+DsyyYhtFtjhH6+iLkbhZkFTpxfDA29YVRx7mqpN1wi0H+RbNCQPyN
MWsRTCCzFOsz+WITMIy6EhCiHqYYY4CAb/4DAWGkTix48M2j29JsmR32T+IdQs3H
MeECAwEAAaOByzCByDAdBgNVHQ4EFgQURE7Dfp09reyp9+tepJKGcSrcnP4wHwYD
VR0jBBgwFoAURE7Dfp09reyp9+tepJKGcSrcnP4wNwYIKwYBBQUHAQEEKzApMCcG
CCsGAQUFBzAChhtodHRwOi8vdXJsLWZvci1haWEvUm9vdC5jZXIwLAYDVR0fBCUw
IzAhoB+gHYYbaHR0cDovL3VybC1mb3ItY3JsL1Jvb3QuY3JsMA4GA1UdDwEB/wQE
AwIBBjAPBgNVHRMBAf8EBTADAQH/MA0GCSqGSIb3DQEBCwUAA4IBAQBY2rNv1N6r
jDb2U40jtth9Pfu3CCUHqs30RU3fH1Lt6+/OC8GW0ExqC9SZoIIa1U8MTMm76EyE
FMRK9H3yHUx5j+SPm5Rdtmm1foNMeEfLwEEhftZBWRwatORcFhAq+xz4MXYYQqEs
IGEOsjrzO/uH48yrV0od56qatSFC9uhMK2WE/AEC73nRd37ai2uOg/1xor1LGz+9
2jCkAQqNvG27G/A56lECf6+jv3Xmk5p5JhgUvZ7NwY2hT/TfU054i+8xW3X1eIoO
L/10y0gqjj8jnX6YYx83bBsrkxI5TzEXLGg/54ZEDTjgL0euBaDs/jY59CohFmca
TCKyNXaZrRfq
-----END TRUST_ANCHOR_UNCONSTRAINED-----

150302120000Z
-----BEGIN TIME-----
MTUwMzAyMTIwMDAwWg==
-----END TIME-----

SUCCESS
-----BEGIN VERIFY_RESULT-----
U1VDQ0VTUw==
-----END VERIFY_RESULT-----

serverAuth
-----BEGIN KEY_PURPOSE-----
c2VydmVyQXV0aA==
-----END KEY_PURPOSE-----
