[Created by: generate-target-not-end-entity.py]

Certificate chain with 1 intermediate, a trusted root, and a target
certificate that is also a CA. Verification is expected to succeed, as the test
code accepts any target certificate.

Certificate:
    Data:
        Version: 3 (0x2)
        Serial Number: 1 (0x1)
    Signature Algorithm: sha256WithRSAEncryption
        Issuer: CN=Intermediate
        Validity
            Not Before: Jan  1 12:00:00 2015 GMT
            Not After : Jan  1 12:00:00 2016 GMT
        Subject: CN=Target
        Subject Public Key Info:
            Public Key Algorithm: rsaEncryption
                Public-Key: (2048 bit)
                Modulus:
                    00:b4:59:94:09:11:c2:ed:91:34:ab:18:16:c4:2e:
                    1d:29:52:fc:6e:92:3c:93:7d:9d:fb:d8:99:a0:72:
                    93:43:d6:62:47:53:ff:23:f7:77:44:17:d0:0d:c5:
                    21:c4:d5:bd:5d:e6:29:d5:b9:46:b0:15:16:59:5b:
                    61:77:74:95:3f:32:a1:1b:6b:d2:42:22:4f:91:7c:
                    fe:92:60:53:b3:92:88:d9:82:98:a2:7e:cb:ad:24:
                    b6:43:f0:c3:dd:bf:05:62:5d:86:10:f1:15:90:bd:
                    e2:43:54:85:30:6d:ee:5d:17:62:fc:67:ae:3e:da:
                    78:58:84:e9:f1:9e:f5:ad:d5:67:22:51:05:6c:b6:
                    c3:0b:5e:1c:a8:95:27:be:26:e6:ef:63:55:3c:05:
                    69:64:bf:c8:98:b2:86:f6:57:c0:2e:83:4d:2e:56:
                    59:87:45:a6:bb:3b:94:7d:97:9b:8c:37:b1:d8:d6:
                    25:f2:66:49:6c:dc:3c:9c:dc:08:51:64:2b:1d:53:
                    ae:83:69:75:87:9c:46:b5:93:57:c0:2f:ff:ba:91:
                    8d:a6:8d:53:cb:37:5d:13:09:ac:22:94:65:08:c6:
                    93:75:d6:f6:ff:b6:36:19:da:e4:9a:fb:a8:b4:fa:
                    eb:5b:3f:0d:e6:f8:dc:25:f8:5d:30:b3:5a:c9:8b:
                    57:37
                Exponent: 65537 (0x10001)
        X509v3 extensions:
            X509v3 Subject Key Identifier: 
                77:17:9D:DC:51:C4:B1:95:4B:96:56:2B:A0:13:EF:2D:9C:19:7A:38
            X509v3 Authority Key Identifier: 
                keyid:33:DF:16:E8:65:99:B1:A4:A5:43:E7:13:B8:00:2A:1E:77:8B:75:67

            Authority Information Access: 
                CA Issuers - URI:http://url-for-aia/Intermediate.cer

            X509v3 CRL Distribution Points: 

                Full Name:
                  URI:http://url-for-crl/Intermediate.crl

            X509v3 Key Usage: critical
                Certificate Sign, CRL Sign
            X509v3 Basic Constraints: critical
                CA:TRUE
    Signature Algorithm: sha256WithRSAEncryption
         53:8b:42:95:c7:8b:3a:b4:97:9e:56:2b:51:99:4e:77:ea:5a:
         b2:77:7b:60:ea:fd:72:08:3d:8d:2a:02:ac:26:a3:78:3e:cd:
         93:39:6c:1a:55:39:f1:cc:c2:eb:ab:13:25:b5:a5:7a:0a:6a:
         08:d8:32:ab:88:b3:af:8e:ec:c0:c5:a8:33:ad:45:a5:b7:00:
         23:32:fa:5b:b7:9f:cd:0a:08:0a:a1:0f:00:5f:66:30:d1:ac:
         4d:7f:34:ed:95:e2:15:f2:00:dc:45:30:77:1f:ab:f0:3c:65:
         de:7f:56:a4:fe:f7:d4:c8:86:2e:dd:37:41:05:a8:05:1e:b1:
         5a:90:ef:6e:12:2d:ff:f6:75:e7:f1:b0:39:da:54:b0:30:df:
         85:32:4c:d1:27:47:a8:f8:94:a4:4a:00:63:5f:10:d8:07:88:
         ff:5d:ae:1e:22:e0:f3:58:85:18:d2:05:74:d6:4e:e4:4b:4f:
         80:83:f1:18:92:6d:1f:c5:b6:12:08:15:55:d7:f9:62:86:3d:
         d2:23:9e:38:c6:8d:2b:5a:76:ee:9f:51:4f:56:a1:42:bf:e0:
         a1:65:30:dc:f5:37:c6:49:5f:e5:82:f5:8b:16:1d:d3:bd:e2:
         82:d8:69:35:9b:b8:cb:f3:92:6d:d7:cd:19:f5:77:41:2c:c7:
         74:75:31:c7
-----BEGIN CERTIFICATE-----
MIIDfzCCAmegAwIBAgIBATANBgkqhkiG9w0BAQsFADAXMRUwEwYDVQQDDAxJbnRl
cm1lZGlhdGUwHhcNMTUwMTAxMTIwMDAwWhcNMTYwMTAxMTIwMDAwWjARMQ8wDQYD
VQQDDAZUYXJnZXQwggEiMA0GCSqGSIb3DQEBAQUAA4IBDwAwggEKAoIBAQC0WZQJ
EcLtkTSrGBbELh0pUvxukjyTfZ372JmgcpND1mJHU/8j93dEF9ANxSHE1b1d5inV
uUawFRZZW2F3dJU/MqEba9JCIk+RfP6SYFOzkojZgpiifsutJLZD8MPdvwViXYYQ
8RWQveJDVIUwbe5dF2L8Z64+2nhYhOnxnvWt1WciUQVstsMLXhyolSe+JubvY1U8
BWlkv8iYsob2V8Aug00uVlmHRaa7O5R9l5uMN7HY1iXyZkls3Dyc3AhRZCsdU66D
aXWHnEa1k1fAL/+6kY2mjVPLN10TCawilGUIxpN11vb/tjYZ2uSa+6i0+utbPw3m
+Nwl+F0ws1rJi1c3AgMBAAGjgdswgdgwHQYDVR0OBBYEFHcXndxRxLGVS5ZWK6AT
7y2cGXo4MB8GA1UdIwQYMBaAFDPfFuhlmbGkpUPnE7gAKh53i3VnMD8GCCsGAQUF
BwEBBDMwMTAvBggrBgEFBQcwAoYjaHR0cDovL3VybC1mb3ItYWlhL0ludGVybWVk
aWF0ZS5jZXIwNAYDVR0fBC0wKzApoCegJYYjaHR0cDovL3VybC1mb3ItY3JsL0lu
dGVybWVkaWF0ZS5jcmwwDgYDVR0PAQH/BAQDAgEGMA8GA1UdEwEB/wQFMAMBAf8w
DQYJKoZIhvcNAQELBQADggEBAFOLQpXHizq0l55WK1GZTnfqWrJ3e2Dq/XIIPY0q
Aqwmo3g+zZM5bBpVOfHMwuurEyW1pXoKagjYMquIs6+O7MDFqDOtRaW3ACMy+lu3
n80KCAqhDwBfZjDRrE1/NO2V4hXyANxFMHcfq/A8Zd5/VqT+99TIhi7dN0EFqAUe
sVqQ724SLf/2defxsDnaVLAw34UyTNEnR6j4lKRKAGNfENgHiP9drh4i4PNYhRjS
BXTWTuRLT4CD8RiSbR/FthIIFVXX+WKGPdIjnjjGjStadu6fUU9WoUK/4KFlMNz1
N8ZJX+WC9YsWHdO94oLYaTWbuMvzkm3XzRn1d0Esx3R1Mcc=
-----END CERTIFICATE-----

Certificate:
    Data:
        Version: 3 (0x2)
        Serial Number: 2 (0x2)
    Signature Algorithm: sha256WithRSAEncryption
        Issuer: CN=Root
        Validity
            Not Before: Jan  1 12:00:00 2015 GMT
            Not After : Jan  1 12:00:00 2016 GMT
        Subject: CN=Intermediate
        Subject Public Key Info:
            Public Key Algorithm: rsaEncryption
                Public-Key: (2048 bit)
                Modulus:
                    00:cd:90:16:22:ef:fa:93:b4:76:dc:f5:2d:17:6a:
                    9f:b5:15:0a:dc:bd:3b:f9:d5:3d:34:da:20:b8:bf:
                    f5:8d:a4:70:4d:36:3b:78:4d:13:bd:45:30:b2:06:
                    ee:f1:44:7b:a2:b7:e1:01:42:7e:8a:c0:65:f0:a1:
                    93:15:89:36:02:c8:a9:57:ca:e5:00:f5:12:b4:e6:
                    50:3f:53:a7:a1:6b:db:ba:30:b5:ee:ab:2b:e4:1b:
                    03:79:a9:bf:6e:1f:48:8c:f9:b4:57:77:64:ef:59:
                    30:6d:7d:44:e6:8e:c4:ba:08:27:1f:34:5c:ef:ca:
                    3e:d8:05:13:62:08:63:04:18:42:73:ea:d2:c1:87:
                    8c:cd:e6:3e:76:48:8b:ce:e2:f9:c1:af:8c:42:ab:
                    1e:c1:c1:13:f0:4b:eb:c2:06:5c:00:b8:5c:6f:f6:
                    31:26:84:1d:b5:49:27:a1:15:25:7d:46:b7:66:e7:
                    f8:17:50:2b:25:3f:a5:2a:a0:0e:7d:49:c1:cf:7b:
                    ff:af:61:0d:97:5c:0e:1f:d6:13:10:31:e1:fc:2c:
                    6e:8b:ec:e2:4d:6d:f0:9a:cb:5c:cd:e6:86:cd:6b:
                    e1:eb:1a:d8:fd:7d:61:ab:36:61:4d:59:65:cc:51:
                    42:e5:ca:7b:50:97:b6:90:6c:5f:ce:71:51:c6:ec:
                    10:43
                Exponent: 65537 (0x10001)
        X509v3 extensions:
            X509v3 Subject Key Identifier: 
                33:DF:16:E8:65:99:B1:A4:A5:43:E7:13:B8:00:2A:1E:77:8B:75:67
            X509v3 Authority Key Identifier: 
                keyid:88:21:D0:8E:E5:97:EE:C7:DE:F9:09:9B:D3:58:3B:2F:1C:03:D6:67

            Authority Information Access: 
                CA Issuers - URI:http://url-for-aia/Root.cer

            X509v3 CRL Distribution Points: 

                Full Name:
                  URI:http://url-for-crl/Root.crl

            X509v3 Key Usage: critical
                Certificate Sign, CRL Sign
            X509v3 Basic Constraints: critical
                CA:TRUE
    Signature Algorithm: sha256WithRSAEncryption
         24:46:a0:6d:f1:89:52:ca:1f:3d:45:8b:f0:b6:d1:49:4c:c0:
         62:f9:b1:80:59:2e:37:50:45:de:85:ee:67:e9:cb:ad:03:c0:
         a6:a7:e2:df:65:30:0f:21:c4:5c:3a:d1:00:ff:99:40:56:bf:
         7e:93:85:08:e7:1b:f5:bc:91:7b:a7:ef:27:b0:76:f4:1c:5f:
         81:21:aa:f1:05:05:02:7d:c8:f7:86:6c:b5:3b:44:71:db:1d:
         07:76:9c:57:5c:29:6f:e7:a9:c9:74:3c:3d:fa:44:52:66:d1:
         24:70:a2:ca:1d:d7:fa:d2:a9:25:91:56:94:f0:60:12:2a:9e:
         66:de:18:cc:b4:37:c6:96:9e:a1:bb:5d:22:6a:45:7e:d9:f3:
         2a:1d:c3:94:cf:5e:aa:ce:14:16:fe:8d:06:6a:bc:ce:22:22:
         da:1a:b4:5d:d6:25:05:6b:e2:3d:7a:60:10:66:c5:71:3c:74:
         f4:c4:a2:86:a0:ac:8d:d9:54:b0:6c:25:64:75:68:f4:27:e5:
         7c:69:b6:7c:19:93:31:45:39:b4:c8:a0:84:60:e9:ca:39:30:
         c2:7f:e1:e0:99:40:2c:1e:a7:33:a4:27:c7:a6:ab:64:4c:b7:
         60:bb:e6:82:94:ce:92:c5:97:9a:6f:9a:20:16:66:7a:9f:11:
         06:51:89:20
-----BEGIN CERTIFICATE-----
MIIDbTCCAlWgAwIBAgIBAjANBgkqhkiG9w0BAQsFADAPMQ0wCwYDVQQDDARSb290
MB4XDTE1MDEwMTEyMDAwMFoXDTE2MDEwMTEyMDAwMFowFzEVMBMGA1UEAwwMSW50
ZXJtZWRpYXRlMIIBIjANBgkqhkiG9w0BAQEFAAOCAQ8AMIIBCgKCAQEAzZAWIu/6
k7R23PUtF2qftRUK3L07+dU9NNoguL/1jaRwTTY7eE0TvUUwsgbu8UR7orfhAUJ+
isBl8KGTFYk2AsipV8rlAPUStOZQP1OnoWvbujC17qsr5BsDeam/bh9IjPm0V3dk
71kwbX1E5o7EuggnHzRc78o+2AUTYghjBBhCc+rSwYeMzeY+dkiLzuL5wa+MQqse
wcET8EvrwgZcALhcb/YxJoQdtUknoRUlfUa3Zuf4F1ArJT+lKqAOfUnBz3v/r2EN
l1wOH9YTEDHh/Cxui+ziTW3wmstczeaGzWvh6xrY/X1hqzZhTVllzFFC5cp7UJe2
kGxfznFRxuwQQwIDAQABo4HLMIHIMB0GA1UdDgQWBBQz3xboZZmxpKVD5xO4ACoe
d4t1ZzAfBgNVHSMEGDAWgBSIIdCO5Zfux975CZvTWDsvHAPWZzA3BggrBgEFBQcB
AQQrMCkwJwYIKwYBBQUHMAKGG2h0dHA6Ly91cmwtZm9yLWFpYS9Sb290LmNlcjAs
BgNVHR8EJTAjMCGgH6AdhhtodHRwOi8vdXJsLWZvci1jcmwvUm9vdC5jcmwwDgYD
VR0PAQH/BAQDAgEGMA8GA1UdEwEB/wQFMAMBAf8wDQYJKoZIhvcNAQELBQADggEB
ACRGoG3xiVLKHz1Fi/C20UlMwGL5sYBZLjdQRd6F7mfpy60DwKan4t9lMA8hxFw6
0QD/mUBWv36ThQjnG/W8kXun7yewdvQcX4EhqvEFBQJ9yPeGbLU7RHHbHQd2nFdc
KW/nqcl0PD36RFJm0SRwosod1/rSqSWRVpTwYBIqnmbeGMy0N8aWnqG7XSJqRX7Z
8yodw5TPXqrOFBb+jQZqvM4iItoatF3WJQVr4j16YBBmxXE8dPTEooagrI3ZVLBs
JWR1aPQn5XxptnwZkzFFObTIoIRg6co5MMJ/4eCZQCwepzOkJ8emq2RMt2C75oKU
zpLFl5pvmiAWZnqfEQZRiSA=
-----END CERTIFICATE-----

Certificate:
    Data:
        Version: 3 (0x2)
        Serial Number: 1 (0x1)
    Signature Algorithm: sha256WithRSAEncryption
        Issuer: CN=Root
        Validity
            Not Before: Jan  1 12:00:00 2015 GMT
            Not After : Jan  1 12:00:00 2016 GMT
        Subject: CN=Root
        Subject Public Key Info:
            Public Key Algorithm: rsaEncryption
                Public-Key: (2048 bit)
                Modulus:
                    00:bc:6f:14:16:0e:80:d7:63:ef:ea:2b:04:49:cd:
                    0b:04:3a:84:e6:48:31:d4:4d:9a:bb:42:df:68:02:
                    9f:ca:ae:1a:67:ce:23:d7:2a:f4:c9:30:6b:55:60:
                    4b:9f:f5:d7:61:22:48:6b:e7:a6:79:af:f1:22:9a:
                    88:ec:ae:0c:fa:e9:9b:84:43:06:fd:03:96:0b:bc:
                    bd:e6:d8:63:8c:ed:f1:bd:83:9a:49:7d:a8:cc:54:
                    90:70:e9:72:ec:d6:ec:9f:11:73:58:bc:db:6c:d6:
                    e3:7c:9d:34:53:97:6f:10:66:64:43:65:d4:e8:c6:
                    50:f2:de:42:aa:ae:b4:fb:4a:f4:c8:a2:7f:51:6e:
                    fd:1c:76:a3:15:f8:7a:0a:36:c2:64:15:66:f5:43:
                    9d:06:1a:ed:41:c3:a0:3e:6c:c0:29:1c:5e:91:32:
                    ea:35:7e:a1:90:c8:fd:35:e4:05:0f:ef:7f:5d:6b:
                    d7:3f:77:8e:07:d8:d5:93:a8:b0:4a:ed:89:5c:1f:
                    d0:61:28:a6:88:2a:d0:5f:b9:bd:d6:f2:ca:c6:f9:
                    8f:74:7e:04:b1:a3:ba:b4:78:a9:71:c7:d2:90:01:
                    80:b3:8f:d0:d8:7c:3f:35:83:2c:f6:80:83:1f:63:
                    85:11:99:22:13:d1:1d:5d:28:55:2f:26:d2:4f:a2:
                    86:13
                Exponent: 65537 (0x10001)
        X509v3 extensions:
            X509v3 Subject Key Identifier: 
                88:21:D0:8E:E5:97:EE:C7:DE:F9:09:9B:D3:58:3B:2F:1C:03:D6:67
            X509v3 Authority Key Identifier: 
                keyid:88:21:D0:8E:E5:97:EE:C7:DE:F9:09:9B:D3:58:3B:2F:1C:03:D6:67

            Authority Information Access: 
                CA Issuers - URI:http://url-for-aia/Root.cer

            X509v3 CRL Distribution Points: 

                Full Name:
                  URI:http://url-for-crl/Root.crl

            X509v3 Key Usage: critical
                Certificate Sign, CRL Sign
            X509v3 Basic Constraints: critical
                CA:TRUE
    Signature Algorithm: sha256WithRSAEncryption
         56:fc:d3:72:6b:c3:32:0f:62:ed:b7:15:91:f6:72:5f:7f:94:
         01:93:45:32:69:b3:97:7d:df:4f:6b:03:2b:cf:25:73:e0:13:
         2b:3d:91:33:aa:cc:62:ad:6d:3f:85:de:eb:a9:13:5d:6b:6b:
         21:c5:bf:50:70:95:c9:0f:64:e5:c0:5c:60:ff:fd:52:88:fc:
         40:28:be:a3:85:75:e8:3f:12:f5:aa:65:57:8a:05:7a:dc:8b:
         cf:ac:45:6b:0e:f7:4d:3f:15:d5:43:d0:78:93:4b:6e:d9:9d:
         2c:db:38:bc:cc:eb:04:cc:89:98:cf:29:4f:67:e0:8c:e2:aa:
         f2:23:96:fa:a1:20:d8:0f:9b:4d:a5:2f:c0:52:ba:1a:13:a0:
         ce:3f:2e:d8:9f:3f:37:17:21:62:e9:a0:60:c8:c3:ca:53:60:
         42:43:af:66:0b:12:1e:65:7b:39:19:6e:11:cd:92:35:16:bc:
         36:4e:a0:05:3b:e8:9b:35:d8:8b:6d:e1:0d:2e:b7:c5:4f:83:
         b8:c8:8b:e3:15:0b:71:eb:39:e2:3b:c7:11:a5:de:4b:d9:8c:
         87:c8:69:12:63:06:f3:64:82:24:f3:8e:64:df:34:39:77:2a:
         c7:1c:c4:81:4b:79:3d:81:6e:d8:0b:47:b6:d2:cf:a2:f8:14:
         6f:3e:49:89
-----BEGIN TRUST_ANCHOR_UNCONSTRAINED-----
MIIDZTCCAk2gAwIBAgIBATANBgkqhkiG9w0BAQsFADAPMQ0wCwYDVQQDDARSb290
MB4XDTE1MDEwMTEyMDAwMFoXDTE2MDEwMTEyMDAwMFowDzENMAsGA1UEAwwEUm9v
dDCCASIwDQYJKoZIhvcNAQEBBQADggEPADCCAQoCggEBALxvFBYOgNdj7+orBEnN
CwQ6hOZIMdRNmrtC32gCn8quGmfOI9cq9Mkwa1VgS5/112EiSGvnpnmv8SKaiOyu
DPrpm4RDBv0Dlgu8vebYY4zt8b2Dmkl9qMxUkHDpcuzW7J8Rc1i822zW43ydNFOX
bxBmZENl1OjGUPLeQqqutPtK9Miif1Fu/Rx2oxX4ego2wmQVZvVDnQYa7UHDoD5s
wCkcXpEy6jV+oZDI/TXkBQ/vf11r1z93jgfY1ZOosErtiVwf0GEopogq0F+5vdby
ysb5j3R+BLGjurR4qXHH0pABgLOP0Nh8PzWDLPaAgx9jhRGZIhPRHV0oVS8m0k+i
hhMCAwEAAaOByzCByDAdBgNVHQ4EFgQUiCHQjuWX7sfe+Qmb01g7LxwD1mcwHwYD
VR0jBBgwFoAUiCHQjuWX7sfe+Qmb01g7LxwD1mcwNwYIKwYBBQUHAQEEKzApMCcG
CCsGAQUFBzAChhtodHRwOi8vdXJsLWZvci1haWEvUm9vdC5jZXIwLAYDVR0fBCUw
IzAhoB+gHYYbaHR0cDovL3VybC1mb3ItY3JsL1Jvb3QuY3JsMA4GA1UdDwEB/wQE
AwIBBjAPBgNVHRMBAf8EBTADAQH/MA0GCSqGSIb3DQEBCwUAA4IBAQBW/NNya8My
D2LttxWR9nJff5QBk0UyabOXfd9PawMrzyVz4BMrPZEzqsxirW0/hd7rqRNda2sh
xb9QcJXJD2TlwFxg//1SiPxAKL6jhXXoPxL1qmVXigV63IvPrEVrDvdNPxXVQ9B4
k0tu2Z0s2zi8zOsEzImYzylPZ+CM4qryI5b6oSDYD5tNpS/AUroaE6DOPy7Ynz83
FyFi6aBgyMPKU2BCQ69mCxIeZXs5GW4RzZI1Frw2TqAFO+ibNdiLbeENLrfFT4O4
yIvjFQtx6zniO8cRpd5L2YyHyGkSYwbzZIIk845k3zQ5dyrHHMSBS3k9gW7YC0e2
0s+i+BRvPkmJ
-----END TRUST_ANCHOR_UNCONSTRAINED-----

150302120000Z
-----BEGIN TIME-----
MTUwMzAyMTIwMDAwWg==
-----END TIME-----

SUCCESS
-----BEGIN VERIFY_RESULT-----
U1VDQ0VTUw==
-----END VERIFY_RESULT-----

serverAuth
-----BEGIN KEY_PURPOSE-----
c2VydmVyQXV0aA==
-----END KEY_PURPOSE-----
