[Created by: generate-target-wrong-signature.py]

Certificate chain where the target has an incorrect signature. Everything
else should check out, however the digital signature contained in the target
certificate is wrong.

Certificate:
    Data:
        Version: 3 (0x2)
        Serial Number: 1 (0x1)
    Signature Algorithm: sha256WithRSAEncryption
        Issuer: CN=Intermediate
        Validity
            Not Before: Jan  1 12:00:00 2015 GMT
            Not After : Jan  1 12:00:00 2016 GMT
        Subject: CN=Target
        Subject Public Key Info:
            Public Key Algorithm: rsaEncryption
                Public-Key: (2048 bit)
                Modulus:
                    00:e6:63:99:f7:24:74:3f:2a:36:c1:12:e3:e8:68:
                    f8:aa:38:39:76:ef:ed:66:05:c3:99:d9:2d:7b:72:
                    d0:57:a2:52:fb:77:c1:29:d7:53:14:e8:a4:74:7c:
                    2a:21:0b:5d:20:be:18:e5:7f:75:70:73:f3:89:d4:
                    e7:3c:54:f6:25:41:ae:59:48:88:c5:10:c8:a9:a2:
                    75:e0:43:b5:e2:bb:55:72:89:aa:52:db:d5:4b:88:
                    e5:7d:b6:80:4b:fb:2c:bd:57:f4:65:57:72:3a:1c:
                    2f:93:a4:de:06:74:77:cc:e2:21:bd:0a:b3:12:c2:
                    2c:3c:2a:84:27:ae:3f:4a:23:a3:39:3f:b1:cc:d8:
                    e1:84:dd:b0:91:aa:ba:58:c2:ed:62:c8:8c:b4:b5:
                    ff:82:92:93:90:5b:68:ed:7f:30:52:db:0e:88:17:
                    8e:eb:37:21:b8:2a:37:1c:7f:13:8a:be:40:56:ac:
                    cc:1f:a4:0d:d7:47:ab:b9:76:0f:16:c4:70:b3:e3:
                    4f:9a:8d:80:dc:88:b1:e3:be:c1:0e:62:01:db:6b:
                    f4:8f:d9:42:84:01:85:1a:7d:0c:c5:09:05:3e:ed:
                    d9:0a:45:a6:0a:34:7e:a1:88:48:f3:ff:cc:85:eb:
                    d4:c2:29:70:b7:81:31:f7:07:28:e1:fe:47:92:5b:
                    d1:67
                Exponent: 65537 (0x10001)
        X509v3 extensions:
            X509v3 Subject Key Identifier: 
                18:BB:48:9D:7A:DD:AC:7C:1C:48:E6:9F:2F:6C:71:70:9A:AC:88:E0
            X509v3 Authority Key Identifier: 
                keyid:AE:58:4F:6B:06:2B:1C:F3:4E:53:E9:9C:0B:DC:72:ED:3F:F5:55:CF

            Authority Information Access: 
                CA Issuers - URI:http://url-for-aia/Intermediate.cer

            X509v3 CRL Distribution Points: 

                Full Name:
                  URI:http://url-for-crl/Intermediate.crl

            X509v3 Key Usage: critical
                Digital Signature, Key Encipherment
            X509v3 Extended Key Usage: 
                TLS Web Server Authentication, TLS Web Client Authentication
    Signature Algorithm: sha256WithRSAEncryption
         8c:84:99:c3:fd:20:b8:c9:71:c6:9e:45:cd:e5:4f:2c:7d:6e:
         a4:1e:c3:43:82:86:09:09:ab:a6:14:50:76:2a:31:46:70:91:
         f0:5d:a9:88:c9:e2:d9:c5:29:05:54:f5:60:1c:f2:43:b8:b3:
         b1:d5:ec:64:44:08:7a:d5:df:88:db:4b:bc:9f:eb:d1:02:fe:
         98:8c:d0:a6:4d:1b:4d:5e:a0:3a:81:c2:87:79:51:5a:50:c2:
         a8:c4:38:64:76:ec:e5:14:29:98:18:33:8a:ea:e9:2c:23:f0:
         c3:c3:d5:f6:96:e4:e2:b5:3d:c7:0d:a5:36:32:a7:49:88:52:
         22:6a:dc:2a:28:5c:98:67:c4:b3:e6:b3:37:e9:71:98:bf:09:
         15:50:00:e0:f5:cb:27:b1:ce:d6:e4:9f:24:61:a0:90:48:84:
         17:97:72:0e:07:0e:4b:37:d4:36:3a:53:78:2d:44:7b:98:bd:
         28:fd:72:a4:6e:01:23:0e:26:06:c2:dd:72:a7:76:fe:95:61:
         18:44:d9:95:40:d0:f2:73:61:fe:43:30:33:52:3d:04:62:4c:
         1d:fe:48:45:0e:e6:23:c8:a3:74:b0:05:c4:94:3d:3a:e3:f4:
         a8:53:c8:66:85:c8:69:c3:7a:37:5d:4d:fd:92:c5:b6:18:8a:
         77:94:3e:f7
-----BEGIN CERTIFICATE-----
MIIDjTCCAnWgAwIBAgIBATANBgkqhkiG9w0BAQsFADAXMRUwEwYDVQQDDAxJbnRl
cm1lZGlhdGUwHhcNMTUwMTAxMTIwMDAwWhcNMTYwMTAxMTIwMDAwWjARMQ8wDQYD
VQQDDAZUYXJnZXQwggEiMA0GCSqGSIb3DQEBAQUAA4IBDwAwggEKAoIBAQDmY5n3
JHQ/KjbBEuPoaPiqODl27+1mBcOZ2S17ctBXolL7d8Ep11MU6KR0fCohC10gvhjl
f3Vwc/OJ1Oc8VPYlQa5ZSIjFEMiponXgQ7Xiu1VyiapS29VLiOV9toBL+yy9V/Rl
V3I6HC+TpN4GdHfM4iG9CrMSwiw8KoQnrj9KI6M5P7HM2OGE3bCRqrpYwu1iyIy0
tf+CkpOQW2jtfzBS2w6IF47rNyG4KjccfxOKvkBWrMwfpA3XR6u5dg8WxHCz40+a
jYDciLHjvsEOYgHba/SP2UKEAYUafQzFCQU+7dkKRaYKNH6hiEjz/8yF69TCKXC3
gTH3Byjh/keSW9FnAgMBAAGjgekwgeYwHQYDVR0OBBYEFBi7SJ163ax8HEjmny9s
cXCarIjgMB8GA1UdIwQYMBaAFK5YT2sGKxzzTlPpnAvccu0/9VXPMD8GCCsGAQUF
BwEBBDMwMTAvBggrBgEFBQcwAoYjaHR0cDovL3VybC1mb3ItYWlhL0ludGVybWVk
aWF0ZS5jZXIwNAYDVR0fBC0wKzApoCegJYYjaHR0cDovL3VybC1mb3ItY3JsL0lu
dGVybWVkaWF0ZS5jcmwwDgYDVR0PAQH/BAQDAgWgMB0GA1UdJQQWMBQGCCsGAQUF
BwMBBggrBgEFBQcDAjANBgkqhkiG9w0BAQsFAAOCAQEAjISZw/0guMlxxp5FzeVP
LH1upB7DQ4KGCQmrphRQdioxRnCR8F2piMni2cUpBVT1YBzyQ7izsdXsZEQIetXf
iNtLvJ/r0QL+mIzQpk0bTV6gOoHCh3lRWlDCqMQ4ZHbs5RQpmBgziurpLCPww8PV
9pbk4rU9xw2lNjKnSYhSImrcKihcmGfEs+azN+lxmL8JFVAA4PXLJ7HO1uSfJGGg
kEiEF5dyDgcOSzfUNjpTeC1Ee5i9KP1ypG4BIw4mBsLdcqd2/pVhGETZlUDQ8nNh
/kMwM1I9BGJMHf5IRQ7mI8ijdLAFxJQ9OuP0qFPIZoXIacN6N11N/ZLFthiKd5Q+
9w==
-----END CERTIFICATE-----

Certificate:
    Data:
        Version: 3 (0x2)
        Serial Number: 3 (0x3)
    Signature Algorithm: sha256WithRSAEncryption
        Issuer: CN=Root
        Validity
            Not Before: Jan  1 12:00:00 2015 GMT
            Not After : Jan  1 12:00:00 2016 GMT
        Subject: CN=Intermediate
        Subject Public Key Info:
            Public Key Algorithm: rsaEncryption
                Public-Key: (2048 bit)
                Modulus:
                    00:c4:17:53:d2:54:6b:7a:03:d0:42:2c:6e:be:36:
                    5d:2a:70:5e:60:ae:99:07:4f:2e:46:05:3e:c1:59:
                    10:36:f4:30:2d:76:6d:3e:93:f1:f9:4a:c4:fe:07:
                    5d:c5:54:0f:1f:80:ce:f2:3f:3c:d1:65:94:aa:6e:
                    4d:f7:be:65:58:20:7d:26:c6:27:d6:26:65:15:66:
                    8f:98:5b:e8:1e:d4:36:84:98:5d:4d:9d:42:52:cf:
                    43:4b:bd:f9:f8:c2:b0:ff:17:1d:a5:24:73:03:16:
                    2b:29:60:b7:66:7b:57:37:80:ab:11:9a:28:23:11:
                    48:e5:e0:3a:d3:82:1a:22:7c:3c:60:0a:ed:e2:5a:
                    27:7e:a7:15:76:5b:09:ad:39:5c:14:93:35:a2:da:
                    3a:45:f7:9c:74:ac:24:64:ac:b8:5b:75:5e:5b:a8:
                    12:f9:59:cb:73:6e:12:ac:c5:19:0b:f9:74:0b:62:
                    e6:b5:b3:f6:9d:8a:3d:a1:a1:4b:39:f9:43:da:c7:
                    a4:39:eb:82:89:ff:9d:d4:14:ed:54:cb:db:e1:9a:
                    a3:40:dd:fc:85:af:c8:85:d7:95:c0:10:93:89:b0:
                    15:e9:9f:3d:b9:e7:ff:65:5d:01:5d:1f:7b:a4:28:
                    77:f1:0b:90:30:3c:19:63:b8:4e:b8:be:63:e0:dc:
                    c0:47
                Exponent: 65537 (0x10001)
        X509v3 extensions:
            X509v3 Subject Key Identifier: 
                75:F1:E7:70:61:AA:A2:4B:6E:22:4E:88:EF:F1:65:B6:BF:D8:6E:9F
            X509v3 Authority Key Identifier: 
                keyid:24:89:38:A4:DE:99:C1:56:D1:C1:A1:22:C3:9D:DC:4D:6D:1A:CD:F3

            Authority Information Access: 
                CA Issuers - URI:http://url-for-aia/Root.cer

            X509v3 CRL Distribution Points: 

                Full Name:
                  URI:http://url-for-crl/Root.crl

            X509v3 Key Usage: critical
                Certificate Sign, CRL Sign
            X509v3 Basic Constraints: critical
                CA:TRUE
    Signature Algorithm: sha256WithRSAEncryption
         93:6f:7e:73:91:01:cb:3b:1a:0e:6d:b7:25:f5:03:5d:49:76:
         1f:46:68:c7:40:5e:c6:37:47:c5:27:2c:9a:c3:47:5c:f3:77:
         7d:a1:d3:f2:db:7b:93:e4:de:92:ea:3b:1b:97:c7:f0:44:a1:
         5a:0a:24:7f:a2:44:ac:39:52:55:01:12:f8:4e:85:a3:64:dd:
         75:c0:4a:84:21:74:60:d4:97:d7:14:99:de:ca:c2:ce:b6:f4:
         be:3d:ca:80:e7:fb:13:4e:b7:a2:9e:ff:2c:25:70:84:af:7d:
         31:a9:6c:54:6f:a1:5a:3b:3b:67:8d:d9:f4:ff:47:b1:2c:e4:
         9a:ca:b6:66:d1:df:71:ac:15:90:fd:f4:70:63:02:4a:ad:ee:
         1b:65:55:df:60:4f:d6:68:1e:44:a3:ab:99:1c:39:fc:be:c6:
         65:6a:7d:99:44:18:88:0d:34:1f:a0:fd:70:f1:ae:d4:9c:e7:
         28:12:a7:bc:d5:6a:d8:b2:7a:5b:f5:e9:13:a0:08:6d:b6:85:
         b3:9a:cd:f7:48:d3:56:1a:26:32:ac:5f:c0:75:4e:93:76:a3:
         14:d7:31:5c:55:b2:4a:c4:f8:cf:ea:d2:38:18:fd:4b:57:f2:
         f6:4b:66:90:28:6e:4d:4b:35:3b:bb:91:36:65:9f:24:19:74:
         7e:f5:66:8e
-----BEGIN CERTIFICATE-----
MIIDbTCCAlWgAwIBAgIBAzANBgkqhkiG9w0BAQsFADAPMQ0wCwYDVQQDDARSb290
MB4XDTE1MDEwMTEyMDAwMFoXDTE2MDEwMTEyMDAwMFowFzEVMBMGA1UEAwwMSW50
ZXJtZWRpYXRlMIIBIjANBgkqhkiG9w0BAQEFAAOCAQ8AMIIBCgKCAQEAxBdT0lRr
egPQQixuvjZdKnBeYK6ZB08uRgU+wVkQNvQwLXZtPpPx+UrE/gddxVQPH4DO8j88
0WWUqm5N975lWCB9JsYn1iZlFWaPmFvoHtQ2hJhdTZ1CUs9DS735+MKw/xcdpSRz
AxYrKWC3ZntXN4CrEZooIxFI5eA604IaInw8YArt4lonfqcVdlsJrTlcFJM1oto6
RfecdKwkZKy4W3VeW6gS+VnLc24SrMUZC/l0C2LmtbP2nYo9oaFLOflD2sekOeuC
if+d1BTtVMvb4ZqjQN38ha/IhdeVwBCTibAV6Z89uef/ZV0BXR97pCh38QuQMDwZ
Y7hOuL5j4NzARwIDAQABo4HLMIHIMB0GA1UdDgQWBBR18edwYaqiS24iTojv8WW2
v9hunzAfBgNVHSMEGDAWgBQkiTik3pnBVtHBoSLDndxNbRrN8zA3BggrBgEFBQcB
AQQrMCkwJwYIKwYBBQUHMAKGG2h0dHA6Ly91cmwtZm9yLWFpYS9Sb290LmNlcjAs
BgNVHR8EJTAjMCGgH6AdhhtodHRwOi8vdXJsLWZvci1jcmwvUm9vdC5jcmwwDgYD
VR0PAQH/BAQDAgEGMA8GA1UdEwEB/wQFMAMBAf8wDQYJKoZIhvcNAQELBQADggEB
AJNvfnORAcs7Gg5ttyX1A11Jdh9GaMdAXsY3R8UnLJrDR1zzd32h0/Lbe5Pk3pLq
OxuXx/BEoVoKJH+iRKw5UlUBEvhOhaNk3XXASoQhdGDUl9cUmd7Kws629L49yoDn
+xNOt6Ke/ywlcISvfTGpbFRvoVo7O2eN2fT/R7Es5JrKtmbR33GsFZD99HBjAkqt
7htlVd9gT9ZoHkSjq5kcOfy+xmVqfZlEGIgNNB+g/XDxrtSc5ygSp7zVatiyelv1
6ROgCG22hbOazfdI01YaJjKsX8B1TpN2oxTXMVxVskrE+M/q0jgY/UtX8vZLZpAo
bk1LNTu7kTZlnyQZdH71Zo4=
-----END CERTIFICATE-----

Certificate:
    Data:
        Version: 3 (0x2)
        Serial Number: 1 (0x1)
    Signature Algorithm: sha256WithRSAEncryption
        Issuer: CN=Root
        Validity
            Not Before: Jan  1 12:00:00 2015 GMT
            Not After : Jan  1 12:00:00 2016 GMT
        Subject: CN=Root
        Subject Public Key Info:
            Public Key Algorithm: rsaEncryption
                Public-Key: (2048 bit)
                Modulus:
                    00:d1:40:a2:a7:c5:41:34:03:46:71:64:b9:5d:aa:
                    87:a9:1e:3a:0d:b2:48:77:25:11:e3:f0:78:f6:37:
                    94:60:2e:05:90:8d:90:49:0a:c5:c8:c2:5e:3f:5f:
                    46:e8:cd:f9:aa:6e:ae:64:cb:ea:16:b8:79:16:16:
                    96:7e:7f:13:2a:6e:ce:90:58:00:ff:9f:ae:ba:23:
                    d5:b7:8b:c3:93:55:bc:cc:af:8a:ff:96:a3:ee:25:
                    44:77:11:91:ae:b5:0e:ab:66:b4:d6:99:ea:b6:f3:
                    05:1d:a7:eb:e0:d9:55:66:dd:ac:00:a8:ae:63:24:
                    a5:d3:4d:24:35:89:93:fb:34:73:69:0c:33:14:3a:
                    45:5e:17:3a:81:7c:3b:02:b9:48:87:fc:c8:e6:36:
                    5b:2f:c7:df:d5:c8:eb:b2:82:8b:c4:2f:b1:ce:b5:
                    f4:1f:55:a0:54:cb:2d:26:b0:92:1e:3c:55:03:9a:
                    54:83:95:91:39:1c:f5:6b:60:7b:63:ad:44:63:9a:
                    46:27:87:c2:9a:7a:ca:78:dc:31:af:14:ef:a5:15:
                    58:2f:6f:ce:e6:2d:8a:4b:af:98:cc:4d:4c:52:dc:
                    c3:0f:39:a0:39:5e:24:33:e0:58:94:79:9d:48:f4:
                    f5:7f:bb:d4:15:32:00:5f:64:4e:62:33:29:cc:50:
                    6e:a1
                Exponent: 65537 (0x10001)
        X509v3 extensions:
            X509v3 Subject Key Identifier: 
                24:89:38:A4:DE:99:C1:56:D1:C1:A1:22:C3:9D:DC:4D:6D:1A:CD:F3
            X509v3 Authority Key Identifier: 
                keyid:24:89:38:A4:DE:99:C1:56:D1:C1:A1:22:C3:9D:DC:4D:6D:1A:CD:F3

            Authority Information Access: 
                CA Issuers - URI:http://url-for-aia/Root.cer

            X509v3 CRL Distribution Points: 

                Full Name:
                  URI:http://url-for-crl/Root.crl

            X509v3 Key Usage: critical
                Certificate Sign, CRL Sign
            X509v3 Basic Constraints: critical
                CA:TRUE
    Signature Algorithm: sha256WithRSAEncryption
         2a:e0:34:e1:7b:4b:20:9b:64:ae:3a:e8:55:16:b4:a5:38:16:
         a8:1a:77:4e:38:75:1f:0d:c0:09:9e:6a:33:69:5b:14:84:a8:
         8d:04:35:e9:6c:47:c3:6f:8d:a2:99:93:bc:6e:c1:53:63:2f:
         30:18:c4:57:1d:8f:b6:bf:5e:2f:24:b2:03:cb:c0:0d:bb:ec:
         1b:80:c8:36:59:14:48:53:98:92:fb:77:7c:d8:c6:81:b2:28:
         92:10:de:f3:a4:9e:73:d2:7c:fa:34:7a:f6:1a:22:5b:5d:c2:
         e4:d1:8a:97:6b:2d:0e:88:85:3b:c6:8a:0a:87:84:76:9c:f9:
         68:fe:bd:06:13:08:f8:34:8f:af:41:c2:2e:30:3a:1f:ba:dc:
         32:99:a5:84:e0:07:5d:1c:b6:20:90:79:a5:6e:28:06:d9:9b:
         ee:86:c0:55:2b:a1:f4:6b:1f:ac:8c:d5:98:58:47:2a:cf:0e:
         9e:29:62:73:c8:1c:df:cc:02:69:0c:21:0d:cb:61:54:2d:c7:
         88:51:70:9c:67:0b:0d:64:a0:6e:e0:a9:21:5a:cf:cc:c1:53:
         0c:f7:39:bc:4a:a6:9c:f2:dc:cc:70:b7:88:be:53:14:0d:6a:
         0f:51:b8:63:0d:c8:57:16:2f:07:41:11:7c:b0:6a:cf:9b:ef:
         8a:bc:ea:e6
-----BEGIN TRUST_ANCHOR_UNCONSTRAINED-----
MIIDZTCCAk2gAwIBAgIBATANBgkqhkiG9w0BAQsFADAPMQ0wCwYDVQQDDARSb290
MB4XDTE1MDEwMTEyMDAwMFoXDTE2MDEwMTEyMDAwMFowDzENMAsGA1UEAwwEUm9v
dDCCASIwDQYJKoZIhvcNAQEBBQADggEPADCCAQoCggEBANFAoqfFQTQDRnFkuV2q
h6keOg2ySHclEePwePY3lGAuBZCNkEkKxcjCXj9fRujN+apurmTL6ha4eRYWln5/
EypuzpBYAP+frroj1beLw5NVvMyviv+Wo+4lRHcRka61DqtmtNaZ6rbzBR2n6+DZ
VWbdrACormMkpdNNJDWJk/s0c2kMMxQ6RV4XOoF8OwK5SIf8yOY2Wy/H39XI67KC
i8Qvsc619B9VoFTLLSawkh48VQOaVIOVkTkc9Wtge2OtRGOaRieHwpp6ynjcMa8U
76UVWC9vzuYtikuvmMxNTFLcww85oDleJDPgWJR5nUj09X+71BUyAF9kTmIzKcxQ
bqECAwEAAaOByzCByDAdBgNVHQ4EFgQUJIk4pN6ZwVbRwaEiw53cTW0azfMwHwYD
VR0jBBgwFoAUJIk4pN6ZwVbRwaEiw53cTW0azfMwNwYIKwYBBQUHAQEEKzApMCcG
CCsGAQUFBzAChhtodHRwOi8vdXJsLWZvci1haWEvUm9vdC5jZXIwLAYDVR0fBCUw
IzAhoB+gHYYbaHR0cDovL3VybC1mb3ItY3JsL1Jvb3QuY3JsMA4GA1UdDwEB/wQE
AwIBBjAPBgNVHRMBAf8EBTADAQH/MA0GCSqGSIb3DQEBCwUAA4IBAQAq4DThe0sg
m2SuOuhVFrSlOBaoGndOOHUfDcAJnmozaVsUhKiNBDXpbEfDb42imZO8bsFTYy8w
GMRXHY+2v14vJLIDy8ANu+wbgMg2WRRIU5iS+3d82MaBsiiSEN7zpJ5z0nz6NHr2
GiJbXcLk0YqXay0OiIU7xooKh4R2nPlo/r0GEwj4NI+vQcIuMDofutwymaWE4Add
HLYgkHmlbigG2ZvuhsBVK6H0ax+sjNWYWEcqzw6eKWJzyBzfzAJpDCENy2FULceI
UXCcZwsNZKBu4KkhWs/MwVMM9zm8Sqac8tzMcLeIvlMUDWoPUbhjDchXFi8HQRF8
sGrPm++KvOrm
-----END TRUST_ANCHOR_UNCONSTRAINED-----

150302120000Z
-----BEGIN TIME-----
MTUwMzAyMTIwMDAwWg==
-----END TIME-----

FAIL
-----BEGIN VERIFY_RESULT-----
RkFJTA==
-----END VERIFY_RESULT-----

serverAuth
-----BEGIN KEY_PURPOSE-----
c2VydmVyQXV0aA==
-----END KEY_PURPOSE-----

----- Certificate i=0 (CN=Target) -----
ERROR: Signature verification failed
ERROR: VerifySignedData failed


-----BEGIN ERRORS-----
LS0tLS0gQ2VydGlmaWNhdGUgaT0wIChDTj1UYXJnZXQpIC0tLS0tCkVSUk9SOiBTaWduYXR1cmUgdmVyaWZpY2F0aW9uIGZhaWxlZApFUlJPUjogVmVyaWZ5U2lnbmVkRGF0YSBmYWlsZWQKCg==
-----END ERRORS-----
