[Created by: generate-unconstrained-root-basic-constraints-ca-false.py]

Certificate chain with 1 intermediate and a trust anchor. The trust anchor
has a basic constraints extension that indicates it is NOT a CA. Verification
is expected to succeed as constraints on the root certificate are not applied
to the trust anchor.

Certificate:
    Data:
        Version: 3 (0x2)
        Serial Number: 1 (0x1)
    Signature Algorithm: sha256WithRSAEncryption
        Issuer: CN=Intermediate
        Validity
            Not Before: Jan  1 12:00:00 2015 GMT
            Not After : Jan  1 12:00:00 2016 GMT
        Subject: CN=Target
        Subject Public Key Info:
            Public Key Algorithm: rsaEncryption
                Public-Key: (2048 bit)
                Modulus:
                    00:bc:8b:25:82:f8:93:bd:ae:89:cf:59:59:0a:5a:
                    05:f9:59:76:ef:5a:8a:1a:65:8f:37:99:8b:21:5d:
                    df:47:22:c1:d4:94:88:15:b6:14:ba:c1:ec:b8:ac:
                    da:f7:0f:bb:cf:61:fa:f5:cb:ce:e7:a7:27:15:97:
                    19:3a:28:b6:e6:51:7f:09:20:f0:36:a3:cc:cf:8e:
                    e7:8d:87:c2:3d:d2:66:e7:01:0a:dc:df:fe:eb:5a:
                    4e:8e:07:de:2b:26:95:d3:8f:63:e2:5b:ba:0c:fc:
                    a5:1c:d2:43:ee:7d:90:06:5b:87:23:ad:a7:4f:8e:
                    ee:0e:2a:e3:94:24:ac:d5:f7:bc:ab:2a:66:76:e4:
                    78:0a:3a:15:44:c6:1a:47:9b:3b:54:b6:b7:76:d9:
                    80:5f:d0:07:b8:48:40:00:d0:6e:3e:cd:a4:a5:08:
                    3a:9b:04:c9:68:c5:d5:3b:0d:a2:24:0a:89:ce:09:
                    0c:90:7d:1c:4c:24:7c:99:f0:38:df:76:83:6f:91:
                    5f:54:2a:d9:89:d3:cc:6e:3c:c1:90:9b:95:5c:32:
                    77:fd:6a:5c:fb:9d:c9:5b:b3:e0:9d:93:9f:86:78:
                    6b:69:ad:ce:92:3d:ab:48:e6:d8:7c:fc:b2:55:43:
                    50:d1:2f:6e:a0:5e:d5:e4:99:19:ec:05:5b:d5:f2:
                    2b:fb
                Exponent: 65537 (0x10001)
        X509v3 extensions:
            X509v3 Subject Key Identifier: 
                3B:DE:3D:EC:2F:D9:87:55:C0:F8:45:12:9B:5D:4E:DD:4D:04:19:9A
            X509v3 Authority Key Identifier: 
                keyid:42:65:98:98:17:C6:9F:8F:D0:8C:4C:77:98:94:8A:0A:81:D7:64:D1

            Authority Information Access: 
                CA Issuers - URI:http://url-for-aia/Intermediate.cer

            X509v3 CRL Distribution Points: 

                Full Name:
                  URI:http://url-for-crl/Intermediate.crl

            X509v3 Key Usage: critical
                Digital Signature, Key Encipherment
            X509v3 Extended Key Usage: 
                TLS Web Server Authentication, TLS Web Client Authentication
    Signature Algorithm: sha256WithRSAEncryption
         3b:3a:6d:c6:68:b7:6f:f7:d3:35:38:a9:38:d1:6c:19:e1:65:
         a0:8f:4a:2d:88:e0:ae:a2:d0:41:21:a0:88:ca:0b:07:bf:3b:
         6b:4a:4e:57:96:65:0b:a1:f9:2c:82:dd:5b:4f:ae:27:ee:33:
         2c:10:81:98:79:43:e1:c7:d3:32:0e:cd:c6:7b:c0:ec:f6:f9:
         a5:e1:d9:dd:d8:d8:84:9f:2f:ae:d1:1a:36:ac:a1:c6:3b:23:
         fb:e7:62:5a:eb:e9:80:cb:80:32:b4:d6:d6:79:9d:55:43:63:
         5e:d0:af:a4:19:2d:64:40:8e:6b:bd:ad:72:70:b4:91:97:7b:
         e3:46:22:8f:ac:5b:a0:55:07:09:1e:68:c4:4b:94:1e:3d:e6:
         e3:28:55:5c:ad:20:7c:52:71:e9:24:f6:bd:81:61:53:f0:20:
         06:81:58:af:ed:73:22:9d:71:5d:09:78:9a:bb:dd:53:f1:d1:
         27:48:c7:ef:5b:02:40:56:07:c9:c6:ec:60:88:41:cc:0b:15:
         5c:65:8c:28:15:15:76:19:f9:38:79:f3:3c:1b:de:c2:c6:87:
         f8:d2:f8:48:4e:6e:e8:5a:b8:b0:2e:2a:76:67:95:a9:50:f2:
         ad:2c:6b:d4:c0:72:e0:58:b8:0b:20:5b:bb:84:80:69:50:b9:
         b7:9c:05:9d
-----BEGIN CERTIFICATE-----
MIIDjTCCAnWgAwIBAgIBATANBgkqhkiG9w0BAQsFADAXMRUwEwYDVQQDDAxJbnRl
cm1lZGlhdGUwHhcNMTUwMTAxMTIwMDAwWhcNMTYwMTAxMTIwMDAwWjARMQ8wDQYD
VQQDDAZUYXJnZXQwggEiMA0GCSqGSIb3DQEBAQUAA4IBDwAwggEKAoIBAQC8iyWC
+JO9ronPWVkKWgX5WXbvWooaZY83mYshXd9HIsHUlIgVthS6wey4rNr3D7vPYfr1
y87npycVlxk6KLbmUX8JIPA2o8zPjueNh8I90mbnAQrc3/7rWk6OB94rJpXTj2Pi
W7oM/KUc0kPufZAGW4cjradPju4OKuOUJKzV97yrKmZ25HgKOhVExhpHmztUtrd2
2YBf0Ae4SEAA0G4+zaSlCDqbBMloxdU7DaIkConOCQyQfRxMJHyZ8DjfdoNvkV9U
KtmJ08xuPMGQm5VcMnf9alz7nclbs+Cdk5+GeGtprc6SPatI5th8/LJVQ1DRL26g
XtXkmRnsBVvV8iv7AgMBAAGjgekwgeYwHQYDVR0OBBYEFDvePewv2YdVwPhFEptd
Tt1NBBmaMB8GA1UdIwQYMBaAFEJlmJgXxp+P0IxMd5iUigqB12TRMD8GCCsGAQUF
BwEBBDMwMTAvBggrBgEFBQcwAoYjaHR0cDovL3VybC1mb3ItYWlhL0ludGVybWVk
aWF0ZS5jZXIwNAYDVR0fBC0wKzApoCegJYYjaHR0cDovL3VybC1mb3ItY3JsL0lu
dGVybWVkaWF0ZS5jcmwwDgYDVR0PAQH/BAQDAgWgMB0GA1UdJQQWMBQGCCsGAQUF
BwMBBggrBgEFBQcDAjANBgkqhkiG9w0BAQsFAAOCAQEAOzptxmi3b/fTNTipONFs
GeFloI9KLYjgrqLQQSGgiMoLB787a0pOV5ZlC6H5LILdW0+uJ+4zLBCBmHlD4cfT
Mg7NxnvA7Pb5peHZ3djYhJ8vrtEaNqyhxjsj++diWuvpgMuAMrTW1nmdVUNjXtCv
pBktZECOa72tcnC0kZd740Yij6xboFUHCR5oxEuUHj3m4yhVXK0gfFJx6ST2vYFh
U/AgBoFYr+1zIp1xXQl4mrvdU/HRJ0jH71sCQFYHycbsYIhBzAsVXGWMKBUVdhn5
OHnzPBvewsaH+NL4SE5u6Fq4sC4qdmeVqVDyrSxr1MBy4Fi4CyBbu4SAaVC5t5wF
nQ==
-----END CERTIFICATE-----

Certificate:
    Data:
        Version: 3 (0x2)
        Serial Number: 2 (0x2)
    Signature Algorithm: sha256WithRSAEncryption
        Issuer: CN=Root
        Validity
            Not Before: Jan  1 12:00:00 2015 GMT
            Not After : Jan  1 12:00:00 2016 GMT
        Subject: CN=Intermediate
        Subject Public Key Info:
            Public Key Algorithm: rsaEncryption
                Public-Key: (2048 bit)
                Modulus:
                    00:c3:e9:a8:bd:06:60:69:85:3a:a7:f0:03:c0:2a:
                    af:29:6c:9e:43:70:27:de:bf:59:4c:a1:8a:b0:25:
                    54:93:d4:5d:50:37:f6:97:88:c1:14:95:cc:ae:d9:
                    4f:b7:b2:b4:79:43:67:2e:94:02:13:87:9d:96:8d:
                    8b:11:04:27:d9:77:6d:d1:46:fa:c0:39:a9:1d:38:
                    9e:96:06:fb:d9:43:49:de:ed:92:7a:a2:74:48:c6:
                    06:8e:52:22:53:57:05:b1:3a:89:8d:d6:33:a1:46:
                    10:87:fd:3d:72:de:7d:d3:12:ab:f8:1a:26:06:41:
                    de:09:bb:b6:50:58:b6:48:69:4a:d7:c9:b0:23:b5:
                    0d:bf:e5:11:0c:03:ed:42:37:79:91:86:cd:c6:95:
                    3e:8b:4e:8e:85:79:44:22:0f:ab:8b:37:9c:46:55:
                    d1:3c:4e:80:bc:35:37:b7:c7:ee:f7:b4:49:0c:33:
                    67:8d:9f:61:72:02:23:2a:74:5f:f5:9c:d8:4b:02:
                    bf:47:c7:d9:b2:13:6b:0e:79:3d:cd:8e:d8:90:be:
                    96:5e:1b:4f:ad:a5:65:85:39:5f:c3:d9:99:43:09:
                    8a:cf:0a:4f:a5:87:64:f3:08:7c:b0:4c:59:e7:22:
                    dd:5d:97:d1:a6:68:b0:ee:fc:7d:bc:ec:50:15:fd:
                    b5:01
                Exponent: 65537 (0x10001)
        X509v3 extensions:
            X509v3 Subject Key Identifier: 
                42:65:98:98:17:C6:9F:8F:D0:8C:4C:77:98:94:8A:0A:81:D7:64:D1
            X509v3 Authority Key Identifier: 
                keyid:33:6B:8D:78:C0:44:69:F0:4C:2A:3C:D6:97:9C:61:81:70:86:42:C7

            Authority Information Access: 
                CA Issuers - URI:http://url-for-aia/Root.cer

            X509v3 CRL Distribution Points: 

                Full Name:
                  URI:http://url-for-crl/Root.crl

            X509v3 Key Usage: critical
                Certificate Sign, CRL Sign
            X509v3 Basic Constraints: critical
                CA:TRUE
    Signature Algorithm: sha256WithRSAEncryption
         1f:29:f6:78:fc:b5:44:a5:bf:ab:a3:bc:35:44:b9:52:01:09:
         3f:5f:dd:97:5e:d0:2b:ed:3d:f1:de:0c:47:a0:97:b6:7b:fe:
         43:c1:79:05:f2:b5:e7:9d:10:c6:12:0f:86:a7:d1:dd:57:d0:
         dc:c7:73:62:37:6f:07:39:2a:6c:7a:7a:b8:a7:7e:dc:62:09:
         54:e8:4f:5e:31:e2:d4:8f:a5:aa:91:cc:a0:a3:b9:85:d6:0b:
         66:7d:f2:77:40:25:48:10:a1:fc:ce:b2:5c:15:0c:af:0e:a2:
         9f:eb:c7:e5:9a:00:de:85:1b:b9:9b:54:a4:68:f7:7c:b5:dd:
         6a:bb:27:01:9c:b5:8f:8a:b9:2e:b3:88:8d:17:29:1f:ee:c0:
         e1:7c:ef:5b:15:27:c2:a0:29:bb:2a:a9:f4:ba:b7:3a:f2:9d:
         17:75:3a:39:05:2f:90:23:9a:9a:82:6d:d7:7b:31:88:03:40:
         50:99:62:a9:e6:04:2c:d4:8f:2c:85:12:1e:c9:d0:e5:f4:ea:
         8c:d5:55:a4:95:e4:03:5a:d1:4e:f2:27:a2:95:7f:6f:31:45:
         ed:ca:4f:20:5e:30:e4:65:cf:40:14:3a:97:c6:d0:b2:4e:b3:
         dc:df:70:ed:c8:41:de:1e:15:63:19:51:52:7e:b0:87:9d:ba:
         03:b0:70:72
-----BEGIN CERTIFICATE-----
MIIDbTCCAlWgAwIBAgIBAjANBgkqhkiG9w0BAQsFADAPMQ0wCwYDVQQDDARSb290
MB4XDTE1MDEwMTEyMDAwMFoXDTE2MDEwMTEyMDAwMFowFzEVMBMGA1UEAwwMSW50
ZXJtZWRpYXRlMIIBIjANBgkqhkiG9w0BAQEFAAOCAQ8AMIIBCgKCAQEAw+movQZg
aYU6p/ADwCqvKWyeQ3An3r9ZTKGKsCVUk9RdUDf2l4jBFJXMrtlPt7K0eUNnLpQC
E4edlo2LEQQn2Xdt0Ub6wDmpHTielgb72UNJ3u2SeqJ0SMYGjlIiU1cFsTqJjdYz
oUYQh/09ct590xKr+BomBkHeCbu2UFi2SGlK18mwI7UNv+URDAPtQjd5kYbNxpU+
i06OhXlEIg+rizecRlXRPE6AvDU3t8fu97RJDDNnjZ9hcgIjKnRf9ZzYSwK/R8fZ
shNrDnk9zY7YkL6WXhtPraVlhTlfw9mZQwmKzwpPpYdk8wh8sExZ5yLdXZfRpmiw
7vx9vOxQFf21AQIDAQABo4HLMIHIMB0GA1UdDgQWBBRCZZiYF8afj9CMTHeYlIoK
gddk0TAfBgNVHSMEGDAWgBQza414wERp8EwqPNaXnGGBcIZCxzA3BggrBgEFBQcB
AQQrMCkwJwYIKwYBBQUHMAKGG2h0dHA6Ly91cmwtZm9yLWFpYS9Sb290LmNlcjAs
BgNVHR8EJTAjMCGgH6AdhhtodHRwOi8vdXJsLWZvci1jcmwvUm9vdC5jcmwwDgYD
VR0PAQH/BAQDAgEGMA8GA1UdEwEB/wQFMAMBAf8wDQYJKoZIhvcNAQELBQADggEB
AB8p9nj8tUSlv6ujvDVEuVIBCT9f3Zde0CvtPfHeDEegl7Z7/kPBeQXyteedEMYS
D4an0d1X0NzHc2I3bwc5Kmx6erinftxiCVToT14x4tSPpaqRzKCjuYXWC2Z98ndA
JUgQofzOslwVDK8Oop/rx+WaAN6FG7mbVKRo93y13Wq7JwGctY+KuS6ziI0XKR/u
wOF871sVJ8KgKbsqqfS6tzrynRd1OjkFL5AjmpqCbdd7MYgDQFCZYqnmBCzUjyyF
Eh7J0OX06ozVVaSV5ANa0U7yJ6KVf28xRe3KTyBeMORlz0AUOpfG0LJOs9zfcO3I
Qd4eFWMZUVJ+sIedugOwcHI=
-----END CERTIFICATE-----

Certificate:
    Data:
        Version: 3 (0x2)
        Serial Number: 1 (0x1)
    Signature Algorithm: sha256WithRSAEncryption
        Issuer: CN=Root
        Validity
            Not Before: Jan  1 12:00:00 2015 GMT
            Not After : Jan  1 12:00:00 2016 GMT
        Subject: CN=Root
        Subject Public Key Info:
            Public Key Algorithm: rsaEncryption
                Public-Key: (2048 bit)
                Modulus:
                    00:cb:e5:ad:13:ed:b3:af:87:37:d4:06:0d:fa:79:
                    79:4c:d1:e8:6b:7d:65:e7:52:8e:87:27:21:d4:22:
                    40:47:08:d4:74:86:7b:67:3e:91:b4:ff:d7:79:0a:
                    e6:1e:d8:7f:1f:1f:5d:b5:02:e3:2a:af:a1:93:89:
                    83:ae:71:7c:64:06:64:fc:ff:08:92:b0:ab:16:21:
                    87:5f:3a:05:8c:d6:64:42:5e:13:c0:fc:6e:38:d1:
                    d1:65:2b:a5:6a:10:ba:ba:f0:f0:0f:f5:3a:23:c5:
                    cf:ee:39:a1:51:35:84:1d:1f:23:20:e5:64:31:2c:
                    b5:d4:ac:70:47:a8:7d:ef:45:f5:04:53:a7:e0:7d:
                    cc:ea:b4:58:13:bb:9c:f6:0b:5b:ac:9b:a8:61:f3:
                    ac:a2:8e:94:82:28:8a:ab:16:57:cd:9e:75:1c:6b:
                    6c:8f:33:47:28:e2:fc:91:82:d7:81:df:9c:27:3b:
                    dd:6e:97:b1:67:9a:2a:cc:dd:54:c7:b7:e8:d6:57:
                    c1:41:8f:18:e3:68:7f:62:33:36:dc:26:53:f5:15:
                    c5:97:82:54:71:b6:44:dd:52:7b:ca:af:de:2f:66:
                    70:a2:aa:8e:f1:8b:57:46:76:51:1d:38:ef:4f:b2:
                    4c:45:ca:f0:44:da:f8:7d:07:90:64:42:e5:18:33:
                    9d:b1
                Exponent: 65537 (0x10001)
        X509v3 extensions:
            X509v3 Subject Key Identifier: 
                33:6B:8D:78:C0:44:69:F0:4C:2A:3C:D6:97:9C:61:81:70:86:42:C7
            X509v3 Authority Key Identifier: 
                keyid:33:6B:8D:78:C0:44:69:F0:4C:2A:3C:D6:97:9C:61:81:70:86:42:C7

            Authority Information Access: 
                CA Issuers - URI:http://url-for-aia/Root.cer

            X509v3 CRL Distribution Points: 

                Full Name:
                  URI:http://url-for-crl/Root.crl

            X509v3 Key Usage: critical
                Certificate Sign, CRL Sign
            X509v3 Basic Constraints: critical
                CA:FALSE
    Signature Algorithm: sha256WithRSAEncryption
         15:0d:7f:73:f4:b2:c3:bc:a2:c4:e4:d4:4f:2a:d9:59:40:6c:
         85:d6:47:3c:b9:bd:78:4e:6f:f5:2a:fe:17:03:21:2f:16:eb:
         2c:69:1b:1d:da:d3:c7:80:44:c0:64:eb:7e:08:92:64:57:f3:
         cd:ef:4f:4f:96:c9:5f:61:03:1e:15:7c:b1:34:db:83:4f:77:
         76:7d:8a:19:38:f5:c8:a6:5b:19:2f:96:6d:d0:35:b7:d7:52:
         8c:52:2b:f5:6f:b2:ec:5e:4e:5a:22:7e:7a:25:33:b7:20:12:
         6a:89:a4:f4:49:47:82:13:59:c8:c8:0c:1b:83:d0:03:13:dc:
         e7:fa:77:66:c1:cd:95:8e:71:b3:63:ce:1d:cd:66:b9:f0:f0:
         46:7d:cc:60:0f:4f:82:81:c6:48:71:61:09:73:bd:65:1d:93:
         26:7c:55:9b:35:62:af:98:0c:4d:ce:3e:32:3b:1e:80:07:26:
         5b:9a:fd:29:de:f0:60:7c:37:34:4e:d0:42:c7:d2:14:7a:41:
         ac:e9:d7:f4:70:d0:14:2b:3d:4c:cf:a1:11:a0:3a:93:22:44:
         7c:ef:8d:01:60:2d:92:72:45:57:41:4b:c2:26:21:31:e0:54:
         cd:e0:8f:0c:a0:d7:90:86:1f:4d:03:3f:ac:e6:12:26:a9:2a:
         9d:34:3f:e1
-----BEGIN TRUST_ANCHOR_UNCONSTRAINED-----
MIIDYjCCAkqgAwIBAgIBATANBgkqhkiG9w0BAQsFADAPMQ0wCwYDVQQDDARSb290
MB4XDTE1MDEwMTEyMDAwMFoXDTE2MDEwMTEyMDAwMFowDzENMAsGA1UEAwwEUm9v
dDCCASIwDQYJKoZIhvcNAQEBBQADggEPADCCAQoCggEBAMvlrRPts6+HN9QGDfp5
eUzR6Gt9ZedSjocnIdQiQEcI1HSGe2c+kbT/13kK5h7Yfx8fXbUC4yqvoZOJg65x
fGQGZPz/CJKwqxYhh186BYzWZEJeE8D8bjjR0WUrpWoQurrw8A/1OiPFz+45oVE1
hB0fIyDlZDEstdSscEeofe9F9QRTp+B9zOq0WBO7nPYLW6ybqGHzrKKOlIIoiqsW
V82edRxrbI8zRyji/JGC14HfnCc73W6XsWeaKszdVMe36NZXwUGPGONof2IzNtwm
U/UVxZeCVHG2RN1Se8qv3i9mcKKqjvGLV0Z2UR0470+yTEXK8ETa+H0HkGRC5Rgz
nbECAwEAAaOByDCBxTAdBgNVHQ4EFgQUM2uNeMBEafBMKjzWl5xhgXCGQscwHwYD
VR0jBBgwFoAUM2uNeMBEafBMKjzWl5xhgXCGQscwNwYIKwYBBQUHAQEEKzApMCcG
CCsGAQUFBzAChhtodHRwOi8vdXJsLWZvci1haWEvUm9vdC5jZXIwLAYDVR0fBCUw
IzAhoB+gHYYbaHR0cDovL3VybC1mb3ItY3JsL1Jvb3QuY3JsMA4GA1UdDwEB/wQE
AwIBBjAMBgNVHRMBAf8EAjAAMA0GCSqGSIb3DQEBCwUAA4IBAQAVDX9z9LLDvKLE
5NRPKtlZQGyF1kc8ub14Tm/1Kv4XAyEvFussaRsd2tPHgETAZOt+CJJkV/PN709P
lslfYQMeFXyxNNuDT3d2fYoZOPXIplsZL5Zt0DW311KMUiv1b7LsXk5aIn56JTO3
IBJqiaT0SUeCE1nIyAwbg9ADE9zn+ndmwc2VjnGzY84dzWa58PBGfcxgD0+CgcZI
cWEJc71lHZMmfFWbNWKvmAxNzj4yOx6AByZbmv0p3vBgfDc0TtBCx9IUekGs6df0
cNAUKz1Mz6ERoDqTIkR8740BYC2SckVXQUvCJiEx4FTN4I8MoNeQhh9NAz+s5hIm
qSqdND/h
-----END TRUST_ANCHOR_UNCONSTRAINED-----

150302120000Z
-----BEGIN TIME-----
MTUwMzAyMTIwMDAwWg==
-----END TIME-----

SUCCESS
-----BEGIN VERIFY_RESULT-----
U1VDQ0VTUw==
-----END VERIFY_RESULT-----

serverAuth
-----BEGIN KEY_PURPOSE-----
c2VydmVyQXV0aA==
-----END KEY_PURPOSE-----
