[Created by: generate-unconstrained-non-self-signed-root.py]

Certificate chain with 1 intermediate and a non-self-signed trust anchor.
Verification should succeed, it doesn't matter that the root was not
self-signed if it is designated as the trust anchor.

Certificate:
    Data:
        Version: 3 (0x2)
        Serial Number: 1 (0x1)
    Signature Algorithm: sha256WithRSAEncryption
        Issuer: CN=Intermediate
        Validity
            Not Before: Jan  1 12:00:00 2015 GMT
            Not After : Jan  1 12:00:00 2016 GMT
        Subject: CN=Target
        Subject Public Key Info:
            Public Key Algorithm: rsaEncryption
                Public-Key: (2048 bit)
                Modulus:
                    00:b9:2c:8d:95:c6:27:02:ce:a2:d2:00:96:04:7e:
                    f5:b9:10:03:36:01:4a:9a:29:ba:7a:0d:8b:45:c8:
                    e8:2a:11:ad:c5:05:30:37:88:5e:94:90:04:71:cd:
                    e0:9a:f0:4d:35:36:94:81:e5:26:fa:d1:8b:90:4b:
                    8f:95:39:7d:05:be:98:c4:08:a6:41:8b:9b:05:7a:
                    8f:d1:a3:fe:94:de:0b:21:39:67:eb:fd:ea:49:9e:
                    ed:07:61:1c:67:d3:7b:7b:56:5c:e3:c8:4d:04:ee:
                    55:ee:bd:32:c7:00:47:cf:58:f2:30:07:a7:16:28:
                    8e:42:b1:4d:60:5f:bf:bf:dc:f7:fe:c7:f5:e1:62:
                    3c:e7:2b:03:c0:06:c4:7a:f6:cd:18:ad:77:f9:20:
                    dc:8f:6f:d8:01:96:9f:9d:a5:4c:f7:a4:9d:e8:f2:
                    0d:0b:65:90:b2:b6:70:d5:c7:59:79:7c:a3:9a:f4:
                    3a:9f:6c:be:f8:80:7c:1b:f7:3e:2f:87:9a:0a:88:
                    0c:97:18:ec:9b:b8:c2:58:7e:69:ca:3b:15:15:05:
                    8e:53:9d:57:dc:b2:c3:a6:6d:ee:6e:ac:c6:b7:bf:
                    90:e1:d9:a9:ba:d6:e6:cd:b7:16:7e:71:1f:cb:17:
                    50:8d:fb:07:9d:de:a4:85:18:ad:e4:bf:5d:61:99:
                    5b:d7
                Exponent: 65537 (0x10001)
        X509v3 extensions:
            X509v3 Subject Key Identifier: 
                8F:4D:BE:5B:BD:9D:C2:F2:F1:42:C8:5C:BF:6F:CE:06:D5:DD:54:53
            X509v3 Authority Key Identifier: 
                keyid:32:22:10:47:EB:DD:97:C7:8C:D2:2A:73:D0:4A:18:4D:A4:0A:B2:A6

            Authority Information Access: 
                CA Issuers - URI:http://url-for-aia/Intermediate.cer

            X509v3 CRL Distribution Points: 

                Full Name:
                  URI:http://url-for-crl/Intermediate.crl

            X509v3 Key Usage: critical
                Digital Signature, Key Encipherment
            X509v3 Extended Key Usage: 
                TLS Web Server Authentication, TLS Web Client Authentication
    Signature Algorithm: sha256WithRSAEncryption
         a9:e1:1a:0f:10:f0:2d:fa:8b:06:ae:a5:5e:0f:af:4d:3f:76:
         e9:74:6b:7b:85:ff:c6:bc:ba:b0:82:15:a3:05:b1:f5:78:16:
         c9:12:88:88:27:54:1a:f9:ee:8d:29:2b:17:86:2f:62:8b:ba:
         8b:73:3b:fa:36:5e:71:fd:c6:9a:9a:52:85:2c:0e:4e:b5:ee:
         79:75:6e:d0:55:79:ea:8b:72:6f:89:db:98:4a:f8:74:3a:a9:
         b3:3a:48:d7:59:df:bc:2c:e5:08:1d:a7:1b:ae:5e:11:a4:42:
         ec:42:c7:e7:b1:8d:52:1e:d9:d3:e5:be:e2:33:b0:df:a4:eb:
         d4:77:bc:95:0e:ac:9b:f4:39:0c:28:e6:55:86:8a:6d:f6:c9:
         54:97:59:63:22:d3:0e:02:fc:15:c8:94:e2:61:4f:bc:5f:2f:
         04:fb:e6:91:5d:ed:7b:e5:29:d2:d7:56:2b:5c:2e:87:6a:3f:
         ac:af:7e:a6:d0:f4:2d:fe:73:cd:b0:af:ce:93:8b:75:93:07:
         d8:e9:0d:f2:34:fe:37:75:b7:c2:30:6b:20:5f:e3:5c:92:73:
         03:8b:38:fe:6a:b8:df:20:86:54:14:0c:de:75:18:cb:87:ce:
         64:06:10:6b:09:83:0a:8d:59:e3:9b:fb:09:51:ea:08:88:d2:
         61:9e:c9:90
-----BEGIN CERTIFICATE-----
MIIDjTCCAnWgAwIBAgIBATANBgkqhkiG9w0BAQsFADAXMRUwEwYDVQQDDAxJbnRl
cm1lZGlhdGUwHhcNMTUwMTAxMTIwMDAwWhcNMTYwMTAxMTIwMDAwWjARMQ8wDQYD
VQQDDAZUYXJnZXQwggEiMA0GCSqGSIb3DQEBAQUAA4IBDwAwggEKAoIBAQC5LI2V
xicCzqLSAJYEfvW5EAM2AUqaKbp6DYtFyOgqEa3FBTA3iF6UkARxzeCa8E01NpSB
5Sb60YuQS4+VOX0FvpjECKZBi5sFeo/Ro/6U3gshOWfr/epJnu0HYRxn03t7Vlzj
yE0E7lXuvTLHAEfPWPIwB6cWKI5CsU1gX7+/3Pf+x/XhYjznKwPABsR69s0YrXf5
INyPb9gBlp+dpUz3pJ3o8g0LZZCytnDVx1l5fKOa9DqfbL74gHwb9z4vh5oKiAyX
GOybuMJYfmnKOxUVBY5TnVfcssOmbe5urMa3v5Dh2am61ubNtxZ+cR/LF1CN+wed
3qSFGK3kv11hmVvXAgMBAAGjgekwgeYwHQYDVR0OBBYEFI9Nvlu9ncLy8ULIXL9v
zgbV3VRTMB8GA1UdIwQYMBaAFDIiEEfr3ZfHjNIqc9BKGE2kCrKmMD8GCCsGAQUF
BwEBBDMwMTAvBggrBgEFBQcwAoYjaHR0cDovL3VybC1mb3ItYWlhL0ludGVybWVk
aWF0ZS5jZXIwNAYDVR0fBC0wKzApoCegJYYjaHR0cDovL3VybC1mb3ItY3JsL0lu
dGVybWVkaWF0ZS5jcmwwDgYDVR0PAQH/BAQDAgWgMB0GA1UdJQQWMBQGCCsGAQUF
BwMBBggrBgEFBQcDAjANBgkqhkiG9w0BAQsFAAOCAQEAqeEaDxDwLfqLBq6lXg+v
TT926XRre4X/xry6sIIVowWx9XgWyRKIiCdUGvnujSkrF4YvYou6i3M7+jZecf3G
mppShSwOTrXueXVu0FV56otyb4nbmEr4dDqpszpI11nfvCzlCB2nG65eEaRC7ELH
57GNUh7Z0+W+4jOw36Tr1He8lQ6sm/Q5DCjmVYaKbfbJVJdZYyLTDgL8FciU4mFP
vF8vBPvmkV3te+Up0tdWK1wuh2o/rK9+ptD0Lf5zzbCvzpOLdZMH2OkN8jT+N3W3
wjBrIF/jXJJzA4s4/mq43yCGVBQM3nUYy4fOZAYQawmDCo1Z45v7CVHqCIjSYZ7J
kA==
-----END CERTIFICATE-----

Certificate:
    Data:
        Version: 3 (0x2)
        Serial Number: 1 (0x1)
    Signature Algorithm: sha256WithRSAEncryption
        Issuer: CN=Root
        Validity
            Not Before: Jan  1 12:00:00 2015 GMT
            Not After : Jan  1 12:00:00 2016 GMT
        Subject: CN=Intermediate
        Subject Public Key Info:
            Public Key Algorithm: rsaEncryption
                Public-Key: (2048 bit)
                Modulus:
                    00:e8:a1:9b:a4:11:54:c2:c3:be:56:99:ba:f9:e9:
                    65:30:d5:35:55:27:f8:16:41:41:e1:8f:fb:f5:d8:
                    31:65:4e:a0:30:f0:51:d5:fb:5f:cd:6d:b5:e6:e6:
                    2c:b5:35:1d:d4:c9:06:93:cb:85:6d:f8:f9:e2:a3:
                    07:74:e5:97:7a:e6:49:dc:6c:26:1f:2d:67:7c:e3:
                    77:e8:fd:3b:91:ab:64:ef:6c:8a:64:90:dd:72:c7:
                    76:35:64:ab:66:0b:03:83:bc:23:80:a4:04:ea:8d:
                    b7:23:f1:f6:ca:f2:46:f1:bf:da:ce:58:06:d4:08:
                    a9:de:12:57:cc:68:99:0f:d4:0a:8b:ea:61:ce:f3:
                    7c:6a:4e:3d:95:92:ef:9c:be:43:57:ae:a3:3c:9f:
                    6c:a7:4a:16:c4:3e:6a:05:e2:e0:a4:b9:05:a9:ce:
                    e5:cf:cd:d1:e5:7b:fe:e9:89:3d:49:9e:b2:85:00:
                    18:5b:58:54:bd:4c:3e:b8:54:f0:13:27:e4:2a:e4:
                    22:41:63:a7:4c:47:d6:e0:80:38:09:50:8d:97:b4:
                    d6:f9:35:67:1f:e1:ee:26:12:a9:8a:77:bc:92:96:
                    d3:71:a0:c4:eb:94:2a:9b:a2:8b:e6:08:8d:e1:58:
                    e6:ba:48:6b:6b:d6:b5:e5:31:67:7c:1d:7b:3d:92:
                    a2:5d
                Exponent: 65537 (0x10001)
        X509v3 extensions:
            X509v3 Subject Key Identifier: 
                32:22:10:47:EB:DD:97:C7:8C:D2:2A:73:D0:4A:18:4D:A4:0A:B2:A6
            X509v3 Authority Key Identifier: 
                keyid:EE:56:5C:40:82:7C:4B:4F:83:C7:A6:2E:07:25:AB:45:D4:09:A7:B7

            Authority Information Access: 
                CA Issuers - URI:http://url-for-aia/Root.cer

            X509v3 CRL Distribution Points: 

                Full Name:
                  URI:http://url-for-crl/Root.crl

            X509v3 Key Usage: critical
                Certificate Sign, CRL Sign
            X509v3 Basic Constraints: critical
                CA:TRUE
    Signature Algorithm: sha256WithRSAEncryption
         29:cf:6e:f8:a7:1a:6f:71:a2:fe:a7:cd:2d:41:31:73:68:df:
         08:3e:72:3e:45:67:8b:b2:4c:4c:dd:45:3b:4e:64:78:e8:84:
         54:ac:e7:0b:c6:87:66:ad:cf:b5:83:7d:c0:3b:7c:b7:05:8d:
         08:23:1e:7c:a5:f9:49:6e:f5:b3:2d:1c:db:79:cc:9c:da:6a:
         b4:dc:74:92:32:87:8b:04:6e:f2:81:87:dc:12:a3:bc:5c:1c:
         0d:5d:3c:52:75:44:b1:fc:b0:d2:d4:0e:50:3e:41:e7:a4:0b:
         bd:4f:f4:55:bb:56:f3:43:6d:e7:55:28:86:41:4d:aa:69:7e:
         ea:39:1e:0e:6c:85:b3:2b:36:29:de:db:59:fd:70:19:7c:af:
         80:20:9c:dd:d3:f0:21:f0:a9:66:5e:f0:b8:6e:9a:24:7f:17:
         53:68:a1:24:b9:40:24:5a:c4:71:b2:a9:02:c8:c8:43:98:5f:
         57:dd:a0:e5:de:3d:93:3d:71:76:a8:a4:09:da:7f:d2:31:49:
         16:c5:55:f7:42:73:fd:57:1d:1f:b9:72:4c:0e:ec:8d:f2:92:
         74:35:dd:28:a6:18:2c:b0:30:6d:5f:c7:32:7f:f4:fa:40:da:
         e0:5a:56:f0:7e:af:ea:e3:6a:d5:1c:10:b4:1b:ed:ee:d0:6e:
         86:ac:e7:1f
-----BEGIN CERTIFICATE-----
MIIDbTCCAlWgAwIBAgIBATANBgkqhkiG9w0BAQsFADAPMQ0wCwYDVQQDDARSb290
MB4XDTE1MDEwMTEyMDAwMFoXDTE2MDEwMTEyMDAwMFowFzEVMBMGA1UEAwwMSW50
ZXJtZWRpYXRlMIIBIjANBgkqhkiG9w0BAQEFAAOCAQ8AMIIBCgKCAQEA6KGbpBFU
wsO+Vpm6+ellMNU1VSf4FkFB4Y/79dgxZU6gMPBR1ftfzW215uYstTUd1MkGk8uF
bfj54qMHdOWXeuZJ3GwmHy1nfON36P07katk72yKZJDdcsd2NWSrZgsDg7wjgKQE
6o23I/H2yvJG8b/azlgG1Aip3hJXzGiZD9QKi+phzvN8ak49lZLvnL5DV66jPJ9s
p0oWxD5qBeLgpLkFqc7lz83R5Xv+6Yk9SZ6yhQAYW1hUvUw+uFTwEyfkKuQiQWOn
TEfW4IA4CVCNl7TW+TVnH+HuJhKpine8kpbTcaDE65Qqm6KL5giN4Vjmukhra9a1
5TFnfB17PZKiXQIDAQABo4HLMIHIMB0GA1UdDgQWBBQyIhBH692Xx4zSKnPQShhN
pAqypjAfBgNVHSMEGDAWgBTuVlxAgnxLT4PHpi4HJatF1AmntzA3BggrBgEFBQcB
AQQrMCkwJwYIKwYBBQUHMAKGG2h0dHA6Ly91cmwtZm9yLWFpYS9Sb290LmNlcjAs
BgNVHR8EJTAjMCGgH6AdhhtodHRwOi8vdXJsLWZvci1jcmwvUm9vdC5jcmwwDgYD
VR0PAQH/BAQDAgEGMA8GA1UdEwEB/wQFMAMBAf8wDQYJKoZIhvcNAQELBQADggEB
ACnPbvinGm9xov6nzS1BMXNo3wg+cj5FZ4uyTEzdRTtOZHjohFSs5wvGh2atz7WD
fcA7fLcFjQgjHnyl+Ulu9bMtHNt5zJzaarTcdJIyh4sEbvKBh9wSo7xcHA1dPFJ1
RLH8sNLUDlA+QeekC71P9FW7VvNDbedVKIZBTappfuo5Hg5shbMrNine21n9cBl8
r4AgnN3T8CHwqWZe8LhumiR/F1NooSS5QCRaxHGyqQLIyEOYX1fdoOXePZM9cXao
pAnaf9IxSRbFVfdCc/1XHR+5ckwO7I3yknQ13SimGCywMG1fxzJ/9PpA2uBaVvB+
r+rjatUcELQb7e7Qboas5x8=
-----END CERTIFICATE-----

Certificate:
    Data:
        Version: 3 (0x2)
        Serial Number: 2 (0x2)
    Signature Algorithm: sha256WithRSAEncryption
        Issuer: CN=UberRoot
        Validity
            Not Before: Jan  1 12:00:00 2015 GMT
            Not After : Jan  1 12:00:00 2016 GMT
        Subject: CN=Root
        Subject Public Key Info:
            Public Key Algorithm: rsaEncryption
                Public-Key: (2048 bit)
                Modulus:
                    00:b6:17:f4:d1:20:ce:f9:54:24:bd:cd:af:13:01:
                    3f:74:de:17:b7:c4:3f:40:1c:c9:3e:c5:df:41:ff:
                    18:03:8f:0d:44:39:95:56:a6:07:3a:7b:8d:9d:a1:
                    d5:d5:dc:bd:20:20:24:61:d0:22:93:bb:c0:ee:eb:
                    09:79:8e:75:46:5d:92:32:17:32:97:90:eb:00:a0:
                    49:da:30:00:b4:28:3e:ba:3a:60:2d:ee:78:55:e6:
                    ed:dd:e7:2e:57:36:45:2e:fa:65:28:07:bd:bd:a4:
                    17:4f:c5:44:4a:ea:68:2b:28:94:08:f9:7a:76:d6:
                    51:82:f6:64:97:cf:4b:bc:a8:6c:d8:8b:ab:c7:7e:
                    01:3c:11:f7:81:53:01:0d:65:e0:4b:68:5e:21:7b:
                    46:c3:59:19:da:e5:fe:2c:ff:76:f9:bf:c3:99:8c:
                    2e:d2:80:af:a5:06:2c:43:bb:c7:d1:34:0c:f5:d9:
                    a7:7b:72:f2:d7:04:2d:8b:cc:8f:cf:3f:01:9e:89:
                    ac:53:9b:87:e8:c3:1c:67:c5:c8:8b:26:65:51:3c:
                    55:28:6a:77:c6:ca:60:27:81:40:5b:3d:a5:54:45:
                    5d:cb:0e:e2:a7:21:21:97:ab:f7:ec:8d:1d:89:67:
                    0f:cd:f4:50:18:44:66:2b:37:aa:17:11:73:23:f1:
                    fd:61
                Exponent: 65537 (0x10001)
        X509v3 extensions:
            X509v3 Subject Key Identifier: 
                EE:56:5C:40:82:7C:4B:4F:83:C7:A6:2E:07:25:AB:45:D4:09:A7:B7
            X509v3 Authority Key Identifier: 
                keyid:2F:C9:20:3A:1C:39:32:BD:9D:54:DA:95:E2:B9:EA:9F:BA:2A:4B:08

            Authority Information Access: 
                CA Issuers - URI:http://url-for-aia/UberRoot.cer

            X509v3 CRL Distribution Points: 

                Full Name:
                  URI:http://url-for-crl/UberRoot.crl

            X509v3 Key Usage: critical
                Certificate Sign, CRL Sign
            X509v3 Basic Constraints: critical
                CA:TRUE
    Signature Algorithm: sha256WithRSAEncryption
         52:11:69:e4:26:6d:c7:40:67:4c:58:ab:08:b3:a8:24:bc:f5:
         f8:6e:0c:7f:b8:5d:19:18:82:48:1a:c9:7a:ae:39:04:9a:ae:
         64:98:96:f8:d8:20:88:7b:bc:ba:fa:fe:cc:57:ce:84:9c:2e:
         53:3c:59:af:61:94:26:a4:79:f1:4f:fe:9b:68:27:7e:f9:e3:
         95:2a:60:f3:f2:54:47:c4:6e:20:97:f9:93:09:09:40:ed:73:
         c1:b3:20:3b:9a:c4:85:bf:5b:08:fa:02:f6:fa:7e:fd:ef:5d:
         24:4a:4d:24:c2:6a:25:5c:c8:5a:e1:e8:2e:5b:85:f7:f2:81:
         85:6b:35:a7:b9:36:ce:62:4f:e9:82:5c:c0:e0:b9:1a:cc:e7:
         6c:b0:ed:19:31:ff:de:e2:bd:d0:48:ab:d7:03:22:e4:ee:23:
         b9:37:51:d3:9d:e6:f2:89:24:d1:07:5c:da:66:49:0b:e0:e8:
         8d:62:ee:18:f3:01:9a:b0:a8:50:c4:2a:5d:71:56:5e:0e:3e:
         74:24:8a:6e:19:0f:6e:f4:9a:9f:3e:f3:ee:8b:e6:28:85:f9:
         cf:c6:b0:22:74:85:ed:64:db:a4:da:c2:ca:c9:44:13:04:7f:
         ff:56:b4:bb:de:75:82:2e:d3:14:c3:99:32:c0:d7:c5:78:c3:
         66:53:e4:80
-----BEGIN TRUST_ANCHOR_UNCONSTRAINED-----
MIIDcTCCAlmgAwIBAgIBAjANBgkqhkiG9w0BAQsFADATMREwDwYDVQQDDAhVYmVy
Um9vdDAeFw0xNTAxMDExMjAwMDBaFw0xNjAxMDExMjAwMDBaMA8xDTALBgNVBAMM
BFJvb3QwggEiMA0GCSqGSIb3DQEBAQUAA4IBDwAwggEKAoIBAQC2F/TRIM75VCS9
za8TAT903he3xD9AHMk+xd9B/xgDjw1EOZVWpgc6e42dodXV3L0gICRh0CKTu8Du
6wl5jnVGXZIyFzKXkOsAoEnaMAC0KD66OmAt7nhV5u3d5y5XNkUu+mUoB729pBdP
xURK6mgrKJQI+Xp21lGC9mSXz0u8qGzYi6vHfgE8EfeBUwENZeBLaF4he0bDWRna
5f4s/3b5v8OZjC7SgK+lBixDu8fRNAz12ad7cvLXBC2LzI/PPwGeiaxTm4fowxxn
xciLJmVRPFUoanfGymAngUBbPaVURV3LDuKnISGXq/fsjR2JZw/N9FAYRGYrN6oX
EXMj8f1hAgMBAAGjgdMwgdAwHQYDVR0OBBYEFO5WXECCfEtPg8emLgclq0XUCae3
MB8GA1UdIwQYMBaAFC/JIDocOTK9nVTaleK56p+6KksIMDsGCCsGAQUFBwEBBC8w
LTArBggrBgEFBQcwAoYfaHR0cDovL3VybC1mb3ItYWlhL1ViZXJSb290LmNlcjAw
BgNVHR8EKTAnMCWgI6Ahhh9odHRwOi8vdXJsLWZvci1jcmwvVWJlclJvb3QuY3Js
MA4GA1UdDwEB/wQEAwIBBjAPBgNVHRMBAf8EBTADAQH/MA0GCSqGSIb3DQEBCwUA
A4IBAQBSEWnkJm3HQGdMWKsIs6gkvPX4bgx/uF0ZGIJIGsl6rjkEmq5kmJb42CCI
e7y6+v7MV86EnC5TPFmvYZQmpHnxT/6baCd++eOVKmDz8lRHxG4gl/mTCQlA7XPB
syA7msSFv1sI+gL2+n79710kSk0kwmolXMha4eguW4X38oGFazWnuTbOYk/pglzA
4LkazOdssO0ZMf/e4r3QSKvXAyLk7iO5N1HTnebyiSTRB1zaZkkL4OiNYu4Y8wGa
sKhQxCpdcVZeDj50JIpuGQ9u9JqfPvPui+YohfnPxrAidIXtZNuk2sLKyUQTBH//
VrS73nWCLtMUw5kywNfFeMNmU+SA
-----END TRUST_ANCHOR_UNCONSTRAINED-----

150302120000Z
-----BEGIN TIME-----
MTUwMzAyMTIwMDAwWg==
-----END TIME-----

SUCCESS
-----BEGIN VERIFY_RESULT-----
U1VDQ0VTUw==
-----END VERIFY_RESULT-----

serverAuth
-----BEGIN KEY_PURPOSE-----
c2VydmVyQXV0aA==
-----END KEY_PURPOSE-----
