[Created by: generate-unconstrained-root-basic-constraints-ca-false.py]

Certificate chain with 1 intermediate and a trust anchor. The trust anchor
has a basic constraints extension that indicates it is NOT a CA. Verification
is expected to succeed as constraints on the root certificate are not applied
to the trust anchor.

Certificate:
    Data:
        Version: 3 (0x2)
        Serial Number: 1 (0x1)
    Signature Algorithm: sha256WithRSAEncryption
        Issuer: CN=Intermediate
        Validity
            Not Before: Jan  1 12:00:00 2015 GMT
            Not After : Jan  1 12:00:00 2016 GMT
        Subject: CN=Target
        Subject Public Key Info:
            Public Key Algorithm: rsaEncryption
                Public-Key: (2048 bit)
                Modulus:
                    00:f6:57:b7:c7:60:77:e7:d3:31:b6:9a:6f:bc:20:
                    fa:28:9d:71:b6:65:b8:c9:01:9f:06:9e:4d:ed:a4:
                    60:b4:1c:2e:53:f1:a0:18:c5:10:02:12:d5:72:6c:
                    b5:a7:07:7b:dd:fa:83:b1:c0:4b:27:c8:86:c8:d7:
                    00:e3:dd:53:58:be:82:2d:55:61:c4:aa:15:44:de:
                    5e:ad:8f:38:a2:b5:2b:94:b9:12:3f:9d:32:5a:ed:
                    4e:43:f4:c1:62:10:eb:ed:fe:d0:e6:25:d9:83:57:
                    c2:01:a3:ad:80:3a:61:8e:75:61:e0:24:81:af:0c:
                    80:64:7c:b5:e6:f5:b5:b1:85:b1:e4:d9:2a:31:f1:
                    a7:ab:07:64:68:bc:cc:3d:c4:a3:8b:15:f6:10:bf:
                    10:fd:cb:f1:fd:f3:f4:3c:a6:e3:9e:c8:bc:e7:f3:
                    64:28:1f:23:89:c0:6f:ed:50:0a:92:ac:e7:63:95:
                    51:be:a7:4b:6b:2b:98:1f:d4:9a:37:d7:4d:42:c9:
                    b4:57:71:0a:12:3f:fd:f3:a6:67:9c:73:cd:7a:76:
                    f7:7c:3f:1d:01:d2:e6:d5:cb:24:cc:28:16:d5:aa:
                    82:3d:2e:78:c7:cd:60:7e:e1:a9:39:0b:25:b8:62:
                    8e:79:af:cb:32:4e:69:47:68:d4:d5:25:9a:c0:e2:
                    dc:25
                Exponent: 65537 (0x10001)
        X509v3 extensions:
            X509v3 Subject Key Identifier: 
                7B:A0:85:96:01:2A:1E:EC:98:29:1C:FC:3F:FF:52:48:92:B1:8B:46
            X509v3 Authority Key Identifier: 
                keyid:24:91:0A:B9:A7:1F:7D:0A:B4:1D:65:01:D2:68:05:26:C7:86:43:1E

            Authority Information Access: 
                CA Issuers - URI:http://url-for-aia/Intermediate.cer

            X509v3 CRL Distribution Points: 

                Full Name:
                  URI:http://url-for-crl/Intermediate.crl

            X509v3 Key Usage: critical
                Digital Signature, Key Encipherment
            X509v3 Extended Key Usage: 
                TLS Web Server Authentication, TLS Web Client Authentication
    Signature Algorithm: sha256WithRSAEncryption
         d3:07:91:f0:5f:dc:37:4e:93:3a:4f:06:b6:44:5b:d6:26:e9:
         fa:76:68:a0:22:29:de:58:d1:3f:57:59:59:b4:30:86:36:a4:
         9d:88:7f:2b:c5:4a:9f:b9:a5:59:2f:21:74:ba:17:0b:55:73:
         64:f5:2c:e8:41:3a:b3:0c:dd:83:84:0b:2f:12:41:ef:f7:34:
         fa:98:99:67:2e:9a:fe:ea:cb:a7:95:b7:9a:0d:b6:c3:a8:94:
         d1:6e:0f:a4:98:06:c1:98:d2:fe:70:68:c7:d9:49:32:d3:ba:
         4e:03:ee:70:e2:b4:a1:9c:b8:fe:92:b4:bc:6e:78:c8:2a:c3:
         37:e8:c7:cd:bc:41:a6:96:21:7e:07:a1:dd:90:00:fd:0d:72:
         e4:98:29:c5:b7:85:76:6e:1e:65:f3:eb:86:7f:40:c7:8c:98:
         f9:10:30:79:83:11:31:31:92:f6:d6:92:20:eb:3c:64:a6:df:
         7d:ec:a4:e8:7a:62:91:6c:a0:04:60:74:aa:76:1e:ee:e8:05:
         fa:0f:5b:ae:50:48:c0:6d:22:5d:f0:01:44:27:df:15:99:b3:
         19:bd:b3:28:cd:49:f9:1f:69:fc:62:81:cf:77:d4:9f:c7:3b:
         ba:9e:a6:9f:16:c3:b1:dd:bc:9e:31:85:f8:a6:c1:7c:d2:ea:
         e9:a7:6b:9b
-----BEGIN CERTIFICATE-----
MIIDjTCCAnWgAwIBAgIBATANBgkqhkiG9w0BAQsFADAXMRUwEwYDVQQDDAxJbnRl
cm1lZGlhdGUwHhcNMTUwMTAxMTIwMDAwWhcNMTYwMTAxMTIwMDAwWjARMQ8wDQYD
VQQDDAZUYXJnZXQwggEiMA0GCSqGSIb3DQEBAQUAA4IBDwAwggEKAoIBAQD2V7fH
YHfn0zG2mm+8IPoonXG2ZbjJAZ8Gnk3tpGC0HC5T8aAYxRACEtVybLWnB3vd+oOx
wEsnyIbI1wDj3VNYvoItVWHEqhVE3l6tjziitSuUuRI/nTJa7U5D9MFiEOvt/tDm
JdmDV8IBo62AOmGOdWHgJIGvDIBkfLXm9bWxhbHk2Sox8aerB2RovMw9xKOLFfYQ
vxD9y/H98/Q8puOeyLzn82QoHyOJwG/tUAqSrOdjlVG+p0trK5gf1Jo3101CybRX
cQoSP/3zpmecc816dvd8Px0B0ubVyyTMKBbVqoI9LnjHzWB+4ak5CyW4Yo55r8sy
TmlHaNTVJZrA4twlAgMBAAGjgekwgeYwHQYDVR0OBBYEFHughZYBKh7smCkc/D//
UkiSsYtGMB8GA1UdIwQYMBaAFCSRCrmnH30KtB1lAdJoBSbHhkMeMD8GCCsGAQUF
BwEBBDMwMTAvBggrBgEFBQcwAoYjaHR0cDovL3VybC1mb3ItYWlhL0ludGVybWVk
aWF0ZS5jZXIwNAYDVR0fBC0wKzApoCegJYYjaHR0cDovL3VybC1mb3ItY3JsL0lu
dGVybWVkaWF0ZS5jcmwwDgYDVR0PAQH/BAQDAgWgMB0GA1UdJQQWMBQGCCsGAQUF
BwMBBggrBgEFBQcDAjANBgkqhkiG9w0BAQsFAAOCAQEA0weR8F/cN06TOk8GtkRb
1ibp+nZooCIp3ljRP1dZWbQwhjaknYh/K8VKn7mlWS8hdLoXC1VzZPUs6EE6swzd
g4QLLxJB7/c0+piZZy6a/urLp5W3mg22w6iU0W4PpJgGwZjS/nBox9lJMtO6TgPu
cOK0oZy4/pK0vG54yCrDN+jHzbxBppYhfgeh3ZAA/Q1y5JgpxbeFdm4eZfPrhn9A
x4yY+RAweYMRMTGS9taSIOs8ZKbffeyk6HpikWygBGB0qnYe7ugF+g9brlBIwG0i
XfABRCffFZmzGb2zKM1J+R9p/GKBz3fUn8c7up6mnxbDsd28njGF+KbBfNLq6adr
mw==
-----END CERTIFICATE-----

Certificate:
    Data:
        Version: 3 (0x2)
        Serial Number: 2 (0x2)
    Signature Algorithm: sha256WithRSAEncryption
        Issuer: CN=Root
        Validity
            Not Before: Jan  1 12:00:00 2015 GMT
            Not After : Jan  1 12:00:00 2016 GMT
        Subject: CN=Intermediate
        Subject Public Key Info:
            Public Key Algorithm: rsaEncryption
                Public-Key: (2048 bit)
                Modulus:
                    00:d5:ec:2b:26:4f:75:ee:1c:3f:35:43:b5:18:42:
                    59:f6:82:95:02:b9:f8:66:97:9c:61:ad:eb:c8:d7:
                    06:be:2d:df:46:dc:21:be:69:f0:a1:fd:6b:e1:0e:
                    58:ae:ca:a9:e4:f4:51:96:51:20:b3:a0:59:85:30:
                    aa:eb:27:64:40:bf:53:83:d0:ec:3a:45:ab:3d:b5:
                    27:b5:b1:bc:26:24:b8:b0:85:6d:a5:c2:33:f7:1c:
                    ba:bb:77:47:90:91:46:bf:dc:65:7d:59:51:ae:15:
                    03:71:f8:3f:3a:db:92:0e:ad:25:fd:48:d5:0e:04:
                    73:bc:5c:9f:15:dd:da:53:dd:58:76:14:18:49:d1:
                    75:f9:5c:11:f0:77:6d:fb:64:62:08:27:77:0b:04:
                    d6:0c:21:23:20:f3:7c:b9:d6:52:61:0e:5e:ee:61:
                    56:ea:36:97:98:49:5a:fc:44:5d:22:c2:2d:22:4b:
                    95:a5:e7:f9:65:5b:00:ff:53:9f:36:d6:9b:66:83:
                    8c:79:f2:e4:84:ad:00:2a:fd:02:21:9a:95:02:13:
                    55:60:e8:70:c5:ad:a4:7c:d3:eb:da:31:2f:cd:5d:
                    19:64:56:95:ce:0f:e4:b5:33:76:e3:6c:dd:8d:cb:
                    9f:cf:f2:8c:a0:33:54:c4:ba:33:5e:62:76:47:4f:
                    8d:fd
                Exponent: 65537 (0x10001)
        X509v3 extensions:
            X509v3 Subject Key Identifier: 
                24:91:0A:B9:A7:1F:7D:0A:B4:1D:65:01:D2:68:05:26:C7:86:43:1E
            X509v3 Authority Key Identifier: 
                keyid:64:05:68:4D:5B:CD:E9:FC:19:3E:62:FC:41:99:6C:86:A6:C8:90:4D

            Authority Information Access: 
                CA Issuers - URI:http://url-for-aia/Root.cer

            X509v3 CRL Distribution Points: 

                Full Name:
                  URI:http://url-for-crl/Root.crl

            X509v3 Key Usage: critical
                Certificate Sign, CRL Sign
            X509v3 Basic Constraints: critical
                CA:TRUE
    Signature Algorithm: sha256WithRSAEncryption
         3a:c3:68:18:0f:c4:0a:a1:ef:6b:f2:e1:4f:d1:21:9c:db:b6:
         f3:bf:34:3a:f7:5f:61:69:59:69:a7:0c:05:c2:fd:f4:d3:f2:
         32:7c:7e:e7:44:3c:4c:82:14:70:90:19:72:ae:27:e9:96:a6:
         e1:dd:50:db:ca:07:b9:3d:c2:67:f0:f8:d5:76:ba:2d:8c:37:
         89:7f:e5:68:a2:22:84:75:fe:fc:df:f8:90:41:04:a9:2f:8c:
         1a:a6:d1:36:8b:cb:83:9c:95:e0:a2:1a:a9:19:17:b8:35:3f:
         38:c7:0d:7a:0e:e2:79:fe:00:83:9a:ca:8d:ec:a6:f0:f1:60:
         e8:e8:3c:5c:c6:14:af:5a:ca:7a:a9:28:c1:a9:dd:bc:29:58:
         ad:02:ff:8d:d5:d6:52:18:0a:59:57:b2:19:1a:84:3b:a4:1d:
         75:6b:e6:9f:54:1c:40:a6:d2:8c:45:78:0b:8b:3f:43:7f:f4:
         bf:39:87:4b:81:c2:de:77:d3:e2:9b:5b:71:52:b5:8a:b9:b5:
         b0:9d:bb:ca:63:13:51:a2:c8:14:ce:fe:86:48:21:72:e9:44:
         29:c9:c9:f8:e6:b4:97:3e:78:a0:ab:66:0d:9d:b2:db:47:5e:
         a8:e6:08:b7:52:6b:52:48:34:68:bc:e0:70:65:ef:3d:5b:06:
         32:f1:02:48
-----BEGIN CERTIFICATE-----
MIIDbTCCAlWgAwIBAgIBAjANBgkqhkiG9w0BAQsFADAPMQ0wCwYDVQQDDARSb290
MB4XDTE1MDEwMTEyMDAwMFoXDTE2MDEwMTEyMDAwMFowFzEVMBMGA1UEAwwMSW50
ZXJtZWRpYXRlMIIBIjANBgkqhkiG9w0BAQEFAAOCAQ8AMIIBCgKCAQEA1ewrJk91
7hw/NUO1GEJZ9oKVArn4ZpecYa3ryNcGvi3fRtwhvmnwof1r4Q5Yrsqp5PRRllEg
s6BZhTCq6ydkQL9Tg9DsOkWrPbUntbG8JiS4sIVtpcIz9xy6u3dHkJFGv9xlfVlR
rhUDcfg/OtuSDq0l/UjVDgRzvFyfFd3aU91YdhQYSdF1+VwR8Hdt+2RiCCd3CwTW
DCEjIPN8udZSYQ5e7mFW6jaXmEla/ERdIsItIkuVpef5ZVsA/1OfNtabZoOMefLk
hK0AKv0CIZqVAhNVYOhwxa2kfNPr2jEvzV0ZZFaVzg/ktTN242zdjcufz/KMoDNU
xLozXmJ2R0+N/QIDAQABo4HLMIHIMB0GA1UdDgQWBBQkkQq5px99CrQdZQHSaAUm
x4ZDHjAfBgNVHSMEGDAWgBRkBWhNW83p/Bk+YvxBmWyGpsiQTTA3BggrBgEFBQcB
AQQrMCkwJwYIKwYBBQUHMAKGG2h0dHA6Ly91cmwtZm9yLWFpYS9Sb290LmNlcjAs
BgNVHR8EJTAjMCGgH6AdhhtodHRwOi8vdXJsLWZvci1jcmwvUm9vdC5jcmwwDgYD
VR0PAQH/BAQDAgEGMA8GA1UdEwEB/wQFMAMBAf8wDQYJKoZIhvcNAQELBQADggEB
ADrDaBgPxAqh72vy4U/RIZzbtvO/NDr3X2FpWWmnDAXC/fTT8jJ8fudEPEyCFHCQ
GXKuJ+mWpuHdUNvKB7k9wmfw+NV2ui2MN4l/5WiiIoR1/vzf+JBBBKkvjBqm0TaL
y4OcleCiGqkZF7g1PzjHDXoO4nn+AIOayo3spvDxYOjoPFzGFK9aynqpKMGp3bwp
WK0C/43V1lIYCllXshkahDukHXVr5p9UHECm0oxFeAuLP0N/9L85h0uBwt530+Kb
W3FStYq5tbCdu8pjE1GiyBTO/oZIIXLpRCnJyfjmtJc+eKCrZg2dsttHXqjmCLdS
a1JINGi84HBl7z1bBjLxAkg=
-----END CERTIFICATE-----

Certificate:
    Data:
        Version: 3 (0x2)
        Serial Number: 1 (0x1)
    Signature Algorithm: sha256WithRSAEncryption
        Issuer: CN=Root
        Validity
            Not Before: Jan  1 12:00:00 2015 GMT
            Not After : Jan  1 12:00:00 2016 GMT
        Subject: CN=Root
        Subject Public Key Info:
            Public Key Algorithm: rsaEncryption
                Public-Key: (2048 bit)
                Modulus:
                    00:a5:77:64:fa:4a:30:51:54:db:ed:11:09:28:66:
                    1e:43:58:6c:17:64:8e:ae:f2:05:f0:a3:a4:b6:50:
                    44:05:9d:59:67:6b:32:80:6f:1e:90:bf:b2:15:07:
                    ef:61:7b:28:f6:08:3c:1a:2a:91:d0:11:42:b8:4b:
                    a2:33:16:7c:76:d9:fb:6b:19:4c:ad:6e:d1:2f:22:
                    39:92:fa:5f:48:6c:62:66:91:91:02:84:19:49:18:
                    06:89:c5:39:cb:cb:05:fb:6d:ab:fd:e6:da:78:05:
                    34:5d:1c:c8:9e:4a:78:49:ed:93:07:af:8b:70:99:
                    cf:80:0d:7e:bd:b0:94:03:a4:11:a2:07:34:e1:b7:
                    0e:5c:60:14:75:ff:c3:dc:60:bc:b9:03:f5:41:fd:
                    0e:82:81:44:ff:14:5d:2a:85:16:b3:07:74:70:9f:
                    b7:a6:93:2e:2e:75:17:5a:55:62:3f:de:af:fb:2c:
                    0e:a7:ab:44:c2:b2:e3:cb:fd:5a:01:32:a0:c4:fe:
                    b8:e0:32:93:1c:dc:97:cd:70:74:67:67:00:f6:aa:
                    2c:63:9c:e7:90:5d:09:a4:89:09:49:7c:86:58:21:
                    6c:18:c1:75:0c:4f:c5:08:7f:20:cf:96:20:a3:79:
                    56:dd:e8:90:e2:b8:c9:bc:59:87:18:ee:26:db:50:
                    0a:81
                Exponent: 65537 (0x10001)
        X509v3 extensions:
            X509v3 Subject Key Identifier: 
                64:05:68:4D:5B:CD:E9:FC:19:3E:62:FC:41:99:6C:86:A6:C8:90:4D
            X509v3 Authority Key Identifier: 
                keyid:64:05:68:4D:5B:CD:E9:FC:19:3E:62:FC:41:99:6C:86:A6:C8:90:4D

            Authority Information Access: 
                CA Issuers - URI:http://url-for-aia/Root.cer

            X509v3 CRL Distribution Points: 

                Full Name:
                  URI:http://url-for-crl/Root.crl

            X509v3 Key Usage: critical
                Certificate Sign, CRL Sign
            X509v3 Basic Constraints: critical
                CA:FALSE
    Signature Algorithm: sha256WithRSAEncryption
         14:46:e0:df:45:14:f3:33:e1:72:a9:d8:ec:37:4e:ee:98:02:
         a6:7d:33:97:c1:d7:bb:8b:bf:40:ac:1e:be:74:d8:e0:b3:aa:
         ce:5e:f6:59:b7:0d:56:f6:45:6d:18:c9:ed:c4:0c:47:78:10:
         2b:e5:d9:0b:cb:76:37:ab:de:9f:0b:4f:54:2d:43:3f:f2:3e:
         e0:84:30:2a:99:47:3d:bc:89:e9:e3:46:7a:ff:7e:13:6c:ea:
         dc:d2:59:24:b5:4a:7e:9f:3b:a9:2a:fa:d6:fc:48:0f:71:3b:
         fd:d6:ab:4e:f7:85:9f:26:97:97:a6:60:6c:9f:1d:09:a2:f0:
         52:73:12:bf:dc:7a:a8:71:a3:ae:27:26:78:08:ab:1d:96:3c:
         92:1e:19:eb:8a:2d:9a:b5:1e:75:32:5f:42:80:b4:26:ed:7e:
         5a:3f:3e:7f:dc:ff:04:33:bd:04:f4:d7:cb:da:f3:69:a7:77:
         cc:2f:e8:0d:b1:e8:b0:d7:ba:f3:12:13:32:6f:87:c1:0a:5f:
         b4:3d:d3:3f:a0:da:1a:f4:42:ab:5c:2d:ef:a8:dc:37:8d:75:
         e9:ad:de:22:01:24:5a:1b:97:8d:d0:3e:ae:87:8c:8d:63:f2:
         40:4d:09:0d:58:d8:38:1a:a1:a7:43:fe:ad:d9:f4:7a:be:2f:
         48:bb:71:d1
-----BEGIN TRUST_ANCHOR_UNCONSTRAINED-----
MIIDYjCCAkqgAwIBAgIBATANBgkqhkiG9w0BAQsFADAPMQ0wCwYDVQQDDARSb290
MB4XDTE1MDEwMTEyMDAwMFoXDTE2MDEwMTEyMDAwMFowDzENMAsGA1UEAwwEUm9v
dDCCASIwDQYJKoZIhvcNAQEBBQADggEPADCCAQoCggEBAKV3ZPpKMFFU2+0RCShm
HkNYbBdkjq7yBfCjpLZQRAWdWWdrMoBvHpC/shUH72F7KPYIPBoqkdARQrhLojMW
fHbZ+2sZTK1u0S8iOZL6X0hsYmaRkQKEGUkYBonFOcvLBfttq/3m2ngFNF0cyJ5K
eEntkwevi3CZz4ANfr2wlAOkEaIHNOG3DlxgFHX/w9xgvLkD9UH9DoKBRP8UXSqF
FrMHdHCft6aTLi51F1pVYj/er/ssDqerRMKy48v9WgEyoMT+uOAykxzcl81wdGdn
APaqLGOc55BdCaSJCUl8hlghbBjBdQxPxQh/IM+WIKN5Vt3okOK4ybxZhxjuJttQ
CoECAwEAAaOByDCBxTAdBgNVHQ4EFgQUZAVoTVvN6fwZPmL8QZlshqbIkE0wHwYD
VR0jBBgwFoAUZAVoTVvN6fwZPmL8QZlshqbIkE0wNwYIKwYBBQUHAQEEKzApMCcG
CCsGAQUFBzAChhtodHRwOi8vdXJsLWZvci1haWEvUm9vdC5jZXIwLAYDVR0fBCUw
IzAhoB+gHYYbaHR0cDovL3VybC1mb3ItY3JsL1Jvb3QuY3JsMA4GA1UdDwEB/wQE
AwIBBjAMBgNVHRMBAf8EAjAAMA0GCSqGSIb3DQEBCwUAA4IBAQAURuDfRRTzM+Fy
qdjsN07umAKmfTOXwde7i79ArB6+dNjgs6rOXvZZtw1W9kVtGMntxAxHeBAr5dkL
y3Y3q96fC09ULUM/8j7ghDAqmUc9vInp40Z6/34TbOrc0lkktUp+nzupKvrW/EgP
cTv91qtO94WfJpeXpmBsnx0JovBScxK/3HqocaOuJyZ4CKsdljySHhnrii2atR51
Ml9CgLQm7X5aPz5/3P8EM70E9NfL2vNpp3fML+gNseiw17rzEhMyb4fBCl+0PdM/
oNoa9EKrXC3vqNw3jXXprd4iASRaG5eN0D6uh4yNY/JATQkNWNg4GqGnQ/6t2fR6
vi9Iu3HR
-----END TRUST_ANCHOR_UNCONSTRAINED-----

150302120000Z
-----BEGIN TIME-----
MTUwMzAyMTIwMDAwWg==
-----END TIME-----

SUCCESS
-----BEGIN VERIFY_RESULT-----
U1VDQ0VTUw==
-----END VERIFY_RESULT-----

serverAuth
-----BEGIN KEY_PURPOSE-----
c2VydmVyQXV0aA==
-----END KEY_PURPOSE-----
