[Created by: generate-unconstrained-root-lacks-basic-constraints.py]

Certificate chain with 1 intermediate and a trust anchor. The trust anchor
lacks the basic constraints extension. This is not a problem and verification
should succeed.

Certificate:
    Data:
        Version: 3 (0x2)
        Serial Number: 1 (0x1)
    Signature Algorithm: sha256WithRSAEncryption
        Issuer: CN=Intermediate
        Validity
            Not Before: Jan  1 12:00:00 2015 GMT
            Not After : Jan  1 12:00:00 2016 GMT
        Subject: CN=Target
        Subject Public Key Info:
            Public Key Algorithm: rsaEncryption
                Public-Key: (2048 bit)
                Modulus:
                    00:bb:bb:40:cb:96:84:ca:5e:59:69:8d:3f:2b:c5:
                    01:1a:7a:f1:49:0a:d7:0a:13:27:7d:42:6f:f2:b5:
                    e6:17:51:a7:49:16:d0:c3:66:9d:de:eb:07:8a:a9:
                    29:7b:17:9b:00:b7:45:54:48:76:84:95:84:c6:f8:
                    e3:ad:79:08:2b:5d:02:fd:22:bf:52:b4:07:64:65:
                    cc:8b:87:71:08:ed:78:aa:6f:87:67:12:87:db:e5:
                    b1:9a:27:0b:09:20:16:97:4f:9d:b6:22:2b:9f:55:
                    f6:da:0f:73:86:aa:f4:6f:bc:92:47:91:77:37:30:
                    64:d4:e1:1c:09:bb:3b:5b:c8:47:00:5e:a2:c4:b8:
                    29:8f:d8:47:27:fe:0b:bf:5b:02:7f:63:37:b9:34:
                    b4:7d:c3:a4:9c:4f:7c:bc:fd:49:75:d9:fd:24:69:
                    29:a3:ef:7a:24:ba:2d:d2:bc:27:21:3e:ac:26:91:
                    b2:7c:c2:9b:ea:2b:2b:94:25:dd:ec:59:88:2c:ad:
                    af:5a:d7:6e:f1:d8:c8:ab:93:1f:f2:43:f7:d9:fb:
                    d2:f0:3c:93:2d:ba:02:df:bf:ff:66:88:8b:3b:27:
                    78:53:7d:69:b7:e6:5b:32:5e:46:7f:4e:05:71:ba:
                    6d:b4:b9:48:30:44:39:e4:1d:2c:79:14:56:46:5f:
                    ed:7d
                Exponent: 65537 (0x10001)
        X509v3 extensions:
            X509v3 Subject Key Identifier: 
                2D:E9:1E:78:5E:76:51:B5:46:65:64:61:7E:25:A3:F9:AF:B5:01:F7
            X509v3 Authority Key Identifier: 
                keyid:0B:2C:E6:E6:4E:05:04:08:49:15:5D:4C:A0:1D:95:20:39:3B:56:31

            Authority Information Access: 
                CA Issuers - URI:http://url-for-aia/Intermediate.cer

            X509v3 CRL Distribution Points: 

                Full Name:
                  URI:http://url-for-crl/Intermediate.crl

            X509v3 Key Usage: critical
                Digital Signature, Key Encipherment
            X509v3 Extended Key Usage: 
                TLS Web Server Authentication, TLS Web Client Authentication
    Signature Algorithm: sha256WithRSAEncryption
         30:d4:32:a0:3c:e2:a6:37:88:a6:2d:58:f9:26:46:e7:12:ab:
         02:f2:a1:ca:82:85:8b:23:40:10:dc:d1:6d:0b:ba:98:cf:f0:
         d1:95:f3:88:69:62:a5:3c:e4:37:f3:93:b1:64:50:26:2b:1d:
         c4:29:f0:e4:df:63:a7:1d:73:a7:cc:bf:63:08:2a:88:24:41:
         d4:b0:a5:a7:c8:72:da:75:f7:18:7d:bf:29:ce:a4:b5:92:b1:
         e9:cd:3b:a4:ba:68:8f:8e:37:85:20:73:c4:f6:3f:42:a3:d2:
         cb:44:40:1b:f3:a6:aa:70:d6:20:71:f8:33:19:41:0e:41:35:
         15:03:3d:d6:d6:de:1f:5d:3c:71:a4:8c:43:3b:30:80:44:df:
         04:35:f3:7c:6b:6f:3f:2e:2f:32:93:e8:6d:36:22:dc:21:d3:
         59:11:5c:2d:a5:0a:22:fb:9e:27:e2:72:f0:1c:92:b6:a7:10:
         52:46:fc:f9:4b:90:df:e6:5b:0b:b6:94:8b:97:05:71:1b:b2:
         92:a7:50:4f:6d:b9:52:09:ad:00:c8:df:05:31:57:6c:a8:53:
         72:c9:49:9a:d5:c1:9e:70:8f:b0:15:bc:b6:88:63:57:9e:3e:
         35:c9:27:23:9e:73:25:ed:15:d8:cc:ea:36:2c:72:98:b2:ca:
         41:7c:4f:56
-----BEGIN CERTIFICATE-----
MIIDjTCCAnWgAwIBAgIBATANBgkqhkiG9w0BAQsFADAXMRUwEwYDVQQDDAxJbnRl
cm1lZGlhdGUwHhcNMTUwMTAxMTIwMDAwWhcNMTYwMTAxMTIwMDAwWjARMQ8wDQYD
VQQDDAZUYXJnZXQwggEiMA0GCSqGSIb3DQEBAQUAA4IBDwAwggEKAoIBAQC7u0DL
loTKXllpjT8rxQEaevFJCtcKEyd9Qm/yteYXUadJFtDDZp3e6weKqSl7F5sAt0VU
SHaElYTG+OOteQgrXQL9Ir9StAdkZcyLh3EI7Xiqb4dnEofb5bGaJwsJIBaXT522
IiufVfbaD3OGqvRvvJJHkXc3MGTU4RwJuztbyEcAXqLEuCmP2Ecn/gu/WwJ/Yze5
NLR9w6ScT3y8/Ul12f0kaSmj73okui3SvCchPqwmkbJ8wpvqKyuUJd3sWYgsra9a
127x2Mirkx/yQ/fZ+9LwPJMtugLfv/9miIs7J3hTfWm35lsyXkZ/TgVxum20uUgw
RDnkHSx5FFZGX+19AgMBAAGjgekwgeYwHQYDVR0OBBYEFC3pHnhedlG1RmVkYX4l
o/mvtQH3MB8GA1UdIwQYMBaAFAss5uZOBQQISRVdTKAdlSA5O1YxMD8GCCsGAQUF
BwEBBDMwMTAvBggrBgEFBQcwAoYjaHR0cDovL3VybC1mb3ItYWlhL0ludGVybWVk
aWF0ZS5jZXIwNAYDVR0fBC0wKzApoCegJYYjaHR0cDovL3VybC1mb3ItY3JsL0lu
dGVybWVkaWF0ZS5jcmwwDgYDVR0PAQH/BAQDAgWgMB0GA1UdJQQWMBQGCCsGAQUF
BwMBBggrBgEFBQcDAjANBgkqhkiG9w0BAQsFAAOCAQEAMNQyoDzipjeIpi1Y+SZG
5xKrAvKhyoKFiyNAENzRbQu6mM/w0ZXziGlipTzkN/OTsWRQJisdxCnw5N9jpx1z
p8y/YwgqiCRB1LClp8hy2nX3GH2/Kc6ktZKx6c07pLpoj443hSBzxPY/QqPSy0RA
G/OmqnDWIHH4MxlBDkE1FQM91tbeH108caSMQzswgETfBDXzfGtvPy4vMpPobTYi
3CHTWRFcLaUKIvueJ+Jy8ByStqcQUkb8+UuQ3+ZbC7aUi5cFcRuykqdQT225Ugmt
AMjfBTFXbKhTcslJmtXBnnCPsBW8tohjV54+NcknI55zJe0V2MzqNixymLLKQXxP
Vg==
-----END CERTIFICATE-----

Certificate:
    Data:
        Version: 3 (0x2)
        Serial Number: 2 (0x2)
    Signature Algorithm: sha256WithRSAEncryption
        Issuer: CN=Root
        Validity
            Not Before: Jan  1 12:00:00 2015 GMT
            Not After : Jan  1 12:00:00 2016 GMT
        Subject: CN=Intermediate
        Subject Public Key Info:
            Public Key Algorithm: rsaEncryption
                Public-Key: (2048 bit)
                Modulus:
                    00:a9:f6:c4:18:fe:58:e4:42:e8:65:0e:7f:f4:6b:
                    db:25:fc:46:b4:7b:20:f5:96:ec:45:cc:c4:8e:08:
                    1c:9b:dc:29:9c:86:e2:b0:cc:ae:5a:55:87:97:c9:
                    1a:d7:18:32:6f:7c:73:bb:37:c1:6b:9f:cb:c2:43:
                    a0:63:b5:ad:33:02:e8:4a:de:03:27:6a:33:30:83:
                    a7:2d:c6:98:21:0b:b2:47:84:36:d5:c2:4e:8b:00:
                    ec:02:3d:ba:b6:11:8f:83:76:94:40:76:4c:fa:e7:
                    47:21:de:f8:47:91:8b:44:c7:c5:97:ed:cc:1e:1d:
                    aa:5a:b1:cf:c0:b2:1e:9d:29:f8:2e:ec:26:37:12:
                    88:43:ad:68:98:82:6a:dd:b7:2d:5a:87:0d:62:c2:
                    57:ce:08:3f:66:9c:d1:09:2a:aa:d9:07:3e:1c:8d:
                    9e:5d:60:38:f5:e4:a4:8c:99:53:e6:07:b6:0f:8d:
                    04:49:08:f1:b9:dc:ab:96:5d:ad:2b:8d:b0:14:f2:
                    b9:ec:2d:53:42:ef:5f:3d:28:c3:8a:e3:9d:4c:c5:
                    e9:a2:63:78:79:08:4d:25:ab:b5:37:4d:3f:fe:75:
                    3f:84:12:17:14:78:a1:a7:18:49:e6:7f:aa:be:b3:
                    58:54:4f:fb:da:66:22:ba:a7:c9:17:ba:7b:38:d5:
                    5f:bb
                Exponent: 65537 (0x10001)
        X509v3 extensions:
            X509v3 Subject Key Identifier: 
                0B:2C:E6:E6:4E:05:04:08:49:15:5D:4C:A0:1D:95:20:39:3B:56:31
            X509v3 Authority Key Identifier: 
                keyid:DD:2F:E9:72:D4:6F:3E:22:D8:5F:B2:8E:74:9A:E3:26:84:23:28:E8

            Authority Information Access: 
                CA Issuers - URI:http://url-for-aia/Root.cer

            X509v3 CRL Distribution Points: 

                Full Name:
                  URI:http://url-for-crl/Root.crl

            X509v3 Key Usage: critical
                Certificate Sign, CRL Sign
            X509v3 Basic Constraints: critical
                CA:TRUE
    Signature Algorithm: sha256WithRSAEncryption
         60:12:61:3d:32:a4:b3:2a:74:9f:e6:97:ae:cc:c6:a2:4d:aa:
         68:c1:c9:6f:77:c2:96:69:5b:89:69:9c:a4:d6:4a:7f:f2:82:
         60:fc:33:e4:71:0e:da:b4:7e:da:1c:e7:04:b5:0b:58:56:b2:
         94:0d:fb:aa:38:fc:aa:59:19:44:4a:e5:08:c4:b0:52:c5:77:
         fe:52:f4:cc:a7:4c:72:3b:7a:9d:65:66:e6:d2:5b:a7:68:2c:
         09:79:82:fc:33:37:59:c8:4b:03:1f:29:d7:ba:4d:bc:f4:a7:
         be:ed:ba:be:66:a7:b0:89:fc:3b:93:73:97:f5:80:b6:53:26:
         8b:1d:58:88:4e:06:47:06:63:02:9e:be:59:aa:9d:fe:70:0b:
         3e:44:cc:dc:74:b1:79:85:fc:94:5e:ac:53:a1:31:99:30:c8:
         bf:47:87:6e:f2:f6:3a:95:b7:bf:3b:5c:65:0c:04:38:60:6a:
         c2:02:8e:22:6c:6d:dc:a7:ba:f2:0e:61:3c:2f:a3:31:f7:5b:
         36:4a:2e:ee:87:00:3f:9b:50:56:8a:e1:b8:b8:77:e7:00:fd:
         74:65:3e:d5:9b:69:c0:58:51:8a:6a:93:18:cb:8d:57:83:c9:
         90:6c:b4:2f:90:bd:ec:6a:69:9d:27:95:6e:25:38:0d:7e:e2:
         12:15:7c:d6
-----BEGIN CERTIFICATE-----
MIIDbTCCAlWgAwIBAgIBAjANBgkqhkiG9w0BAQsFADAPMQ0wCwYDVQQDDARSb290
MB4XDTE1MDEwMTEyMDAwMFoXDTE2MDEwMTEyMDAwMFowFzEVMBMGA1UEAwwMSW50
ZXJtZWRpYXRlMIIBIjANBgkqhkiG9w0BAQEFAAOCAQ8AMIIBCgKCAQEAqfbEGP5Y
5ELoZQ5/9GvbJfxGtHsg9ZbsRczEjggcm9wpnIbisMyuWlWHl8ka1xgyb3xzuzfB
a5/LwkOgY7WtMwLoSt4DJ2ozMIOnLcaYIQuyR4Q21cJOiwDsAj26thGPg3aUQHZM
+udHId74R5GLRMfFl+3MHh2qWrHPwLIenSn4LuwmNxKIQ61omIJq3bctWocNYsJX
zgg/ZpzRCSqq2Qc+HI2eXWA49eSkjJlT5ge2D40ESQjxudyrll2tK42wFPK57C1T
Qu9fPSjDiuOdTMXpomN4eQhNJau1N00//nU/hBIXFHihpxhJ5n+qvrNYVE/72mYi
uqfJF7p7ONVfuwIDAQABo4HLMIHIMB0GA1UdDgQWBBQLLObmTgUECEkVXUygHZUg
OTtWMTAfBgNVHSMEGDAWgBTdL+ly1G8+Ithfso50muMmhCMo6DA3BggrBgEFBQcB
AQQrMCkwJwYIKwYBBQUHMAKGG2h0dHA6Ly91cmwtZm9yLWFpYS9Sb290LmNlcjAs
BgNVHR8EJTAjMCGgH6AdhhtodHRwOi8vdXJsLWZvci1jcmwvUm9vdC5jcmwwDgYD
VR0PAQH/BAQDAgEGMA8GA1UdEwEB/wQFMAMBAf8wDQYJKoZIhvcNAQELBQADggEB
AGASYT0ypLMqdJ/ml67MxqJNqmjByW93wpZpW4lpnKTWSn/ygmD8M+RxDtq0ftoc
5wS1C1hWspQN+6o4/KpZGURK5QjEsFLFd/5S9MynTHI7ep1lZubSW6doLAl5gvwz
N1nISwMfKde6Tbz0p77tur5mp7CJ/DuTc5f1gLZTJosdWIhOBkcGYwKevlmqnf5w
Cz5EzNx0sXmF/JRerFOhMZkwyL9Hh27y9jqVt787XGUMBDhgasICjiJsbdynuvIO
YTwvozH3WzZKLu6HAD+bUFaK4bi4d+cA/XRlPtWbacBYUYpqkxjLjVeDyZBstC+Q
vexqaZ0nlW4lOA1+4hIVfNY=
-----END CERTIFICATE-----

Certificate:
    Data:
        Version: 3 (0x2)
        Serial Number: 1 (0x1)
    Signature Algorithm: sha256WithRSAEncryption
        Issuer: CN=Root
        Validity
            Not Before: Jan  1 12:00:00 2015 GMT
            Not After : Jan  1 12:00:00 2016 GMT
        Subject: CN=Root
        Subject Public Key Info:
            Public Key Algorithm: rsaEncryption
                Public-Key: (2048 bit)
                Modulus:
                    00:cf:b2:a3:87:b8:35:43:42:14:5f:34:f8:0d:ce:
                    a2:e7:e4:de:53:f5:48:43:6c:95:76:27:ea:df:29:
                    13:0c:6d:b1:59:67:2f:60:38:51:9d:c1:c8:e6:bc:
                    8e:fb:40:48:aa:b5:ec:5f:7b:ed:5e:29:48:70:7e:
                    23:bd:c2:5b:8d:ec:09:f7:97:1d:be:8f:66:e4:ca:
                    d2:0f:71:7d:a7:cf:f2:1b:43:0c:cc:12:51:fb:56:
                    bb:22:91:c6:1f:e7:f1:8f:18:25:f9:e2:16:c5:78:
                    5c:c6:35:9b:21:7c:84:ca:51:57:81:6c:4f:65:ce:
                    70:59:40:f2:a4:be:38:68:89:93:39:77:42:4d:81:
                    7a:7c:61:ce:b8:25:37:87:e1:26:62:e7:cc:47:64:
                    6a:97:6c:af:99:ae:0c:9f:2c:08:7c:48:66:bb:20:
                    08:3c:da:1a:eb:78:f0:0f:cf:b6:e4:03:83:55:ff:
                    11:39:4b:2b:32:b9:d6:87:72:85:dd:6b:c7:5d:07:
                    68:bc:41:38:f0:d7:91:6b:bc:36:5e:3d:ab:d5:83:
                    d6:03:86:22:29:62:de:51:b8:5a:ea:08:38:79:db:
                    95:79:b8:90:40:5d:1c:86:2f:71:cc:be:46:c8:b3:
                    9b:79:fb:db:d0:de:af:3c:7a:62:2f:7a:2f:fd:25:
                    39:df
                Exponent: 65537 (0x10001)
        X509v3 extensions:
            X509v3 Subject Key Identifier: 
                DD:2F:E9:72:D4:6F:3E:22:D8:5F:B2:8E:74:9A:E3:26:84:23:28:E8
            X509v3 Authority Key Identifier: 
                keyid:DD:2F:E9:72:D4:6F:3E:22:D8:5F:B2:8E:74:9A:E3:26:84:23:28:E8

            Authority Information Access: 
                CA Issuers - URI:http://url-for-aia/Root.cer

            X509v3 CRL Distribution Points: 

                Full Name:
                  URI:http://url-for-crl/Root.crl

            X509v3 Key Usage: critical
                Certificate Sign, CRL Sign
    Signature Algorithm: sha256WithRSAEncryption
         12:01:cf:21:e6:74:8d:36:91:f8:c1:c1:ce:71:03:26:13:7b:
         dc:92:46:3f:b4:7b:b1:7f:51:7a:7c:b0:56:4a:fc:e0:2b:1d:
         0e:3b:08:c8:e4:d0:cf:4a:88:04:b5:62:82:5f:87:b9:11:6b:
         89:80:c9:1a:cf:64:81:21:e2:d2:4f:9a:aa:d7:23:a6:2a:46:
         a8:5d:3f:bf:60:c0:4c:c1:97:cd:44:05:d2:e0:78:8f:96:9b:
         1f:c5:a5:5d:4e:7f:ab:1e:3e:01:2e:9a:2c:76:b2:08:c5:76:
         22:72:cc:d4:86:6f:dc:d0:9f:de:3c:83:e6:eb:2c:1a:54:9c:
         9e:af:4a:3c:60:3e:c9:15:ef:d2:50:1a:05:a5:c2:90:45:50:
         fc:9f:1e:71:3e:f9:ab:3d:61:b5:65:6e:c0:7d:6e:52:1a:57:
         9e:57:71:a7:1c:09:55:65:40:52:88:b3:04:50:6f:09:ec:85:
         2f:ca:36:79:23:a6:35:b2:ab:df:aa:3a:c3:5a:1d:e3:a0:7f:
         72:70:22:3a:f6:6a:6e:68:da:6e:67:b5:db:f7:aa:63:83:29:
         a4:36:35:cb:86:c4:da:79:64:81:c0:e6:ae:c0:d7:6d:34:5b:
         4d:ab:04:25:e8:1f:ec:f8:62:91:81:63:7e:64:06:a9:40:97:
         68:9f:0c:70
-----BEGIN TRUST_ANCHOR_UNCONSTRAINED-----
MIIDVDCCAjygAwIBAgIBATANBgkqhkiG9w0BAQsFADAPMQ0wCwYDVQQDDARSb290
MB4XDTE1MDEwMTEyMDAwMFoXDTE2MDEwMTEyMDAwMFowDzENMAsGA1UEAwwEUm9v
dDCCASIwDQYJKoZIhvcNAQEBBQADggEPADCCAQoCggEBAM+yo4e4NUNCFF80+A3O
oufk3lP1SENslXYn6t8pEwxtsVlnL2A4UZ3ByOa8jvtASKq17F977V4pSHB+I73C
W43sCfeXHb6PZuTK0g9xfafP8htDDMwSUftWuyKRxh/n8Y8YJfniFsV4XMY1myF8
hMpRV4FsT2XOcFlA8qS+OGiJkzl3Qk2BenxhzrglN4fhJmLnzEdkapdsr5muDJ8s
CHxIZrsgCDzaGut48A/PtuQDg1X/ETlLKzK51odyhd1rx10HaLxBOPDXkWu8Nl49
q9WD1gOGIili3lG4WuoIOHnblXm4kEBdHIYvccy+Rsizm3n729Derzx6Yi96L/0l
Od8CAwEAAaOBujCBtzAdBgNVHQ4EFgQU3S/pctRvPiLYX7KOdJrjJoQjKOgwHwYD
VR0jBBgwFoAU3S/pctRvPiLYX7KOdJrjJoQjKOgwNwYIKwYBBQUHAQEEKzApMCcG
CCsGAQUFBzAChhtodHRwOi8vdXJsLWZvci1haWEvUm9vdC5jZXIwLAYDVR0fBCUw
IzAhoB+gHYYbaHR0cDovL3VybC1mb3ItY3JsL1Jvb3QuY3JsMA4GA1UdDwEB/wQE
AwIBBjANBgkqhkiG9w0BAQsFAAOCAQEAEgHPIeZ0jTaR+MHBznEDJhN73JJGP7R7
sX9RenywVkr84CsdDjsIyOTQz0qIBLVigl+HuRFriYDJGs9kgSHi0k+aqtcjpipG
qF0/v2DATMGXzUQF0uB4j5abH8WlXU5/qx4+AS6aLHayCMV2InLM1IZv3NCf3jyD
5ussGlScnq9KPGA+yRXv0lAaBaXCkEVQ/J8ecT75qz1htWVuwH1uUhpXnldxpxwJ
VWVAUoizBFBvCeyFL8o2eSOmNbKr36o6w1od46B/cnAiOvZqbmjabme12/eqY4Mp
pDY1y4bE2nlkgcDmrsDXbTRbTasEJegf7PhikYFjfmQGqUCXaJ8McA==
-----END TRUST_ANCHOR_UNCONSTRAINED-----

150302120000Z
-----BEGIN TIME-----
MTUwMzAyMTIwMDAwWg==
-----END TIME-----

SUCCESS
-----BEGIN VERIFY_RESULT-----
U1VDQ0VTUw==
-----END VERIFY_RESULT-----

serverAuth
-----BEGIN KEY_PURPOSE-----
c2VydmVyQXV0aA==
-----END KEY_PURPOSE-----
