[Created by: generate-violates-pathlen-1-constrained-root.py]

Certificate chain with 2 intermediates and one end entity certificate. The
root certificate has a pathlen:1 restriction, and constraints are enforced
on this trust anchor making it an invalid chain.

Certificate:
    Data:
        Version: 3 (0x2)
        Serial Number: 1 (0x1)
    Signature Algorithm: sha256WithRSAEncryption
        Issuer: CN=Intermediate2
        Validity
            Not Before: Jan  1 12:00:00 2015 GMT
            Not After : Jan  1 12:00:00 2016 GMT
        Subject: CN=Target
        Subject Public Key Info:
            Public Key Algorithm: rsaEncryption
                Public-Key: (2048 bit)
                Modulus:
                    00:d5:ba:49:72:77:98:7a:9b:08:60:5f:15:2d:03:
                    7a:30:b5:f4:24:b6:0e:7d:31:d6:f5:49:c0:43:c6:
                    e0:f9:31:65:fc:59:6f:79:77:57:c1:cf:96:e9:db:
                    ee:56:9a:87:67:be:1c:8b:89:c4:3a:3f:9a:0a:c3:
                    68:e1:8d:d3:02:be:ca:47:7d:e6:e0:95:db:1c:49:
                    2a:ef:ad:de:90:b7:b2:20:7c:7e:94:b8:29:4d:8d:
                    3e:5d:71:35:d2:02:ee:8e:30:ad:83:5a:dd:3f:92:
                    bc:ba:38:a5:c0:0b:e7:aa:26:fc:b2:56:c9:f7:22:
                    70:90:a1:3e:b1:36:9a:38:85:93:48:f4:cc:f7:41:
                    2d:a8:8e:b9:ca:25:a6:af:cd:94:8c:c3:cd:c9:1c:
                    ea:d7:31:57:3b:e6:01:0e:22:66:10:f0:6f:5c:f9:
                    c5:0b:24:e3:50:af:97:84:f4:14:fd:94:b3:49:54:
                    e6:a8:36:3b:e9:be:c6:91:da:87:af:1c:3d:f1:fe:
                    7c:09:d9:32:95:41:6f:15:c9:9c:53:be:b4:53:78:
                    34:fa:2e:6e:e6:e3:6a:65:89:d2:97:14:4a:01:d0:
                    fe:95:7e:36:b4:11:ac:9a:0d:71:27:3b:48:d2:12:
                    1c:93:e6:f5:87:83:56:cc:e1:01:07:c3:ac:91:6e:
                    47:53
                Exponent: 65537 (0x10001)
        X509v3 extensions:
            X509v3 Subject Key Identifier: 
                A1:89:B4:92:F7:E8:5E:99:00:E0:73:95:EC:15:CF:C9:DC:EF:5A:63
            X509v3 Authority Key Identifier: 
                keyid:F8:CA:7C:B6:29:EB:F9:FB:32:FC:E9:07:44:D0:27:BA:72:2C:E3:CB

            Authority Information Access: 
                CA Issuers - URI:http://url-for-aia/Intermediate2.cer

            X509v3 CRL Distribution Points: 

                Full Name:
                  URI:http://url-for-crl/Intermediate2.crl

            X509v3 Key Usage: critical
                Digital Signature, Key Encipherment
            X509v3 Extended Key Usage: 
                TLS Web Server Authentication, TLS Web Client Authentication
    Signature Algorithm: sha256WithRSAEncryption
         e3:49:d6:9b:d3:e2:57:a8:04:4b:37:e5:bc:30:8d:56:33:1c:
         b6:2e:06:44:9c:1e:14:95:65:64:1c:35:e4:f6:9a:1c:22:c8:
         7b:84:13:a2:e3:d9:b8:39:56:c8:ad:b1:2a:a1:fa:98:64:f9:
         ca:c4:bf:ec:0b:eb:2d:85:03:8a:e0:a8:c3:53:88:4a:07:8d:
         27:36:cc:de:78:51:ae:7e:eb:40:ba:f6:5a:cd:cf:72:7e:56:
         b3:f1:4a:16:85:04:c2:11:1c:1f:13:4f:f0:93:ec:d4:50:76:
         30:98:80:db:14:38:2c:b8:bd:ae:28:91:cf:61:ff:d9:22:a0:
         ea:e0:e9:98:87:93:ea:b3:a0:37:6f:43:ae:dd:85:08:ff:cd:
         2f:6c:25:71:2b:dc:60:1c:a8:51:bf:ea:a6:95:d7:7b:8c:87:
         c8:5d:28:14:5e:40:f6:2e:25:a5:7b:e6:a2:3a:a8:58:bc:78:
         d4:59:67:38:01:6e:2b:8a:8e:19:1c:ac:0b:3d:da:47:60:a7:
         25:34:9a:4c:69:9a:26:a3:73:ec:04:71:e4:23:ea:08:ea:78:
         74:80:f3:58:cb:d4:ec:af:8d:b1:a9:00:10:40:25:ed:ee:8c:
         21:52:cd:e1:3f:f3:b0:4f:2e:4a:51:df:87:74:4e:06:3d:cb:
         96:7c:29:58
-----BEGIN CERTIFICATE-----
MIIDkDCCAnigAwIBAgIBATANBgkqhkiG9w0BAQsFADAYMRYwFAYDVQQDDA1JbnRl
cm1lZGlhdGUyMB4XDTE1MDEwMTEyMDAwMFoXDTE2MDEwMTEyMDAwMFowETEPMA0G
A1UEAwwGVGFyZ2V0MIIBIjANBgkqhkiG9w0BAQEFAAOCAQ8AMIIBCgKCAQEA1bpJ
cneYepsIYF8VLQN6MLX0JLYOfTHW9UnAQ8bg+TFl/FlveXdXwc+W6dvuVpqHZ74c
i4nEOj+aCsNo4Y3TAr7KR33m4JXbHEkq763ekLeyIHx+lLgpTY0+XXE10gLujjCt
g1rdP5K8ujilwAvnqib8slbJ9yJwkKE+sTaaOIWTSPTM90EtqI65yiWmr82UjMPN
yRzq1zFXO+YBDiJmEPBvXPnFCyTjUK+XhPQU/ZSzSVTmqDY76b7GkdqHrxw98f58
CdkylUFvFcmcU760U3g0+i5u5uNqZYnSlxRKAdD+lX42tBGsmg1xJztI0hIck+b1
h4NWzOEBB8OskW5HUwIDAQABo4HrMIHoMB0GA1UdDgQWBBShibSS9+hemQDgc5Xs
Fc/J3O9aYzAfBgNVHSMEGDAWgBT4yny2Kev5+zL86QdE0Ce6cizjyzBABggrBgEF
BQcBAQQ0MDIwMAYIKwYBBQUHMAKGJGh0dHA6Ly91cmwtZm9yLWFpYS9JbnRlcm1l
ZGlhdGUyLmNlcjA1BgNVHR8ELjAsMCqgKKAmhiRodHRwOi8vdXJsLWZvci1jcmwv
SW50ZXJtZWRpYXRlMi5jcmwwDgYDVR0PAQH/BAQDAgWgMB0GA1UdJQQWMBQGCCsG
AQUFBwMBBggrBgEFBQcDAjANBgkqhkiG9w0BAQsFAAOCAQEA40nWm9PiV6gESzfl
vDCNVjMcti4GRJweFJVlZBw15PaaHCLIe4QTouPZuDlWyK2xKqH6mGT5ysS/7Avr
LYUDiuCow1OISgeNJzbM3nhRrn7rQLr2Ws3Pcn5Ws/FKFoUEwhEcHxNP8JPs1FB2
MJiA2xQ4LLi9riiRz2H/2SKg6uDpmIeT6rOgN29Drt2FCP/NL2wlcSvcYByoUb/q
ppXXe4yHyF0oFF5A9i4lpXvmojqoWLx41FlnOAFuK4qOGRysCz3aR2CnJTSaTGma
JqNz7ARx5CPqCOp4dIDzWMvU7K+NsakAEEAl7e6MIVLN4T/zsE8uSlHfh3ROBj3L
lnwpWA==
-----END CERTIFICATE-----

Certificate:
    Data:
        Version: 3 (0x2)
        Serial Number: 1 (0x1)
    Signature Algorithm: sha256WithRSAEncryption
        Issuer: CN=Intermediate1
        Validity
            Not Before: Jan  1 12:00:00 2015 GMT
            Not After : Jan  1 12:00:00 2016 GMT
        Subject: CN=Intermediate2
        Subject Public Key Info:
            Public Key Algorithm: rsaEncryption
                Public-Key: (2048 bit)
                Modulus:
                    00:eb:27:bb:a7:3b:d4:cb:75:c7:da:66:38:d8:36:
                    92:a4:64:86:f5:29:16:a7:60:e5:0e:0c:12:22:22:
                    29:e4:84:ad:34:74:8f:29:fd:d4:55:d1:31:ee:c4:
                    21:d2:9a:9f:e6:72:60:6a:aa:8c:5e:8e:dd:24:b7:
                    89:59:2a:cc:ef:27:ad:7b:e4:71:47:eb:a8:ea:25:
                    4e:30:2c:49:74:06:04:b6:0a:05:78:59:ba:34:20:
                    52:54:1a:45:fd:e5:2c:f7:db:38:66:8b:8a:ba:6e:
                    dc:8e:f9:e1:e4:e6:38:d1:33:ed:7c:89:52:f7:1a:
                    5d:a5:a3:fa:2c:ac:21:36:be:3b:01:b8:c9:4c:bb:
                    44:97:a5:3e:ed:34:de:98:d4:7c:25:40:db:d8:f8:
                    7e:c8:9c:08:5f:c7:7c:92:c1:b3:8b:7c:4b:0c:fb:
                    a0:18:fc:9e:95:d3:d9:23:25:94:0a:1c:27:29:95:
                    2c:85:99:fe:e8:cc:4d:91:02:05:70:f0:6a:fe:80:
                    3c:58:5a:c9:d2:4f:ae:54:b2:f8:28:96:1c:88:d7:
                    eb:d5:51:1a:d4:4e:2f:46:c8:b5:11:b2:d9:33:36:
                    84:ee:63:ac:cc:e8:52:20:e8:db:5c:d3:f5:de:ca:
                    a8:c2:41:82:4a:02:53:ff:10:f6:ee:40:3e:90:02:
                    2d:d1
                Exponent: 65537 (0x10001)
        X509v3 extensions:
            X509v3 Subject Key Identifier: 
                F8:CA:7C:B6:29:EB:F9:FB:32:FC:E9:07:44:D0:27:BA:72:2C:E3:CB
            X509v3 Authority Key Identifier: 
                keyid:69:78:9C:E4:B3:1F:B8:FA:9A:A8:D8:10:CA:29:F1:C8:CF:46:98:EB

            Authority Information Access: 
                CA Issuers - URI:http://url-for-aia/Intermediate1.cer

            X509v3 CRL Distribution Points: 

                Full Name:
                  URI:http://url-for-crl/Intermediate1.crl

            X509v3 Key Usage: critical
                Certificate Sign, CRL Sign
            X509v3 Basic Constraints: critical
                CA:TRUE
    Signature Algorithm: sha256WithRSAEncryption
         84:62:43:5c:06:b9:f3:39:ce:ab:d5:52:71:5e:c7:ea:1c:fe:
         75:1c:e3:1a:b9:61:31:22:21:6e:40:01:50:78:bc:2d:f2:aa:
         22:97:01:97:00:f6:34:a8:22:b4:46:29:26:ad:42:a7:80:af:
         eb:1b:df:a0:e6:6c:00:c2:07:9e:f5:f6:f9:24:7a:d4:df:ed:
         c7:b0:f7:19:2a:8e:4e:69:9f:8b:90:1b:05:82:e4:c3:1e:82:
         db:98:98:26:9a:b6:77:34:b1:91:40:dc:2e:63:ce:2a:bd:d1:
         5e:c6:ff:4d:ec:97:ad:9c:c6:a6:bb:36:2d:42:f4:37:02:a6:
         8a:b1:c9:c6:e6:86:20:d8:30:f0:b7:34:dd:15:45:fb:35:b1:
         05:15:c2:3e:9e:c3:6d:e6:c5:3e:3c:94:65:e9:ab:46:5b:7a:
         dc:e8:37:31:c3:5c:96:b4:b0:88:7e:ed:3f:84:cd:63:39:a3:
         11:06:f2:90:77:22:60:27:98:6b:0d:76:1f:c4:e5:5b:1e:72:
         c1:9b:a3:10:9a:05:3e:21:97:0e:04:8d:de:21:db:34:ae:89:
         33:26:e6:fc:3e:0c:72:4e:e5:56:d0:e3:58:a4:a9:ed:15:34:
         05:8f:f7:f1:1d:ad:8e:b2:df:0c:37:61:f8:60:ec:db:9a:9d:
         6d:8f:11:a0
-----BEGIN CERTIFICATE-----
MIIDiTCCAnGgAwIBAgIBATANBgkqhkiG9w0BAQsFADAYMRYwFAYDVQQDDA1JbnRl
cm1lZGlhdGUxMB4XDTE1MDEwMTEyMDAwMFoXDTE2MDEwMTEyMDAwMFowGDEWMBQG
A1UEAwwNSW50ZXJtZWRpYXRlMjCCASIwDQYJKoZIhvcNAQEBBQADggEPADCCAQoC
ggEBAOsnu6c71Mt1x9pmONg2kqRkhvUpFqdg5Q4MEiIiKeSErTR0jyn91FXRMe7E
IdKan+ZyYGqqjF6O3SS3iVkqzO8nrXvkcUfrqOolTjAsSXQGBLYKBXhZujQgUlQa
Rf3lLPfbOGaLirpu3I754eTmONEz7XyJUvcaXaWj+iysITa+OwG4yUy7RJelPu00
3pjUfCVA29j4fsicCF/HfJLBs4t8Swz7oBj8npXT2SMllAocJymVLIWZ/ujMTZEC
BXDwav6APFhaydJPrlSy+CiWHIjX69VRGtROL0bItRGy2TM2hO5jrMzoUiDo21zT
9d7KqMJBgkoCU/8Q9u5APpACLdECAwEAAaOB3TCB2jAdBgNVHQ4EFgQU+Mp8tinr
+fsy/OkHRNAnunIs48swHwYDVR0jBBgwFoAUaXic5LMfuPqaqNgQyinxyM9GmOsw
QAYIKwYBBQUHAQEENDAyMDAGCCsGAQUFBzAChiRodHRwOi8vdXJsLWZvci1haWEv
SW50ZXJtZWRpYXRlMS5jZXIwNQYDVR0fBC4wLDAqoCigJoYkaHR0cDovL3VybC1m
b3ItY3JsL0ludGVybWVkaWF0ZTEuY3JsMA4GA1UdDwEB/wQEAwIBBjAPBgNVHRMB
Af8EBTADAQH/MA0GCSqGSIb3DQEBCwUAA4IBAQCEYkNcBrnzOc6r1VJxXsfqHP51
HOMauWExIiFuQAFQeLwt8qoilwGXAPY0qCK0RikmrUKngK/rG9+g5mwAwgee9fb5
JHrU3+3HsPcZKo5OaZ+LkBsFguTDHoLbmJgmmrZ3NLGRQNwuY84qvdFexv9N7Jet
nMamuzYtQvQ3AqaKscnG5oYg2DDwtzTdFUX7NbEFFcI+nsNt5sU+PJRl6atGW3rc
6Dcxw1yWtLCIfu0/hM1jOaMRBvKQdyJgJ5hrDXYfxOVbHnLBm6MQmgU+IZcOBI3e
Ids0rokzJub8PgxyTuVW0ONYpKntFTQFj/fxHa2Ost8MN2H4YOzbmp1tjxGg
-----END CERTIFICATE-----

Certificate:
    Data:
        Version: 3 (0x2)
        Serial Number: 2 (0x2)
    Signature Algorithm: sha256WithRSAEncryption
        Issuer: CN=Root
        Validity
            Not Before: Jan  1 12:00:00 2015 GMT
            Not After : Jan  1 12:00:00 2016 GMT
        Subject: CN=Intermediate1
        Subject Public Key Info:
            Public Key Algorithm: rsaEncryption
                Public-Key: (2048 bit)
                Modulus:
                    00:d1:c2:6a:7a:d7:28:b1:49:61:5c:d1:75:a5:99:
                    6c:ca:b6:82:d2:d3:01:03:ee:a5:83:4f:45:47:b7:
                    b5:88:e9:c4:0d:74:04:c2:57:dc:3e:58:2d:65:3c:
                    5c:06:f1:5b:c3:13:38:a9:28:2f:c7:b9:5b:9f:9e:
                    fb:c1:d8:cb:12:ed:c8:1d:31:45:68:fe:48:b6:f3:
                    65:2e:28:dc:68:26:57:de:0b:71:c6:a4:5f:27:7f:
                    7b:30:22:70:98:1d:a2:96:85:f3:6a:0c:41:03:5e:
                    79:91:b1:d6:1b:89:13:d1:7c:64:7d:19:43:66:eb:
                    5d:bb:e8:f7:01:30:b9:85:4d:7a:6d:06:06:29:6a:
                    b2:a3:45:a6:c9:d1:e3:14:4f:ec:a4:21:29:28:27:
                    ac:3e:52:86:74:f2:b1:d5:4b:ee:f6:b2:07:32:be:
                    a5:31:57:4e:15:c4:e0:22:d9:64:08:55:88:6e:50:
                    4e:26:07:c7:f0:93:e4:ab:6e:b4:be:e2:76:21:46:
                    64:44:de:ba:fa:8c:c4:0a:5d:40:e2:10:ee:f7:22:
                    5b:6d:01:b4:a8:41:c8:ef:8f:67:b9:1a:ad:da:27:
                    53:b6:02:0f:a4:b4:17:66:a6:4b:91:3a:37:0b:6e:
                    f6:c1:34:23:62:9e:86:47:f3:bb:2e:ec:b4:a1:4c:
                    87:17
                Exponent: 65537 (0x10001)
        X509v3 extensions:
            X509v3 Subject Key Identifier: 
                69:78:9C:E4:B3:1F:B8:FA:9A:A8:D8:10:CA:29:F1:C8:CF:46:98:EB
            X509v3 Authority Key Identifier: 
                keyid:B4:BC:EB:EE:7C:D8:81:4D:B6:85:05:30:CE:A3:01:50:75:92:75:C4

            Authority Information Access: 
                CA Issuers - URI:http://url-for-aia/Root.cer

            X509v3 CRL Distribution Points: 

                Full Name:
                  URI:http://url-for-crl/Root.crl

            X509v3 Key Usage: critical
                Certificate Sign, CRL Sign
            X509v3 Basic Constraints: critical
                CA:TRUE
    Signature Algorithm: sha256WithRSAEncryption
         76:48:7b:d1:f1:e7:f4:cd:ea:0a:20:a1:3d:dd:53:a1:5d:5b:
         b8:4c:1f:a0:a1:29:8f:54:27:4f:05:94:e0:84:6c:8b:aa:23:
         b1:55:dd:c9:2c:70:8c:8d:be:44:44:64:d4:2e:9c:ed:b2:b1:
         5f:ab:97:83:16:ad:2e:27:21:22:cc:a3:2b:fc:a3:55:e4:58:
         86:6d:6b:78:36:aa:a0:32:d4:4e:59:99:75:68:81:23:99:41:
         64:28:e0:0a:bc:0b:db:56:34:c3:c8:b8:08:7f:d5:4e:1f:16:
         d8:c0:3f:a2:17:42:64:4d:37:89:4f:06:3b:7a:1e:97:82:92:
         7c:a3:e1:9e:4d:46:2e:a0:6a:cd:71:77:e1:77:e3:43:98:18:
         21:c1:f3:23:f9:69:18:d5:1b:56:00:2a:97:54:e7:ca:65:97:
         14:8b:d6:77:5c:a5:df:4b:4b:9f:75:b8:cf:79:cd:5b:10:42:
         a2:d2:90:3e:77:79:92:46:e0:ca:34:3d:bd:4a:d2:2a:10:50:
         79:0a:8a:78:2b:ce:ea:0c:83:ca:22:c2:9b:8f:ae:4c:67:25:
         9b:2b:e6:09:87:c2:8f:4d:46:6b:85:7d:94:b9:00:f9:3a:55:
         bc:2d:06:3e:27:19:49:af:c7:a5:a2:23:d0:ac:cf:62:24:4a:
         11:90:81:37
-----BEGIN CERTIFICATE-----
MIIDbjCCAlagAwIBAgIBAjANBgkqhkiG9w0BAQsFADAPMQ0wCwYDVQQDDARSb290
MB4XDTE1MDEwMTEyMDAwMFoXDTE2MDEwMTEyMDAwMFowGDEWMBQGA1UEAwwNSW50
ZXJtZWRpYXRlMTCCASIwDQYJKoZIhvcNAQEBBQADggEPADCCAQoCggEBANHCanrX
KLFJYVzRdaWZbMq2gtLTAQPupYNPRUe3tYjpxA10BMJX3D5YLWU8XAbxW8MTOKko
L8e5W5+e+8HYyxLtyB0xRWj+SLbzZS4o3GgmV94LccakXyd/ezAicJgdopaF82oM
QQNeeZGx1huJE9F8ZH0ZQ2brXbvo9wEwuYVNem0GBilqsqNFpsnR4xRP7KQhKSgn
rD5ShnTysdVL7vayBzK+pTFXThXE4CLZZAhViG5QTiYHx/CT5KtutL7idiFGZETe
uvqMxApdQOIQ7vciW20BtKhByO+PZ7kardonU7YCD6S0F2amS5E6Nwtu9sE0I2Ke
hkfzuy7stKFMhxcCAwEAAaOByzCByDAdBgNVHQ4EFgQUaXic5LMfuPqaqNgQyinx
yM9GmOswHwYDVR0jBBgwFoAUtLzr7nzYgU22hQUwzqMBUHWSdcQwNwYIKwYBBQUH
AQEEKzApMCcGCCsGAQUFBzAChhtodHRwOi8vdXJsLWZvci1haWEvUm9vdC5jZXIw
LAYDVR0fBCUwIzAhoB+gHYYbaHR0cDovL3VybC1mb3ItY3JsL1Jvb3QuY3JsMA4G
A1UdDwEB/wQEAwIBBjAPBgNVHRMBAf8EBTADAQH/MA0GCSqGSIb3DQEBCwUAA4IB
AQB2SHvR8ef0zeoKIKE93VOhXVu4TB+goSmPVCdPBZTghGyLqiOxVd3JLHCMjb5E
RGTULpztsrFfq5eDFq0uJyEizKMr/KNV5FiGbWt4NqqgMtROWZl1aIEjmUFkKOAK
vAvbVjTDyLgIf9VOHxbYwD+iF0JkTTeJTwY7eh6XgpJ8o+GeTUYuoGrNcXfhd+ND
mBghwfMj+WkY1RtWACqXVOfKZZcUi9Z3XKXfS0ufdbjPec1bEEKi0pA+d3mSRuDK
ND29StIqEFB5Cop4K87qDIPKIsKbj65MZyWbK+YJh8KPTUZrhX2UuQD5OlW8LQY+
JxlJr8eloiPQrM9iJEoRkIE3
-----END CERTIFICATE-----

Certificate:
    Data:
        Version: 3 (0x2)
        Serial Number: 1 (0x1)
    Signature Algorithm: sha256WithRSAEncryption
        Issuer: CN=Root
        Validity
            Not Before: Jan  1 12:00:00 2015 GMT
            Not After : Jan  1 12:00:00 2016 GMT
        Subject: CN=Root
        Subject Public Key Info:
            Public Key Algorithm: rsaEncryption
                Public-Key: (2048 bit)
                Modulus:
                    00:ba:0b:93:f2:44:8e:7e:00:d8:9b:6d:f4:bc:4b:
                    e1:b9:5f:3d:fc:ad:65:9c:5d:d0:b0:0c:95:4a:69:
                    e9:93:39:f5:67:34:44:9c:ed:de:47:6b:87:a1:5f:
                    81:e3:fa:a7:d3:fb:d7:66:dc:32:ab:11:a3:02:eb:
                    b9:7f:6d:60:c7:8d:8e:ae:a8:c4:22:45:7f:23:10:
                    c7:a4:30:b1:46:5b:1a:dc:8b:14:b8:76:e9:6d:fc:
                    0e:07:40:fb:36:8e:e0:a4:61:71:29:c8:ac:99:08:
                    73:f1:e1:7a:55:2d:f1:95:ca:b9:17:c3:d3:8d:ac:
                    a9:0a:8c:b4:97:36:8d:5e:b7:01:75:60:b2:8a:e5:
                    2e:bc:25:e9:66:b5:ce:07:ea:14:51:4e:c3:5d:80:
                    df:0c:4b:6a:29:98:78:e5:dc:27:8b:7d:8f:fe:2b:
                    4b:95:98:b1:f9:55:5d:44:55:3f:b9:b3:75:db:e8:
                    b9:85:1e:7e:2b:3e:36:65:d7:7f:d1:f5:6d:2f:e5:
                    72:de:e2:ae:4d:f7:26:30:57:79:98:c7:ed:48:47:
                    15:7c:8b:ca:6a:ea:2a:9e:8b:c1:b3:e4:9d:f4:00:
                    9b:f7:58:ce:47:18:2e:0b:2e:2a:ef:31:bc:2a:b5:
                    24:4b:77:52:a1:71:c3:3c:3c:fc:af:db:52:7b:0d:
                    c1:43
                Exponent: 65537 (0x10001)
        X509v3 extensions:
            X509v3 Subject Key Identifier: 
                B4:BC:EB:EE:7C:D8:81:4D:B6:85:05:30:CE:A3:01:50:75:92:75:C4
            X509v3 Authority Key Identifier: 
                keyid:B4:BC:EB:EE:7C:D8:81:4D:B6:85:05:30:CE:A3:01:50:75:92:75:C4

            Authority Information Access: 
                CA Issuers - URI:http://url-for-aia/Root.cer

            X509v3 CRL Distribution Points: 

                Full Name:
                  URI:http://url-for-crl/Root.crl

            X509v3 Key Usage: critical
                Certificate Sign, CRL Sign
            X509v3 Basic Constraints: critical
                CA:TRUE, pathlen:1
    Signature Algorithm: sha256WithRSAEncryption
         01:aa:4a:78:d6:dc:8b:22:9b:45:59:f4:de:57:b8:3e:91:2f:
         68:f0:33:e9:a2:df:dd:fe:88:6a:76:9f:8e:94:36:fc:53:58:
         0c:f5:ba:31:9e:50:d7:da:91:dd:61:0c:c2:62:8c:20:00:c7:
         be:3e:23:6c:79:83:de:80:38:df:d8:66:c6:ef:26:08:5a:ae:
         5d:ff:82:3f:fe:59:04:60:df:7e:13:d1:48:8e:f4:cf:7d:87:
         12:28:c9:b4:27:28:1c:f6:58:70:00:cc:31:35:66:58:7c:3b:
         1e:c4:f9:d0:0f:7d:bd:0f:17:c3:ff:da:06:d6:77:8e:68:77:
         f7:35:e4:b2:23:88:e9:1f:29:90:a2:10:4e:2b:69:e9:9e:35:
         2b:36:70:72:b9:1f:7c:2b:b3:2b:9c:87:85:92:4b:5f:d6:c2:
         98:cf:03:2c:fa:31:c4:99:14:be:88:81:5b:ec:cc:1a:00:79:
         f0:ba:cc:fe:aa:f5:05:1a:67:ef:ff:cf:d1:ba:32:a1:b5:f5:
         d8:4b:71:99:52:18:95:65:d4:25:e2:15:d1:26:81:4f:67:9a:
         07:45:20:1e:68:e5:d2:f0:aa:09:90:cf:e8:e3:87:d0:24:67:
         b1:08:24:0b:f1:0f:be:c5:0c:50:f1:7c:d8:4f:c4:f0:ee:74:
         c0:8e:bd:5e
-----BEGIN TRUST_ANCHOR_CONSTRAINED-----
MIIDaDCCAlCgAwIBAgIBATANBgkqhkiG9w0BAQsFADAPMQ0wCwYDVQQDDARSb290
MB4XDTE1MDEwMTEyMDAwMFoXDTE2MDEwMTEyMDAwMFowDzENMAsGA1UEAwwEUm9v
dDCCASIwDQYJKoZIhvcNAQEBBQADggEPADCCAQoCggEBALoLk/JEjn4A2Jtt9LxL
4blfPfytZZxd0LAMlUpp6ZM59Wc0RJzt3kdrh6FfgeP6p9P712bcMqsRowLruX9t
YMeNjq6oxCJFfyMQx6QwsUZbGtyLFLh26W38DgdA+zaO4KRhcSnIrJkIc/HhelUt
8ZXKuRfD042sqQqMtJc2jV63AXVgsorlLrwl6Wa1zgfqFFFOw12A3wxLaimYeOXc
J4t9j/4rS5WYsflVXURVP7mzddvouYUefis+NmXXf9H1bS/lct7irk33JjBXeZjH
7UhHFXyLymrqKp6LwbPknfQAm/dYzkcYLgsuKu8xvCq1JEt3UqFxwzw8/K/bUnsN
wUMCAwEAAaOBzjCByzAdBgNVHQ4EFgQUtLzr7nzYgU22hQUwzqMBUHWSdcQwHwYD
VR0jBBgwFoAUtLzr7nzYgU22hQUwzqMBUHWSdcQwNwYIKwYBBQUHAQEEKzApMCcG
CCsGAQUFBzAChhtodHRwOi8vdXJsLWZvci1haWEvUm9vdC5jZXIwLAYDVR0fBCUw
IzAhoB+gHYYbaHR0cDovL3VybC1mb3ItY3JsL1Jvb3QuY3JsMA4GA1UdDwEB/wQE
AwIBBjASBgNVHRMBAf8ECDAGAQH/AgEBMA0GCSqGSIb3DQEBCwUAA4IBAQABqkp4
1tyLIptFWfTeV7g+kS9o8DPpot/d/ohqdp+OlDb8U1gM9boxnlDX2pHdYQzCYowg
AMe+PiNseYPegDjf2GbG7yYIWq5d/4I//lkEYN9+E9FIjvTPfYcSKMm0Jygc9lhw
AMwxNWZYfDsexPnQD329DxfD/9oG1neOaHf3NeSyI4jpHymQohBOK2npnjUrNnBy
uR98K7MrnIeFkktf1sKYzwMs+jHEmRS+iIFb7MwaAHnwusz+qvUFGmfv/8/RujKh
tfXYS3GZUhiVZdQl4hXRJoFPZ5oHRSAeaOXS8KoJkM/o44fQJGexCCQL8Q++xQxQ
8XzYT8Tw7nTAjr1e
-----END TRUST_ANCHOR_CONSTRAINED-----

150302120000Z
-----BEGIN TIME-----
MTUwMzAyMTIwMDAwWg==
-----END TIME-----

FAIL
-----BEGIN VERIFY_RESULT-----
RkFJTA==
-----END VERIFY_RESULT-----

serverAuth
-----BEGIN KEY_PURPOSE-----
c2VydmVyQXV0aA==
-----END KEY_PURPOSE-----

----- Certificate i=1 (CN=Intermediate2) -----
ERROR: max_path_length reached


-----BEGIN ERRORS-----
LS0tLS0gQ2VydGlmaWNhdGUgaT0xIChDTj1JbnRlcm1lZGlhdGUyKSAtLS0tLQpFUlJPUjogbWF4X3BhdGhfbGVuZ3RoIHJlYWNoZWQKCg==
-----END ERRORS-----
