[Created by: generate-violates-pathlen-1-unconstrained-root.py]

Certificate chain with 2 intermediates and one end entity certificate. The
root certificate has a pathlen:1 restriction. Ordinarily this would be an
invalid chain, however constraints on this trust anchor are not enforced.

Certificate:
    Data:
        Version: 3 (0x2)
        Serial Number: 1 (0x1)
    Signature Algorithm: sha256WithRSAEncryption
        Issuer: CN=Intermediate2
        Validity
            Not Before: Jan  1 12:00:00 2015 GMT
            Not After : Jan  1 12:00:00 2016 GMT
        Subject: CN=Target
        Subject Public Key Info:
            Public Key Algorithm: rsaEncryption
                Public-Key: (2048 bit)
                Modulus:
                    00:a5:83:a6:86:f4:e7:3f:71:41:1a:68:61:f0:c7:
                    b0:df:0c:2d:70:47:fd:dc:d1:60:fe:dd:3c:60:bd:
                    bb:a0:b0:b3:bf:28:6e:46:df:30:40:73:46:92:6e:
                    3d:6b:9d:7c:cc:24:f8:62:87:98:3d:f5:94:23:aa:
                    67:97:e7:24:36:8f:eb:da:fc:a2:4c:4c:07:ff:3c:
                    26:d6:fa:c6:e4:5e:02:f1:65:f7:d8:80:90:7c:fc:
                    c2:ff:e7:75:33:76:10:0f:4b:6f:cd:87:ba:df:2b:
                    75:3f:f2:85:12:d3:67:f5:f0:10:1a:00:d0:b6:cd:
                    b4:04:93:62:15:0f:3d:4d:0e:2f:fa:35:aa:e5:e5:
                    d0:78:db:10:74:fa:e6:ea:d9:e2:12:e1:95:1e:09:
                    18:1f:c3:f4:bb:d2:0f:1e:c1:07:0f:3b:11:fd:6d:
                    c5:dd:a4:7e:85:82:a9:fd:fb:0f:95:60:ad:12:1d:
                    78:d1:80:b2:b8:37:da:d4:ab:22:52:b4:b6:d0:67:
                    6d:8c:62:9d:15:48:99:11:51:e7:b6:7f:f8:c5:83:
                    4c:c1:49:76:59:4f:f1:8a:40:f7:d3:b2:6e:1e:e7:
                    97:fe:2a:ca:75:26:91:85:10:ab:71:86:a1:6b:e5:
                    ad:5e:3a:95:c8:b0:7a:dd:97:ca:5d:b4:65:c1:3e:
                    fa:75
                Exponent: 65537 (0x10001)
        X509v3 extensions:
            X509v3 Subject Key Identifier: 
                A1:58:30:09:2D:5A:FE:78:44:6C:F8:12:93:53:52:CF:1F:0B:CC:98
            X509v3 Authority Key Identifier: 
                keyid:40:CA:3F:05:69:4A:60:4B:35:9B:F1:C0:57:88:0B:41:0F:BA:92:00

            Authority Information Access: 
                CA Issuers - URI:http://url-for-aia/Intermediate2.cer

            X509v3 CRL Distribution Points: 

                Full Name:
                  URI:http://url-for-crl/Intermediate2.crl

            X509v3 Key Usage: critical
                Digital Signature, Key Encipherment
            X509v3 Extended Key Usage: 
                TLS Web Server Authentication, TLS Web Client Authentication
    Signature Algorithm: sha256WithRSAEncryption
         16:c7:97:e8:62:8d:aa:ed:04:69:41:bb:c3:e1:79:77:19:47:
         3f:31:60:53:78:51:80:1c:2b:b5:d6:9f:6d:77:3c:06:49:f6:
         d8:44:66:cc:d6:af:10:6b:55:40:f7:0a:37:e2:58:e9:9c:ec:
         28:11:f6:31:28:36:1b:09:61:4e:a8:72:7f:c1:0c:06:27:88:
         70:44:1c:ef:fd:9f:e0:bb:d9:0e:87:55:ed:ba:4a:e8:fe:f7:
         aa:48:72:d2:33:83:2c:30:3d:57:a5:d5:04:d4:05:3a:ba:28:
         e1:cb:00:8b:0d:86:29:fa:ab:99:5c:7c:91:72:fe:af:e7:59:
         ea:eb:9a:34:d2:41:37:5a:f1:b4:f7:83:9a:ed:c8:2a:c4:48:
         96:58:8b:3b:4c:49:e4:e0:a1:43:d9:5e:97:34:3c:5a:ca:d1:
         01:12:ad:94:91:59:17:76:99:63:fb:f3:51:06:26:f2:6e:1e:
         ba:5c:0f:c9:08:e1:1f:46:23:93:27:de:ed:38:8e:e6:e8:af:
         a2:1b:e4:55:c9:be:eb:b5:f3:aa:8e:db:43:f3:a5:9f:c3:2e:
         dd:c2:f6:32:a1:32:1c:8e:b4:4b:95:9e:23:fe:c7:fc:49:fd:
         ce:67:07:1a:15:5a:03:8f:a8:5b:9b:56:ae:41:67:d4:15:75:
         e3:73:77:83
-----BEGIN CERTIFICATE-----
MIIDkDCCAnigAwIBAgIBATANBgkqhkiG9w0BAQsFADAYMRYwFAYDVQQDDA1JbnRl
cm1lZGlhdGUyMB4XDTE1MDEwMTEyMDAwMFoXDTE2MDEwMTEyMDAwMFowETEPMA0G
A1UEAwwGVGFyZ2V0MIIBIjANBgkqhkiG9w0BAQEFAAOCAQ8AMIIBCgKCAQEApYOm
hvTnP3FBGmhh8Mew3wwtcEf93NFg/t08YL27oLCzvyhuRt8wQHNGkm49a518zCT4
YoeYPfWUI6pnl+ckNo/r2vyiTEwH/zwm1vrG5F4C8WX32ICQfPzC/+d1M3YQD0tv
zYe63yt1P/KFEtNn9fAQGgDQts20BJNiFQ89TQ4v+jWq5eXQeNsQdPrm6tniEuGV
HgkYH8P0u9IPHsEHDzsR/W3F3aR+hYKp/fsPlWCtEh140YCyuDfa1KsiUrS20Gdt
jGKdFUiZEVHntn/4xYNMwUl2WU/xikD307JuHueX/irKdSaRhRCrcYaha+WtXjqV
yLB63ZfKXbRlwT76dQIDAQABo4HrMIHoMB0GA1UdDgQWBBShWDAJLVr+eERs+BKT
U1LPHwvMmDAfBgNVHSMEGDAWgBRAyj8FaUpgSzWb8cBXiAtBD7qSADBABggrBgEF
BQcBAQQ0MDIwMAYIKwYBBQUHMAKGJGh0dHA6Ly91cmwtZm9yLWFpYS9JbnRlcm1l
ZGlhdGUyLmNlcjA1BgNVHR8ELjAsMCqgKKAmhiRodHRwOi8vdXJsLWZvci1jcmwv
SW50ZXJtZWRpYXRlMi5jcmwwDgYDVR0PAQH/BAQDAgWgMB0GA1UdJQQWMBQGCCsG
AQUFBwMBBggrBgEFBQcDAjANBgkqhkiG9w0BAQsFAAOCAQEAFseX6GKNqu0EaUG7
w+F5dxlHPzFgU3hRgBwrtdafbXc8Bkn22ERmzNavEGtVQPcKN+JY6ZzsKBH2MSg2
GwlhTqhyf8EMBieIcEQc7/2f4LvZDodV7bpK6P73qkhy0jODLDA9V6XVBNQFOroo
4csAiw2GKfqrmVx8kXL+r+dZ6uuaNNJBN1rxtPeDmu3IKsRIlliLO0xJ5OChQ9le
lzQ8WsrRARKtlJFZF3aZY/vzUQYm8m4eulwPyQjhH0Yjkyfe7TiO5uivohvkVcm+
67Xzqo7bQ/Oln8Mu3cL2MqEyHI60S5WeI/7H/En9zmcHGhVaA4+oW5tWrkFn1BV1
43N3gw==
-----END CERTIFICATE-----

Certificate:
    Data:
        Version: 3 (0x2)
        Serial Number: 1 (0x1)
    Signature Algorithm: sha256WithRSAEncryption
        Issuer: CN=Intermediate1
        Validity
            Not Before: Jan  1 12:00:00 2015 GMT
            Not After : Jan  1 12:00:00 2016 GMT
        Subject: CN=Intermediate2
        Subject Public Key Info:
            Public Key Algorithm: rsaEncryption
                Public-Key: (2048 bit)
                Modulus:
                    00:b2:66:27:9d:a9:7e:4e:62:69:a3:dd:21:21:37:
                    34:7d:95:a5:35:8b:c0:18:31:4c:f6:fe:2a:f9:08:
                    e4:cf:20:97:49:f8:7c:c5:be:35:bb:6c:e9:7e:82:
                    88:12:13:2d:72:c8:f3:57:8c:3f:4f:b7:98:12:77:
                    c2:29:5f:cb:11:a5:e7:1c:a1:e1:68:e7:0d:36:ee:
                    14:b2:e8:85:10:99:a2:a6:b5:37:37:6e:c4:dd:b1:
                    c1:61:a3:62:6b:60:86:f1:e3:08:34:98:7b:ce:00:
                    05:4f:67:eb:65:a1:c2:aa:93:1d:d0:57:dd:30:f5:
                    31:ef:17:1f:27:9f:80:b3:bc:2e:6b:3d:a1:24:0b:
                    ec:17:01:38:2a:75:5b:d6:d7:d6:7e:b9:6c:96:8f:
                    12:d8:c6:09:1e:02:8e:a5:44:00:7e:d1:1c:22:20:
                    4b:15:ab:52:2f:04:d8:36:05:86:44:db:83:9d:6a:
                    b9:57:0a:e9:a7:07:2f:e0:df:35:af:8d:ce:7e:d6:
                    52:ef:13:db:aa:95:76:58:de:10:e1:79:35:6a:cd:
                    bd:c1:5c:da:69:93:57:f0:21:b6:06:0b:9f:d4:6d:
                    0d:1d:8d:24:ba:b4:fe:5d:61:36:9b:27:ee:f9:3a:
                    72:d5:fb:e7:d4:96:1e:87:42:b9:14:ad:42:1f:ad:
                    cf:2b
                Exponent: 65537 (0x10001)
        X509v3 extensions:
            X509v3 Subject Key Identifier: 
                40:CA:3F:05:69:4A:60:4B:35:9B:F1:C0:57:88:0B:41:0F:BA:92:00
            X509v3 Authority Key Identifier: 
                keyid:BB:83:13:E6:FB:7E:18:D3:D2:CD:9D:33:9A:67:B7:B5:93:B6:A2:20

            Authority Information Access: 
                CA Issuers - URI:http://url-for-aia/Intermediate1.cer

            X509v3 CRL Distribution Points: 

                Full Name:
                  URI:http://url-for-crl/Intermediate1.crl

            X509v3 Key Usage: critical
                Certificate Sign, CRL Sign
            X509v3 Basic Constraints: critical
                CA:TRUE
    Signature Algorithm: sha256WithRSAEncryption
         4a:96:55:c9:c0:d5:21:f4:ac:92:66:ba:83:a9:74:b0:c8:2b:
         ab:be:3a:7d:85:59:0c:ca:7a:32:e6:64:e0:34:1c:1e:9a:e9:
         f0:50:3e:ed:16:ca:a4:7a:f8:ef:b6:15:7e:7b:72:68:f1:dd:
         63:1b:29:de:1c:ee:39:31:f5:7d:e0:7d:44:2c:8d:60:5e:cd:
         f9:ca:d9:db:cb:b4:e5:d9:1a:e5:64:cb:01:49:20:55:db:42:
         88:04:67:52:04:26:7d:b6:f9:23:9d:bd:ae:63:24:79:f8:20:
         99:35:13:d0:db:84:ab:1d:ee:3a:1f:d6:cc:85:de:02:d7:c1:
         60:c4:4a:6e:6c:a9:bc:a6:a7:e3:58:b5:f5:f1:a6:63:b6:80:
         82:64:1e:00:38:5c:df:75:39:1d:8b:6a:48:a6:64:4f:20:b8:
         2f:ed:4f:23:79:a8:3c:3c:ad:ca:33:6d:90:aa:f9:f4:7d:e1:
         0c:b6:4b:8b:e9:84:4b:60:ea:2b:b1:be:ed:8f:4a:ad:36:f0:
         cb:b2:1d:cc:e2:0e:75:e3:52:0f:bb:81:ac:7a:f1:8b:bf:4b:
         29:60:ed:72:46:27:92:93:8e:c5:a1:24:79:34:21:a6:bd:3f:
         fc:20:76:f4:e0:ba:84:d6:ed:e6:22:a7:03:87:e1:56:b8:7f:
         b0:dc:b2:7e
-----BEGIN CERTIFICATE-----
MIIDiTCCAnGgAwIBAgIBATANBgkqhkiG9w0BAQsFADAYMRYwFAYDVQQDDA1JbnRl
cm1lZGlhdGUxMB4XDTE1MDEwMTEyMDAwMFoXDTE2MDEwMTEyMDAwMFowGDEWMBQG
A1UEAwwNSW50ZXJtZWRpYXRlMjCCASIwDQYJKoZIhvcNAQEBBQADggEPADCCAQoC
ggEBALJmJ52pfk5iaaPdISE3NH2VpTWLwBgxTPb+KvkI5M8gl0n4fMW+Nbts6X6C
iBITLXLI81eMP0+3mBJ3wilfyxGl5xyh4WjnDTbuFLLohRCZoqa1NzduxN2xwWGj
YmtghvHjCDSYe84ABU9n62WhwqqTHdBX3TD1Me8XHyefgLO8Lms9oSQL7BcBOCp1
W9bX1n65bJaPEtjGCR4CjqVEAH7RHCIgSxWrUi8E2DYFhkTbg51quVcK6acHL+Df
Na+Nzn7WUu8T26qVdljeEOF5NWrNvcFc2mmTV/AhtgYLn9RtDR2NJLq0/l1hNpsn
7vk6ctX759SWHodCuRStQh+tzysCAwEAAaOB3TCB2jAdBgNVHQ4EFgQUQMo/BWlK
YEs1m/HAV4gLQQ+6kgAwHwYDVR0jBBgwFoAUu4MT5vt+GNPSzZ0zmme3tZO2oiAw
QAYIKwYBBQUHAQEENDAyMDAGCCsGAQUFBzAChiRodHRwOi8vdXJsLWZvci1haWEv
SW50ZXJtZWRpYXRlMS5jZXIwNQYDVR0fBC4wLDAqoCigJoYkaHR0cDovL3VybC1m
b3ItY3JsL0ludGVybWVkaWF0ZTEuY3JsMA4GA1UdDwEB/wQEAwIBBjAPBgNVHRMB
Af8EBTADAQH/MA0GCSqGSIb3DQEBCwUAA4IBAQBKllXJwNUh9KySZrqDqXSwyCur
vjp9hVkMynoy5mTgNBwemunwUD7tFsqkevjvthV+e3Jo8d1jGyneHO45MfV94H1E
LI1gXs35ytnby7Tl2RrlZMsBSSBV20KIBGdSBCZ9tvkjnb2uYyR5+CCZNRPQ24Sr
He46H9bMhd4C18FgxEpubKm8pqfjWLX18aZjtoCCZB4AOFzfdTkdi2pIpmRPILgv
7U8jeag8PK3KM22Qqvn0feEMtkuL6YRLYOorsb7tj0qtNvDLsh3M4g5141IPu4Gs
evGLv0spYO1yRieSk47FoSR5NCGmvT/8IHb04LqE1u3mIqcDh+FWuH+w3LJ+
-----END CERTIFICATE-----

Certificate:
    Data:
        Version: 3 (0x2)
        Serial Number: 2 (0x2)
    Signature Algorithm: sha256WithRSAEncryption
        Issuer: CN=Root
        Validity
            Not Before: Jan  1 12:00:00 2015 GMT
            Not After : Jan  1 12:00:00 2016 GMT
        Subject: CN=Intermediate1
        Subject Public Key Info:
            Public Key Algorithm: rsaEncryption
                Public-Key: (2048 bit)
                Modulus:
                    00:db:12:25:1e:c2:74:00:10:b7:40:b3:21:09:69:
                    e4:b3:3b:09:89:40:d6:f6:84:20:b2:b5:6a:3a:c8:
                    68:dc:b3:3a:a5:0c:2c:11:46:35:cf:dd:b3:83:9d:
                    93:90:c7:b0:7d:fd:6a:aa:8f:b2:e5:c0:73:25:21:
                    87:13:1b:da:8b:92:65:3f:62:10:d5:95:42:32:65:
                    4c:0d:a9:4d:92:fc:95:72:84:bf:cc:6f:3c:dc:02:
                    ad:28:95:b4:e2:9e:da:0b:2f:30:e2:41:bf:01:b7:
                    c0:8b:d1:4b:56:ed:19:b8:7b:de:f4:99:00:77:24:
                    3a:0d:45:7f:ff:0c:75:33:8c:95:e5:76:b8:94:8f:
                    84:ad:4a:6f:44:46:e7:ee:4b:ee:71:e3:fd:20:9d:
                    58:90:0f:e9:f0:22:74:36:ca:c4:8f:9a:60:85:12:
                    99:c2:26:62:29:80:9b:00:d7:ce:ed:98:7a:2d:10:
                    1f:56:b9:a3:a5:b9:63:c3:9b:1d:84:f7:40:67:eb:
                    c8:aa:46:04:38:59:95:5b:ab:05:20:3a:88:ad:2e:
                    d6:f8:61:22:2d:40:df:95:2f:a4:8f:5a:7a:ce:22:
                    ba:be:d3:76:96:42:0e:5e:a6:1e:ff:02:27:04:48:
                    b6:c7:29:6d:57:81:3f:69:3a:f0:b3:0b:35:99:94:
                    95:81
                Exponent: 65537 (0x10001)
        X509v3 extensions:
            X509v3 Subject Key Identifier: 
                BB:83:13:E6:FB:7E:18:D3:D2:CD:9D:33:9A:67:B7:B5:93:B6:A2:20
            X509v3 Authority Key Identifier: 
                keyid:B2:3D:DA:18:1E:93:37:FC:A3:B1:31:4C:8E:C2:8C:3C:B7:57:D5:DE

            Authority Information Access: 
                CA Issuers - URI:http://url-for-aia/Root.cer

            X509v3 CRL Distribution Points: 

                Full Name:
                  URI:http://url-for-crl/Root.crl

            X509v3 Key Usage: critical
                Certificate Sign, CRL Sign
            X509v3 Basic Constraints: critical
                CA:TRUE
    Signature Algorithm: sha256WithRSAEncryption
         30:2b:92:92:fd:bd:5a:2b:5a:15:05:79:b9:f1:a3:ef:bb:bf:
         56:46:1c:9d:49:15:0d:c4:e8:00:45:38:e0:48:6d:3b:b7:75:
         fd:e3:1d:df:7c:25:06:07:c4:fe:fc:fb:c3:e5:d2:af:1f:29:
         89:6f:5e:55:11:90:a2:47:26:b0:61:c8:d8:f0:77:97:3a:a6:
         74:1b:69:b4:18:c7:59:43:43:da:46:4d:56:28:cf:78:dd:f7:
         1f:2b:52:04:e8:70:0d:9d:c6:ab:a0:4a:0e:74:57:8b:d9:b7:
         7e:9e:15:4c:bd:81:64:41:3b:66:88:e4:10:57:a7:2a:8d:21:
         da:30:ae:3a:c1:d7:82:2b:b6:20:26:d4:32:2e:65:a4:c9:61:
         84:6e:a5:3b:45:da:8c:b9:3b:b6:76:b1:10:f4:fa:1f:e3:3e:
         59:7f:91:f6:a9:74:8c:a6:5e:cb:ef:92:5d:2b:ca:93:2a:54:
         e8:5c:d7:ce:f0:48:72:53:05:80:45:02:fa:b9:fe:f5:1d:a9:
         a6:cf:04:cf:1e:40:9e:7a:ca:4e:52:42:f3:8f:9d:ae:83:f0:
         92:1c:74:e0:cc:a2:72:e7:88:94:f0:f0:2f:ae:cc:31:17:58:
         0f:0f:73:fa:c8:70:46:54:af:04:9a:43:e8:2c:6e:13:68:f8:
         b6:b9:a5:a5
-----BEGIN CERTIFICATE-----
MIIDbjCCAlagAwIBAgIBAjANBgkqhkiG9w0BAQsFADAPMQ0wCwYDVQQDDARSb290
MB4XDTE1MDEwMTEyMDAwMFoXDTE2MDEwMTEyMDAwMFowGDEWMBQGA1UEAwwNSW50
ZXJtZWRpYXRlMTCCASIwDQYJKoZIhvcNAQEBBQADggEPADCCAQoCggEBANsSJR7C
dAAQt0CzIQlp5LM7CYlA1vaEILK1ajrIaNyzOqUMLBFGNc/ds4Odk5DHsH39aqqP
suXAcyUhhxMb2ouSZT9iENWVQjJlTA2pTZL8lXKEv8xvPNwCrSiVtOKe2gsvMOJB
vwG3wIvRS1btGbh73vSZAHckOg1Ff/8MdTOMleV2uJSPhK1Kb0RG5+5L7nHj/SCd
WJAP6fAidDbKxI+aYIUSmcImYimAmwDXzu2Yei0QH1a5o6W5Y8ObHYT3QGfryKpG
BDhZlVurBSA6iK0u1vhhIi1A35UvpI9aes4iur7TdpZCDl6mHv8CJwRItscpbVeB
P2k68LMLNZmUlYECAwEAAaOByzCByDAdBgNVHQ4EFgQUu4MT5vt+GNPSzZ0zmme3
tZO2oiAwHwYDVR0jBBgwFoAUsj3aGB6TN/yjsTFMjsKMPLdX1d4wNwYIKwYBBQUH
AQEEKzApMCcGCCsGAQUFBzAChhtodHRwOi8vdXJsLWZvci1haWEvUm9vdC5jZXIw
LAYDVR0fBCUwIzAhoB+gHYYbaHR0cDovL3VybC1mb3ItY3JsL1Jvb3QuY3JsMA4G
A1UdDwEB/wQEAwIBBjAPBgNVHRMBAf8EBTADAQH/MA0GCSqGSIb3DQEBCwUAA4IB
AQAwK5KS/b1aK1oVBXm58aPvu79WRhydSRUNxOgARTjgSG07t3X94x3ffCUGB8T+
/PvD5dKvHymJb15VEZCiRyawYcjY8HeXOqZ0G2m0GMdZQ0PaRk1WKM943fcfK1IE
6HANncaroEoOdFeL2bd+nhVMvYFkQTtmiOQQV6cqjSHaMK46wdeCK7YgJtQyLmWk
yWGEbqU7RdqMuTu2drEQ9Pof4z5Zf5H2qXSMpl7L75JdK8qTKlToXNfO8EhyUwWA
RQL6uf71HammzwTPHkCeespOUkLzj52ug/CSHHTgzKJy54iU8PAvrswxF1gPD3P6
yHBGVK8EmkPoLG4TaPi2uaWl
-----END CERTIFICATE-----

Certificate:
    Data:
        Version: 3 (0x2)
        Serial Number: 1 (0x1)
    Signature Algorithm: sha256WithRSAEncryption
        Issuer: CN=Root
        Validity
            Not Before: Jan  1 12:00:00 2015 GMT
            Not After : Jan  1 12:00:00 2016 GMT
        Subject: CN=Root
        Subject Public Key Info:
            Public Key Algorithm: rsaEncryption
                Public-Key: (2048 bit)
                Modulus:
                    00:a2:6b:26:e4:40:38:b0:6e:2a:70:34:7b:4a:b1:
                    09:16:cb:fb:b2:35:ba:cf:71:2a:55:c7:8c:cf:77:
                    6e:23:05:2b:dd:cf:a6:bb:93:e7:f1:a6:47:9e:fe:
                    9f:40:da:97:de:1a:a0:82:96:25:18:6d:f4:d9:21:
                    73:b3:14:e2:16:c8:75:7f:be:fb:c8:0d:b5:96:12:
                    cc:e0:6f:0e:e3:5a:95:ce:57:f1:4b:39:2e:a0:2f:
                    a0:04:80:6b:26:25:0e:4d:01:61:d6:a6:98:ba:f3:
                    85:e1:77:94:a8:8a:b7:19:7a:a8:c1:c4:21:ce:fd:
                    6a:a4:6d:f7:86:b2:4f:05:4a:34:51:7a:67:dc:cc:
                    f2:14:2a:45:a4:54:ff:e7:a1:39:47:7e:ba:65:a8:
                    28:79:bb:19:20:ba:54:93:81:42:c5:71:43:12:7d:
                    6a:46:db:3a:d0:8e:b9:b2:46:91:32:1f:99:83:da:
                    2d:c4:ef:69:3e:0b:11:a5:ba:8d:b3:dd:be:3c:ce:
                    0c:da:06:d9:9a:a6:27:57:5e:e6:ea:db:89:ea:f6:
                    38:af:a4:9c:41:1c:84:9f:08:1b:2e:5a:7d:46:83:
                    f6:74:f0:5a:0c:d1:02:6d:0c:65:1a:8f:a1:3c:a9:
                    19:92:2f:fc:45:92:b4:c4:97:e8:cb:71:95:72:d3:
                    aa:2d
                Exponent: 65537 (0x10001)
        X509v3 extensions:
            X509v3 Subject Key Identifier: 
                B2:3D:DA:18:1E:93:37:FC:A3:B1:31:4C:8E:C2:8C:3C:B7:57:D5:DE
            X509v3 Authority Key Identifier: 
                keyid:B2:3D:DA:18:1E:93:37:FC:A3:B1:31:4C:8E:C2:8C:3C:B7:57:D5:DE

            Authority Information Access: 
                CA Issuers - URI:http://url-for-aia/Root.cer

            X509v3 CRL Distribution Points: 

                Full Name:
                  URI:http://url-for-crl/Root.crl

            X509v3 Key Usage: critical
                Certificate Sign, CRL Sign
            X509v3 Basic Constraints: critical
                CA:TRUE, pathlen:1
    Signature Algorithm: sha256WithRSAEncryption
         5d:99:4c:1c:89:4d:3b:8a:05:20:3f:73:69:a1:6c:a2:db:89:
         9e:f7:0d:96:e6:36:fd:17:b0:9c:ad:3d:4a:8a:6b:3f:45:7b:
         0a:13:67:67:97:cf:a2:25:87:ed:4f:e7:4a:68:e6:a0:83:82:
         c6:c0:bd:74:65:30:ef:e0:33:3d:78:bd:2c:8c:67:90:8a:06:
         56:b8:f2:e1:d2:4d:2a:92:37:14:47:b9:23:0d:bc:72:77:e3:
         d4:fe:6c:fb:f7:0d:f3:eb:4f:32:53:d6:0a:8d:af:56:cf:b3:
         2c:a5:ac:e9:42:8e:93:e7:7d:52:02:a4:95:bd:ae:8a:cb:8f:
         d6:d6:03:82:a7:fd:d2:aa:be:ca:2f:ca:4e:fe:87:65:a5:a4:
         c3:13:04:89:72:22:21:2f:28:7d:37:1d:13:76:d8:bb:ed:f0:
         86:e6:0a:8e:37:79:7b:d1:1f:b8:de:76:e6:a1:bf:d4:72:c2:
         d4:85:70:23:03:53:bb:f9:92:ee:ee:e5:39:16:78:d4:79:ea:
         85:5e:b0:42:ab:74:2b:7a:f8:45:89:e4:5f:b6:4b:05:4b:f9:
         72:ce:e1:63:10:7b:7d:8d:c4:0e:a5:ca:3f:7a:53:19:63:da:
         32:d8:5b:c6:c1:ff:71:01:60:65:a9:95:06:af:85:4e:01:bb:
         37:1d:b4:2f
-----BEGIN TRUST_ANCHOR_UNCONSTRAINED-----
MIIDaDCCAlCgAwIBAgIBATANBgkqhkiG9w0BAQsFADAPMQ0wCwYDVQQDDARSb290
MB4XDTE1MDEwMTEyMDAwMFoXDTE2MDEwMTEyMDAwMFowDzENMAsGA1UEAwwEUm9v
dDCCASIwDQYJKoZIhvcNAQEBBQADggEPADCCAQoCggEBAKJrJuRAOLBuKnA0e0qx
CRbL+7I1us9xKlXHjM93biMFK93PpruT5/GmR57+n0Dal94aoIKWJRht9Nkhc7MU
4hbIdX+++8gNtZYSzOBvDuNalc5X8Us5LqAvoASAayYlDk0BYdammLrzheF3lKiK
txl6qMHEIc79aqRt94ayTwVKNFF6Z9zM8hQqRaRU/+ehOUd+umWoKHm7GSC6VJOB
QsVxQxJ9akbbOtCOubJGkTIfmYPaLcTvaT4LEaW6jbPdvjzODNoG2ZqmJ1de5urb
ier2OK+knEEchJ8IGy5afUaD9nTwWgzRAm0MZRqPoTypGZIv/EWStMSX6MtxlXLT
qi0CAwEAAaOBzjCByzAdBgNVHQ4EFgQUsj3aGB6TN/yjsTFMjsKMPLdX1d4wHwYD
VR0jBBgwFoAUsj3aGB6TN/yjsTFMjsKMPLdX1d4wNwYIKwYBBQUHAQEEKzApMCcG
CCsGAQUFBzAChhtodHRwOi8vdXJsLWZvci1haWEvUm9vdC5jZXIwLAYDVR0fBCUw
IzAhoB+gHYYbaHR0cDovL3VybC1mb3ItY3JsL1Jvb3QuY3JsMA4GA1UdDwEB/wQE
AwIBBjASBgNVHRMBAf8ECDAGAQH/AgEBMA0GCSqGSIb3DQEBCwUAA4IBAQBdmUwc
iU07igUgP3NpoWyi24me9w2W5jb9F7CcrT1Kims/RXsKE2dnl8+iJYftT+dKaOag
g4LGwL10ZTDv4DM9eL0sjGeQigZWuPLh0k0qkjcUR7kjDbxyd+PU/mz79w3z608y
U9YKja9Wz7MspazpQo6T531SAqSVva6Ky4/W1gOCp/3Sqr7KL8pO/odlpaTDEwSJ
ciIhLyh9Nx0Tdti77fCG5gqON3l70R+43nbmob/UcsLUhXAjA1O7+ZLu7uU5FnjU
eeqFXrBCq3QrevhFieRftksFS/lyzuFjEHt9jcQOpco/elMZY9oy2FvGwf9xAWBl
qZUGr4VOAbs3HbQv
-----END TRUST_ANCHOR_UNCONSTRAINED-----

150302120000Z
-----BEGIN TIME-----
MTUwMzAyMTIwMDAwWg==
-----END TIME-----

SUCCESS
-----BEGIN VERIFY_RESULT-----
U1VDQ0VTUw==
-----END VERIFY_RESULT-----

serverAuth
-----BEGIN KEY_PURPOSE-----
c2VydmVyQXV0aA==
-----END KEY_PURPOSE-----
