[Created by: generate-violates-pathlen-1-constrained-root.py]

Certificate chain with 2 intermediates and one end entity certificate. The
root certificate has a pathlen:1 restriction, and constraints are enforced
on this trust anchor making it an invalid chain.

Certificate:
    Data:
        Version: 3 (0x2)
        Serial Number: 1 (0x1)
    Signature Algorithm: sha256WithRSAEncryption
        Issuer: CN=Intermediate2
        Validity
            Not Before: Jan  1 12:00:00 2015 GMT
            Not After : Jan  1 12:00:00 2016 GMT
        Subject: CN=Target
        Subject Public Key Info:
            Public Key Algorithm: rsaEncryption
                Public-Key: (2048 bit)
                Modulus:
                    00:de:94:68:45:da:85:0f:a4:ae:c4:db:49:1e:f6:
                    48:ba:a3:18:67:fc:ab:06:24:25:9e:f9:7b:30:d6:
                    4f:4f:1f:4b:ea:9a:27:2b:7d:d7:25:87:64:23:9c:
                    96:d7:c6:cf:fc:6c:73:5b:da:e2:39:47:91:f5:a8:
                    85:f1:ec:80:e7:f7:20:36:39:09:06:40:33:9f:98:
                    49:9a:f7:bf:83:f2:eb:a8:1d:20:f3:1f:5f:e2:7e:
                    e5:be:af:bf:ba:9d:74:0c:5a:e2:75:98:79:41:53:
                    ca:c7:9b:91:b7:51:75:ae:f1:a0:fa:06:ee:ed:80:
                    1f:01:c9:81:1a:73:9c:df:dd:9d:34:a3:f5:47:db:
                    61:52:46:25:ba:d5:3d:08:54:a3:02:8c:4d:fe:d8:
                    81:31:b1:2e:4c:48:b3:36:ba:45:e8:e8:41:d3:d1:
                    2a:b4:1e:10:11:a4:51:45:f4:22:b9:9c:65:9a:dc:
                    41:38:7b:eb:2e:66:ee:a0:eb:f3:44:c8:46:25:75:
                    44:bf:99:7c:b1:ac:a9:b8:75:0e:65:a5:b1:1b:ca:
                    fe:18:f7:a0:e4:24:4d:d8:5c:66:b3:cd:b1:c2:9a:
                    e0:fe:68:71:7b:0a:28:10:38:fe:64:65:90:d0:2d:
                    ba:e5:b4:a1:6a:97:13:80:9c:49:af:44:91:bf:f7:
                    8d:d3
                Exponent: 65537 (0x10001)
        X509v3 extensions:
            X509v3 Subject Key Identifier: 
                C6:90:8A:0F:9C:B9:F7:72:87:B8:1C:1F:E5:C2:A0:34:BE:F6:16:4C
            X509v3 Authority Key Identifier: 
                keyid:4D:EB:21:3C:9D:C2:4C:9B:05:E6:17:BD:AE:50:A2:8D:56:0E:9D:DC

            Authority Information Access: 
                CA Issuers - URI:http://url-for-aia/Intermediate2.cer

            X509v3 CRL Distribution Points: 

                Full Name:
                  URI:http://url-for-crl/Intermediate2.crl

            X509v3 Key Usage: critical
                Digital Signature, Key Encipherment
            X509v3 Extended Key Usage: 
                TLS Web Server Authentication, TLS Web Client Authentication
    Signature Algorithm: sha256WithRSAEncryption
         7a:ea:15:42:29:c5:20:9a:c5:81:64:0b:7a:8a:1b:d7:ea:83:
         61:c9:8d:00:94:11:8b:78:b5:c7:43:bd:fe:4d:83:ea:68:b0:
         17:c2:6f:ff:3c:e1:1a:d4:33:34:c4:18:8c:a0:ad:92:b8:1e:
         84:ef:f9:aa:9b:46:ee:51:43:9e:56:78:30:6d:c6:ae:37:41:
         41:47:68:b4:84:00:c6:66:45:15:4d:11:6c:b3:e1:04:a4:ae:
         56:bb:d1:96:62:da:e9:ab:d8:0c:8a:37:63:bc:b6:d4:ec:fa:
         5f:5d:f4:ae:d8:94:f9:ce:cf:98:ac:f5:5a:22:f1:d4:76:2e:
         9d:33:cb:e7:e7:dc:de:6d:f8:cc:36:51:33:f3:23:23:a3:35:
         fa:84:2f:7f:64:74:9c:7b:e4:85:b4:e2:22:af:54:da:fb:66:
         d4:1b:2a:bc:18:3d:26:04:05:52:1e:97:c9:d3:db:1e:4c:c5:
         3e:8a:f0:dd:bc:05:eb:00:b1:3f:31:14:6a:1c:f9:de:e6:98:
         9b:d6:87:8e:79:76:7a:6a:0d:26:c4:e1:d1:c1:ec:0d:0f:12:
         85:98:9f:36:63:3e:14:4e:48:f8:d3:d8:13:81:00:fc:e1:b2:
         f3:53:c8:e7:4d:8f:60:cf:44:9a:0d:dd:a4:95:d3:70:e2:7b:
         2e:d3:e5:3c
-----BEGIN CERTIFICATE-----
MIIDkDCCAnigAwIBAgIBATANBgkqhkiG9w0BAQsFADAYMRYwFAYDVQQDDA1JbnRl
cm1lZGlhdGUyMB4XDTE1MDEwMTEyMDAwMFoXDTE2MDEwMTEyMDAwMFowETEPMA0G
A1UEAwwGVGFyZ2V0MIIBIjANBgkqhkiG9w0BAQEFAAOCAQ8AMIIBCgKCAQEA3pRo
RdqFD6SuxNtJHvZIuqMYZ/yrBiQlnvl7MNZPTx9L6ponK33XJYdkI5yW18bP/Gxz
W9riOUeR9aiF8eyA5/cgNjkJBkAzn5hJmve/g/LrqB0g8x9f4n7lvq+/up10DFri
dZh5QVPKx5uRt1F1rvGg+gbu7YAfAcmBGnOc392dNKP1R9thUkYlutU9CFSjAoxN
/tiBMbEuTEizNrpF6OhB09EqtB4QEaRRRfQiuZxlmtxBOHvrLmbuoOvzRMhGJXVE
v5l8saypuHUOZaWxG8r+GPeg5CRN2Fxms82xwprg/mhxewooEDj+ZGWQ0C265bSh
apcTgJxJr0SRv/eN0wIDAQABo4HrMIHoMB0GA1UdDgQWBBTGkIoPnLn3coe4HB/l
wqA0vvYWTDAfBgNVHSMEGDAWgBRN6yE8ncJMmwXmF72uUKKNVg6d3DBABggrBgEF
BQcBAQQ0MDIwMAYIKwYBBQUHMAKGJGh0dHA6Ly91cmwtZm9yLWFpYS9JbnRlcm1l
ZGlhdGUyLmNlcjA1BgNVHR8ELjAsMCqgKKAmhiRodHRwOi8vdXJsLWZvci1jcmwv
SW50ZXJtZWRpYXRlMi5jcmwwDgYDVR0PAQH/BAQDAgWgMB0GA1UdJQQWMBQGCCsG
AQUFBwMBBggrBgEFBQcDAjANBgkqhkiG9w0BAQsFAAOCAQEAeuoVQinFIJrFgWQL
eoob1+qDYcmNAJQRi3i1x0O9/k2D6miwF8Jv/zzhGtQzNMQYjKCtkrgehO/5qptG
7lFDnlZ4MG3GrjdBQUdotIQAxmZFFU0RbLPhBKSuVrvRlmLa6avYDIo3Y7y21Oz6
X130rtiU+c7PmKz1WiLx1HYunTPL5+fc3m34zDZRM/MjI6M1+oQvf2R0nHvkhbTi
Iq9U2vtm1BsqvBg9JgQFUh6XydPbHkzFPorw3bwF6wCxPzEUahz53uaYm9aHjnl2
emoNJsTh0cHsDQ8ShZifNmM+FE5I+NPYE4EA/OGy81PI502PYM9Emg3dpJXTcOJ7
LtPlPA==
-----END CERTIFICATE-----

Certificate:
    Data:
        Version: 3 (0x2)
        Serial Number: 1 (0x1)
    Signature Algorithm: sha256WithRSAEncryption
        Issuer: CN=Intermediate1
        Validity
            Not Before: Jan  1 12:00:00 2015 GMT
            Not After : Jan  1 12:00:00 2016 GMT
        Subject: CN=Intermediate2
        Subject Public Key Info:
            Public Key Algorithm: rsaEncryption
                Public-Key: (2048 bit)
                Modulus:
                    00:c3:12:d3:6b:81:ec:1a:ca:7d:aa:98:58:b8:c1:
                    f3:3a:97:e2:86:91:ae:b6:6d:02:2e:08:67:6c:98:
                    5e:f3:ce:ec:3a:f1:de:93:e6:b5:b5:68:0c:64:67:
                    87:0c:c8:0c:2f:33:64:f2:7a:70:1d:32:b9:84:21:
                    ab:45:de:99:1c:4a:97:30:7e:1e:0e:f0:c5:0c:69:
                    ea:18:cc:73:8c:eb:23:28:6a:f5:2b:b6:95:67:fd:
                    7c:99:34:46:67:f8:f5:10:16:c8:04:db:eb:30:ce:
                    23:b1:fe:71:a7:8c:dd:ae:26:d5:31:af:ec:ca:2d:
                    d7:b0:24:f9:06:ac:ad:a4:2a:b1:bb:1b:7d:cf:ad:
                    b2:d3:e2:d7:4a:e0:a7:f2:3d:74:5d:be:ed:3c:be:
                    1e:2a:de:e6:89:ef:8a:c3:3d:3a:41:34:fe:a5:54:
                    25:f7:11:be:65:fd:b0:6a:5d:70:13:df:41:92:19:
                    04:fe:be:14:5a:4c:81:6b:a8:8c:15:34:3e:51:30:
                    8d:19:07:9d:02:31:5c:7a:47:2a:0a:3d:74:ec:9a:
                    de:78:7f:3d:8a:e3:99:2a:52:71:ac:d0:bc:40:72:
                    62:d2:6c:e8:28:23:56:62:f1:57:b8:4b:60:4d:5a:
                    54:42:34:2c:8a:29:9a:05:a8:fb:67:90:91:11:f3:
                    19:a7
                Exponent: 65537 (0x10001)
        X509v3 extensions:
            X509v3 Subject Key Identifier: 
                4D:EB:21:3C:9D:C2:4C:9B:05:E6:17:BD:AE:50:A2:8D:56:0E:9D:DC
            X509v3 Authority Key Identifier: 
                keyid:E9:93:8B:79:FC:DC:BA:88:E7:D0:26:76:B8:10:17:87:32:50:76:45

            Authority Information Access: 
                CA Issuers - URI:http://url-for-aia/Intermediate1.cer

            X509v3 CRL Distribution Points: 

                Full Name:
                  URI:http://url-for-crl/Intermediate1.crl

            X509v3 Key Usage: critical
                Certificate Sign, CRL Sign
            X509v3 Basic Constraints: critical
                CA:TRUE
    Signature Algorithm: sha256WithRSAEncryption
         55:2c:94:ca:bf:56:78:14:ab:d8:27:5d:4a:35:3a:a4:84:3a:
         d5:fc:ca:20:42:b6:6a:ce:11:f6:8f:9a:06:fa:91:5f:24:ad:
         fc:a4:7a:b3:1e:fd:54:35:f0:9c:00:3c:ca:95:8b:e1:f3:2e:
         44:e1:69:d5:7b:63:81:41:da:cb:6f:e1:14:73:54:48:a6:a9:
         15:4e:c2:cf:9a:da:b8:8b:7f:bb:da:d8:1b:d7:cc:6e:6e:9c:
         6a:54:cc:c6:52:2a:9c:c6:4f:9a:31:13:20:6d:b2:37:2f:62:
         7f:30:56:91:c7:09:bd:da:85:b4:35:1b:54:a5:e0:8a:dc:87:
         37:b6:84:5c:fa:c4:5f:0e:fa:62:35:f8:3e:94:4e:ad:03:6f:
         ed:1e:53:1c:c0:52:75:b4:41:fc:a9:ea:ae:ba:46:5d:3b:d4:
         56:21:54:48:2a:19:6c:3b:a3:2c:02:70:d7:25:70:60:1e:cc:
         5f:2d:eb:d9:24:b1:ff:6d:dd:e6:84:bd:33:f0:6c:75:28:cb:
         94:2e:d9:51:60:a3:da:df:e5:a1:54:a6:73:75:e4:5e:21:9b:
         35:12:6b:c0:e1:5a:cf:f3:3a:ac:18:a3:27:15:ef:84:65:07:
         8c:8f:41:d6:af:65:d8:91:0b:b7:77:14:49:fc:8c:c5:f2:1a:
         13:15:4d:fb
-----BEGIN CERTIFICATE-----
MIIDiTCCAnGgAwIBAgIBATANBgkqhkiG9w0BAQsFADAYMRYwFAYDVQQDDA1JbnRl
cm1lZGlhdGUxMB4XDTE1MDEwMTEyMDAwMFoXDTE2MDEwMTEyMDAwMFowGDEWMBQG
A1UEAwwNSW50ZXJtZWRpYXRlMjCCASIwDQYJKoZIhvcNAQEBBQADggEPADCCAQoC
ggEBAMMS02uB7BrKfaqYWLjB8zqX4oaRrrZtAi4IZ2yYXvPO7Drx3pPmtbVoDGRn
hwzIDC8zZPJ6cB0yuYQhq0XemRxKlzB+Hg7wxQxp6hjMc4zrIyhq9Su2lWf9fJk0
Rmf49RAWyATb6zDOI7H+caeM3a4m1TGv7Mot17Ak+QasraQqsbsbfc+tstPi10rg
p/I9dF2+7Ty+Hire5onvisM9OkE0/qVUJfcRvmX9sGpdcBPfQZIZBP6+FFpMgWuo
jBU0PlEwjRkHnQIxXHpHKgo9dOya3nh/PYrjmSpScazQvEByYtJs6CgjVmLxV7hL
YE1aVEI0LIopmgWo+2eQkRHzGacCAwEAAaOB3TCB2jAdBgNVHQ4EFgQUTeshPJ3C
TJsF5he9rlCijVYOndwwHwYDVR0jBBgwFoAU6ZOLefzcuojn0CZ2uBAXhzJQdkUw
QAYIKwYBBQUHAQEENDAyMDAGCCsGAQUFBzAChiRodHRwOi8vdXJsLWZvci1haWEv
SW50ZXJtZWRpYXRlMS5jZXIwNQYDVR0fBC4wLDAqoCigJoYkaHR0cDovL3VybC1m
b3ItY3JsL0ludGVybWVkaWF0ZTEuY3JsMA4GA1UdDwEB/wQEAwIBBjAPBgNVHRMB
Af8EBTADAQH/MA0GCSqGSIb3DQEBCwUAA4IBAQBVLJTKv1Z4FKvYJ11KNTqkhDrV
/MogQrZqzhH2j5oG+pFfJK38pHqzHv1UNfCcADzKlYvh8y5E4WnVe2OBQdrLb+EU
c1RIpqkVTsLPmtq4i3+72tgb18xubpxqVMzGUiqcxk+aMRMgbbI3L2J/MFaRxwm9
2oW0NRtUpeCK3Ic3toRc+sRfDvpiNfg+lE6tA2/tHlMcwFJ1tEH8qequukZdO9RW
IVRIKhlsO6MsAnDXJXBgHsxfLevZJLH/bd3mhL0z8Gx1KMuULtlRYKPa3+WhVKZz
deReIZs1EmvA4VrP8zqsGKMnFe+EZQeMj0HWr2XYkQu3dxRJ/IzF8hoTFU37
-----END CERTIFICATE-----

Certificate:
    Data:
        Version: 3 (0x2)
        Serial Number: 2 (0x2)
    Signature Algorithm: sha256WithRSAEncryption
        Issuer: CN=Root
        Validity
            Not Before: Jan  1 12:00:00 2015 GMT
            Not After : Jan  1 12:00:00 2016 GMT
        Subject: CN=Intermediate1
        Subject Public Key Info:
            Public Key Algorithm: rsaEncryption
                Public-Key: (2048 bit)
                Modulus:
                    00:a7:5a:95:1f:d4:5d:dc:24:05:8d:bc:86:06:ed:
                    27:fe:4f:1b:4b:38:42:19:15:53:1f:8c:9b:8b:90:
                    68:e5:4c:7d:e3:2e:a9:9a:55:29:4b:51:5e:c2:4d:
                    56:b6:1c:45:ca:ac:ff:56:82:77:91:ee:43:15:0b:
                    76:83:96:bc:01:fc:7d:17:b0:a0:b7:49:93:fe:33:
                    ac:97:51:d1:85:65:22:90:e2:20:d6:f3:3e:7d:ca:
                    f6:de:b5:91:74:90:5e:b7:55:18:4f:70:cd:ad:6f:
                    dd:42:ed:69:82:c6:2f:1f:32:a0:77:5d:31:1c:29:
                    4f:76:d0:c4:07:c0:76:94:8c:cd:97:80:fd:7d:fd:
                    66:35:d8:80:6c:3a:83:96:e3:19:c2:92:0a:05:9d:
                    15:1a:ef:50:28:3f:d5:a6:cd:20:01:86:f8:c3:75:
                    9c:b6:cb:8b:d8:33:04:2a:d8:41:96:41:15:76:b4:
                    05:a2:ab:15:a2:36:d8:e9:22:d7:df:d3:b7:3a:f9:
                    01:84:0e:15:f5:0d:66:0c:02:af:e1:ba:03:73:3f:
                    02:e3:db:b5:19:05:c7:ea:ab:3c:af:14:a8:7d:50:
                    81:69:ba:f9:eb:8c:ed:b1:76:98:36:41:57:a3:8f:
                    eb:a8:84:13:0f:ba:96:0e:c7:05:0d:31:67:2b:9d:
                    e2:6b
                Exponent: 65537 (0x10001)
        X509v3 extensions:
            X509v3 Subject Key Identifier: 
                E9:93:8B:79:FC:DC:BA:88:E7:D0:26:76:B8:10:17:87:32:50:76:45
            X509v3 Authority Key Identifier: 
                keyid:1A:BB:F8:5E:15:84:6A:6A:59:FE:DB:C2:73:30:0A:85:34:FD:08:E9

            Authority Information Access: 
                CA Issuers - URI:http://url-for-aia/Root.cer

            X509v3 CRL Distribution Points: 

                Full Name:
                  URI:http://url-for-crl/Root.crl

            X509v3 Key Usage: critical
                Certificate Sign, CRL Sign
            X509v3 Basic Constraints: critical
                CA:TRUE
    Signature Algorithm: sha256WithRSAEncryption
         94:ea:af:a5:b1:c3:bb:d3:ed:be:26:df:cf:1d:ee:32:4a:68:
         ac:45:e3:c7:8f:db:a3:63:bf:93:be:2c:26:02:15:0b:48:75:
         e1:15:2c:ce:a7:0e:6f:94:9b:e6:e2:72:99:4c:4c:fa:e9:e3:
         70:5a:05:89:97:84:4a:a7:b4:fe:e1:3b:1f:4b:5c:da:15:06:
         fb:dd:8d:f6:20:4f:0a:83:ec:3b:07:26:15:d6:79:3e:6d:37:
         74:63:60:11:a3:df:af:ee:14:6f:6a:9b:c9:2e:cc:e8:85:17:
         9a:06:bc:26:b4:5d:bc:70:39:b2:ca:5e:be:80:cd:25:e2:df:
         7d:bb:d9:b5:6c:a0:8d:5e:db:d5:9a:70:0e:c7:5d:d2:45:96:
         62:3f:39:59:a4:2a:37:f7:9e:b2:17:aa:7e:29:7d:58:eb:59:
         1a:db:89:69:b0:5b:aa:7e:cc:5f:c6:f7:81:e2:a8:8e:79:9b:
         ff:a8:e8:c1:46:65:9a:c8:d9:af:00:2d:00:b5:10:0e:f9:3e:
         c5:bb:7e:6c:9c:8b:3e:4a:d6:85:c4:29:05:cf:e8:cf:34:5e:
         24:b9:af:9a:b1:53:cd:98:82:0e:98:3e:52:24:f1:f6:4a:bf:
         ed:79:0b:76:92:4b:3d:52:a4:73:29:ec:66:a7:f1:65:2c:dc:
         b3:14:d0:88
-----BEGIN CERTIFICATE-----
MIIDbjCCAlagAwIBAgIBAjANBgkqhkiG9w0BAQsFADAPMQ0wCwYDVQQDDARSb290
MB4XDTE1MDEwMTEyMDAwMFoXDTE2MDEwMTEyMDAwMFowGDEWMBQGA1UEAwwNSW50
ZXJtZWRpYXRlMTCCASIwDQYJKoZIhvcNAQEBBQADggEPADCCAQoCggEBAKdalR/U
XdwkBY28hgbtJ/5PG0s4QhkVUx+Mm4uQaOVMfeMuqZpVKUtRXsJNVrYcRcqs/1aC
d5HuQxULdoOWvAH8fRewoLdJk/4zrJdR0YVlIpDiINbzPn3K9t61kXSQXrdVGE9w
za1v3ULtaYLGLx8yoHddMRwpT3bQxAfAdpSMzZeA/X39ZjXYgGw6g5bjGcKSCgWd
FRrvUCg/1abNIAGG+MN1nLbLi9gzBCrYQZZBFXa0BaKrFaI22Oki19/Ttzr5AYQO
FfUNZgwCr+G6A3M/AuPbtRkFx+qrPK8UqH1QgWm6+euM7bF2mDZBV6OP66iEEw+6
lg7HBQ0xZyud4msCAwEAAaOByzCByDAdBgNVHQ4EFgQU6ZOLefzcuojn0CZ2uBAX
hzJQdkUwHwYDVR0jBBgwFoAUGrv4XhWEampZ/tvCczAKhTT9COkwNwYIKwYBBQUH
AQEEKzApMCcGCCsGAQUFBzAChhtodHRwOi8vdXJsLWZvci1haWEvUm9vdC5jZXIw
LAYDVR0fBCUwIzAhoB+gHYYbaHR0cDovL3VybC1mb3ItY3JsL1Jvb3QuY3JsMA4G
A1UdDwEB/wQEAwIBBjAPBgNVHRMBAf8EBTADAQH/MA0GCSqGSIb3DQEBCwUAA4IB
AQCU6q+lscO70+2+Jt/PHe4ySmisRePHj9ujY7+TviwmAhULSHXhFSzOpw5vlJvm
4nKZTEz66eNwWgWJl4RKp7T+4TsfS1zaFQb73Y32IE8Kg+w7ByYV1nk+bTd0Y2AR
o9+v7hRvapvJLszohReaBrwmtF28cDmyyl6+gM0l4t99u9m1bKCNXtvVmnAOx13S
RZZiPzlZpCo3956yF6p+KX1Y61ka24lpsFuqfsxfxveB4qiOeZv/qOjBRmWayNmv
AC0AtRAO+T7Fu35snIs+StaFxCkFz+jPNF4kua+asVPNmIIOmD5SJPH2Sr/teQt2
kks9UqRzKexmp/FlLNyzFNCI
-----END CERTIFICATE-----

Certificate:
    Data:
        Version: 3 (0x2)
        Serial Number: 1 (0x1)
    Signature Algorithm: sha256WithRSAEncryption
        Issuer: CN=Root
        Validity
            Not Before: Jan  1 12:00:00 2015 GMT
            Not After : Jan  1 12:00:00 2016 GMT
        Subject: CN=Root
        Subject Public Key Info:
            Public Key Algorithm: rsaEncryption
                Public-Key: (2048 bit)
                Modulus:
                    00:b3:62:40:33:73:9c:c9:64:ad:30:52:73:78:00:
                    08:ac:b5:2a:80:8b:9e:7d:9d:50:57:ee:df:41:be:
                    66:aa:53:a2:d5:90:72:02:dd:73:65:3e:69:94:a2:
                    6f:5c:04:a0:df:b2:4e:70:57:71:ba:00:9a:75:3e:
                    a0:60:eb:8b:06:94:c3:65:17:93:e8:11:2b:76:20:
                    bf:7f:20:f4:09:14:b7:b8:c4:17:9a:89:bc:35:53:
                    b7:92:8b:fa:fb:62:9d:c6:e4:34:73:b4:d2:55:f8:
                    15:f7:36:bd:ab:24:6f:28:26:89:1e:63:50:c8:e8:
                    49:4a:4d:5d:0e:8a:63:7a:af:dd:7a:da:e2:67:9b:
                    4b:57:9b:3a:b2:26:cc:0c:4b:d6:f4:3b:f6:d9:a4:
                    e6:56:a2:1b:78:a0:aa:4b:c6:06:1f:7c:3f:52:75:
                    ce:e5:18:a1:23:69:2c:ee:ba:c3:a4:33:c8:65:a8:
                    5d:7d:09:51:7a:16:a3:ae:a1:ee:11:3e:1f:7c:a9:
                    46:2d:ad:7f:05:c8:75:1a:3d:77:d0:02:4b:80:f9:
                    b0:ba:7b:4f:d8:be:d0:cb:6a:4c:f3:e3:00:0f:b5:
                    5c:d3:65:7a:ba:49:21:54:2d:84:5e:7e:85:ad:84:
                    70:e7:86:58:91:2e:4c:73:4a:52:ce:9c:04:86:2a:
                    8c:fd
                Exponent: 65537 (0x10001)
        X509v3 extensions:
            X509v3 Subject Key Identifier: 
                1A:BB:F8:5E:15:84:6A:6A:59:FE:DB:C2:73:30:0A:85:34:FD:08:E9
            X509v3 Authority Key Identifier: 
                keyid:1A:BB:F8:5E:15:84:6A:6A:59:FE:DB:C2:73:30:0A:85:34:FD:08:E9

            Authority Information Access: 
                CA Issuers - URI:http://url-for-aia/Root.cer

            X509v3 CRL Distribution Points: 

                Full Name:
                  URI:http://url-for-crl/Root.crl

            X509v3 Key Usage: critical
                Certificate Sign, CRL Sign
            X509v3 Basic Constraints: critical
                CA:TRUE, pathlen:1
    Signature Algorithm: sha256WithRSAEncryption
         00:12:bd:de:29:91:db:be:5c:8c:a0:df:6c:68:22:0a:6b:5a:
         7a:7e:0b:2c:b3:4b:39:95:ec:f7:a1:9b:27:1b:02:4e:70:4b:
         e9:c7:ca:59:a5:27:de:48:d7:b3:69:0a:b6:d4:10:a6:a8:7f:
         08:f2:37:a2:b4:04:bf:d2:d7:5f:40:56:81:53:80:9c:ff:32:
         63:a6:73:6d:76:d3:14:bd:27:99:8e:9b:4d:aa:9e:1c:4e:1f:
         8a:8c:6d:00:6e:d7:e6:c0:a9:e4:23:f5:88:0b:66:a7:72:68:
         c0:4e:38:4c:4f:75:0e:55:eb:ee:36:ec:1e:11:05:a1:df:4b:
         cf:a0:49:d0:82:74:4b:6b:ec:67:61:24:00:c4:81:68:d7:74:
         36:82:79:45:ab:24:21:17:70:44:3b:e3:96:12:7e:68:4a:4a:
         bc:3c:81:72:cf:52:c3:e9:ac:01:df:9b:38:0d:c2:b9:84:33:
         e0:60:64:14:b4:b3:c5:79:7c:af:cd:c9:9e:44:95:b6:cb:23:
         7f:07:c6:ec:67:44:aa:4b:80:8c:c8:b4:e7:b5:af:07:7c:0e:
         00:91:54:fe:9f:b5:a2:9d:52:68:20:29:1d:02:ed:cb:22:4e:
         d9:a3:c6:84:ab:b4:69:b7:83:7d:bc:f2:41:ec:37:38:df:9d:
         5b:11:56:c0
-----BEGIN TRUST_ANCHOR_CONSTRAINED-----
MIIDaDCCAlCgAwIBAgIBATANBgkqhkiG9w0BAQsFADAPMQ0wCwYDVQQDDARSb290
MB4XDTE1MDEwMTEyMDAwMFoXDTE2MDEwMTEyMDAwMFowDzENMAsGA1UEAwwEUm9v
dDCCASIwDQYJKoZIhvcNAQEBBQADggEPADCCAQoCggEBALNiQDNznMlkrTBSc3gA
CKy1KoCLnn2dUFfu30G+ZqpTotWQcgLdc2U+aZSib1wEoN+yTnBXcboAmnU+oGDr
iwaUw2UXk+gRK3Ygv38g9AkUt7jEF5qJvDVTt5KL+vtincbkNHO00lX4Ffc2vask
bygmiR5jUMjoSUpNXQ6KY3qv3Xra4mebS1ebOrImzAxL1vQ79tmk5laiG3igqkvG
Bh98P1J1zuUYoSNpLO66w6QzyGWoXX0JUXoWo66h7hE+H3ypRi2tfwXIdRo9d9AC
S4D5sLp7T9i+0MtqTPPjAA+1XNNlerpJIVQthF5+ha2EcOeGWJEuTHNKUs6cBIYq
jP0CAwEAAaOBzjCByzAdBgNVHQ4EFgQUGrv4XhWEampZ/tvCczAKhTT9COkwHwYD
VR0jBBgwFoAUGrv4XhWEampZ/tvCczAKhTT9COkwNwYIKwYBBQUHAQEEKzApMCcG
CCsGAQUFBzAChhtodHRwOi8vdXJsLWZvci1haWEvUm9vdC5jZXIwLAYDVR0fBCUw
IzAhoB+gHYYbaHR0cDovL3VybC1mb3ItY3JsL1Jvb3QuY3JsMA4GA1UdDwEB/wQE
AwIBBjASBgNVHRMBAf8ECDAGAQH/AgEBMA0GCSqGSIb3DQEBCwUAA4IBAQAAEr3e
KZHbvlyMoN9saCIKa1p6fgsss0s5lez3oZsnGwJOcEvpx8pZpSfeSNezaQq21BCm
qH8I8jeitAS/0tdfQFaBU4Cc/zJjpnNtdtMUvSeZjptNqp4cTh+KjG0AbtfmwKnk
I/WIC2ancmjATjhMT3UOVevuNuweEQWh30vPoEnQgnRLa+xnYSQAxIFo13Q2gnlF
qyQhF3BEO+OWEn5oSkq8PIFyz1LD6awB35s4DcK5hDPgYGQUtLPFeXyvzcmeRJW2
yyN/B8bsZ0SqS4CMyLTnta8HfA4AkVT+n7WinVJoICkdAu3LIk7Zo8aEq7Rpt4N9
vPJB7Dc4351bEVbA
-----END TRUST_ANCHOR_CONSTRAINED-----

150302120000Z
-----BEGIN TIME-----
MTUwMzAyMTIwMDAwWg==
-----END TIME-----

FAIL
-----BEGIN VERIFY_RESULT-----
RkFJTA==
-----END VERIFY_RESULT-----

serverAuth
-----BEGIN KEY_PURPOSE-----
c2VydmVyQXV0aA==
-----END KEY_PURPOSE-----

----- Certificate i=1 (CN=Intermediate2) -----
ERROR: max_path_length reached


-----BEGIN ERRORS-----
LS0tLS0gQ2VydGlmaWNhdGUgaT0xIChDTj1JbnRlcm1lZGlhdGUyKSAtLS0tLQpFUlJPUjogbWF4X3BhdGhfbGVuZ3RoIHJlYWNoZWQKCg==
-----END ERRORS-----
