[Created by: generate-violates-basic-constraints-pathlen-0.py]

Certificate chain with 2 intermediates. The first intermediate has a basic
constraints path length of 0, so it is a violation for it to have a subordinate
intermediate.

Certificate:
    Data:
        Version: 3 (0x2)
        Serial Number: 1 (0x1)
    Signature Algorithm: sha256WithRSAEncryption
        Issuer: CN=Intermediate2
        Validity
            Not Before: Jan  1 12:00:00 2015 GMT
            Not After : Jan  1 12:00:00 2016 GMT
        Subject: CN=Target
        Subject Public Key Info:
            Public Key Algorithm: rsaEncryption
                Public-Key: (2048 bit)
                Modulus:
                    00:c3:d8:cf:ca:eb:7a:63:bc:cd:53:50:a0:a5:e7:
                    24:1c:5e:ab:ee:eb:48:d3:60:73:ab:a5:c3:b5:e0:
                    ea:b2:71:0b:99:48:4c:0c:78:6f:67:a8:98:13:f7:
                    99:59:a0:fc:78:d8:7e:05:cc:1c:4c:4d:ff:c0:a7:
                    85:8f:c0:f8:c2:10:51:a2:a6:9b:38:a1:a8:7f:e3:
                    7c:df:be:f7:8c:62:9a:83:c6:a5:ab:63:26:9e:71:
                    25:26:7d:dc:05:09:b3:76:e8:de:90:07:6d:6d:d1:
                    33:a5:3a:64:90:c0:50:2e:d6:a9:84:2e:f2:7c:11:
                    49:4c:c5:e2:50:c3:b9:9c:0f:ac:8f:07:19:74:63:
                    00:12:8a:ec:6f:4f:86:8a:9b:af:2a:c2:21:f1:98:
                    88:eb:4a:23:2c:7d:25:9f:fd:2a:3e:b0:3d:f5:66:
                    bf:a7:07:42:7d:04:70:62:d3:4b:88:92:af:74:6e:
                    20:4c:55:5e:9e:de:29:a6:58:66:1a:8d:c4:af:b5:
                    22:44:29:ee:b6:03:66:8e:4b:a6:ca:77:3d:91:08:
                    c0:b2:e0:70:c8:e6:d1:fb:db:09:86:7c:ad:f5:20:
                    76:10:1d:fc:bf:98:05:0b:b1:6e:47:d8:ce:4b:aa:
                    02:7c:ec:3e:8a:b0:22:f9:3d:fc:8e:60:45:1b:cc:
                    c9:a5
                Exponent: 65537 (0x10001)
        X509v3 extensions:
            X509v3 Subject Key Identifier: 
                4C:E1:88:56:8D:23:98:7B:19:E1:6E:D8:1C:E5:06:73:6B:D5:1E:03
            X509v3 Authority Key Identifier: 
                keyid:CB:CE:B8:91:FA:EC:E9:A4:15:CA:75:30:F1:C6:9A:B8:19:35:FA:29

            Authority Information Access: 
                CA Issuers - URI:http://url-for-aia/Intermediate2.cer

            X509v3 CRL Distribution Points: 

                Full Name:
                  URI:http://url-for-crl/Intermediate2.crl

            X509v3 Key Usage: critical
                Digital Signature, Key Encipherment
            X509v3 Extended Key Usage: 
                TLS Web Server Authentication, TLS Web Client Authentication
    Signature Algorithm: sha256WithRSAEncryption
         a6:96:6f:71:a0:4e:f8:17:93:ad:30:1f:2e:e5:6e:bc:4e:83:
         32:07:95:9f:f6:02:e8:06:5e:a6:51:0a:23:f6:46:06:3c:3d:
         e6:4d:cc:ac:8c:29:e8:ce:0e:a4:db:11:7d:4f:6e:b7:78:e2:
         40:1e:0e:74:83:d5:16:7c:c5:6e:3e:41:59:be:d5:0c:ab:05:
         9f:2f:22:8c:3b:58:ed:72:49:11:b0:0b:21:b9:5d:e0:b8:3f:
         cd:a0:a0:95:64:c6:8e:45:7d:aa:1b:67:69:13:54:40:0d:99:
         74:da:b1:9f:5b:9f:ba:e3:b6:aa:5b:e4:b6:d9:6c:46:d3:50:
         1a:d9:5a:54:b9:2d:a1:da:97:00:7a:6a:71:2a:8e:45:9c:6d:
         e8:3d:a2:cb:29:44:45:11:5c:a9:64:60:81:88:e4:93:a2:61:
         ec:87:74:69:bc:9c:61:92:94:eb:42:33:12:29:82:5d:fe:30:
         9b:9c:bf:47:50:a9:f6:ae:ea:d4:97:39:87:d5:02:c4:45:09:
         a8:f3:f3:bf:e0:35:45:89:a9:bc:57:34:bf:d4:81:a0:09:4e:
         2d:15:61:39:0c:43:53:2e:50:fb:31:ab:91:0d:ce:9c:cb:c1:
         e2:39:e2:76:60:ab:6b:5d:33:b6:0f:a7:c8:f0:61:ed:37:81:
         83:3a:2b:b4
-----BEGIN CERTIFICATE-----
MIIDkDCCAnigAwIBAgIBATANBgkqhkiG9w0BAQsFADAYMRYwFAYDVQQDDA1JbnRl
cm1lZGlhdGUyMB4XDTE1MDEwMTEyMDAwMFoXDTE2MDEwMTEyMDAwMFowETEPMA0G
A1UEAwwGVGFyZ2V0MIIBIjANBgkqhkiG9w0BAQEFAAOCAQ8AMIIBCgKCAQEAw9jP
yut6Y7zNU1CgpeckHF6r7utI02Bzq6XDteDqsnELmUhMDHhvZ6iYE/eZWaD8eNh+
BcwcTE3/wKeFj8D4whBRoqabOKGof+N83773jGKag8alq2MmnnElJn3cBQmzduje
kAdtbdEzpTpkkMBQLtaphC7yfBFJTMXiUMO5nA+sjwcZdGMAEorsb0+GipuvKsIh
8ZiI60ojLH0ln/0qPrA99Wa/pwdCfQRwYtNLiJKvdG4gTFVent4pplhmGo3Er7Ui
RCnutgNmjkumync9kQjAsuBwyObR+9sJhnyt9SB2EB38v5gFC7FuR9jOS6oCfOw+
irAi+T38jmBFG8zJpQIDAQABo4HrMIHoMB0GA1UdDgQWBBRM4YhWjSOYexnhbtgc
5QZza9UeAzAfBgNVHSMEGDAWgBTLzriR+uzppBXKdTDxxpq4GTX6KTBABggrBgEF
BQcBAQQ0MDIwMAYIKwYBBQUHMAKGJGh0dHA6Ly91cmwtZm9yLWFpYS9JbnRlcm1l
ZGlhdGUyLmNlcjA1BgNVHR8ELjAsMCqgKKAmhiRodHRwOi8vdXJsLWZvci1jcmwv
SW50ZXJtZWRpYXRlMi5jcmwwDgYDVR0PAQH/BAQDAgWgMB0GA1UdJQQWMBQGCCsG
AQUFBwMBBggrBgEFBQcDAjANBgkqhkiG9w0BAQsFAAOCAQEAppZvcaBO+BeTrTAf
LuVuvE6DMgeVn/YC6AZeplEKI/ZGBjw95k3MrIwp6M4OpNsRfU9ut3jiQB4OdIPV
FnzFbj5BWb7VDKsFny8ijDtY7XJJEbALIbld4Lg/zaCglWTGjkV9qhtnaRNUQA2Z
dNqxn1ufuuO2qlvkttlsRtNQGtlaVLktodqXAHpqcSqORZxt6D2iyylERRFcqWRg
gYjkk6Jh7Id0abycYZKU60IzEimCXf4wm5y/R1Cp9q7q1Jc5h9UCxEUJqPPzv+A1
RYmpvFc0v9SBoAlOLRVhOQxDUy5Q+zGrkQ3OnMvB4jnidmCra10ztg+nyPBh7TeB
gzortA==
-----END CERTIFICATE-----

Certificate:
    Data:
        Version: 3 (0x2)
        Serial Number: 1 (0x1)
    Signature Algorithm: sha256WithRSAEncryption
        Issuer: CN=Intermediate1
        Validity
            Not Before: Jan  1 12:00:00 2015 GMT
            Not After : Jan  1 12:00:00 2016 GMT
        Subject: CN=Intermediate2
        Subject Public Key Info:
            Public Key Algorithm: rsaEncryption
                Public-Key: (2048 bit)
                Modulus:
                    00:ad:d8:fa:e5:f4:8b:41:38:13:dc:61:ad:db:db:
                    3d:f6:be:e2:fd:9d:63:a2:eb:4a:8d:c8:03:6b:d2:
                    c3:18:29:e6:93:92:5f:d0:c5:b2:3c:05:cd:79:c9:
                    25:dd:e8:fc:68:83:f1:d9:95:15:22:8f:27:eb:bf:
                    1f:ed:78:ce:34:b7:60:66:ee:4a:40:9f:e3:95:d0:
                    32:47:67:80:6c:37:1c:3d:3a:e8:3e:14:2d:5b:97:
                    b3:40:85:28:a9:10:f0:fb:c9:eb:51:be:b6:c6:8a:
                    ca:60:cd:31:b7:b0:d3:bd:eb:5c:8a:14:89:38:47:
                    cb:18:2b:11:f7:a7:9e:9d:f3:76:82:97:c4:78:61:
                    8c:ec:90:ac:f2:a8:2e:bf:d8:30:48:52:94:7f:48:
                    f6:fb:4b:e6:0a:63:89:ad:8a:4d:8d:3e:dc:45:06:
                    89:e9:94:24:5b:d4:94:50:de:05:cf:87:59:66:fb:
                    70:62:84:3c:fe:d9:1b:02:92:30:80:cb:45:43:e4:
                    55:47:97:2e:99:59:22:86:6f:51:3a:24:13:26:e8:
                    10:c9:92:35:13:6f:4a:39:c5:71:d2:c3:63:a5:11:
                    f8:6e:dc:fa:75:5c:4b:29:24:04:9f:e3:f4:f0:49:
                    55:7e:0a:8c:6c:44:b4:a4:35:c7:b0:54:10:a4:b1:
                    6f:95
                Exponent: 65537 (0x10001)
        X509v3 extensions:
            X509v3 Subject Key Identifier: 
                CB:CE:B8:91:FA:EC:E9:A4:15:CA:75:30:F1:C6:9A:B8:19:35:FA:29
            X509v3 Authority Key Identifier: 
                keyid:58:20:BB:27:E1:6D:B0:95:1A:D3:40:A1:81:79:89:63:34:21:9F:13

            Authority Information Access: 
                CA Issuers - URI:http://url-for-aia/Intermediate1.cer

            X509v3 CRL Distribution Points: 

                Full Name:
                  URI:http://url-for-crl/Intermediate1.crl

            X509v3 Key Usage: critical
                Certificate Sign, CRL Sign
            X509v3 Basic Constraints: critical
                CA:TRUE, pathlen:0
    Signature Algorithm: sha256WithRSAEncryption
         5c:fb:a9:0c:98:92:b4:e2:3c:b1:57:ae:7d:4c:17:b3:44:0e:
         df:f8:c5:96:e3:1c:10:c2:1b:cf:26:b8:b8:45:3b:e2:3a:54:
         d9:2a:ce:2d:70:ef:7d:e7:0a:f8:c4:3e:c2:11:65:58:c2:9c:
         57:0f:82:6f:ad:d5:c3:75:fe:7a:eb:3e:51:13:a9:04:18:37:
         6a:e1:86:11:7f:3b:9d:5a:eb:29:ec:ef:d1:3b:df:13:f4:66:
         87:31:2e:b7:75:b0:31:02:b6:47:98:d6:f5:3d:35:7e:18:ac:
         53:86:4e:d2:d4:93:ac:7a:20:04:8f:58:9b:15:58:ad:7a:b3:
         3e:a0:11:57:92:96:2a:d4:b9:16:e9:f0:8b:70:67:4b:21:58:
         80:8e:43:21:ba:62:22:46:96:d2:f0:48:82:69:c5:51:ba:22:
         32:a0:50:cf:48:1f:1a:35:05:41:23:4e:93:a2:43:e6:83:d9:
         ae:32:1e:95:72:24:61:79:09:4c:62:d0:1c:42:60:c5:8c:0c:
         6f:a1:8c:29:8c:68:e3:b8:da:44:83:f6:04:ab:e2:85:e4:6a:
         f6:ca:ed:95:e3:a0:81:4e:79:1e:cb:46:a1:83:4b:19:23:52:
         ae:b3:80:d7:7c:4f:05:8c:78:55:e2:fc:ec:80:74:5b:3e:7d:
         16:e3:71:5a
-----BEGIN CERTIFICATE-----
MIIDjDCCAnSgAwIBAgIBATANBgkqhkiG9w0BAQsFADAYMRYwFAYDVQQDDA1JbnRl
cm1lZGlhdGUxMB4XDTE1MDEwMTEyMDAwMFoXDTE2MDEwMTEyMDAwMFowGDEWMBQG
A1UEAwwNSW50ZXJtZWRpYXRlMjCCASIwDQYJKoZIhvcNAQEBBQADggEPADCCAQoC
ggEBAK3Y+uX0i0E4E9xhrdvbPfa+4v2dY6LrSo3IA2vSwxgp5pOSX9DFsjwFzXnJ
Jd3o/GiD8dmVFSKPJ+u/H+14zjS3YGbuSkCf45XQMkdngGw3HD066D4ULVuXs0CF
KKkQ8PvJ61G+tsaKymDNMbew073rXIoUiThHyxgrEfennp3zdoKXxHhhjOyQrPKo
Lr/YMEhSlH9I9vtL5gpjia2KTY0+3EUGiemUJFvUlFDeBc+HWWb7cGKEPP7ZGwKS
MIDLRUPkVUeXLplZIoZvUTokEyboEMmSNRNvSjnFcdLDY6UR+G7c+nVcSykkBJ/j
9PBJVX4KjGxEtKQ1x7BUEKSxb5UCAwEAAaOB4DCB3TAdBgNVHQ4EFgQUy864kfrs
6aQVynUw8caauBk1+ikwHwYDVR0jBBgwFoAUWCC7J+FtsJUa00ChgXmJYzQhnxMw
QAYIKwYBBQUHAQEENDAyMDAGCCsGAQUFBzAChiRodHRwOi8vdXJsLWZvci1haWEv
SW50ZXJtZWRpYXRlMS5jZXIwNQYDVR0fBC4wLDAqoCigJoYkaHR0cDovL3VybC1m
b3ItY3JsL0ludGVybWVkaWF0ZTEuY3JsMA4GA1UdDwEB/wQEAwIBBjASBgNVHRMB
Af8ECDAGAQH/AgEAMA0GCSqGSIb3DQEBCwUAA4IBAQBc+6kMmJK04jyxV659TBez
RA7f+MWW4xwQwhvPJri4RTviOlTZKs4tcO995wr4xD7CEWVYwpxXD4JvrdXDdf56
6z5RE6kEGDdq4YYRfzudWusp7O/RO98T9GaHMS63dbAxArZHmNb1PTV+GKxThk7S
1JOseiAEj1ibFViterM+oBFXkpYq1LkW6fCLcGdLIViAjkMhumIiRpbS8EiCacVR
uiIyoFDPSB8aNQVBI06TokPmg9muMh6VciRheQlMYtAcQmDFjAxvoYwpjGjjuNpE
g/YEq+KF5Gr2yu2V46CBTnkey0ahg0sZI1Kus4DXfE8FjHhV4vzsgHRbPn0W43Fa
-----END CERTIFICATE-----

Certificate:
    Data:
        Version: 3 (0x2)
        Serial Number: 2 (0x2)
    Signature Algorithm: sha256WithRSAEncryption
        Issuer: CN=Root
        Validity
            Not Before: Jan  1 12:00:00 2015 GMT
            Not After : Jan  1 12:00:00 2016 GMT
        Subject: CN=Intermediate1
        Subject Public Key Info:
            Public Key Algorithm: rsaEncryption
                Public-Key: (2048 bit)
                Modulus:
                    00:e6:65:53:d1:2e:4e:ad:28:ff:05:13:1b:64:08:
                    aa:e6:b7:44:64:94:4c:0e:a4:68:80:12:7d:07:ce:
                    6a:ec:c8:4b:cc:a1:3f:af:f4:c8:45:0e:b2:66:46:
                    b3:fd:ef:68:5d:04:c0:95:e9:71:45:b2:26:12:16:
                    78:b1:75:15:39:a1:da:2a:b0:d7:7c:52:11:8b:1a:
                    b0:46:19:fb:71:d0:8f:13:3d:2e:ee:bc:75:97:4d:
                    b1:b6:7b:d5:b6:36:44:5b:75:d1:00:b3:a3:60:9f:
                    92:34:c1:50:52:30:89:54:35:24:fa:7d:ea:5a:32:
                    ca:11:aa:12:1c:55:74:fd:5b:98:ad:0d:04:d3:b3:
                    12:cd:a4:f9:7c:54:e1:1f:01:cd:ad:c6:0e:cc:ae:
                    8c:89:d3:ff:a6:f7:2b:9f:67:d8:55:c2:a9:4a:5f:
                    e8:d6:96:0d:14:68:79:23:84:d0:5f:59:99:f6:8e:
                    9c:34:da:b6:d2:37:cc:de:8d:44:ba:e4:bb:f0:6f:
                    f1:60:d2:0d:22:28:41:98:e8:9a:dd:18:b5:30:45:
                    fd:3b:7a:27:0f:16:08:07:02:83:aa:e0:68:ba:47:
                    44:48:84:ea:da:51:c1:ec:7b:cb:1e:25:11:3d:fd:
                    ce:53:1a:39:0a:fc:42:82:3d:cc:a5:93:00:c6:27:
                    62:75
                Exponent: 65537 (0x10001)
        X509v3 extensions:
            X509v3 Subject Key Identifier: 
                58:20:BB:27:E1:6D:B0:95:1A:D3:40:A1:81:79:89:63:34:21:9F:13
            X509v3 Authority Key Identifier: 
                keyid:7A:3D:6D:AF:22:3F:64:CA:5C:C8:B3:3D:D5:E5:3B:32:A0:02:CF:29

            Authority Information Access: 
                CA Issuers - URI:http://url-for-aia/Root.cer

            X509v3 CRL Distribution Points: 

                Full Name:
                  URI:http://url-for-crl/Root.crl

            X509v3 Key Usage: critical
                Certificate Sign, CRL Sign
            X509v3 Basic Constraints: critical
                CA:TRUE, pathlen:0
    Signature Algorithm: sha256WithRSAEncryption
         37:db:eb:ca:f7:4c:e8:8d:30:46:40:83:77:7b:84:85:66:06:
         20:10:22:e9:f3:f0:5e:41:27:7d:dd:01:2a:c0:20:74:a6:f5:
         d3:30:01:40:4a:4c:60:b0:9d:da:2f:71:90:c5:19:97:cc:af:
         a2:e3:cc:fe:6e:e6:fa:5d:11:50:e6:ef:a9:b0:15:f8:da:26:
         51:b9:2e:1e:82:44:ec:13:e5:8d:27:2d:b1:31:97:cd:43:04:
         8a:70:ca:51:e3:2c:9e:93:9a:48:36:a1:46:56:08:e1:43:1c:
         d7:96:aa:44:c2:3a:a2:e7:91:ac:91:28:fb:03:9c:e7:13:d1:
         eb:c0:33:7b:3b:ff:c2:fc:af:68:36:54:57:f4:b8:2a:9d:de:
         78:3c:8e:ad:0d:d8:dd:4b:e7:50:41:0a:ae:7a:08:d7:5e:3b:
         2a:71:d5:88:ec:99:02:b3:cd:5a:31:26:41:79:e2:3a:49:55:
         40:7f:26:7f:34:f6:7a:76:28:5e:3d:e9:20:1e:a2:f4:6b:d5:
         e0:6d:bd:2e:30:1a:69:70:ae:03:d3:ce:b3:76:04:2f:ef:86:
         4f:77:44:19:6f:94:6a:09:86:60:28:75:63:22:3a:13:5a:d5:
         13:af:23:08:9c:1f:0d:dc:0f:62:b4:97:85:05:5a:ea:c5:60:
         8a:02:4d:51
-----BEGIN CERTIFICATE-----
MIIDcTCCAlmgAwIBAgIBAjANBgkqhkiG9w0BAQsFADAPMQ0wCwYDVQQDDARSb290
MB4XDTE1MDEwMTEyMDAwMFoXDTE2MDEwMTEyMDAwMFowGDEWMBQGA1UEAwwNSW50
ZXJtZWRpYXRlMTCCASIwDQYJKoZIhvcNAQEBBQADggEPADCCAQoCggEBAOZlU9Eu
Tq0o/wUTG2QIqua3RGSUTA6kaIASfQfOauzIS8yhP6/0yEUOsmZGs/3vaF0EwJXp
cUWyJhIWeLF1FTmh2iqw13xSEYsasEYZ+3HQjxM9Lu68dZdNsbZ71bY2RFt10QCz
o2CfkjTBUFIwiVQ1JPp96loyyhGqEhxVdP1bmK0NBNOzEs2k+XxU4R8Bza3GDsyu
jInT/6b3K59n2FXCqUpf6NaWDRRoeSOE0F9ZmfaOnDTattI3zN6NRLrku/Bv8WDS
DSIoQZjomt0YtTBF/Tt6Jw8WCAcCg6rgaLpHREiE6tpRwex7yx4lET39zlMaOQr8
QoI9zKWTAMYnYnUCAwEAAaOBzjCByzAdBgNVHQ4EFgQUWCC7J+FtsJUa00ChgXmJ
YzQhnxMwHwYDVR0jBBgwFoAUej1tryI/ZMpcyLM91eU7MqACzykwNwYIKwYBBQUH
AQEEKzApMCcGCCsGAQUFBzAChhtodHRwOi8vdXJsLWZvci1haWEvUm9vdC5jZXIw
LAYDVR0fBCUwIzAhoB+gHYYbaHR0cDovL3VybC1mb3ItY3JsL1Jvb3QuY3JsMA4G
A1UdDwEB/wQEAwIBBjASBgNVHRMBAf8ECDAGAQH/AgEAMA0GCSqGSIb3DQEBCwUA
A4IBAQA32+vK90zojTBGQIN3e4SFZgYgECLp8/BeQSd93QEqwCB0pvXTMAFASkxg
sJ3aL3GQxRmXzK+i48z+bub6XRFQ5u+psBX42iZRuS4egkTsE+WNJy2xMZfNQwSK
cMpR4yyek5pINqFGVgjhQxzXlqpEwjqi55GskSj7A5znE9HrwDN7O//C/K9oNlRX
9Lgqnd54PI6tDdjdS+dQQQquegjXXjsqcdWI7JkCs81aMSZBeeI6SVVAfyZ/NPZ6
dihePekgHqL0a9Xgbb0uMBppcK4D086zdgQv74ZPd0QZb5RqCYZgKHVjIjoTWtUT
ryMInB8N3A9itJeFBVrqxWCKAk1R
-----END CERTIFICATE-----

Certificate:
    Data:
        Version: 3 (0x2)
        Serial Number: 1 (0x1)
    Signature Algorithm: sha256WithRSAEncryption
        Issuer: CN=Root
        Validity
            Not Before: Jan  1 12:00:00 2015 GMT
            Not After : Jan  1 12:00:00 2016 GMT
        Subject: CN=Root
        Subject Public Key Info:
            Public Key Algorithm: rsaEncryption
                Public-Key: (2048 bit)
                Modulus:
                    00:cd:87:9d:f4:66:f8:77:5c:e3:56:6d:cb:12:dc:
                    a9:36:79:d5:1b:11:9f:92:20:8d:e6:d7:7d:41:8e:
                    90:90:2a:a8:63:3d:59:25:a6:7a:86:73:7f:10:da:
                    9f:c1:a5:69:4d:a3:67:61:b8:f8:9b:9b:ec:4a:3a:
                    f1:73:f1:83:c4:ab:34:1f:0b:ed:05:f3:6d:c5:ee:
                    64:18:34:69:5f:09:1f:48:e5:d2:2d:12:4c:17:a3:
                    7e:74:9f:93:04:ea:00:15:e3:b9:0d:ef:c5:ed:19:
                    97:2b:12:05:7f:5c:32:2d:c5:30:46:7c:a7:02:27:
                    29:b2:99:e1:43:95:f6:67:1c:ee:ad:9b:8e:fb:f8:
                    57:1a:47:13:5a:1a:2f:27:e8:d5:03:2a:e5:f9:92:
                    53:1d:03:5f:d6:2f:18:65:ce:3a:6e:ab:bf:b6:c5:
                    72:e1:c9:a0:d6:3c:a2:8e:4f:3e:8f:06:52:19:a8:
                    1a:f0:06:55:d2:f9:be:23:27:0a:de:33:26:ec:a0:
                    41:d3:6b:56:25:70:09:ac:28:45:82:33:cb:db:85:
                    59:50:61:9c:12:e0:04:cc:c5:81:3c:77:d7:9d:8e:
                    59:d3:70:4d:4e:47:0a:f7:ef:6c:33:54:db:61:ee:
                    31:cb:8d:43:59:ec:a1:3d:a4:c6:06:6e:05:b2:14:
                    d6:ad
                Exponent: 65537 (0x10001)
        X509v3 extensions:
            X509v3 Subject Key Identifier: 
                7A:3D:6D:AF:22:3F:64:CA:5C:C8:B3:3D:D5:E5:3B:32:A0:02:CF:29
            X509v3 Authority Key Identifier: 
                keyid:7A:3D:6D:AF:22:3F:64:CA:5C:C8:B3:3D:D5:E5:3B:32:A0:02:CF:29

            Authority Information Access: 
                CA Issuers - URI:http://url-for-aia/Root.cer

            X509v3 CRL Distribution Points: 

                Full Name:
                  URI:http://url-for-crl/Root.crl

            X509v3 Key Usage: critical
                Certificate Sign, CRL Sign
            X509v3 Basic Constraints: critical
                CA:TRUE
    Signature Algorithm: sha256WithRSAEncryption
         20:3e:c4:b6:78:84:bd:36:33:6b:38:8e:f2:1f:1a:46:a7:d9:
         02:86:39:d2:3f:14:bd:a9:82:21:b0:9d:da:a9:4f:0a:e8:65:
         0b:7f:b7:cd:d9:3c:de:7f:08:d6:d9:60:ba:b2:be:4d:8a:77:
         e4:4d:fe:8c:5d:27:e6:8a:0c:6c:e1:3c:7b:e2:d2:4c:ac:34:
         fe:1e:b1:28:e6:b7:49:a8:09:bf:67:80:0f:8f:02:49:d4:52:
         6e:bf:d1:a7:b8:b4:22:90:f8:83:d5:85:7f:46:99:2d:df:cb:
         56:31:0c:0e:92:9b:eb:28:6e:c2:7c:ba:37:5d:3f:f0:f8:b5:
         e2:0a:02:ea:78:c3:5c:8d:24:92:95:52:bf:68:3e:2b:fc:17:
         bc:bb:3c:7c:38:f8:6e:5f:d3:1d:9e:4c:c5:3a:47:93:4d:a6:
         c2:00:f2:2a:7a:a1:f0:76:48:5a:ef:77:1c:47:10:40:d8:d5:
         84:45:13:f6:5e:7c:d2:0e:bd:e3:e3:b1:3d:d5:93:e1:c4:95:
         a1:ba:84:0d:a0:1c:b0:cd:b6:b4:a2:52:2e:37:c2:f3:30:3e:
         91:0b:24:9d:3d:77:02:ce:83:b0:73:21:ba:3f:f6:b9:c7:5d:
         08:5c:f0:33:8d:de:1e:56:e8:82:2f:5d:e6:8c:0c:ac:77:c7:
         bf:91:2a:25
-----BEGIN TRUST_ANCHOR_UNCONSTRAINED-----
MIIDZTCCAk2gAwIBAgIBATANBgkqhkiG9w0BAQsFADAPMQ0wCwYDVQQDDARSb290
MB4XDTE1MDEwMTEyMDAwMFoXDTE2MDEwMTEyMDAwMFowDzENMAsGA1UEAwwEUm9v
dDCCASIwDQYJKoZIhvcNAQEBBQADggEPADCCAQoCggEBAM2HnfRm+Hdc41ZtyxLc
qTZ51RsRn5IgjebXfUGOkJAqqGM9WSWmeoZzfxDan8GlaU2jZ2G4+Jub7Eo68XPx
g8SrNB8L7QXzbcXuZBg0aV8JH0jl0i0STBejfnSfkwTqABXjuQ3vxe0ZlysSBX9c
Mi3FMEZ8pwInKbKZ4UOV9mcc7q2bjvv4VxpHE1oaLyfo1QMq5fmSUx0DX9YvGGXO
Om6rv7bFcuHJoNY8oo5PPo8GUhmoGvAGVdL5viMnCt4zJuygQdNrViVwCawoRYIz
y9uFWVBhnBLgBMzFgTx3152OWdNwTU5HCvfvbDNU22HuMcuNQ1nsoT2kxgZuBbIU
1q0CAwEAAaOByzCByDAdBgNVHQ4EFgQUej1tryI/ZMpcyLM91eU7MqACzykwHwYD
VR0jBBgwFoAUej1tryI/ZMpcyLM91eU7MqACzykwNwYIKwYBBQUHAQEEKzApMCcG
CCsGAQUFBzAChhtodHRwOi8vdXJsLWZvci1haWEvUm9vdC5jZXIwLAYDVR0fBCUw
IzAhoB+gHYYbaHR0cDovL3VybC1mb3ItY3JsL1Jvb3QuY3JsMA4GA1UdDwEB/wQE
AwIBBjAPBgNVHRMBAf8EBTADAQH/MA0GCSqGSIb3DQEBCwUAA4IBAQAgPsS2eIS9
NjNrOI7yHxpGp9kChjnSPxS9qYIhsJ3aqU8K6GULf7fN2TzefwjW2WC6sr5Ninfk
Tf6MXSfmigxs4Tx74tJMrDT+HrEo5rdJqAm/Z4APjwJJ1FJuv9GnuLQikPiD1YV/
Rpkt38tWMQwOkpvrKG7CfLo3XT/w+LXiCgLqeMNcjSSSlVK/aD4r/Be8uzx8OPhu
X9MdnkzFOkeTTabCAPIqeqHwdkha73ccRxBA2NWERRP2XnzSDr3j47E91ZPhxJWh
uoQNoBywzba0olIuN8LzMD6RCySdPXcCzoOwcyG6P/a5x10IXPAzjd4eVuiCL13m
jAysd8e/kSol
-----END TRUST_ANCHOR_UNCONSTRAINED-----

150302120000Z
-----BEGIN TIME-----
MTUwMzAyMTIwMDAwWg==
-----END TIME-----

FAIL
-----BEGIN VERIFY_RESULT-----
RkFJTA==
-----END VERIFY_RESULT-----

[Context] Processing Certificate
  index: 1
      [Error] max_path_length reached

-----BEGIN ERRORS-----
W0NvbnRleHRdIFByb2Nlc3NpbmcgQ2VydGlmaWNhdGUKICBpbmRleDogMQogICAgICBbRXJyb3JdIG1heF9wYXRoX2xlbmd0aCByZWFjaGVkCg==
-----END ERRORS-----
