[Created by: generate-violates-basic-constraints-pathlen-0.py]

Certificate chain with 2 intermediates. The first intermediate has a basic
constraints path length of 0, so it is a violation for it to have a subordinate
intermediate.

Certificate:
    Data:
        Version: 3 (0x2)
        Serial Number: 1 (0x1)
    Signature Algorithm: sha256WithRSAEncryption
        Issuer: CN=Intermediate2
        Validity
            Not Before: Jan  1 12:00:00 2015 GMT
            Not After : Jan  1 12:00:00 2016 GMT
        Subject: CN=Target
        Subject Public Key Info:
            Public Key Algorithm: rsaEncryption
                Public-Key: (2048 bit)
                Modulus:
                    00:c0:09:a1:9e:ee:82:f0:68:53:6a:73:07:41:90:
                    99:39:c7:19:b8:07:c4:f7:45:b5:fb:f0:f5:72:6c:
                    8c:c1:5a:27:85:70:1a:3b:9a:62:50:99:00:2e:fa:
                    64:08:19:34:03:67:27:b6:c8:9c:81:5a:94:2a:85:
                    1c:ce:a9:b1:79:6a:15:df:81:64:72:0e:f7:a8:72:
                    74:13:01:e2:22:cf:c1:08:a8:e2:32:a3:30:8b:e5:
                    74:b8:83:fe:41:34:d1:c4:04:99:22:5c:ba:1b:11:
                    d9:fe:2a:76:b4:7c:6a:67:d7:9e:a6:b7:28:33:96:
                    a9:45:61:c0:3f:a6:57:9e:59:ea:dd:7b:2a:fe:9a:
                    b5:ea:2f:e1:55:30:9a:04:76:42:a1:38:a2:91:83:
                    99:d3:f6:71:2c:06:b4:f7:9c:dd:49:91:2d:82:2f:
                    64:1e:91:aa:bf:b2:38:6d:ab:56:39:32:63:de:bd:
                    3c:f1:10:d0:f4:e7:51:4e:03:58:64:c4:13:33:3e:
                    28:e7:d8:b5:23:49:e7:10:e9:88:da:c7:df:79:17:
                    db:03:30:49:a1:8a:3c:a2:67:19:ec:f4:db:3e:48:
                    c0:c9:a5:cd:57:53:5d:51:59:db:43:48:b3:18:cb:
                    f2:4f:d3:41:7f:7e:92:1c:33:54:49:92:8b:1a:79:
                    6f:a3
                Exponent: 65537 (0x10001)
        X509v3 extensions:
            X509v3 Subject Key Identifier: 
                7E:03:28:0D:3F:DA:96:9C:EC:43:82:73:63:37:03:5A:62:8E:C9:6C
            X509v3 Authority Key Identifier: 
                keyid:AA:28:24:5E:DC:D0:46:7D:F0:CC:7B:98:E4:87:CC:65:73:75:10:DD

            Authority Information Access: 
                CA Issuers - URI:http://url-for-aia/Intermediate2.cer

            X509v3 CRL Distribution Points: 

                Full Name:
                  URI:http://url-for-crl/Intermediate2.crl

            X509v3 Key Usage: critical
                Digital Signature, Key Encipherment
            X509v3 Extended Key Usage: 
                TLS Web Server Authentication, TLS Web Client Authentication
    Signature Algorithm: sha256WithRSAEncryption
         7f:9a:b7:85:57:9c:5e:69:5b:3f:9e:97:11:c1:d6:49:7a:f8:
         96:83:5d:81:ef:86:fa:75:7a:9e:f1:37:fc:a7:6b:d7:fa:e2:
         92:d5:05:a8:31:83:48:c2:e1:d9:35:a9:0b:73:77:d5:c7:89:
         78:e9:48:01:3e:d3:51:eb:34:2e:01:9b:d9:94:c2:e7:31:54:
         56:f9:7b:2d:12:95:b8:8f:d8:d6:dd:a7:6b:02:6c:3e:9e:37:
         63:49:8f:e1:be:05:ec:43:6c:53:ff:72:76:73:44:f9:bf:dc:
         28:79:32:d1:87:06:e1:27:00:9c:80:49:17:4b:ad:79:ab:66:
         a9:0e:32:34:62:f7:d5:d4:d1:e8:2a:55:c0:3b:7e:4c:c3:cb:
         a7:67:58:51:97:85:d1:a5:04:ad:53:49:e9:7a:f2:f6:eb:a4:
         a0:66:e7:8d:9a:83:75:14:cf:29:43:19:56:8b:15:b9:3c:ab:
         e2:bc:ac:63:f8:6f:6b:2b:f7:26:3e:f5:6c:66:97:ff:10:04:
         7a:70:4d:a0:af:02:e7:d8:9b:18:de:f4:85:66:3d:08:22:18:
         4d:12:54:1c:75:9c:55:29:45:93:af:65:39:66:fb:69:74:a2:
         e0:ab:49:c7:28:08:5e:6a:55:6e:19:51:0b:d2:5a:d9:c4:32:
         49:e1:8f:1f
-----BEGIN CERTIFICATE-----
MIIDkDCCAnigAwIBAgIBATANBgkqhkiG9w0BAQsFADAYMRYwFAYDVQQDDA1JbnRl
cm1lZGlhdGUyMB4XDTE1MDEwMTEyMDAwMFoXDTE2MDEwMTEyMDAwMFowETEPMA0G
A1UEAwwGVGFyZ2V0MIIBIjANBgkqhkiG9w0BAQEFAAOCAQ8AMIIBCgKCAQEAwAmh
nu6C8GhTanMHQZCZOccZuAfE90W1+/D1cmyMwVonhXAaO5piUJkALvpkCBk0A2cn
tsicgVqUKoUczqmxeWoV34Fkcg73qHJ0EwHiIs/BCKjiMqMwi+V0uIP+QTTRxASZ
Ily6GxHZ/ip2tHxqZ9eeprcoM5apRWHAP6ZXnlnq3Xsq/pq16i/hVTCaBHZCoTii
kYOZ0/ZxLAa095zdSZEtgi9kHpGqv7I4batWOTJj3r088RDQ9OdRTgNYZMQTMz4o
59i1I0nnEOmI2sffeRfbAzBJoYo8omcZ7PTbPkjAyaXNV1NdUVnbQ0izGMvyT9NB
f36SHDNUSZKLGnlvowIDAQABo4HrMIHoMB0GA1UdDgQWBBR+AygNP9qWnOxDgnNj
NwNaYo7JbDAfBgNVHSMEGDAWgBSqKCRe3NBGffDMe5jkh8xlc3UQ3TBABggrBgEF
BQcBAQQ0MDIwMAYIKwYBBQUHMAKGJGh0dHA6Ly91cmwtZm9yLWFpYS9JbnRlcm1l
ZGlhdGUyLmNlcjA1BgNVHR8ELjAsMCqgKKAmhiRodHRwOi8vdXJsLWZvci1jcmwv
SW50ZXJtZWRpYXRlMi5jcmwwDgYDVR0PAQH/BAQDAgWgMB0GA1UdJQQWMBQGCCsG
AQUFBwMBBggrBgEFBQcDAjANBgkqhkiG9w0BAQsFAAOCAQEAf5q3hVecXmlbP56X
EcHWSXr4loNdge+G+nV6nvE3/Kdr1/riktUFqDGDSMLh2TWpC3N31ceJeOlIAT7T
Ues0LgGb2ZTC5zFUVvl7LRKVuI/Y1t2nawJsPp43Y0mP4b4F7ENsU/9ydnNE+b/c
KHky0YcG4ScAnIBJF0uteatmqQ4yNGL31dTR6CpVwDt+TMPLp2dYUZeF0aUErVNJ
6Xry9uukoGbnjZqDdRTPKUMZVosVuTyr4rysY/hvayv3Jj71bGaX/xAEenBNoK8C
59ibGN70hWY9CCIYTRJUHHWcVSlFk69lOWb7aXSi4KtJxygIXmpVbhlRC9Ja2cQy
SeGPHw==
-----END CERTIFICATE-----

Certificate:
    Data:
        Version: 3 (0x2)
        Serial Number: 1 (0x1)
    Signature Algorithm: sha256WithRSAEncryption
        Issuer: CN=Intermediate1
        Validity
            Not Before: Jan  1 12:00:00 2015 GMT
            Not After : Jan  1 12:00:00 2016 GMT
        Subject: CN=Intermediate2
        Subject Public Key Info:
            Public Key Algorithm: rsaEncryption
                Public-Key: (2048 bit)
                Modulus:
                    00:9f:83:f1:81:a2:07:a9:04:bd:e2:cb:3a:33:b1:
                    6d:77:ba:76:14:81:ef:3d:9f:ec:c3:67:f4:33:65:
                    43:4c:1a:0d:ca:d7:3c:4d:20:19:62:1c:a2:2c:61:
                    85:84:45:b1:e0:6d:85:13:36:06:5a:78:44:b4:c9:
                    13:ee:b6:d3:c2:0d:a9:3f:c7:4e:01:e8:85:a8:36:
                    96:a3:76:30:e5:90:2f:32:0d:f7:53:33:80:95:84:
                    41:23:ff:1c:3b:ea:ae:fa:89:59:fc:ed:ba:f5:e5:
                    60:c3:e8:c3:09:62:d2:9c:b8:20:e0:fb:09:f9:d7:
                    1f:f7:9a:a2:c4:8c:0e:2c:d1:84:eb:25:ee:63:e9:
                    ed:20:1a:69:11:7f:25:07:05:73:92:78:11:f0:65:
                    99:3e:dd:98:0f:b4:5b:a5:d9:8e:89:d2:80:8c:57:
                    b9:96:cf:bc:55:93:67:37:6f:42:e9:ff:a3:18:ff:
                    a1:5c:6c:91:53:92:f2:9b:14:74:4c:83:fd:c2:77:
                    bc:f1:6a:1d:c6:e8:eb:78:1b:b2:78:31:b0:5f:40:
                    d8:48:29:1e:8f:1d:f2:61:ff:8f:50:95:23:1f:bf:
                    67:f7:2f:bb:2e:4c:bd:82:1a:c2:2f:6f:fc:e9:86:
                    d7:a7:96:ff:af:4d:56:74:c6:6a:61:89:5d:c5:70:
                    fa:97
                Exponent: 65537 (0x10001)
        X509v3 extensions:
            X509v3 Subject Key Identifier: 
                AA:28:24:5E:DC:D0:46:7D:F0:CC:7B:98:E4:87:CC:65:73:75:10:DD
            X509v3 Authority Key Identifier: 
                keyid:C9:4B:55:76:1D:36:AA:D3:17:AF:7B:4E:7D:9B:4A:B3:1B:CC:98:0F

            Authority Information Access: 
                CA Issuers - URI:http://url-for-aia/Intermediate1.cer

            X509v3 CRL Distribution Points: 

                Full Name:
                  URI:http://url-for-crl/Intermediate1.crl

            X509v3 Key Usage: critical
                Certificate Sign, CRL Sign
            X509v3 Basic Constraints: critical
                CA:TRUE, pathlen:0
    Signature Algorithm: sha256WithRSAEncryption
         93:36:2f:99:80:bd:df:c6:46:2e:d2:42:5b:f1:bd:08:4c:de:
         13:db:16:29:99:58:b2:35:ea:10:35:23:29:db:45:fe:a9:bb:
         00:16:4a:57:77:84:74:05:1f:c1:9d:6d:43:bc:09:38:52:21:
         1a:af:8f:fa:0b:a6:02:ad:fa:0f:b5:49:bc:48:c6:20:88:73:
         a1:0f:3f:33:c1:fa:0c:5c:80:c0:e9:c5:cd:0f:8f:20:b0:45:
         f0:90:0d:4e:89:21:46:2a:77:a3:72:7f:0c:73:7d:44:f3:da:
         4a:8a:68:92:33:85:94:8e:26:a7:c2:d8:33:86:48:0d:67:94:
         dc:16:fc:5c:00:e7:9e:5a:e7:46:1d:3c:77:99:11:9f:65:fb:
         ce:55:87:57:12:3a:f0:c3:fc:43:d0:33:58:e5:74:0d:db:bd:
         a3:4c:f8:7e:73:16:fd:dc:87:4b:1c:21:a1:35:04:7a:ec:2b:
         44:2f:b5:c7:22:d6:a3:c3:a8:cf:0d:72:f5:b4:3e:30:2d:6e:
         f3:0e:77:b0:6d:7c:06:01:b1:94:b4:c8:99:84:04:17:e8:e8:
         0a:4e:b0:c0:82:17:8c:b2:f2:b5:f5:ed:51:af:19:52:89:4b:
         f6:76:41:b8:77:a0:42:23:21:18:87:4a:0b:21:3d:de:19:0d:
         47:81:c6:14
-----BEGIN CERTIFICATE-----
MIIDjDCCAnSgAwIBAgIBATANBgkqhkiG9w0BAQsFADAYMRYwFAYDVQQDDA1JbnRl
cm1lZGlhdGUxMB4XDTE1MDEwMTEyMDAwMFoXDTE2MDEwMTEyMDAwMFowGDEWMBQG
A1UEAwwNSW50ZXJtZWRpYXRlMjCCASIwDQYJKoZIhvcNAQEBBQADggEPADCCAQoC
ggEBAJ+D8YGiB6kEveLLOjOxbXe6dhSB7z2f7MNn9DNlQ0waDcrXPE0gGWIcoixh
hYRFseBthRM2Blp4RLTJE+6208INqT/HTgHohag2lqN2MOWQLzIN91MzgJWEQSP/
HDvqrvqJWfztuvXlYMPowwli0py4IOD7CfnXH/eaosSMDizRhOsl7mPp7SAaaRF/
JQcFc5J4EfBlmT7dmA+0W6XZjonSgIxXuZbPvFWTZzdvQun/oxj/oVxskVOS8psU
dEyD/cJ3vPFqHcbo63gbsngxsF9A2EgpHo8d8mH/j1CVIx+/Z/cvuy5MvYIawi9v
/OmG16eW/69NVnTGamGJXcVw+pcCAwEAAaOB4DCB3TAdBgNVHQ4EFgQUqigkXtzQ
Rn3wzHuY5IfMZXN1EN0wHwYDVR0jBBgwFoAUyUtVdh02qtMXr3tOfZtKsxvMmA8w
QAYIKwYBBQUHAQEENDAyMDAGCCsGAQUFBzAChiRodHRwOi8vdXJsLWZvci1haWEv
SW50ZXJtZWRpYXRlMS5jZXIwNQYDVR0fBC4wLDAqoCigJoYkaHR0cDovL3VybC1m
b3ItY3JsL0ludGVybWVkaWF0ZTEuY3JsMA4GA1UdDwEB/wQEAwIBBjASBgNVHRMB
Af8ECDAGAQH/AgEAMA0GCSqGSIb3DQEBCwUAA4IBAQCTNi+ZgL3fxkYu0kJb8b0I
TN4T2xYpmViyNeoQNSMp20X+qbsAFkpXd4R0BR/BnW1DvAk4UiEar4/6C6YCrfoP
tUm8SMYgiHOhDz8zwfoMXIDA6cXND48gsEXwkA1OiSFGKnejcn8Mc31E89pKimiS
M4WUjianwtgzhkgNZ5TcFvxcAOeeWudGHTx3mRGfZfvOVYdXEjrww/xD0DNY5XQN
272jTPh+cxb93IdLHCGhNQR67CtEL7XHItajw6jPDXL1tD4wLW7zDnewbXwGAbGU
tMiZhAQX6OgKTrDAgheMsvK19e1RrxlSiUv2dkG4d6BCIyEYh0oLIT3eGQ1HgcYU
-----END CERTIFICATE-----

Certificate:
    Data:
        Version: 3 (0x2)
        Serial Number: 2 (0x2)
    Signature Algorithm: sha256WithRSAEncryption
        Issuer: CN=Root
        Validity
            Not Before: Jan  1 12:00:00 2015 GMT
            Not After : Jan  1 12:00:00 2016 GMT
        Subject: CN=Intermediate1
        Subject Public Key Info:
            Public Key Algorithm: rsaEncryption
                Public-Key: (2048 bit)
                Modulus:
                    00:b8:f5:de:e4:4c:28:1d:c6:b4:b3:0f:0e:88:9b:
                    b1:3b:70:28:5e:69:4d:e6:fe:cf:16:d7:84:88:bf:
                    da:b4:85:b8:90:cc:be:bf:b4:88:7d:e9:31:b3:a1:
                    69:fc:59:7f:8c:e2:aa:2e:94:d2:4e:4f:cf:1e:03:
                    ac:c3:c2:de:8b:d5:20:f5:5b:13:91:f5:3f:39:c7:
                    47:d0:4b:31:7b:bc:4e:1d:a6:ba:84:96:a0:b5:73:
                    cb:c3:8d:9e:3e:b8:2f:70:60:bf:c4:39:f1:d6:61:
                    68:5c:8a:38:35:14:5e:ea:fd:8b:cf:ef:6e:a3:e6:
                    0b:bf:1f:3e:2c:4b:1e:fd:5a:56:11:19:23:05:27:
                    cf:0b:27:b3:f6:7a:da:0a:f6:df:98:7e:b7:66:64:
                    f8:0f:89:95:f4:c0:d9:83:45:87:3e:72:38:ce:60:
                    cb:56:4b:07:7b:2c:9e:12:1f:19:1d:fe:c2:a8:bc:
                    e0:1b:15:b5:9d:24:29:d9:39:c3:2d:9a:ac:0e:92:
                    56:15:85:69:60:2b:ca:2e:f6:95:e7:65:91:a4:15:
                    09:0c:48:8b:b1:5a:37:52:b7:0a:45:41:64:2e:27:
                    92:96:12:69:b7:4a:c6:f0:bf:b4:65:53:17:de:1d:
                    b2:a5:19:31:18:76:8f:84:1d:33:4a:18:e0:b6:3f:
                    61:a7
                Exponent: 65537 (0x10001)
        X509v3 extensions:
            X509v3 Subject Key Identifier: 
                C9:4B:55:76:1D:36:AA:D3:17:AF:7B:4E:7D:9B:4A:B3:1B:CC:98:0F
            X509v3 Authority Key Identifier: 
                keyid:8D:B1:6D:B4:95:70:88:DA:95:8B:88:00:98:19:D5:93:E3:03:FF:04

            Authority Information Access: 
                CA Issuers - URI:http://url-for-aia/Root.cer

            X509v3 CRL Distribution Points: 

                Full Name:
                  URI:http://url-for-crl/Root.crl

            X509v3 Key Usage: critical
                Certificate Sign, CRL Sign
            X509v3 Basic Constraints: critical
                CA:TRUE, pathlen:0
    Signature Algorithm: sha256WithRSAEncryption
         a7:ca:29:b4:a5:e7:44:4a:3c:eb:44:9e:9a:f6:14:80:9d:d0:
         36:71:d3:d7:39:66:e0:65:94:fa:dc:09:14:2e:5a:13:82:66:
         c5:cf:95:fe:76:f1:7e:18:76:b6:0f:02:13:52:e2:72:c2:cf:
         5c:42:31:81:dc:9b:93:9e:8c:e9:ac:cf:5c:eb:ff:db:37:4a:
         5c:39:74:51:87:3b:42:26:17:06:d2:0e:bc:ba:3a:9c:7b:3c:
         8c:5d:d3:9e:d3:6f:5f:88:3a:2f:da:9f:ad:bb:b8:4a:5f:df:
         94:aa:ad:4c:8f:c0:7c:d6:c8:d8:9b:93:c9:71:fd:fa:7f:20:
         9b:f3:3a:16:54:02:8a:81:7b:b3:2f:05:55:ca:34:dc:6a:f8:
         d9:f9:70:d4:c4:cc:44:8b:a6:e0:45:89:da:21:10:96:e8:2c:
         84:63:47:f1:a4:7b:da:cb:10:23:f7:45:bd:45:65:6a:03:8c:
         42:23:15:e9:bf:5b:f7:4c:df:2a:8b:c5:82:3a:7a:4c:9f:85:
         db:a1:02:ba:60:07:2e:fc:fa:22:b5:8e:b1:db:1b:b7:cb:5e:
         e2:f1:5b:33:88:cd:82:61:d5:dc:7e:7e:68:29:7e:b0:20:b0:
         72:e8:f4:4b:74:26:76:cf:3e:b3:98:18:37:de:05:3d:11:d3:
         8a:5d:4e:d1
-----BEGIN CERTIFICATE-----
MIIDcTCCAlmgAwIBAgIBAjANBgkqhkiG9w0BAQsFADAPMQ0wCwYDVQQDDARSb290
MB4XDTE1MDEwMTEyMDAwMFoXDTE2MDEwMTEyMDAwMFowGDEWMBQGA1UEAwwNSW50
ZXJtZWRpYXRlMTCCASIwDQYJKoZIhvcNAQEBBQADggEPADCCAQoCggEBALj13uRM
KB3GtLMPDoibsTtwKF5pTeb+zxbXhIi/2rSFuJDMvr+0iH3pMbOhafxZf4ziqi6U
0k5Pzx4DrMPC3ovVIPVbE5H1PznHR9BLMXu8Th2muoSWoLVzy8ONnj64L3Bgv8Q5
8dZhaFyKODUUXur9i8/vbqPmC78fPixLHv1aVhEZIwUnzwsns/Z62gr235h+t2Zk
+A+JlfTA2YNFhz5yOM5gy1ZLB3ssnhIfGR3+wqi84BsVtZ0kKdk5wy2arA6SVhWF
aWAryi72ledlkaQVCQxIi7FaN1K3CkVBZC4nkpYSabdKxvC/tGVTF94dsqUZMRh2
j4QdM0oY4LY/YacCAwEAAaOBzjCByzAdBgNVHQ4EFgQUyUtVdh02qtMXr3tOfZtK
sxvMmA8wHwYDVR0jBBgwFoAUjbFttJVwiNqVi4gAmBnVk+MD/wQwNwYIKwYBBQUH
AQEEKzApMCcGCCsGAQUFBzAChhtodHRwOi8vdXJsLWZvci1haWEvUm9vdC5jZXIw
LAYDVR0fBCUwIzAhoB+gHYYbaHR0cDovL3VybC1mb3ItY3JsL1Jvb3QuY3JsMA4G
A1UdDwEB/wQEAwIBBjASBgNVHRMBAf8ECDAGAQH/AgEAMA0GCSqGSIb3DQEBCwUA
A4IBAQCnyim0pedESjzrRJ6a9hSAndA2cdPXOWbgZZT63AkULloTgmbFz5X+dvF+
GHa2DwITUuJyws9cQjGB3JuTnozprM9c6//bN0pcOXRRhztCJhcG0g68ujqcezyM
XdOe029fiDov2p+tu7hKX9+Uqq1Mj8B81sjYm5PJcf36fyCb8zoWVAKKgXuzLwVV
yjTcavjZ+XDUxMxEi6bgRYnaIRCW6CyEY0fxpHvayxAj90W9RWVqA4xCIxXpv1v3
TN8qi8WCOnpMn4XboQK6YAcu/PoitY6x2xu3y17i8VsziM2CYdXcfn5oKX6wILBy
6PRLdCZ2zz6zmBg33gU9EdOKXU7R
-----END CERTIFICATE-----

Certificate:
    Data:
        Version: 3 (0x2)
        Serial Number: 1 (0x1)
    Signature Algorithm: sha256WithRSAEncryption
        Issuer: CN=Root
        Validity
            Not Before: Jan  1 12:00:00 2015 GMT
            Not After : Jan  1 12:00:00 2016 GMT
        Subject: CN=Root
        Subject Public Key Info:
            Public Key Algorithm: rsaEncryption
                Public-Key: (2048 bit)
                Modulus:
                    00:bd:94:f6:d9:65:c1:00:59:e4:7b:96:d6:5a:cb:
                    f4:ea:23:2b:5d:cf:e1:4e:51:c3:20:eb:4b:90:8e:
                    4a:e2:22:e7:68:55:51:33:a9:5a:4d:ee:cd:d2:e0:
                    32:d7:41:7f:c8:59:78:19:1c:d1:e8:ef:58:70:11:
                    3c:ef:1a:a9:c6:ef:33:33:ee:e1:6b:f5:e1:3c:a7:
                    64:2b:66:8b:04:05:9d:98:63:34:03:68:50:98:6c:
                    7d:f3:f3:92:68:08:54:61:5a:fe:bc:8b:b5:c1:35:
                    98:32:5f:93:59:6f:40:b4:99:b9:d8:82:b9:4f:f0:
                    72:0a:9c:55:89:40:d1:b9:35:81:1e:39:d1:fd:32:
                    fe:1d:64:02:82:97:14:c1:ee:77:0f:2d:9b:3a:86:
                    38:46:2c:e9:b0:0f:98:45:04:f5:10:5b:58:34:c7:
                    a1:92:69:f4:26:cf:1a:2d:fb:78:2a:81:3c:56:90:
                    e3:6b:44:16:a0:75:44:41:a7:ef:75:a4:19:5a:f4:
                    d9:14:93:bc:98:a9:f7:04:e0:e6:69:67:a1:70:c0:
                    c0:43:67:ef:dd:6c:e2:ea:8c:7d:00:b3:51:5c:9f:
                    50:11:93:2b:cb:c5:af:f6:32:d3:47:eb:09:1b:e6:
                    8a:12:0e:9a:6e:48:34:30:91:d4:87:a1:71:1d:1e:
                    11:a9
                Exponent: 65537 (0x10001)
        X509v3 extensions:
            X509v3 Subject Key Identifier: 
                8D:B1:6D:B4:95:70:88:DA:95:8B:88:00:98:19:D5:93:E3:03:FF:04
            X509v3 Authority Key Identifier: 
                keyid:8D:B1:6D:B4:95:70:88:DA:95:8B:88:00:98:19:D5:93:E3:03:FF:04

            Authority Information Access: 
                CA Issuers - URI:http://url-for-aia/Root.cer

            X509v3 CRL Distribution Points: 

                Full Name:
                  URI:http://url-for-crl/Root.crl

            X509v3 Key Usage: critical
                Certificate Sign, CRL Sign
            X509v3 Basic Constraints: critical
                CA:TRUE
    Signature Algorithm: sha256WithRSAEncryption
         59:52:44:8b:cc:9b:f4:2f:79:36:ae:25:5c:f0:38:bf:aa:35:
         02:ac:eb:76:02:3a:bd:5f:8f:36:d0:26:3e:c1:a4:00:79:19:
         70:fb:97:0e:47:79:94:2b:ac:93:72:95:de:bb:a2:27:4a:f6:
         6a:4c:af:ff:e8:df:93:7b:f6:ab:14:b5:0f:fe:b3:33:7a:73:
         f0:29:66:01:21:b6:ea:ed:c6:d4:ae:94:41:4c:8d:07:e6:61:
         fc:ea:88:88:d0:cc:52:7e:9a:3a:db:b9:2a:30:67:5a:00:4d:
         a0:fa:ec:a2:a2:f2:cd:ae:a2:ca:84:c5:44:f4:26:12:17:49:
         4b:bb:ee:cb:ca:b2:38:2d:08:54:6b:e9:9a:34:ad:d8:f3:70:
         bc:12:88:f1:06:2b:f4:28:ca:12:e4:02:76:29:b0:8f:6e:4e:
         7f:5b:ca:d1:a1:53:fa:7b:7b:97:a3:6d:a0:8d:48:36:7f:3b:
         cf:e2:7a:f6:ea:86:dc:a3:6d:8f:21:81:24:32:15:23:9f:85:
         9b:af:dc:75:19:22:28:9e:47:83:2e:04:37:f6:45:56:25:bf:
         1b:92:9a:39:ee:06:10:80:c1:7f:61:43:bb:51:aa:fc:0e:0c:
         50:09:2b:b8:c9:7e:ce:19:02:60:b2:65:db:84:9b:b5:4f:1b:
         0b:b8:fe:0c
-----BEGIN TRUST_ANCHOR_UNCONSTRAINED-----
MIIDZTCCAk2gAwIBAgIBATANBgkqhkiG9w0BAQsFADAPMQ0wCwYDVQQDDARSb290
MB4XDTE1MDEwMTEyMDAwMFoXDTE2MDEwMTEyMDAwMFowDzENMAsGA1UEAwwEUm9v
dDCCASIwDQYJKoZIhvcNAQEBBQADggEPADCCAQoCggEBAL2U9tllwQBZ5HuW1lrL
9OojK13P4U5RwyDrS5COSuIi52hVUTOpWk3uzdLgMtdBf8hZeBkc0ejvWHARPO8a
qcbvMzPu4Wv14TynZCtmiwQFnZhjNANoUJhsffPzkmgIVGFa/ryLtcE1mDJfk1lv
QLSZudiCuU/wcgqcVYlA0bk1gR450f0y/h1kAoKXFMHudw8tmzqGOEYs6bAPmEUE
9RBbWDTHoZJp9CbPGi37eCqBPFaQ42tEFqB1REGn73WkGVr02RSTvJip9wTg5mln
oXDAwENn791s4uqMfQCzUVyfUBGTK8vFr/Yy00frCRvmihIOmm5INDCR1IehcR0e
EakCAwEAAaOByzCByDAdBgNVHQ4EFgQUjbFttJVwiNqVi4gAmBnVk+MD/wQwHwYD
VR0jBBgwFoAUjbFttJVwiNqVi4gAmBnVk+MD/wQwNwYIKwYBBQUHAQEEKzApMCcG
CCsGAQUFBzAChhtodHRwOi8vdXJsLWZvci1haWEvUm9vdC5jZXIwLAYDVR0fBCUw
IzAhoB+gHYYbaHR0cDovL3VybC1mb3ItY3JsL1Jvb3QuY3JsMA4GA1UdDwEB/wQE
AwIBBjAPBgNVHRMBAf8EBTADAQH/MA0GCSqGSIb3DQEBCwUAA4IBAQBZUkSLzJv0
L3k2riVc8Di/qjUCrOt2Ajq9X4820CY+waQAeRlw+5cOR3mUK6yTcpXeu6InSvZq
TK//6N+Te/arFLUP/rMzenPwKWYBIbbq7cbUrpRBTI0H5mH86oiI0MxSfpo627kq
MGdaAE2g+uyiovLNrqLKhMVE9CYSF0lLu+7LyrI4LQhUa+maNK3Y83C8EojxBiv0
KMoS5AJ2KbCPbk5/W8rRoVP6e3uXo22gjUg2fzvP4nr26obco22PIYEkMhUjn4Wb
r9x1GSIonkeDLgQ39kVWJb8bkpo57gYQgMF/YUO7Uar8DgxQCSu4yX7OGQJgsmXb
hJu1TxsLuP4M
-----END TRUST_ANCHOR_UNCONSTRAINED-----

150302120000Z
-----BEGIN TIME-----
MTUwMzAyMTIwMDAwWg==
-----END TIME-----

FAIL
-----BEGIN VERIFY_RESULT-----
RkFJTA==
-----END VERIFY_RESULT-----

serverAuth
-----BEGIN KEY_PURPOSE-----
c2VydmVyQXV0aA==
-----END KEY_PURPOSE-----

----- Certificate i=1 (CN=Intermediate2) -----
ERROR: max_path_length reached


-----BEGIN ERRORS-----
LS0tLS0gQ2VydGlmaWNhdGUgaT0xIChDTj1JbnRlcm1lZGlhdGUyKSAtLS0tLQpFUlJPUjogbWF4X3BhdGhfbGVuZ3RoIHJlYWNoZWQKCg==
-----END ERRORS-----
