[Created by: ./generate-chains.py]

Generates certificate chains where the intermediate contains netscape server
gated crypto rather than serverAuth.

Certificate:
    Data:
        Version: 3 (0x2)
        Serial Number: 2 (0x2)
    Signature Algorithm: sha256WithRSAEncryption
        Issuer: CN=Intermediate
        Validity
            Not Before: Jan  1 12:00:00 2015 GMT
            Not After : Jan  1 12:00:00 2016 GMT
        Subject: CN=Target
        Subject Public Key Info:
            Public Key Algorithm: rsaEncryption
                Public-Key: (2048 bit)
                Modulus:
                    00:c8:af:a5:d9:15:56:dd:ec:b1:41:dd:34:36:48:
                    ab:5a:3f:2e:6a:14:16:38:1f:c2:ad:27:64:f2:72:
                    54:a1:81:73:9c:fd:3a:37:2c:64:f9:e2:0a:bd:0f:
                    74:9a:70:ea:9c:6e:c9:64:e9:92:a4:bf:9a:30:2c:
                    9a:8f:4c:eb:12:1e:58:08:f5:6a:4b:72:e0:a8:a9:
                    22:81:ca:cd:7c:78:cd:24:9b:90:8a:7d:ac:79:cf:
                    40:a9:d0:f6:a4:78:ef:fd:c3:b3:9d:d3:ea:51:ee:
                    c7:ed:f5:2b:36:5c:50:11:be:44:a9:29:cd:d6:79:
                    bc:bd:5b:a5:46:d1:a7:86:a5:86:2a:73:f5:ba:f9:
                    f4:5e:9c:94:9e:95:81:ec:42:f9:83:f1:4e:a6:eb:
                    c9:a1:3c:e9:97:80:cb:ee:4d:06:45:75:a7:38:db:
                    f2:a9:17:12:46:f1:99:1f:40:48:89:a0:bd:07:46:
                    a5:ab:11:03:fb:a5:2c:a2:c9:bc:f7:07:e5:9f:ce:
                    24:26:3e:a1:a8:ac:fe:ad:09:64:00:d9:da:3c:c8:
                    09:c3:bc:c7:64:b9:93:c2:b9:39:4e:3c:a0:7c:9c:
                    14:fc:e5:bd:1f:1e:fc:4d:e8:e5:aa:9d:ff:33:ed:
                    f7:10:0e:72:da:81:79:e9:1e:f3:65:03:b0:13:77:
                    30:a5
                Exponent: 65537 (0x10001)
        X509v3 extensions:
            X509v3 Subject Key Identifier: 
                63:59:54:71:BD:5B:C7:56:B3:FE:AE:DA:EF:DE:59:E2:60:69:B3:2C
            X509v3 Authority Key Identifier: 
                keyid:34:04:CA:F4:40:13:44:0C:86:E8:1F:47:3F:F0:E8:23:D6:EE:02:09

            Authority Information Access: 
                CA Issuers - URI:http://url-for-aia/Intermediate.cer

            X509v3 CRL Distribution Points: 

                Full Name:
                  URI:http://url-for-crl/Intermediate.crl

            X509v3 Key Usage: critical
                Digital Signature, Key Encipherment
            X509v3 Extended Key Usage: 
                TLS Web Server Authentication, TLS Web Client Authentication
    Signature Algorithm: sha256WithRSAEncryption
         79:22:ea:85:2d:84:4f:01:6c:17:65:35:9c:c5:ee:56:1c:fe:
         84:10:1f:e5:40:41:df:77:b3:37:71:1e:ec:9f:d0:c1:f6:2b:
         b6:dc:0c:76:19:a9:2a:79:ea:1e:71:c2:cf:67:06:bf:22:9e:
         03:c6:07:84:6f:b7:7d:0e:6d:68:fd:57:1a:ec:5c:70:50:57:
         61:6d:e9:27:a8:8d:8d:52:78:f4:43:d4:13:b8:f6:8a:50:cb:
         a5:44:e1:e6:60:23:eb:82:26:7d:ea:d9:fe:ff:2c:2c:99:2d:
         31:98:92:c2:e4:8b:b6:11:15:94:d0:74:29:88:45:69:f5:f5:
         e2:b9:d7:f0:d4:4f:af:e7:c9:5d:9c:07:ad:65:c2:fa:67:68:
         bd:97:cd:26:d7:48:2a:2b:39:11:f3:15:5a:cb:4f:88:a4:46:
         eb:27:7e:58:81:9c:a3:8a:07:ab:17:36:af:09:47:20:37:52:
         5a:0b:50:29:67:b4:4b:88:aa:a6:9a:1c:05:f5:43:69:37:b5:
         a5:1b:3f:36:b5:c7:ec:82:35:f9:20:95:37:23:43:68:fd:a6:
         7d:f1:5e:70:d1:49:75:08:9a:6a:69:70:34:06:75:d7:b0:7f:
         4d:d5:6f:51:a0:3e:75:7a:42:8b:f3:d2:cd:5c:17:8b:b0:4d:
         19:cf:06:88
-----BEGIN CERTIFICATE-----
MIIDjTCCAnWgAwIBAgIBAjANBgkqhkiG9w0BAQsFADAXMRUwEwYDVQQDDAxJbnRl
cm1lZGlhdGUwHhcNMTUwMTAxMTIwMDAwWhcNMTYwMTAxMTIwMDAwWjARMQ8wDQYD
VQQDDAZUYXJnZXQwggEiMA0GCSqGSIb3DQEBAQUAA4IBDwAwggEKAoIBAQDIr6XZ
FVbd7LFB3TQ2SKtaPy5qFBY4H8KtJ2TyclShgXOc/To3LGT54gq9D3SacOqcbslk
6ZKkv5owLJqPTOsSHlgI9WpLcuCoqSKBys18eM0km5CKfax5z0Cp0PakeO/9w7Od
0+pR7sft9Ss2XFARvkSpKc3Weby9W6VG0aeGpYYqc/W6+fRenJSelYHsQvmD8U6m
68mhPOmXgMvuTQZFdac42/KpFxJG8ZkfQEiJoL0HRqWrEQP7pSyiybz3B+WfziQm
PqGorP6tCWQA2do8yAnDvMdkuZPCuTlOPKB8nBT85b0fHvxN6OWqnf8z7fcQDnLa
gXnpHvNlA7ATdzClAgMBAAGjgekwgeYwHQYDVR0OBBYEFGNZVHG9W8dWs/6u2u/e
WeJgabMsMB8GA1UdIwQYMBaAFDQEyvRAE0QMhugfRz/w6CPW7gIJMD8GCCsGAQUF
BwEBBDMwMTAvBggrBgEFBQcwAoYjaHR0cDovL3VybC1mb3ItYWlhL0ludGVybWVk
aWF0ZS5jZXIwNAYDVR0fBC0wKzApoCegJYYjaHR0cDovL3VybC1mb3ItY3JsL0lu
dGVybWVkaWF0ZS5jcmwwDgYDVR0PAQH/BAQDAgWgMB0GA1UdJQQWMBQGCCsGAQUF
BwMBBggrBgEFBQcDAjANBgkqhkiG9w0BAQsFAAOCAQEAeSLqhS2ETwFsF2U1nMXu
Vhz+hBAf5UBB33ezN3Ee7J/QwfYrttwMdhmpKnnqHnHCz2cGvyKeA8YHhG+3fQ5t
aP1XGuxccFBXYW3pJ6iNjVJ49EPUE7j2ilDLpUTh5mAj64ImferZ/v8sLJktMZiS
wuSLthEVlNB0KYhFafX14rnX8NRPr+fJXZwHrWXC+mdovZfNJtdIKis5EfMVWstP
iKRG6yd+WIGco4oHqxc2rwlHIDdSWgtQKWe0S4iqppocBfVDaTe1pRs/NrXH7II1
+SCVNyNDaP2mffFecNFJdQiaamlwNAZ117B/TdVvUaA+dXpCi/PSzVwXi7BNGc8G
iA==
-----END CERTIFICATE-----

Certificate:
    Data:
        Version: 3 (0x2)
        Serial Number: 4 (0x4)
    Signature Algorithm: sha256WithRSAEncryption
        Issuer: CN=Root
        Validity
            Not Before: Jan  1 12:00:00 2015 GMT
            Not After : Jan  1 12:00:00 2016 GMT
        Subject: CN=Intermediate
        Subject Public Key Info:
            Public Key Algorithm: rsaEncryption
                Public-Key: (2048 bit)
                Modulus:
                    00:9a:21:10:93:91:7b:75:0d:a8:b0:51:a1:b8:2c:
                    87:b9:1c:9f:63:63:7a:f5:03:a3:89:4c:5e:b5:03:
                    e9:50:32:c2:e2:30:68:9e:16:ec:ee:70:15:74:47:
                    0f:cd:ea:5d:61:28:1d:0b:3f:37:39:83:ae:f0:64:
                    05:83:15:e6:2d:cb:e9:69:1d:98:bd:3a:cf:25:f6:
                    21:a2:cf:e8:57:ac:bb:97:32:66:51:bb:c3:3f:4c:
                    f9:e8:ac:27:30:00:e5:e3:f5:64:f1:e4:f2:79:93:
                    6a:56:f6:99:28:81:f2:23:13:ac:97:e2:39:d0:80:
                    91:8e:f2:c5:30:cd:46:71:3c:88:ca:03:b5:74:a2:
                    dc:db:e1:ae:70:2a:42:b1:99:b8:d5:48:60:2f:1e:
                    da:d3:1f:27:8b:6c:12:40:3d:5d:eb:0d:e8:f0:e3:
                    f0:4a:8b:cd:74:62:e8:06:44:ca:d8:5e:2a:6d:09:
                    4d:7b:8e:47:1c:04:12:da:ea:e5:6f:6c:41:2c:23:
                    1d:39:83:d0:44:a5:7c:c6:13:0e:6c:73:2a:06:71:
                    4f:65:ba:b1:5e:db:d3:ec:ca:ae:40:5e:24:87:63:
                    2d:ae:4b:d5:f6:4c:25:fc:3f:d9:6e:96:65:c8:b2:
                    8b:1a:a3:ed:33:b4:3a:f3:cc:4a:c5:fc:66:81:3f:
                    89:59
                Exponent: 65537 (0x10001)
        X509v3 extensions:
            X509v3 Subject Key Identifier: 
                34:04:CA:F4:40:13:44:0C:86:E8:1F:47:3F:F0:E8:23:D6:EE:02:09
            X509v3 Authority Key Identifier: 
                keyid:4E:42:54:6A:32:D3:BE:9E:70:41:47:41:3E:90:BA:86:3F:D4:FD:6C

            Authority Information Access: 
                CA Issuers - URI:http://url-for-aia/Root.cer

            X509v3 CRL Distribution Points: 

                Full Name:
                  URI:http://url-for-crl/Root.crl

            X509v3 Key Usage: critical
                Certificate Sign, CRL Sign
            X509v3 Basic Constraints: critical
                CA:TRUE
            X509v3 Extended Key Usage: 
                Netscape Server Gated Crypto
    Signature Algorithm: sha256WithRSAEncryption
         9d:eb:5c:37:6b:e0:f1:1a:a9:fe:c1:8e:a4:54:75:eb:8e:e7:
         56:04:45:03:23:97:86:ec:af:f6:8d:42:03:ac:0d:2e:f1:8d:
         2d:4a:c3:e0:e0:2d:ba:25:ea:54:16:cf:01:df:e8:06:62:d3:
         91:e8:e4:29:43:6e:03:5b:5a:80:ae:bf:82:71:17:1a:fb:f0:
         6e:b6:50:db:d2:77:91:31:3e:cd:f5:70:a4:0c:ad:b3:55:63:
         1a:74:18:27:3e:2c:de:08:bb:94:70:bc:99:d8:7b:bb:25:14:
         d7:0f:62:ba:2b:cf:07:72:f2:8c:9b:b0:72:e0:71:c9:94:b8:
         56:58:4d:14:f6:48:b3:6a:86:87:99:1a:e5:a4:ed:5d:55:da:
         54:bc:dd:7f:52:f4:e8:eb:22:7c:66:86:de:30:d0:6b:61:92:
         cc:a1:6a:33:0d:e4:78:4e:7e:80:87:bf:3c:68:88:b4:e8:94:
         93:89:fe:7d:62:be:48:0c:cf:8c:bb:58:36:b2:f0:93:3a:71:
         f1:97:f7:6e:f2:08:d9:3b:d9:31:c0:f4:9d:e4:19:d9:ad:29:
         26:c5:c5:7c:46:f5:dc:14:ea:db:3f:79:d4:ac:51:42:fb:00:
         c0:2c:ee:d0:e7:69:44:ef:6e:76:24:5d:c8:19:75:5b:12:17:
         07:af:1e:14
-----BEGIN CERTIFICATE-----
MIIDgzCCAmugAwIBAgIBBDANBgkqhkiG9w0BAQsFADAPMQ0wCwYDVQQDDARSb290
MB4XDTE1MDEwMTEyMDAwMFoXDTE2MDEwMTEyMDAwMFowFzEVMBMGA1UEAwwMSW50
ZXJtZWRpYXRlMIIBIjANBgkqhkiG9w0BAQEFAAOCAQ8AMIIBCgKCAQEAmiEQk5F7
dQ2osFGhuCyHuRyfY2N69QOjiUxetQPpUDLC4jBonhbs7nAVdEcPzepdYSgdCz83
OYOu8GQFgxXmLcvpaR2YvTrPJfYhos/oV6y7lzJmUbvDP0z56KwnMADl4/Vk8eTy
eZNqVvaZKIHyIxOsl+I50ICRjvLFMM1GcTyIygO1dKLc2+GucCpCsZm41UhgLx7a
0x8ni2wSQD1d6w3o8OPwSovNdGLoBkTK2F4qbQlNe45HHAQS2urlb2xBLCMdOYPQ
RKV8xhMObHMqBnFPZbqxXtvT7MquQF4kh2MtrkvV9kwl/D/ZbpZlyLKLGqPtM7Q6
88xKxfxmgT+JWQIDAQABo4HhMIHeMB0GA1UdDgQWBBQ0BMr0QBNEDIboH0c/8Ogj
1u4CCTAfBgNVHSMEGDAWgBROQlRqMtO+nnBBR0E+kLqGP9T9bDA3BggrBgEFBQcB
AQQrMCkwJwYIKwYBBQUHMAKGG2h0dHA6Ly91cmwtZm9yLWFpYS9Sb290LmNlcjAs
BgNVHR8EJTAjMCGgH6AdhhtodHRwOi8vdXJsLWZvci1jcmwvUm9vdC5jcmwwDgYD
VR0PAQH/BAQDAgEGMA8GA1UdEwEB/wQFMAMBAf8wFAYDVR0lBA0wCwYJYIZIAYb4
QgQBMA0GCSqGSIb3DQEBCwUAA4IBAQCd61w3a+DxGqn+wY6kVHXrjudWBEUDI5eG
7K/2jUIDrA0u8Y0tSsPg4C26JepUFs8B3+gGYtOR6OQpQ24DW1qArr+CcRca+/Bu
tlDb0neRMT7N9XCkDK2zVWMadBgnPizeCLuUcLyZ2Hu7JRTXD2K6K88HcvKMm7By
4HHJlLhWWE0U9kizaoaHmRrlpO1dVdpUvN1/UvTo6yJ8ZobeMNBrYZLMoWozDeR4
Tn6Ah788aIi06JSTif59Yr5IDM+Mu1g2svCTOnHxl/du8gjZO9kxwPSd5BnZrSkm
xcV8RvXcFOrbP3nUrFFC+wDALO7Q52lE7252JF3IGXVbEhcHrx4U
-----END CERTIFICATE-----

Certificate:
    Data:
        Version: 3 (0x2)
        Serial Number: 3 (0x3)
    Signature Algorithm: sha256WithRSAEncryption
        Issuer: CN=Root
        Validity
            Not Before: Jan  1 12:00:00 2015 GMT
            Not After : Jan  1 12:00:00 2016 GMT
        Subject: CN=Root
        Subject Public Key Info:
            Public Key Algorithm: rsaEncryption
                Public-Key: (2048 bit)
                Modulus:
                    00:e2:b0:53:05:80:84:a4:62:d7:02:96:95:55:ad:
                    63:c9:cd:d7:46:41:1a:cb:b7:0d:6c:70:75:05:e6:
                    ea:a8:f6:64:dd:9e:b8:f7:a3:da:05:50:14:ad:0b:
                    fd:1f:8d:7f:d0:03:ce:ec:7d:de:f3:5e:eb:8b:f0:
                    db:98:70:cc:c2:c0:a9:f7:2c:e7:27:04:a5:79:10:
                    47:6d:a7:80:22:ba:0e:0b:28:e5:2a:f1:69:14:a2:
                    dd:a4:a8:ac:67:76:a0:db:8b:78:c0:0b:7e:2c:9c:
                    65:f6:e5:40:b7:c0:ca:b3:f0:1e:74:69:77:45:38:
                    e1:8c:de:c9:1f:fc:67:28:ee:22:ae:4d:3d:8c:6b:
                    63:62:9f:bf:ef:67:7d:e6:ee:a4:d7:41:c2:62:c5:
                    f2:3c:49:af:f9:44:74:b4:a7:26:f8:bd:ed:57:ec:
                    ed:16:2c:42:77:3d:85:69:e8:48:7e:d7:70:05:21:
                    b9:15:96:0b:5a:5d:ac:ee:64:46:1b:4c:eb:58:b0:
                    fd:48:fe:c1:02:e7:d0:c0:0b:52:aa:e7:51:9c:93:
                    91:46:05:ed:23:2e:c3:0b:0e:50:0e:6e:38:ac:31:
                    69:7d:70:d2:40:dd:7d:41:3e:08:31:78:c6:e3:57:
                    1d:c5:53:e7:91:6d:de:bc:de:3f:2e:72:de:e2:a0:
                    63:0b
                Exponent: 65537 (0x10001)
        X509v3 extensions:
            X509v3 Subject Key Identifier: 
                4E:42:54:6A:32:D3:BE:9E:70:41:47:41:3E:90:BA:86:3F:D4:FD:6C
            X509v3 Authority Key Identifier: 
                keyid:4E:42:54:6A:32:D3:BE:9E:70:41:47:41:3E:90:BA:86:3F:D4:FD:6C

            Authority Information Access: 
                CA Issuers - URI:http://url-for-aia/Root.cer

            X509v3 CRL Distribution Points: 

                Full Name:
                  URI:http://url-for-crl/Root.crl

            X509v3 Key Usage: critical
                Certificate Sign, CRL Sign
            X509v3 Basic Constraints: critical
                CA:TRUE
    Signature Algorithm: sha256WithRSAEncryption
         10:a5:d0:80:a0:3a:69:93:9f:10:d4:23:9c:3b:63:8a:58:15:
         ad:a2:fa:b8:36:3b:e0:85:90:f8:fd:a7:a1:e2:d3:02:c9:48:
         b6:35:37:c1:15:73:bd:7d:5c:cd:66:34:1a:51:53:de:b6:98:
         60:f8:60:25:21:a3:6c:45:76:d6:a8:3f:b0:67:e6:0d:93:59:
         f5:ca:e8:9e:a9:f6:8a:cc:c6:cc:c7:e5:d4:3c:d7:c1:95:ba:
         ab:55:c3:6a:c1:5b:ec:98:12:8b:aa:fb:81:61:50:fe:92:82:
         6d:4b:91:0b:c7:e0:b6:b6:b6:32:d3:51:41:76:23:b8:ee:a2:
         df:cd:b4:de:f8:d7:80:54:a0:0a:b0:2c:2b:23:87:18:aa:06:
         5c:56:f4:c0:af:36:5f:ef:88:cb:3e:ad:a4:93:2d:55:5d:08:
         38:43:54:07:9d:36:33:fc:af:88:18:e1:4f:ac:f5:f0:d5:01:
         87:9c:1f:97:45:9d:42:de:6a:1a:be:a9:20:76:f6:8a:21:78:
         c8:cb:43:6d:c2:c8:08:ee:d1:79:6b:5a:16:30:cf:a7:ee:6c:
         5e:5d:dd:73:26:56:c0:49:e5:99:2b:9a:52:93:20:d1:ad:06:
         56:ed:af:d0:34:c4:19:e6:bb:bd:f7:39:3a:7d:98:dc:24:47:
         90:e1:02:fe
-----BEGIN CERTIFICATE-----
MIIDZTCCAk2gAwIBAgIBAzANBgkqhkiG9w0BAQsFADAPMQ0wCwYDVQQDDARSb290
MB4XDTE1MDEwMTEyMDAwMFoXDTE2MDEwMTEyMDAwMFowDzENMAsGA1UEAwwEUm9v
dDCCASIwDQYJKoZIhvcNAQEBBQADggEPADCCAQoCggEBAOKwUwWAhKRi1wKWlVWt
Y8nN10ZBGsu3DWxwdQXm6qj2ZN2euPej2gVQFK0L/R+Nf9ADzux93vNe64vw25hw
zMLAqfcs5ycEpXkQR22ngCK6Dgso5SrxaRSi3aSorGd2oNuLeMALfiycZfblQLfA
yrPwHnRpd0U44YzeyR/8ZyjuIq5NPYxrY2Kfv+9nfebupNdBwmLF8jxJr/lEdLSn
Jvi97Vfs7RYsQnc9hWnoSH7XcAUhuRWWC1pdrO5kRhtM61iw/Uj+wQLn0MALUqrn
UZyTkUYF7SMuwwsOUA5uOKwxaX1w0kDdfUE+CDF4xuNXHcVT55Ft3rzePy5y3uKg
YwsCAwEAAaOByzCByDAdBgNVHQ4EFgQUTkJUajLTvp5wQUdBPpC6hj/U/WwwHwYD
VR0jBBgwFoAUTkJUajLTvp5wQUdBPpC6hj/U/WwwNwYIKwYBBQUHAQEEKzApMCcG
CCsGAQUFBzAChhtodHRwOi8vdXJsLWZvci1haWEvUm9vdC5jZXIwLAYDVR0fBCUw
IzAhoB+gHYYbaHR0cDovL3VybC1mb3ItY3JsL1Jvb3QuY3JsMA4GA1UdDwEB/wQE
AwIBBjAPBgNVHRMBAf8EBTADAQH/MA0GCSqGSIb3DQEBCwUAA4IBAQAQpdCAoDpp
k58Q1COcO2OKWBWtovq4NjvghZD4/aeh4tMCyUi2NTfBFXO9fVzNZjQaUVPetphg
+GAlIaNsRXbWqD+wZ+YNk1n1yuieqfaKzMbMx+XUPNfBlbqrVcNqwVvsmBKLqvuB
YVD+koJtS5ELx+C2trYy01FBdiO47qLfzbTe+NeAVKAKsCwrI4cYqgZcVvTArzZf
74jLPq2kky1VXQg4Q1QHnTYz/K+IGOFPrPXw1QGHnB+XRZ1C3moavqkgdvaKIXjI
y0NtwsgI7tF5a1oWMM+n7mxeXd1zJlbASeWZK5pSkyDRrQZW7a/QNMQZ5ru99zk6
fZjcJEeQ4QL+
-----END CERTIFICATE-----
