[Created by: generate-chains.py]

Certificate chain with 1 intermediate and a trusted root. The intermediate
has an unknown X.509v3 extension that is marked as non-critical. Verification
is expected to succeed because although unrecognized, the extension is not
critical.

Certificate:
    Data:
        Version: 3 (0x2)
        Serial Number: 1 (0x1)
    Signature Algorithm: sha256WithRSAEncryption
        Issuer: CN=Intermediate
        Validity
            Not Before: Jan  1 12:00:00 2015 GMT
            Not After : Jan  1 12:00:00 2016 GMT
        Subject: CN=Target
        Subject Public Key Info:
            Public Key Algorithm: rsaEncryption
                Public-Key: (2048 bit)
                Modulus:
                    00:c1:45:b7:c7:2a:57:db:f0:c6:44:38:af:69:b5:
                    8a:33:9c:bf:ba:bf:19:8f:a4:96:5f:61:74:0c:3c:
                    95:c0:24:0a:a9:55:c9:3b:a3:1c:93:b3:d8:d8:40:
                    92:4f:c9:c0:9c:51:41:bb:ee:eb:ef:83:4b:d2:a5:
                    2f:da:74:90:bc:45:3a:62:7b:5a:e2:0e:9e:b3:83:
                    c2:8e:67:02:a2:4f:4b:8a:5b:33:19:16:3e:0f:f6:
                    01:f6:b6:c2:6c:17:8f:63:d2:91:3e:6a:2d:08:c8:
                    7c:51:f8:24:2f:dc:f7:74:24:0e:b6:9b:85:c8:2b:
                    82:81:0f:04:5f:d6:53:1e:53:2f:7e:1c:16:fc:3a:
                    77:f3:7f:51:1a:16:e0:7a:a4:05:89:d3:4a:9d:91:
                    03:db:a5:6d:6e:60:cb:f9:40:53:0f:5d:f8:b4:70:
                    23:5a:c7:ff:bf:45:1c:f1:21:8c:4a:9b:11:f7:8c:
                    df:9f:8a:94:be:2b:16:f1:9b:07:90:0d:ff:28:1c:
                    0e:4c:21:36:4e:18:86:50:2d:24:c0:d3:ce:f5:66:
                    a2:96:28:01:56:ba:97:d9:f9:fe:c6:0c:af:2f:34:
                    c3:b7:e1:b3:8a:85:3d:52:ef:fc:61:10:97:17:35:
                    95:fb:c8:e2:ae:49:1f:b4:8a:a7:70:76:b7:c7:df:
                    6b:71
                Exponent: 65537 (0x10001)
        X509v3 extensions:
            X509v3 Subject Key Identifier: 
                49:9D:A7:97:77:91:95:74:7C:01:DC:46:BB:A1:09:4F:19:65:53:D1
            X509v3 Authority Key Identifier: 
                keyid:07:F3:ED:92:2A:F7:2C:67:60:A8:EF:86:B2:9B:CC:97:5C:FA:CF:5A

            Authority Information Access: 
                CA Issuers - URI:http://url-for-aia/Intermediate.cer

            X509v3 CRL Distribution Points: 

                Full Name:
                  URI:http://url-for-crl/Intermediate.crl

            X509v3 Key Usage: critical
                Digital Signature, Key Encipherment
            X509v3 Extended Key Usage: 
                TLS Web Server Authentication, TLS Web Client Authentication
    Signature Algorithm: sha256WithRSAEncryption
         38:a6:e1:64:87:86:9f:16:1d:a7:04:47:da:aa:a9:f3:c3:ea:
         48:26:f2:1c:0c:d5:eb:91:cf:fd:e0:f4:4e:26:59:42:92:62:
         22:37:08:e3:8a:12:de:e5:b4:0b:9a:7d:4d:09:d3:52:a4:d9:
         e4:f2:18:a9:9b:37:ff:3b:4c:1f:23:ff:4a:ae:1f:d5:88:5b:
         f5:9f:3d:5c:d1:dc:c4:36:3b:ec:8a:59:df:8f:98:9a:13:68:
         01:8e:5e:92:a8:6a:7f:99:96:6c:b3:22:1c:45:c0:b5:b3:7a:
         27:2b:13:be:6d:e2:28:6d:40:a8:b8:1d:e6:16:ba:81:01:dc:
         a2:7f:c7:eb:f6:e7:47:23:f0:6b:c5:5d:9e:48:ed:e6:65:4c:
         41:0f:fc:ad:4f:5d:a5:f5:f7:69:80:ca:af:a0:b3:c1:7a:db:
         ef:5a:f3:a3:61:f6:21:04:24:58:81:87:98:41:b9:a7:5d:59:
         4f:e8:89:89:ca:b0:df:67:4d:8a:66:bd:53:9b:06:19:22:8a:
         91:fd:df:21:44:67:27:5a:df:75:04:d8:ef:ee:d3:2f:42:8a:
         53:36:ea:67:ca:b0:cf:03:f6:6b:b1:1a:49:c1:56:fc:1c:f6:
         89:23:b5:d9:c4:2f:29:71:f1:5b:81:39:3a:8a:4f:34:23:86:
         78:f8:b5:35
-----BEGIN CERTIFICATE-----
MIIDjTCCAnWgAwIBAgIBATANBgkqhkiG9w0BAQsFADAXMRUwEwYDVQQDDAxJbnRl
cm1lZGlhdGUwHhcNMTUwMTAxMTIwMDAwWhcNMTYwMTAxMTIwMDAwWjARMQ8wDQYD
VQQDDAZUYXJnZXQwggEiMA0GCSqGSIb3DQEBAQUAA4IBDwAwggEKAoIBAQDBRbfH
Klfb8MZEOK9ptYoznL+6vxmPpJZfYXQMPJXAJAqpVck7oxyTs9jYQJJPycCcUUG7
7uvvg0vSpS/adJC8RTpie1riDp6zg8KOZwKiT0uKWzMZFj4P9gH2tsJsF49j0pE+
ai0IyHxR+CQv3Pd0JA62m4XIK4KBDwRf1lMeUy9+HBb8Onfzf1EaFuB6pAWJ00qd
kQPbpW1uYMv5QFMPXfi0cCNax/+/RRzxIYxKmxH3jN+fipS+KxbxmweQDf8oHA5M
ITZOGIZQLSTA0871ZqKWKAFWupfZ+f7GDK8vNMO34bOKhT1S7/xhEJcXNZX7yOKu
SR+0iqdwdrfH32txAgMBAAGjgekwgeYwHQYDVR0OBBYEFEmdp5d3kZV0fAHcRruh
CU8ZZVPRMB8GA1UdIwQYMBaAFAfz7ZIq9yxnYKjvhrKbzJdc+s9aMD8GCCsGAQUF
BwEBBDMwMTAvBggrBgEFBQcwAoYjaHR0cDovL3VybC1mb3ItYWlhL0ludGVybWVk
aWF0ZS5jZXIwNAYDVR0fBC0wKzApoCegJYYjaHR0cDovL3VybC1mb3ItY3JsL0lu
dGVybWVkaWF0ZS5jcmwwDgYDVR0PAQH/BAQDAgWgMB0GA1UdJQQWMBQGCCsGAQUF
BwMBBggrBgEFBQcDAjANBgkqhkiG9w0BAQsFAAOCAQEAOKbhZIeGnxYdpwRH2qqp
88PqSCbyHAzV65HP/eD0TiZZQpJiIjcI44oS3uW0C5p9TQnTUqTZ5PIYqZs3/ztM
HyP/Sq4f1Yhb9Z89XNHcxDY77IpZ34+YmhNoAY5ekqhqf5mWbLMiHEXAtbN6JysT
vm3iKG1AqLgd5ha6gQHcon/H6/bnRyPwa8Vdnkjt5mVMQQ/8rU9dpfX3aYDKr6Cz
wXrb71rzo2H2IQQkWIGHmEG5p11ZT+iJicqw32dNima9U5sGGSKKkf3fIURnJ1rf
dQTY7+7TL0KKUzbqZ8qwzwP2a7EaScFW/Bz2iSO12cQvKXHxW4E5OopPNCOGePi1
NQ==
-----END CERTIFICATE-----

Certificate:
    Data:
        Version: 3 (0x2)
        Serial Number: 2 (0x2)
    Signature Algorithm: sha256WithRSAEncryption
        Issuer: CN=Root
        Validity
            Not Before: Jan  1 12:00:00 2015 GMT
            Not After : Jan  1 12:00:00 2016 GMT
        Subject: CN=Intermediate
        Subject Public Key Info:
            Public Key Algorithm: rsaEncryption
                Public-Key: (2048 bit)
                Modulus:
                    00:c9:47:61:13:ce:5c:97:1f:40:92:f1:86:de:28:
                    e0:4e:e8:70:01:3a:19:75:23:4f:bd:7b:ec:b6:45:
                    5f:aa:5e:2c:58:bd:ed:17:3c:ad:fc:74:4e:97:48:
                    71:a3:ce:04:90:0f:cf:78:62:89:58:18:66:c5:b7:
                    c9:a2:80:48:57:ee:64:a8:17:90:8c:e1:51:6d:a3:
                    79:21:d0:67:9f:82:ba:89:70:6e:54:32:67:e2:f5:
                    d7:8c:de:f8:6f:21:86:26:11:89:e7:7a:52:ab:25:
                    a4:e9:53:0d:01:58:04:a1:8e:ce:93:52:36:33:82:
                    17:6f:4c:cd:5c:9b:ee:42:96:2f:5c:ef:e4:c1:8b:
                    db:78:ad:af:e3:9f:b6:1c:be:f1:1d:36:9b:63:92:
                    37:be:ea:27:49:b7:7b:89:73:93:2c:b2:cb:bb:74:
                    d4:a6:c2:fe:08:ae:e8:bc:e3:40:a7:4d:97:db:14:
                    26:6b:c8:02:d3:95:4a:9b:7b:12:69:d3:3f:e9:88:
                    07:d7:49:26:6f:87:85:aa:0f:be:88:3c:a7:f0:9f:
                    7f:21:f0:96:35:26:71:f1:f9:33:3f:f8:c8:92:64:
                    c1:7a:6a:6b:52:a8:54:dc:88:5c:75:93:81:7f:4f:
                    cc:c5:cf:51:4b:87:ff:4e:3c:e2:76:08:2d:fc:4d:
                    cf:0f
                Exponent: 65537 (0x10001)
        X509v3 extensions:
            X509v3 Subject Key Identifier: 
                07:F3:ED:92:2A:F7:2C:67:60:A8:EF:86:B2:9B:CC:97:5C:FA:CF:5A
            X509v3 Authority Key Identifier: 
                keyid:5E:73:41:09:27:46:17:12:6B:62:FF:2E:78:20:DE:7A:59:ED:29:84

            Authority Information Access: 
                CA Issuers - URI:http://url-for-aia/Root.cer

            X509v3 CRL Distribution Points: 

                Full Name:
                  URI:http://url-for-crl/Root.crl

            X509v3 Key Usage: critical
                Certificate Sign, CRL Sign
            X509v3 Basic Constraints: critical
                CA:TRUE
            1.2.3.4: 
                ....
    Signature Algorithm: sha256WithRSAEncryption
         41:01:a7:f2:bb:ba:fa:3d:28:60:6f:c4:09:1f:0e:21:6c:72:
         90:ef:0b:f8:03:b4:00:92:1d:ef:40:04:50:db:0b:06:06:db:
         01:51:70:6e:b4:67:cd:1f:ac:6f:fd:ab:78:f0:97:82:69:c6:
         77:22:78:f7:b5:e1:a2:f8:5d:ca:56:1a:88:e6:13:5c:97:14:
         13:b3:16:c8:60:b4:f3:dd:5d:7c:f5:a3:44:50:23:45:4a:e1:
         0e:d5:5e:7e:16:3d:d9:92:09:d2:9d:80:3a:8c:3c:1b:20:1f:
         a2:5b:ab:f3:e9:22:f5:92:b3:a8:4f:b8:91:4f:50:cf:d7:f0:
         f7:df:1f:6b:a5:fb:71:28:48:9f:e6:ba:46:36:8e:3c:f2:d2:
         16:7b:5d:2b:9e:ec:49:b7:1b:1c:6d:c1:76:95:d7:e7:cd:fa:
         05:01:00:ba:84:04:e9:44:f1:8f:7d:bb:07:24:55:4d:41:56:
         e7:12:9f:0b:bd:85:d0:c9:1b:d8:68:27:88:84:e9:27:1e:58:
         a3:22:0c:a8:f9:0c:ad:4b:a7:1f:a7:c9:dc:9e:b5:4b:0f:6f:
         76:63:13:db:80:6c:79:90:5e:d8:bb:68:5d:42:7f:38:65:e8:
         f8:49:e1:0e:51:b2:b1:31:45:47:f2:1f:8a:15:f4:7b:67:82:
         83:d8:cd:70
-----BEGIN CERTIFICATE-----
MIIDejCCAmKgAwIBAgIBAjANBgkqhkiG9w0BAQsFADAPMQ0wCwYDVQQDDARSb290
MB4XDTE1MDEwMTEyMDAwMFoXDTE2MDEwMTEyMDAwMFowFzEVMBMGA1UEAwwMSW50
ZXJtZWRpYXRlMIIBIjANBgkqhkiG9w0BAQEFAAOCAQ8AMIIBCgKCAQEAyUdhE85c
lx9AkvGG3ijgTuhwAToZdSNPvXvstkVfql4sWL3tFzyt/HROl0hxo84EkA/PeGKJ
WBhmxbfJooBIV+5kqBeQjOFRbaN5IdBnn4K6iXBuVDJn4vXXjN74byGGJhGJ53pS
qyWk6VMNAVgEoY7Ok1I2M4IXb0zNXJvuQpYvXO/kwYvbeK2v45+2HL7xHTabY5I3
vuonSbd7iXOTLLLLu3TUpsL+CK7ovONAp02X2xQma8gC05VKm3sSadM/6YgH10km
b4eFqg++iDyn8J9/IfCWNSZx8fkzP/jIkmTBemprUqhU3IhcdZOBf0/Mxc9RS4f/
Tjzidggt/E3PDwIDAQABo4HYMIHVMB0GA1UdDgQWBBQH8+2SKvcsZ2Co74aym8yX
XPrPWjAfBgNVHSMEGDAWgBRec0EJJ0YXEmti/y54IN56We0phDA3BggrBgEFBQcB
AQQrMCkwJwYIKwYBBQUHMAKGG2h0dHA6Ly91cmwtZm9yLWFpYS9Sb290LmNlcjAs
BgNVHR8EJTAjMCGgH6AdhhtodHRwOi8vdXJsLWZvci1jcmwvUm9vdC5jcmwwDgYD
VR0PAQH/BAQDAgEGMA8GA1UdEwEB/wQFMAMBAf8wCwYDKgMEBAQBAgMEMA0GCSqG
SIb3DQEBCwUAA4IBAQBBAafyu7r6PShgb8QJHw4hbHKQ7wv4A7QAkh3vQARQ2wsG
BtsBUXButGfNH6xv/at48JeCacZ3Inj3teGi+F3KVhqI5hNclxQTsxbIYLTz3V18
9aNEUCNFSuEO1V5+Fj3ZkgnSnYA6jDwbIB+iW6vz6SL1krOoT7iRT1DP1/D33x9r
pftxKEif5rpGNo488tIWe10rnuxJtxscbcF2ldfnzfoFAQC6hATpRPGPfbsHJFVN
QVbnEp8LvYXQyRvYaCeIhOknHlijIgyo+QytS6cfp8ncnrVLD292YxPbgGx5kF7Y
u2hdQn84Zej4SeEOUbKxMUVH8h+KFfR7Z4KD2M1w
-----END CERTIFICATE-----

Certificate:
    Data:
        Version: 3 (0x2)
        Serial Number: 1 (0x1)
    Signature Algorithm: sha256WithRSAEncryption
        Issuer: CN=Root
        Validity
            Not Before: Jan  1 12:00:00 2015 GMT
            Not After : Jan  1 12:00:00 2016 GMT
        Subject: CN=Root
        Subject Public Key Info:
            Public Key Algorithm: rsaEncryption
                Public-Key: (2048 bit)
                Modulus:
                    00:d0:c9:04:2a:e3:2c:61:f5:b8:fe:95:cf:f0:4f:
                    49:3a:13:bf:16:40:fd:16:d5:31:53:5b:2c:16:94:
                    96:7b:63:43:b0:04:9f:0c:9f:f9:30:48:94:ad:03:
                    c7:84:48:a0:9e:eb:7a:a4:d7:09:f7:48:4d:1d:d8:
                    05:59:46:52:33:43:a7:6c:c1:66:b4:8e:5a:3e:8a:
                    5b:bc:18:09:ff:c3:5b:c2:d7:1f:00:e1:5d:85:b1:
                    b6:8b:aa:ac:7a:9e:30:37:d8:57:c6:d8:82:f5:23:
                    80:16:2b:ff:95:5b:dc:24:61:0b:0f:62:14:e8:dd:
                    ee:5c:30:86:6d:4e:e9:99:b5:61:d1:94:cf:4c:f9:
                    c4:92:be:22:59:2d:be:ca:2c:d3:8d:9f:8e:ea:d3:
                    88:dc:cd:69:21:18:64:d2:66:23:50:d4:ca:38:76:
                    09:3d:f5:cc:42:91:a2:12:f1:f4:cb:86:83:7c:0d:
                    87:f7:89:a7:eb:ff:99:19:c6:04:22:b5:05:18:ca:
                    04:60:d3:61:b8:b2:b1:64:cf:c4:15:af:a4:62:f6:
                    a1:c6:cc:f9:f9:3d:3e:25:7c:03:a6:a6:17:d6:43:
                    90:7d:d8:04:f6:27:c7:79:cf:c9:96:b4:b3:b7:0e:
                    0a:fc:c4:ea:b4:ce:7e:67:e7:21:33:92:cc:11:af:
                    f2:9b
                Exponent: 65537 (0x10001)
        X509v3 extensions:
            X509v3 Subject Key Identifier: 
                5E:73:41:09:27:46:17:12:6B:62:FF:2E:78:20:DE:7A:59:ED:29:84
            X509v3 Authority Key Identifier: 
                keyid:5E:73:41:09:27:46:17:12:6B:62:FF:2E:78:20:DE:7A:59:ED:29:84

            Authority Information Access: 
                CA Issuers - URI:http://url-for-aia/Root.cer

            X509v3 CRL Distribution Points: 

                Full Name:
                  URI:http://url-for-crl/Root.crl

            X509v3 Key Usage: critical
                Certificate Sign, CRL Sign
            X509v3 Basic Constraints: critical
                CA:TRUE
    Signature Algorithm: sha256WithRSAEncryption
         bc:0f:f0:2b:80:e2:8d:60:5e:c4:04:a9:09:5c:a5:c0:4d:cc:
         90:d5:42:48:73:e1:48:8a:0c:4a:94:95:e1:1a:a3:9f:5b:3e:
         7f:be:b7:f1:ba:e0:31:a9:98:d2:82:b2:8c:82:5e:b0:ed:f3:
         3f:7e:21:54:b8:d4:55:0f:5b:a8:49:e4:22:85:bd:53:c3:9c:
         f5:2f:cf:08:0b:12:95:13:fb:3d:00:33:ba:40:96:08:4a:99:
         bc:cd:f5:3a:0c:82:c6:79:34:65:8c:c6:36:7a:e3:37:85:2f:
         72:c8:88:1d:5f:eb:5f:90:55:09:c9:2d:78:40:ac:33:cc:00:
         9b:f5:c8:07:1e:63:01:98:ee:f0:66:72:79:15:71:a0:6a:59:
         aa:f9:f1:44:06:14:1a:5b:a8:05:e6:1e:cd:81:d5:f1:67:18:
         7f:41:28:07:37:2f:30:ca:6d:11:2d:96:7c:ba:1d:ba:cc:b7:
         30:20:e8:7b:43:1e:2f:d7:9f:c8:df:fc:d0:a1:13:7e:04:9b:
         3c:03:64:5d:00:5a:7f:7e:d9:d9:f7:16:0c:e7:09:8e:d7:eb:
         ac:7b:f0:4d:4c:57:a8:cc:dc:5d:01:2e:68:00:da:a4:c0:eb:
         e7:87:8a:d3:59:cb:e1:88:a1:8b:97:22:81:3d:da:f6:be:d8:
         26:ee:1b:db
-----BEGIN CERTIFICATE-----
MIIDZTCCAk2gAwIBAgIBATANBgkqhkiG9w0BAQsFADAPMQ0wCwYDVQQDDARSb290
MB4XDTE1MDEwMTEyMDAwMFoXDTE2MDEwMTEyMDAwMFowDzENMAsGA1UEAwwEUm9v
dDCCASIwDQYJKoZIhvcNAQEBBQADggEPADCCAQoCggEBANDJBCrjLGH1uP6Vz/BP
SToTvxZA/RbVMVNbLBaUlntjQ7AEnwyf+TBIlK0Dx4RIoJ7reqTXCfdITR3YBVlG
UjNDp2zBZrSOWj6KW7wYCf/DW8LXHwDhXYWxtouqrHqeMDfYV8bYgvUjgBYr/5Vb
3CRhCw9iFOjd7lwwhm1O6Zm1YdGUz0z5xJK+Ilktvsos042fjurTiNzNaSEYZNJm
I1DUyjh2CT31zEKRohLx9MuGg3wNh/eJp+v/mRnGBCK1BRjKBGDTYbiysWTPxBWv
pGL2ocbM+fk9PiV8A6amF9ZDkH3YBPYnx3nPyZa0s7cOCvzE6rTOfmfnITOSzBGv
8psCAwEAAaOByzCByDAdBgNVHQ4EFgQUXnNBCSdGFxJrYv8ueCDeelntKYQwHwYD
VR0jBBgwFoAUXnNBCSdGFxJrYv8ueCDeelntKYQwNwYIKwYBBQUHAQEEKzApMCcG
CCsGAQUFBzAChhtodHRwOi8vdXJsLWZvci1haWEvUm9vdC5jZXIwLAYDVR0fBCUw
IzAhoB+gHYYbaHR0cDovL3VybC1mb3ItY3JsL1Jvb3QuY3JsMA4GA1UdDwEB/wQE
AwIBBjAPBgNVHRMBAf8EBTADAQH/MA0GCSqGSIb3DQEBCwUAA4IBAQC8D/ArgOKN
YF7EBKkJXKXATcyQ1UJIc+FIigxKlJXhGqOfWz5/vrfxuuAxqZjSgrKMgl6w7fM/
fiFUuNRVD1uoSeQihb1Tw5z1L88ICxKVE/s9ADO6QJYISpm8zfU6DILGeTRljMY2
euM3hS9yyIgdX+tfkFUJyS14QKwzzACb9cgHHmMBmO7wZnJ5FXGgalmq+fFEBhQa
W6gF5h7NgdXxZxh/QSgHNy8wym0RLZZ8uh26zLcwIOh7Qx4v15/I3/zQoRN+BJs8
A2RdAFp/ftnZ9xYM5wmO1+use/BNTFeozNxdAS5oANqkwOvnh4rTWcvhiKGLlyKB
Pdr2vtgm7hvb
-----END CERTIFICATE-----
