[Created by: generate-chains.py]

Certificate chain with 1 intermediate and a trusted root. The intermediate
contains a keyUsage extension, HOWEVER it does not contain the keyCertSign bit.
Hence validation is expected to fail.

Certificate:
    Data:
        Version: 3 (0x2)
        Serial Number: 1 (0x1)
    Signature Algorithm: sha256WithRSAEncryption
        Issuer: CN=Intermediate
        Validity
            Not Before: Jan  1 12:00:00 2015 GMT
            Not After : Jan  1 12:00:00 2016 GMT
        Subject: CN=Target
        Subject Public Key Info:
            Public Key Algorithm: rsaEncryption
                Public-Key: (2048 bit)
                Modulus:
                    00:c7:f3:c9:3b:b8:fb:d0:c6:d9:9d:7e:a6:0c:37:
                    fb:1e:e7:a9:ec:90:b1:a2:06:2a:b0:f1:d3:81:53:
                    8c:86:ea:c3:80:04:18:04:26:b0:70:4f:6b:7c:6b:
                    5f:31:b8:8d:e7:8a:93:a1:9d:69:20:a9:5e:0a:13:
                    a1:a1:c7:7b:e9:e4:bf:d1:67:50:e4:7a:e4:db:00:
                    a6:cb:f6:2c:a8:47:9d:7b:9a:6e:69:86:06:a2:0d:
                    ad:68:86:67:ff:da:0e:a1:ae:30:57:28:27:15:f3:
                    8b:b6:e2:3e:c8:30:26:6e:f4:05:ec:eb:b5:bc:cb:
                    37:bc:5d:db:c2:6a:f8:4f:e5:7f:b8:f2:62:aa:59:
                    3b:40:ce:40:67:7d:83:bb:66:20:a5:73:82:7e:40:
                    ce:87:ae:3d:36:dc:06:26:09:c9:3e:6b:13:ed:c8:
                    44:ee:cf:f3:db:38:a1:ee:cd:02:94:18:7f:c6:d7:
                    78:65:8d:34:bb:a3:d4:c5:27:e1:b9:b5:67:ad:fb:
                    3c:ce:9a:3d:f6:c7:54:2e:7b:fa:f8:89:e9:56:2b:
                    e9:78:2e:02:14:2b:1a:18:e4:ce:f7:80:67:f7:0f:
                    88:bc:78:70:8f:1c:d5:3f:22:3b:38:22:51:d8:fd:
                    6d:93:de:05:0c:1c:a8:b7:b1:d3:a9:83:6b:8b:10:
                    ad:61
                Exponent: 65537 (0x10001)
        X509v3 extensions:
            X509v3 Subject Key Identifier: 
                C5:A1:CF:17:29:4F:62:DA:B7:74:71:6F:6A:89:D9:DE:45:66:A7:E4
            X509v3 Authority Key Identifier: 
                keyid:4C:E2:EE:E5:DC:2B:D0:74:49:43:BA:6D:6B:91:6F:A3:C0:53:89:92

            Authority Information Access: 
                CA Issuers - URI:http://url-for-aia/Intermediate.cer

            X509v3 CRL Distribution Points: 

                Full Name:
                  URI:http://url-for-crl/Intermediate.crl

            X509v3 Key Usage: critical
                Digital Signature, Key Encipherment
            X509v3 Extended Key Usage: 
                TLS Web Server Authentication, TLS Web Client Authentication
    Signature Algorithm: sha256WithRSAEncryption
         16:ce:d2:ca:93:02:19:26:32:7b:da:3d:66:36:c1:4e:53:00:
         46:c7:47:21:a7:fc:f1:af:e8:1f:d5:79:31:7f:6e:e3:25:60:
         93:97:16:8e:9b:d7:05:08:8e:5d:f0:a0:c4:13:b3:a0:7f:25:
         ed:fb:df:cd:96:52:12:84:24:d6:01:a2:86:3a:40:42:cf:f8:
         1c:f3:7d:ae:41:46:01:ec:b3:7d:55:62:a0:d8:bb:0d:77:08:
         4c:0d:b7:61:dd:f5:4b:da:c5:5a:35:21:b1:d2:b6:a3:f1:2e:
         fd:f8:6b:b5:53:4f:ba:aa:b0:40:e2:42:01:4d:03:40:fb:d1:
         ea:d1:b9:b4:d0:bc:58:9e:65:20:ae:77:58:a7:3f:5e:b7:fe:
         b8:aa:93:56:b3:40:2f:e0:a8:4a:70:76:d7:a6:c2:a5:1e:c5:
         a2:4f:af:87:57:1b:99:33:82:42:b0:42:62:7a:00:b3:76:0f:
         96:b5:b4:db:77:85:bb:d8:8e:4d:ca:1f:10:19:b3:91:d1:09:
         1c:f0:e5:7b:87:fe:6f:82:94:ab:81:66:68:5d:00:44:a6:3f:
         66:c9:1a:fe:05:73:19:91:8f:be:75:e9:53:38:3c:75:d0:9d:
         12:91:b6:9a:95:e8:87:4e:d2:73:63:8a:80:7e:04:70:4c:58:
         b0:ef:fa:56
-----BEGIN CERTIFICATE-----
MIIDjTCCAnWgAwIBAgIBATANBgkqhkiG9w0BAQsFADAXMRUwEwYDVQQDDAxJbnRl
cm1lZGlhdGUwHhcNMTUwMTAxMTIwMDAwWhcNMTYwMTAxMTIwMDAwWjARMQ8wDQYD
VQQDDAZUYXJnZXQwggEiMA0GCSqGSIb3DQEBAQUAA4IBDwAwggEKAoIBAQDH88k7
uPvQxtmdfqYMN/se56nskLGiBiqw8dOBU4yG6sOABBgEJrBwT2t8a18xuI3nipOh
nWkgqV4KE6Ghx3vp5L/RZ1DkeuTbAKbL9iyoR517mm5phgaiDa1ohmf/2g6hrjBX
KCcV84u24j7IMCZu9AXs67W8yze8XdvCavhP5X+48mKqWTtAzkBnfYO7ZiClc4J+
QM6Hrj023AYmCck+axPtyETuz/PbOKHuzQKUGH/G13hljTS7o9TFJ+G5tWet+zzO
mj32x1Que/r4ielWK+l4LgIUKxoY5M73gGf3D4i8eHCPHNU/Ijs4IlHY/W2T3gUM
HKi3sdOpg2uLEK1hAgMBAAGjgekwgeYwHQYDVR0OBBYEFMWhzxcpT2Lat3Rxb2qJ
2d5FZqfkMB8GA1UdIwQYMBaAFEzi7uXcK9B0SUO6bWuRb6PAU4mSMD8GCCsGAQUF
BwEBBDMwMTAvBggrBgEFBQcwAoYjaHR0cDovL3VybC1mb3ItYWlhL0ludGVybWVk
aWF0ZS5jZXIwNAYDVR0fBC0wKzApoCegJYYjaHR0cDovL3VybC1mb3ItY3JsL0lu
dGVybWVkaWF0ZS5jcmwwDgYDVR0PAQH/BAQDAgWgMB0GA1UdJQQWMBQGCCsGAQUF
BwMBBggrBgEFBQcDAjANBgkqhkiG9w0BAQsFAAOCAQEAFs7SypMCGSYye9o9ZjbB
TlMARsdHIaf88a/oH9V5MX9u4yVgk5cWjpvXBQiOXfCgxBOzoH8l7fvfzZZSEoQk
1gGihjpAQs/4HPN9rkFGAeyzfVVioNi7DXcITA23Yd31S9rFWjUhsdK2o/Eu/fhr
tVNPuqqwQOJCAU0DQPvR6tG5tNC8WJ5lIK53WKc/Xrf+uKqTVrNAL+CoSnB216bC
pR7Fok+vh1cbmTOCQrBCYnoAs3YPlrW023eFu9iOTcofEBmzkdEJHPDle4f+b4KU
q4FmaF0ARKY/Zska/gVzGZGPvnXpUzg8ddCdEpG2mpXoh07Sc2OKgH4EcExYsO/6
Vg==
-----END CERTIFICATE-----

Certificate:
    Data:
        Version: 3 (0x2)
        Serial Number: 2 (0x2)
    Signature Algorithm: sha256WithRSAEncryption
        Issuer: CN=Root
        Validity
            Not Before: Jan  1 12:00:00 2015 GMT
            Not After : Jan  1 12:00:00 2016 GMT
        Subject: CN=Intermediate
        Subject Public Key Info:
            Public Key Algorithm: rsaEncryption
                Public-Key: (2048 bit)
                Modulus:
                    00:c9:5c:c0:66:3d:c7:72:ee:18:23:d7:56:80:3c:
                    b2:c2:57:81:a3:74:9c:05:07:e7:1a:70:ba:0c:08:
                    fc:14:db:52:16:03:2b:90:bb:01:1a:61:65:52:19:
                    8a:9b:08:2e:ed:00:29:31:a3:8a:7b:30:32:89:cb:
                    3d:4e:1e:a2:4c:f6:21:ff:5e:02:9c:7f:7a:e0:0d:
                    1c:cb:d7:e9:ee:9e:64:3f:b3:ca:17:79:c1:36:9d:
                    51:87:06:2d:c1:f4:28:f2:8b:49:a9:d2:12:89:b4:
                    60:60:65:00:6f:09:83:f8:95:94:ca:8c:70:2d:1d:
                    e0:7b:42:fc:53:4b:40:8c:d3:67:a1:2c:0a:c7:53:
                    8a:af:31:91:5b:12:cd:4b:d0:19:11:22:cc:82:94:
                    10:89:f0:b2:ae:f0:11:6e:91:bb:a5:77:89:c9:fd:
                    37:ea:b0:09:9a:7a:bf:7b:e9:d5:f5:56:13:af:b3:
                    d9:3f:c4:90:5a:b1:ed:ee:de:6f:86:16:61:f6:2d:
                    15:c9:6e:94:f2:72:58:e7:5e:ab:f1:2a:42:b1:6c:
                    c7:cd:fd:b1:2d:48:e0:b3:c4:09:e6:bd:e1:f9:3b:
                    1b:a5:5c:dc:0d:b9:40:2d:55:af:70:b2:01:cf:83:
                    35:85:4f:b4:a9:fc:33:f3:3c:f7:30:0c:c0:c5:22:
                    05:85
                Exponent: 65537 (0x10001)
        X509v3 extensions:
            X509v3 Subject Key Identifier: 
                4C:E2:EE:E5:DC:2B:D0:74:49:43:BA:6D:6B:91:6F:A3:C0:53:89:92
            X509v3 Authority Key Identifier: 
                keyid:CC:94:41:CF:A9:F7:C7:58:7C:37:E3:C5:37:29:9B:12:B3:DF:D5:3B

            Authority Information Access: 
                CA Issuers - URI:http://url-for-aia/Root.cer

            X509v3 CRL Distribution Points: 

                Full Name:
                  URI:http://url-for-crl/Root.crl

            X509v3 Key Usage: critical
                Digital Signature, Key Encipherment
            X509v3 Basic Constraints: critical
                CA:TRUE
    Signature Algorithm: sha256WithRSAEncryption
         69:a7:89:a0:25:d4:c9:92:31:7c:81:77:5d:69:74:e8:21:f1:
         36:60:f7:88:a7:e2:7a:31:29:86:68:3f:b2:59:b3:9e:87:66:
         b7:bd:b7:7e:fa:f0:9b:96:e2:d4:65:c3:a2:fd:68:22:03:28:
         f5:ea:39:0b:9a:a4:4d:1a:b5:c8:f9:80:e3:ba:58:55:6f:56:
         0e:18:51:bf:f0:a3:cb:d8:19:a8:a7:c5:53:ad:a3:29:34:ee:
         10:69:32:fd:fe:76:11:1a:5d:c2:9d:6b:a0:94:de:16:7b:b8:
         2b:94:c1:cf:ad:4f:d6:61:ff:04:db:43:71:c3:18:02:1c:ae:
         0a:e3:f2:40:b6:01:e4:ef:55:ee:59:ad:4b:16:e7:23:24:d8:
         53:01:5a:4a:27:a9:ce:af:a8:29:18:3b:0b:4a:19:3b:f0:8c:
         c1:9b:cf:bc:75:8e:a3:e3:64:5d:eb:67:b7:52:42:ee:ed:a5:
         d8:3d:c6:0b:37:a3:ca:16:43:1e:52:25:05:f4:b0:b3:37:35:
         ea:b2:6b:06:39:f3:32:e0:82:06:22:eb:06:46:f5:3d:7b:f0:
         4f:bf:84:95:9e:ac:69:b3:be:2d:41:f2:50:94:5a:99:38:63:
         09:9c:2a:3f:8e:ab:70:ea:44:bd:80:6e:c0:20:bb:ee:de:5c:
         97:f0:57:59
-----BEGIN CERTIFICATE-----
MIIDbTCCAlWgAwIBAgIBAjANBgkqhkiG9w0BAQsFADAPMQ0wCwYDVQQDDARSb290
MB4XDTE1MDEwMTEyMDAwMFoXDTE2MDEwMTEyMDAwMFowFzEVMBMGA1UEAwwMSW50
ZXJtZWRpYXRlMIIBIjANBgkqhkiG9w0BAQEFAAOCAQ8AMIIBCgKCAQEAyVzAZj3H
cu4YI9dWgDyywleBo3ScBQfnGnC6DAj8FNtSFgMrkLsBGmFlUhmKmwgu7QApMaOK
ezAyics9Th6iTPYh/14CnH964A0cy9fp7p5kP7PKF3nBNp1RhwYtwfQo8otJqdIS
ibRgYGUAbwmD+JWUyoxwLR3ge0L8U0tAjNNnoSwKx1OKrzGRWxLNS9AZESLMgpQQ
ifCyrvARbpG7pXeJyf036rAJmnq/e+nV9VYTr7PZP8SQWrHt7t5vhhZh9i0VyW6U
8nJY516r8SpCsWzHzf2xLUjgs8QJ5r3h+TsbpVzcDblALVWvcLIBz4M1hU+0qfwz
8zz3MAzAxSIFhQIDAQABo4HLMIHIMB0GA1UdDgQWBBRM4u7l3CvQdElDum1rkW+j
wFOJkjAfBgNVHSMEGDAWgBTMlEHPqffHWHw348U3KZsSs9/VOzA3BggrBgEFBQcB
AQQrMCkwJwYIKwYBBQUHMAKGG2h0dHA6Ly91cmwtZm9yLWFpYS9Sb290LmNlcjAs
BgNVHR8EJTAjMCGgH6AdhhtodHRwOi8vdXJsLWZvci1jcmwvUm9vdC5jcmwwDgYD
VR0PAQH/BAQDAgWgMA8GA1UdEwEB/wQFMAMBAf8wDQYJKoZIhvcNAQELBQADggEB
AGmniaAl1MmSMXyBd11pdOgh8TZg94in4noxKYZoP7JZs56HZre9t3768JuW4tRl
w6L9aCIDKPXqOQuapE0atcj5gOO6WFVvVg4YUb/wo8vYGainxVOtoyk07hBpMv3+
dhEaXcKda6CU3hZ7uCuUwc+tT9Zh/wTbQ3HDGAIcrgrj8kC2AeTvVe5ZrUsW5yMk
2FMBWkonqc6vqCkYOwtKGTvwjMGbz7x1jqPjZF3rZ7dSQu7tpdg9xgs3o8oWQx5S
JQX0sLM3NeqyawY58zLgggYi6wZG9T178E+/hJWerGmzvi1B8lCUWpk4YwmcKj+O
q3DqRL2AbsAgu+7eXJfwV1k=
-----END CERTIFICATE-----

Certificate:
    Data:
        Version: 3 (0x2)
        Serial Number: 1 (0x1)
    Signature Algorithm: sha256WithRSAEncryption
        Issuer: CN=Root
        Validity
            Not Before: Jan  1 12:00:00 2015 GMT
            Not After : Jan  1 12:00:00 2016 GMT
        Subject: CN=Root
        Subject Public Key Info:
            Public Key Algorithm: rsaEncryption
                Public-Key: (2048 bit)
                Modulus:
                    00:cb:b8:41:ee:d5:da:d2:45:d6:49:60:20:14:fb:
                    2c:a9:de:97:50:8e:1c:2f:82:c0:f5:ad:ae:58:ca:
                    46:cb:e5:cc:19:4f:e3:4f:15:7f:41:d4:b7:34:f3:
                    3d:da:86:6d:1a:d0:ab:f0:76:82:ea:a5:db:fb:c2:
                    e3:56:ac:4a:f0:33:57:d5:82:9e:72:db:2c:36:a3:
                    1b:d9:b1:e6:27:1c:98:7e:42:37:b6:21:bd:5a:18:
                    61:bc:6f:77:d7:0c:07:13:39:70:a1:46:08:9f:12:
                    05:c9:ac:a4:57:78:b5:8f:bc:6d:ca:b2:b0:24:ff:
                    fd:9c:61:9f:28:2f:7e:bb:d2:e3:2a:81:ed:f5:b7:
                    84:c9:be:fa:04:3c:29:e8:1f:ca:68:44:08:27:e3:
                    fc:ba:ce:74:19:59:c5:cd:9e:cb:a3:4a:e5:0f:d9:
                    78:38:b4:8c:c8:5f:a6:93:48:13:83:cc:a9:d2:60:
                    45:61:0d:00:22:84:88:ea:e3:dd:da:f0:05:c8:09:
                    3a:b2:3e:5b:6e:3e:c6:18:47:ff:18:54:b6:c0:6e:
                    fc:df:75:4b:2f:23:30:a1:8e:e2:4b:8b:63:fc:80:
                    83:62:eb:c9:a5:fe:ed:26:37:ad:59:ef:79:6a:2d:
                    67:d6:f9:5c:88:5e:19:62:05:55:9a:26:e5:61:b3:
                    f6:65
                Exponent: 65537 (0x10001)
        X509v3 extensions:
            X509v3 Subject Key Identifier: 
                CC:94:41:CF:A9:F7:C7:58:7C:37:E3:C5:37:29:9B:12:B3:DF:D5:3B
            X509v3 Authority Key Identifier: 
                keyid:CC:94:41:CF:A9:F7:C7:58:7C:37:E3:C5:37:29:9B:12:B3:DF:D5:3B

            Authority Information Access: 
                CA Issuers - URI:http://url-for-aia/Root.cer

            X509v3 CRL Distribution Points: 

                Full Name:
                  URI:http://url-for-crl/Root.crl

            X509v3 Key Usage: critical
                Certificate Sign, CRL Sign
            X509v3 Basic Constraints: critical
                CA:TRUE
    Signature Algorithm: sha256WithRSAEncryption
         33:52:cd:b6:65:6e:1c:04:7d:9f:a1:7c:13:20:9a:bf:c4:c9:
         cf:f6:0f:c1:bd:1d:a6:a6:61:55:17:3d:00:80:1e:26:51:97:
         35:a7:e1:c5:a2:94:2b:a8:78:c0:d0:07:b9:07:ab:9f:80:a3:
         a2:79:8f:08:c3:3d:3a:a4:00:f5:6a:06:4c:33:34:d4:32:35:
         cd:d9:70:ad:91:86:00:50:c0:17:a4:ce:17:f8:b7:84:02:bd:
         75:0b:39:6f:bb:bd:0f:18:7d:f7:8e:34:e9:c3:4c:30:7b:ae:
         2f:b5:06:9a:c1:a7:ec:bd:87:13:f7:27:00:89:c7:b6:e4:f1:
         6b:76:52:7d:75:c1:7b:58:67:10:5b:96:83:b4:ab:13:ad:8a:
         af:16:b2:88:78:85:9e:86:89:f6:6b:02:4b:23:38:66:8b:39:
         ad:29:a6:ff:68:8d:62:a3:b0:46:e9:2e:e7:d9:01:c0:52:59:
         02:7d:d1:53:b9:8f:38:4a:f9:56:16:3e:0a:5b:b1:32:d0:2e:
         a4:75:3f:ee:fc:65:60:c0:5f:ac:81:b8:e4:dd:c6:df:87:8a:
         4a:ad:4d:30:a4:59:bb:ed:66:fa:c5:e5:b8:a3:7d:4c:eb:a3:
         90:e0:03:b1:ae:35:5a:f8:29:56:9f:d7:b9:ae:79:20:4a:75:
         bc:4d:9f:c8
-----BEGIN CERTIFICATE-----
MIIDZTCCAk2gAwIBAgIBATANBgkqhkiG9w0BAQsFADAPMQ0wCwYDVQQDDARSb290
MB4XDTE1MDEwMTEyMDAwMFoXDTE2MDEwMTEyMDAwMFowDzENMAsGA1UEAwwEUm9v
dDCCASIwDQYJKoZIhvcNAQEBBQADggEPADCCAQoCggEBAMu4Qe7V2tJF1klgIBT7
LKnel1COHC+CwPWtrljKRsvlzBlP408Vf0HUtzTzPdqGbRrQq/B2guql2/vC41as
SvAzV9WCnnLbLDajG9mx5iccmH5CN7YhvVoYYbxvd9cMBxM5cKFGCJ8SBcmspFd4
tY+8bcqysCT//ZxhnygvfrvS4yqB7fW3hMm++gQ8KegfymhECCfj/LrOdBlZxc2e
y6NK5Q/ZeDi0jMhfppNIE4PMqdJgRWENACKEiOrj3drwBcgJOrI+W24+xhhH/xhU
tsBu/N91Sy8jMKGO4kuLY/yAg2LryaX+7SY3rVnveWotZ9b5XIheGWIFVZom5WGz
9mUCAwEAAaOByzCByDAdBgNVHQ4EFgQUzJRBz6n3x1h8N+PFNymbErPf1TswHwYD
VR0jBBgwFoAUzJRBz6n3x1h8N+PFNymbErPf1TswNwYIKwYBBQUHAQEEKzApMCcG
CCsGAQUFBzAChhtodHRwOi8vdXJsLWZvci1haWEvUm9vdC5jZXIwLAYDVR0fBCUw
IzAhoB+gHYYbaHR0cDovL3VybC1mb3ItY3JsL1Jvb3QuY3JsMA4GA1UdDwEB/wQE
AwIBBjAPBgNVHRMBAf8EBTADAQH/MA0GCSqGSIb3DQEBCwUAA4IBAQAzUs22ZW4c
BH2foXwTIJq/xMnP9g/BvR2mpmFVFz0AgB4mUZc1p+HFopQrqHjA0Ae5B6ufgKOi
eY8Iwz06pAD1agZMMzTUMjXN2XCtkYYAUMAXpM4X+LeEAr11Czlvu70PGH33jjTp
w0wwe64vtQaawafsvYcT9ycAice25PFrdlJ9dcF7WGcQW5aDtKsTrYqvFrKIeIWe
hon2awJLIzhmizmtKab/aI1io7BG6S7n2QHAUlkCfdFTuY84SvlWFj4KW7Ey0C6k
dT/u/GVgwF+sgbjk3cbfh4pKrU0wpFm77Wb6xeW4o31M66OQ4AOxrjVa+ClWn9e5
rnkgSnW8TZ/I
-----END CERTIFICATE-----
