[Created by: generate-chains.py]

Certificate chain with 1 intermediate and a trusted root. The intermediate
has an unknown X.509v3 extension (OID=1.2.3.4) that is marked as critical.
Verifying this certificate chain is expected to fail because there is an
unrecognized critical extension.

Certificate:
    Data:
        Version: 3 (0x2)
        Serial Number: 1 (0x1)
    Signature Algorithm: sha256WithRSAEncryption
        Issuer: CN=Intermediate
        Validity
            Not Before: Jan  1 12:00:00 2015 GMT
            Not After : Jan  1 12:00:00 2016 GMT
        Subject: CN=Target
        Subject Public Key Info:
            Public Key Algorithm: rsaEncryption
                Public-Key: (2048 bit)
                Modulus:
                    00:e4:56:5a:78:c6:79:63:15:7a:a6:5b:ac:09:02:
                    26:d7:10:40:e3:ea:55:dc:1c:86:37:cd:9a:0c:7d:
                    6c:5a:1f:d0:58:25:72:48:c5:7f:ae:7c:eb:9c:a6:
                    e8:45:7c:f5:00:36:16:a9:00:f9:8e:8a:df:70:2c:
                    bb:30:6c:74:6a:c7:30:69:a5:2c:1d:77:3f:b0:fa:
                    89:e0:cb:07:39:ac:08:59:aa:4c:63:cc:62:fa:a9:
                    8c:19:27:61:2d:0d:97:98:ad:50:b8:b9:e2:5a:21:
                    c1:70:cd:e7:2a:ad:6a:68:1f:52:bc:8c:80:f5:51:
                    a6:f1:3f:47:c7:50:81:27:e5:15:37:48:4f:4b:c3:
                    1b:e9:01:b9:97:56:8b:b9:56:38:62:d0:c5:ca:52:
                    21:6b:2d:42:03:7a:d9:83:d3:cd:57:b4:8c:ca:a5:
                    91:bf:3f:e2:26:df:85:e6:6c:2c:80:56:26:21:95:
                    be:cf:a4:85:cf:5e:e4:18:05:e7:68:99:91:67:6d:
                    e3:16:92:c9:df:9f:89:3f:ae:ee:ee:a8:43:69:f6:
                    6b:92:5d:72:6b:bd:53:1c:4e:25:23:4f:ee:5a:ab:
                    3f:ba:01:42:94:02:db:cb:59:93:bb:b9:2a:ea:ad:
                    5a:17:26:84:67:99:05:98:f0:b1:3c:e0:a4:2b:17:
                    ea:19
                Exponent: 65537 (0x10001)
        X509v3 extensions:
            X509v3 Subject Key Identifier: 
                F7:35:7C:CD:CE:17:42:80:4E:A2:57:94:36:6B:2A:70:19:25:20:CD
            X509v3 Authority Key Identifier: 
                keyid:B7:0A:76:64:C2:EB:6F:75:8D:EE:42:82:82:B5:AE:9C:7B:B8:23:29

            Authority Information Access: 
                CA Issuers - URI:http://url-for-aia/Intermediate.cer

            X509v3 CRL Distribution Points: 

                Full Name:
                  URI:http://url-for-crl/Intermediate.crl

            X509v3 Key Usage: critical
                Digital Signature, Key Encipherment
            X509v3 Extended Key Usage: 
                TLS Web Server Authentication, TLS Web Client Authentication
    Signature Algorithm: sha256WithRSAEncryption
         41:e1:50:8d:1b:12:5f:32:0f:7f:d5:d5:f4:31:df:9d:51:f3:
         6e:96:49:51:b5:83:7e:e7:1e:d8:48:c2:60:0f:f1:59:bf:fa:
         8e:ab:12:59:20:2f:ad:41:7e:3b:01:6a:f8:b9:d3:c5:82:12:
         7c:a2:1e:b2:18:83:10:8b:75:d0:47:3b:51:20:6f:50:cf:fa:
         2b:b5:38:84:94:48:fa:51:01:1b:12:af:1e:53:a1:51:09:94:
         ec:d6:7f:57:ec:27:13:73:79:db:fc:77:83:e5:bb:5c:6e:39:
         a2:7f:dc:9a:ae:8c:b9:ee:bb:28:3a:bf:25:43:65:4e:2c:34:
         cc:70:94:1f:25:3a:7a:6f:de:04:e0:eb:bf:e4:3f:0d:ca:d9:
         97:1f:bd:11:3a:8b:e2:b7:24:19:5a:66:3c:41:65:17:cd:4b:
         d9:0e:76:2c:69:68:69:37:d1:17:08:36:0b:b5:c5:cd:df:79:
         37:7d:f8:bd:b4:21:b5:57:cb:b4:22:9f:b0:8a:cb:78:e7:e4:
         94:82:8f:bf:03:86:33:95:90:84:47:29:88:5a:ed:ca:8d:08:
         0f:6a:85:77:40:c1:f6:e5:7f:bd:3d:59:8c:e4:9d:6b:d7:f3:
         7e:47:04:9c:7c:36:37:38:40:7a:5b:48:55:07:27:76:b8:68:
         57:1c:e8:18
-----BEGIN CERTIFICATE-----
MIIDjTCCAnWgAwIBAgIBATANBgkqhkiG9w0BAQsFADAXMRUwEwYDVQQDDAxJbnRl
cm1lZGlhdGUwHhcNMTUwMTAxMTIwMDAwWhcNMTYwMTAxMTIwMDAwWjARMQ8wDQYD
VQQDDAZUYXJnZXQwggEiMA0GCSqGSIb3DQEBAQUAA4IBDwAwggEKAoIBAQDkVlp4
xnljFXqmW6wJAibXEEDj6lXcHIY3zZoMfWxaH9BYJXJIxX+ufOucpuhFfPUANhap
APmOit9wLLswbHRqxzBppSwddz+w+ongywc5rAhZqkxjzGL6qYwZJ2EtDZeYrVC4
ueJaIcFwzecqrWpoH1K8jID1UabxP0fHUIEn5RU3SE9LwxvpAbmXVou5Vjhi0MXK
UiFrLUIDetmD081XtIzKpZG/P+Im34XmbCyAViYhlb7PpIXPXuQYBedomZFnbeMW
ksnfn4k/ru7uqENp9muSXXJrvVMcTiUjT+5aqz+6AUKUAtvLWZO7uSrqrVoXJoRn
mQWY8LE84KQrF+oZAgMBAAGjgekwgeYwHQYDVR0OBBYEFPc1fM3OF0KATqJXlDZr
KnAZJSDNMB8GA1UdIwQYMBaAFLcKdmTC6291je5CgoK1rpx7uCMpMD8GCCsGAQUF
BwEBBDMwMTAvBggrBgEFBQcwAoYjaHR0cDovL3VybC1mb3ItYWlhL0ludGVybWVk
aWF0ZS5jZXIwNAYDVR0fBC0wKzApoCegJYYjaHR0cDovL3VybC1mb3ItY3JsL0lu
dGVybWVkaWF0ZS5jcmwwDgYDVR0PAQH/BAQDAgWgMB0GA1UdJQQWMBQGCCsGAQUF
BwMBBggrBgEFBQcDAjANBgkqhkiG9w0BAQsFAAOCAQEAQeFQjRsSXzIPf9XV9DHf
nVHzbpZJUbWDfuce2EjCYA/xWb/6jqsSWSAvrUF+OwFq+LnTxYISfKIeshiDEIt1
0Ec7USBvUM/6K7U4hJRI+lEBGxKvHlOhUQmU7NZ/V+wnE3N52/x3g+W7XG45on/c
mq6Mue67KDq/JUNlTiw0zHCUHyU6em/eBODrv+Q/DcrZlx+9ETqL4rckGVpmPEFl
F81L2Q52LGloaTfRFwg2C7XFzd95N334vbQhtVfLtCKfsIrLeOfklIKPvwOGM5WQ
hEcpiFrtyo0ID2qFd0DB9uV/vT1ZjOSda9fzfkcEnHw2NzhAeltIVQcndrhoVxzo
GA==
-----END CERTIFICATE-----

Certificate:
    Data:
        Version: 3 (0x2)
        Serial Number: 2 (0x2)
    Signature Algorithm: sha256WithRSAEncryption
        Issuer: CN=Root
        Validity
            Not Before: Jan  1 12:00:00 2015 GMT
            Not After : Jan  1 12:00:00 2016 GMT
        Subject: CN=Intermediate
        Subject Public Key Info:
            Public Key Algorithm: rsaEncryption
                Public-Key: (2048 bit)
                Modulus:
                    00:af:53:c1:dc:ae:32:12:ba:12:d0:12:d6:5e:18:
                    4a:ca:26:ef:e5:b8:b4:b0:9e:f0:6f:99:7d:d7:f5:
                    c5:2c:e3:3a:d0:61:35:51:a0:ea:eb:76:02:27:9a:
                    7e:19:b7:3f:9c:09:ee:e9:5d:60:64:82:19:94:74:
                    a2:b6:04:6b:ba:dd:51:c2:33:6c:9a:b9:eb:91:b9:
                    3a:07:6d:9e:36:3e:17:b7:38:27:1e:11:1e:06:35:
                    50:4c:02:11:48:17:28:87:14:0f:d7:28:65:4f:12:
                    80:da:4f:74:36:63:de:50:97:2e:68:dc:82:bb:f1:
                    c0:6a:60:34:1f:86:2d:61:13:0e:39:9e:14:d8:ba:
                    df:55:8d:bb:7b:38:77:85:d8:37:52:97:20:c2:12:
                    01:f0:e1:40:25:70:76:f4:89:5f:50:15:77:f9:74:
                    e9:53:e0:31:b8:e0:a7:f1:22:72:76:b1:07:13:b5:
                    e9:a8:f5:bf:29:0f:1f:95:bd:a1:79:74:56:7e:ba:
                    28:18:aa:20:8a:af:7b:ae:cc:cd:55:b2:8b:b4:f3:
                    5e:f2:bf:2e:09:9b:6a:b8:26:bf:79:58:c4:ca:2f:
                    fa:e0:28:7d:f7:85:71:c3:c2:03:b0:47:b9:11:d5:
                    4f:dc:5c:31:78:06:0b:06:09:bc:ae:95:0d:ee:71:
                    02:23
                Exponent: 65537 (0x10001)
        X509v3 extensions:
            X509v3 Subject Key Identifier: 
                B7:0A:76:64:C2:EB:6F:75:8D:EE:42:82:82:B5:AE:9C:7B:B8:23:29
            X509v3 Authority Key Identifier: 
                keyid:79:19:7C:D6:62:7D:B4:D8:E8:6E:7C:D3:E9:C7:2F:3D:F2:B2:40:A3

            Authority Information Access: 
                CA Issuers - URI:http://url-for-aia/Root.cer

            X509v3 CRL Distribution Points: 

                Full Name:
                  URI:http://url-for-crl/Root.crl

            X509v3 Key Usage: critical
                Certificate Sign, CRL Sign
            X509v3 Basic Constraints: critical
                CA:TRUE
            1.2.3.4: critical
                ....
    Signature Algorithm: sha256WithRSAEncryption
         8d:9d:d7:0d:67:cb:88:b6:bd:0b:f4:bf:3c:10:2c:e7:4c:6b:
         93:71:de:cd:15:8f:cf:30:0a:6a:ef:8e:78:b3:54:b5:1e:3d:
         4e:4c:13:69:09:5d:7e:40:5d:7a:52:6a:72:b3:9b:2d:0b:30:
         45:95:28:9a:45:21:b5:d0:97:4a:ee:cb:5e:cb:84:f0:6b:b0:
         83:1a:10:64:63:41:49:44:93:7c:81:4f:9e:12:76:07:73:89:
         3d:e9:e8:87:09:1d:76:f1:8c:31:76:23:df:80:00:95:63:e4:
         97:b3:c6:01:24:ff:1c:fe:3e:58:43:6c:69:0f:86:bc:cb:c4:
         a2:df:18:a5:c9:07:c1:7f:1d:6a:1b:04:35:a9:f1:91:f5:a8:
         fc:08:87:53:20:62:c3:91:a1:15:d4:b0:bc:66:48:2f:1d:5f:
         54:09:06:af:df:b9:a6:f6:9e:2a:99:f9:73:40:9d:88:21:18:
         79:0d:04:f6:87:9c:1d:32:a1:4e:a2:41:8b:51:ce:f0:f9:59:
         fd:68:63:31:f0:ce:d4:4c:53:d4:6e:1c:2f:4e:3b:3d:d2:35:
         16:ef:65:c7:2f:6c:e6:65:ca:f8:f5:71:b5:0d:7f:08:84:e2:
         09:5f:fe:2d:45:6d:cc:f5:db:7f:25:1e:ff:ce:8a:96:fd:60:
         72:85:f0:0f
-----BEGIN CERTIFICATE-----
MIIDfTCCAmWgAwIBAgIBAjANBgkqhkiG9w0BAQsFADAPMQ0wCwYDVQQDDARSb290
MB4XDTE1MDEwMTEyMDAwMFoXDTE2MDEwMTEyMDAwMFowFzEVMBMGA1UEAwwMSW50
ZXJtZWRpYXRlMIIBIjANBgkqhkiG9w0BAQEFAAOCAQ8AMIIBCgKCAQEAr1PB3K4y
EroS0BLWXhhKyibv5bi0sJ7wb5l91/XFLOM60GE1UaDq63YCJ5p+Gbc/nAnu6V1g
ZIIZlHSitgRrut1RwjNsmrnrkbk6B22eNj4XtzgnHhEeBjVQTAIRSBcohxQP1yhl
TxKA2k90NmPeUJcuaNyCu/HAamA0H4YtYRMOOZ4U2LrfVY27ezh3hdg3UpcgwhIB
8OFAJXB29IlfUBV3+XTpU+AxuOCn8SJydrEHE7XpqPW/KQ8flb2heXRWfrooGKog
iq97rszNVbKLtPNe8r8uCZtquCa/eVjEyi/64Ch994Vxw8IDsEe5EdVP3FwxeAYL
Bgm8rpUN7nECIwIDAQABo4HbMIHYMB0GA1UdDgQWBBS3CnZkwutvdY3uQoKCta6c
e7gjKTAfBgNVHSMEGDAWgBR5GXzWYn202OhufNPpxy898rJAozA3BggrBgEFBQcB
AQQrMCkwJwYIKwYBBQUHMAKGG2h0dHA6Ly91cmwtZm9yLWFpYS9Sb290LmNlcjAs
BgNVHR8EJTAjMCGgH6AdhhtodHRwOi8vdXJsLWZvci1jcmwvUm9vdC5jcmwwDgYD
VR0PAQH/BAQDAgEGMA8GA1UdEwEB/wQFMAMBAf8wDgYDKgMEAQH/BAQBAgMEMA0G
CSqGSIb3DQEBCwUAA4IBAQCNndcNZ8uItr0L9L88ECznTGuTcd7NFY/PMApq7454
s1S1Hj1OTBNpCV1+QF16Umpys5stCzBFlSiaRSG10JdK7stey4Twa7CDGhBkY0FJ
RJN8gU+eEnYHc4k96eiHCR128YwxdiPfgACVY+SXs8YBJP8c/j5YQ2xpD4a8y8Si
3xilyQfBfx1qGwQ1qfGR9aj8CIdTIGLDkaEV1LC8ZkgvHV9UCQav37mm9p4qmflz
QJ2IIRh5DQT2h5wdMqFOokGLUc7w+Vn9aGMx8M7UTFPUbhwvTjs90jUW72XHL2zm
Zcr49XG1DX8IhOIJX/4tRW3M9dt/JR7/zoqW/WByhfAP
-----END CERTIFICATE-----

Certificate:
    Data:
        Version: 3 (0x2)
        Serial Number: 1 (0x1)
    Signature Algorithm: sha256WithRSAEncryption
        Issuer: CN=Root
        Validity
            Not Before: Jan  1 12:00:00 2015 GMT
            Not After : Jan  1 12:00:00 2016 GMT
        Subject: CN=Root
        Subject Public Key Info:
            Public Key Algorithm: rsaEncryption
                Public-Key: (2048 bit)
                Modulus:
                    00:d4:ae:26:50:c5:ac:e1:7e:b7:9d:20:24:3c:b5:
                    5d:00:3e:9e:20:03:93:41:ed:70:e7:cc:a7:8f:67:
                    48:1c:79:41:b4:e1:e3:7c:e6:35:31:74:43:61:cc:
                    7a:2d:15:b3:1c:fe:a1:75:1e:82:6e:39:30:10:39:
                    7c:c2:a3:84:ea:99:b6:9e:3f:ce:41:46:9f:43:03:
                    d0:8a:0a:b4:fb:e7:ec:05:b7:73:1f:c5:06:85:0d:
                    13:41:d5:f8:3b:b8:f0:65:2e:93:88:9f:c1:f8:81:
                    dc:c7:38:50:cb:fe:c6:cb:dd:6d:39:c4:4e:40:9a:
                    64:4f:a7:72:fc:98:cd:b9:4b:32:99:0e:0f:33:2e:
                    b6:2e:80:f2:e4:51:bb:14:e4:67:43:54:2f:a8:1e:
                    c3:4b:4f:4c:dd:4a:df:84:1e:e9:e7:50:bf:83:2e:
                    a6:38:a6:c9:d8:60:98:94:b6:5c:4b:1e:80:c4:39:
                    32:11:5e:ae:4d:c4:ac:10:be:cd:fe:a3:9c:38:2e:
                    55:be:0f:92:cb:06:87:d0:a3:d4:f8:a2:e7:ca:05:
                    c0:41:91:a4:b9:93:da:fd:38:3f:ce:c2:45:2b:06:
                    da:d4:91:53:e8:8e:c2:c3:39:c1:c6:dd:ff:41:fa:
                    94:66:c3:c9:ee:6a:e2:91:ac:ad:42:5e:7a:d4:8a:
                    43:9f
                Exponent: 65537 (0x10001)
        X509v3 extensions:
            X509v3 Subject Key Identifier: 
                79:19:7C:D6:62:7D:B4:D8:E8:6E:7C:D3:E9:C7:2F:3D:F2:B2:40:A3
            X509v3 Authority Key Identifier: 
                keyid:79:19:7C:D6:62:7D:B4:D8:E8:6E:7C:D3:E9:C7:2F:3D:F2:B2:40:A3

            Authority Information Access: 
                CA Issuers - URI:http://url-for-aia/Root.cer

            X509v3 CRL Distribution Points: 

                Full Name:
                  URI:http://url-for-crl/Root.crl

            X509v3 Key Usage: critical
                Certificate Sign, CRL Sign
            X509v3 Basic Constraints: critical
                CA:TRUE
    Signature Algorithm: sha256WithRSAEncryption
         61:d4:f8:35:7a:0a:20:22:4f:45:99:27:f5:e9:d8:2a:0c:ae:
         df:86:e5:39:ab:c3:f5:00:e2:70:2c:c7:93:e6:56:ae:f8:d0:
         84:4d:f6:0a:1d:5f:f8:c2:4b:40:f1:78:1a:e6:ef:07:a9:b2:
         2c:8b:d3:fc:15:89:9a:eb:5c:a2:be:07:32:c5:1f:cc:1f:16:
         47:03:5c:6a:11:b0:2d:15:ba:08:62:c2:df:6b:32:85:28:35:
         79:a7:99:bf:b0:41:50:cc:53:c4:dc:09:b6:af:fd:d6:b8:a6:
         5e:9f:60:69:1b:ae:fd:46:2f:c8:5a:86:23:8f:5e:3d:fa:38:
         03:24:5f:89:27:58:88:5f:00:15:18:9a:25:ce:22:97:31:17:
         82:34:c3:10:32:81:5c:5c:41:1c:6f:c7:3a:37:f2:60:dd:70:
         55:e0:b9:17:cc:dc:3b:3c:a7:c9:01:3d:9b:6a:01:67:9c:89:
         bf:a8:46:df:df:c3:7c:c1:83:8d:44:e1:f6:c9:91:3d:36:f4:
         b8:44:fe:e2:13:7b:9b:46:b4:2e:2a:79:18:28:88:de:d6:24:
         d6:8e:46:64:65:46:d4:2b:52:28:67:41:37:8e:ce:20:f9:8a:
         fa:cc:fc:c6:df:06:7c:bd:c7:fc:ab:24:31:03:94:e0:b2:4b:
         a5:66:40:1d
-----BEGIN CERTIFICATE-----
MIIDZTCCAk2gAwIBAgIBATANBgkqhkiG9w0BAQsFADAPMQ0wCwYDVQQDDARSb290
MB4XDTE1MDEwMTEyMDAwMFoXDTE2MDEwMTEyMDAwMFowDzENMAsGA1UEAwwEUm9v
dDCCASIwDQYJKoZIhvcNAQEBBQADggEPADCCAQoCggEBANSuJlDFrOF+t50gJDy1
XQA+niADk0HtcOfMp49nSBx5QbTh43zmNTF0Q2HMei0Vsxz+oXUegm45MBA5fMKj
hOqZtp4/zkFGn0MD0IoKtPvn7AW3cx/FBoUNE0HV+Du48GUuk4ifwfiB3Mc4UMv+
xsvdbTnETkCaZE+ncvyYzblLMpkODzMuti6A8uRRuxTkZ0NUL6gew0tPTN1K34Qe
6edQv4MupjimydhgmJS2XEsegMQ5MhFerk3ErBC+zf6jnDguVb4PkssGh9Cj1Pii
58oFwEGRpLmT2v04P87CRSsG2tSRU+iOwsM5wcbd/0H6lGbDye5q4pGsrUJeetSK
Q58CAwEAAaOByzCByDAdBgNVHQ4EFgQUeRl81mJ9tNjobnzT6ccvPfKyQKMwHwYD
VR0jBBgwFoAUeRl81mJ9tNjobnzT6ccvPfKyQKMwNwYIKwYBBQUHAQEEKzApMCcG
CCsGAQUFBzAChhtodHRwOi8vdXJsLWZvci1haWEvUm9vdC5jZXIwLAYDVR0fBCUw
IzAhoB+gHYYbaHR0cDovL3VybC1mb3ItY3JsL1Jvb3QuY3JsMA4GA1UdDwEB/wQE
AwIBBjAPBgNVHRMBAf8EBTADAQH/MA0GCSqGSIb3DQEBCwUAA4IBAQBh1Pg1egog
Ik9FmSf16dgqDK7fhuU5q8P1AOJwLMeT5lau+NCETfYKHV/4wktA8Xga5u8HqbIs
i9P8FYma61yivgcyxR/MHxZHA1xqEbAtFboIYsLfazKFKDV5p5m/sEFQzFPE3Am2
r/3WuKZen2BpG679Ri/IWoYjj149+jgDJF+JJ1iIXwAVGJolziKXMReCNMMQMoFc
XEEcb8c6N/Jg3XBV4LkXzNw7PKfJAT2bagFnnIm/qEbf38N8wYONROH2yZE9NvS4
RP7iE3ubRrQuKnkYKIje1iTWjkZkZUbUK1IoZ0E3js4g+Yr6zPzG3wZ8vcf8qyQx
A5TgskulZkAd
-----END CERTIFICATE-----
