[Created by: generate-chains.py]

Certificate chain with 1 intermediate, but the trust anchor used is
incorrect (neither subject nor signature matches). Verification is expected to
fail.

Certificate:
    Data:
        Version: 3 (0x2)
        Serial Number: 1 (0x1)
    Signature Algorithm: sha256WithRSAEncryption
        Issuer: CN=Intermediate
        Validity
            Not Before: Jan  1 12:00:00 2015 GMT
            Not After : Jan  1 12:00:00 2016 GMT
        Subject: CN=Target
        Subject Public Key Info:
            Public Key Algorithm: rsaEncryption
                Public-Key: (2048 bit)
                Modulus:
                    00:b3:d8:e1:c8:d6:ce:ed:3b:b7:8a:5b:17:c2:9e:
                    0c:04:f4:4e:ba:ad:1b:cf:c0:63:b7:c9:01:e9:7a:
                    28:d4:d8:0b:71:36:af:02:f6:44:fc:ce:5e:84:50:
                    fb:5f:ef:a0:b8:b5:77:62:c0:6c:9f:8f:4f:64:52:
                    67:04:0b:d3:92:31:a5:79:f3:8d:11:03:03:a2:c0:
                    da:ef:8f:b5:68:f8:55:f0:ac:9b:05:3a:df:ea:7b:
                    3b:06:f2:de:e3:b2:c5:27:3e:b9:39:90:c0:27:0d:
                    de:6c:a2:8e:e4:2e:f9:95:13:37:df:20:12:28:ae:
                    82:5e:91:3a:cb:75:ae:55:fb:07:d6:40:48:cd:6f:
                    9c:3e:07:0f:48:d1:8f:ba:db:fa:b2:7c:ce:29:10:
                    e0:6b:48:36:80:db:4c:10:19:a1:28:fb:e0:b5:4f:
                    b2:89:40:b7:6b:9a:af:a1:9b:b0:52:03:23:16:fb:
                    0f:5d:c6:c9:f2:98:08:c5:07:85:76:30:57:46:be:
                    85:46:ed:14:74:60:00:61:ce:f7:88:62:6c:0b:a2:
                    41:9c:5a:27:3f:e5:29:9c:36:73:a3:04:8b:ab:74:
                    2d:1e:f5:96:f7:b4:c2:51:77:a9:9c:ef:ac:fd:bc:
                    aa:cf:ba:98:cf:6c:1b:fc:e9:20:8c:dc:17:45:49:
                    12:45
                Exponent: 65537 (0x10001)
        X509v3 extensions:
            X509v3 Subject Key Identifier: 
                14:7E:08:D5:73:67:A9:9C:5B:C1:26:14:D1:96:8E:09:88:11:32:67
            X509v3 Authority Key Identifier: 
                keyid:3F:EE:51:69:3A:24:09:D6:26:3C:A4:08:22:1F:0D:77:7D:D5:E7:3B

            Authority Information Access: 
                CA Issuers - URI:http://url-for-aia/Intermediate.cer

            X509v3 CRL Distribution Points: 

                Full Name:
                  URI:http://url-for-crl/Intermediate.crl

            X509v3 Key Usage: critical
                Digital Signature, Key Encipherment
            X509v3 Extended Key Usage: 
                TLS Web Server Authentication, TLS Web Client Authentication
    Signature Algorithm: sha256WithRSAEncryption
         85:2e:d4:1b:3a:28:c2:2e:2d:4f:9d:4e:f6:fe:9a:96:a2:c3:
         0a:58:30:0d:f7:74:ac:8d:56:85:c9:78:9d:0f:69:73:94:ac:
         a3:2a:9c:1e:f7:ca:83:d5:3b:b4:6a:7b:d8:bf:b6:f2:44:fb:
         d0:09:f5:34:e4:ac:e2:9e:89:6e:e4:48:1f:61:c3:a0:e6:67:
         b8:29:68:b6:c6:de:e6:93:fc:4e:04:76:d8:a5:58:9b:55:e7:
         10:ec:08:0a:22:ae:21:41:8f:de:3f:9b:eb:7d:48:35:2e:ee:
         ed:b6:e6:5b:40:df:40:ee:21:b0:e8:b8:6f:34:29:71:45:a8:
         67:c7:f8:c4:5c:b3:4f:f1:2f:5e:65:9f:0e:d1:f8:f2:03:55:
         a0:6c:e8:76:ec:40:51:f4:28:41:80:77:e2:6c:91:08:c7:ed:
         4d:a8:c0:3c:08:a4:c1:6b:6a:5f:c6:65:7c:c3:ad:c6:b7:f1:
         3d:05:8b:91:32:2c:37:9b:88:6e:28:c8:ec:4f:35:a2:1e:94:
         80:97:75:26:1d:91:e4:ac:d7:f8:f7:b5:30:66:90:bc:9a:d5:
         a6:4e:b5:d0:36:b5:d2:b1:06:1b:73:14:75:bd:67:8c:a8:22:
         28:8a:79:b0:85:89:47:54:7a:98:3a:eb:5f:b6:bf:ab:07:56:
         64:b0:13:8b
-----BEGIN CERTIFICATE-----
MIIDjTCCAnWgAwIBAgIBATANBgkqhkiG9w0BAQsFADAXMRUwEwYDVQQDDAxJbnRl
cm1lZGlhdGUwHhcNMTUwMTAxMTIwMDAwWhcNMTYwMTAxMTIwMDAwWjARMQ8wDQYD
VQQDDAZUYXJnZXQwggEiMA0GCSqGSIb3DQEBAQUAA4IBDwAwggEKAoIBAQCz2OHI
1s7tO7eKWxfCngwE9E66rRvPwGO3yQHpeijU2AtxNq8C9kT8zl6EUPtf76C4tXdi
wGyfj09kUmcEC9OSMaV5840RAwOiwNrvj7Vo+FXwrJsFOt/qezsG8t7jssUnPrk5
kMAnDd5soo7kLvmVEzffIBIoroJekTrLda5V+wfWQEjNb5w+Bw9I0Y+62/qyfM4p
EOBrSDaA20wQGaEo++C1T7KJQLdrmq+hm7BSAyMW+w9dxsnymAjFB4V2MFdGvoVG
7RR0YABhzveIYmwLokGcWic/5SmcNnOjBIurdC0e9Zb3tMJRd6mc76z9vKrPupjP
bBv86SCM3BdFSRJFAgMBAAGjgekwgeYwHQYDVR0OBBYEFBR+CNVzZ6mcW8EmFNGW
jgmIETJnMB8GA1UdIwQYMBaAFD/uUWk6JAnWJjykCCIfDXd91ec7MD8GCCsGAQUF
BwEBBDMwMTAvBggrBgEFBQcwAoYjaHR0cDovL3VybC1mb3ItYWlhL0ludGVybWVk
aWF0ZS5jZXIwNAYDVR0fBC0wKzApoCegJYYjaHR0cDovL3VybC1mb3ItY3JsL0lu
dGVybWVkaWF0ZS5jcmwwDgYDVR0PAQH/BAQDAgWgMB0GA1UdJQQWMBQGCCsGAQUF
BwMBBggrBgEFBQcDAjANBgkqhkiG9w0BAQsFAAOCAQEAhS7UGzoowi4tT51O9v6a
lqLDClgwDfd0rI1Whcl4nQ9pc5SsoyqcHvfKg9U7tGp72L+28kT70An1NOSs4p6J
buRIH2HDoOZnuClotsbe5pP8TgR22KVYm1XnEOwICiKuIUGP3j+b631INS7u7bbm
W0DfQO4hsOi4bzQpcUWoZ8f4xFyzT/EvXmWfDtH48gNVoGzoduxAUfQoQYB34myR
CMftTajAPAikwWtqX8ZlfMOtxrfxPQWLkTIsN5uIbijI7E81oh6UgJd1Jh2R5KzX
+Pe1MGaQvJrVpk610Da10rEGG3MUdb1njKgiKIp5sIWJR1R6mDrrX7a/qwdWZLAT
iw==
-----END CERTIFICATE-----

Certificate:
    Data:
        Version: 3 (0x2)
        Serial Number: 2 (0x2)
    Signature Algorithm: sha256WithRSAEncryption
        Issuer: CN=Root
        Validity
            Not Before: Jan  1 12:00:00 2015 GMT
            Not After : Jan  1 12:00:00 2016 GMT
        Subject: CN=Intermediate
        Subject Public Key Info:
            Public Key Algorithm: rsaEncryption
                Public-Key: (2048 bit)
                Modulus:
                    00:e4:40:ac:b5:f3:c7:b0:dc:ca:07:85:b4:fa:5f:
                    0d:28:a4:0d:88:12:cb:05:a3:4f:bb:7d:01:88:de:
                    0c:b3:b9:0c:cc:3f:b4:6e:9f:d6:b6:a7:2a:6b:03:
                    c5:bc:3b:10:17:69:fd:29:5c:d3:fd:38:fe:b6:5e:
                    b2:04:8f:10:93:92:aa:db:76:07:a2:60:0f:3e:07:
                    bb:8d:f1:ca:c8:f3:38:69:61:38:41:4e:69:2d:70:
                    c2:ed:af:85:81:99:dc:8e:65:03:45:32:9b:01:95:
                    7c:d5:c0:90:bd:f4:08:a5:44:4b:e5:a2:e7:fe:17:
                    e4:f3:3d:59:35:8e:6d:3b:70:4d:b8:49:ac:63:ff:
                    3e:d4:71:36:e9:2b:50:c9:5c:bc:bb:b0:c6:1b:c4:
                    0a:01:ec:ae:3f:b7:bd:10:57:08:5e:ec:8a:07:ce:
                    e5:da:46:25:e8:ca:0a:e0:c2:cc:0d:44:84:db:0c:
                    88:d5:0f:65:bc:ea:69:10:ba:dc:93:ef:34:f9:2f:
                    c7:9b:c5:49:27:72:9c:a3:fd:40:9c:49:e3:59:7c:
                    24:cc:99:9a:01:b6:0d:fb:41:cb:36:80:41:88:c7:
                    75:9f:d5:01:6f:63:d5:f5:75:85:cd:26:3e:a6:fe:
                    8d:a9:ef:a8:b0:04:8b:7e:89:f3:5f:75:3a:56:69:
                    c7:07
                Exponent: 65537 (0x10001)
        X509v3 extensions:
            X509v3 Subject Key Identifier: 
                3F:EE:51:69:3A:24:09:D6:26:3C:A4:08:22:1F:0D:77:7D:D5:E7:3B
            X509v3 Authority Key Identifier: 
                keyid:64:6F:C2:6E:64:18:20:24:F6:02:A9:AF:63:23:01:ED:CC:69:9B:E0

            Authority Information Access: 
                CA Issuers - URI:http://url-for-aia/Root.cer

            X509v3 CRL Distribution Points: 

                Full Name:
                  URI:http://url-for-crl/Root.crl

            X509v3 Key Usage: critical
                Certificate Sign, CRL Sign
            X509v3 Basic Constraints: critical
                CA:TRUE
    Signature Algorithm: sha256WithRSAEncryption
         51:a1:13:9b:4c:41:c6:c6:8d:7e:3a:58:ed:f9:29:e5:25:16:
         bc:42:3c:ce:69:9f:f0:82:3c:93:87:1e:01:1f:24:9a:e5:db:
         96:cb:1f:b2:9d:b9:a9:18:7c:8c:2e:db:e7:9f:6e:af:e8:49:
         13:2c:19:46:6e:e1:c9:54:8e:8b:da:af:1d:63:67:17:4d:34:
         e6:b2:85:ff:0c:c5:76:15:17:93:f1:d6:86:73:25:43:aa:59:
         b8:29:c0:72:b5:ec:e3:80:68:aa:83:10:7e:81:f1:38:38:b4:
         ae:1b:0f:70:8e:55:6d:3c:dd:f2:91:d3:d9:3e:bd:1e:46:9e:
         f2:28:3b:53:81:28:76:f0:49:e5:80:58:5a:e6:dd:ba:0c:30:
         b7:cb:2b:c6:c6:3d:52:54:2f:f1:f8:d9:c9:be:cc:3b:a3:42:
         11:f5:c6:97:f5:b6:57:da:40:52:e2:14:de:b2:e7:9c:b9:06:
         9c:e1:80:93:91:d9:c8:e0:23:92:20:81:70:b9:44:81:08:3b:
         97:32:06:fc:f7:80:ea:94:71:61:0d:3f:da:75:f1:b9:51:eb:
         85:a9:ed:00:e3:59:96:d0:63:35:0c:dd:5b:c8:d2:08:5e:32:
         df:c8:29:bb:31:10:14:dc:4d:23:f0:e2:ee:06:a8:71:ac:03:
         cd:26:6c:37
-----BEGIN CERTIFICATE-----
MIIDbTCCAlWgAwIBAgIBAjANBgkqhkiG9w0BAQsFADAPMQ0wCwYDVQQDDARSb290
MB4XDTE1MDEwMTEyMDAwMFoXDTE2MDEwMTEyMDAwMFowFzEVMBMGA1UEAwwMSW50
ZXJtZWRpYXRlMIIBIjANBgkqhkiG9w0BAQEFAAOCAQ8AMIIBCgKCAQEA5ECstfPH
sNzKB4W0+l8NKKQNiBLLBaNPu30BiN4Ms7kMzD+0bp/WtqcqawPFvDsQF2n9KVzT
/Tj+tl6yBI8Qk5Kq23YHomAPPge7jfHKyPM4aWE4QU5pLXDC7a+FgZncjmUDRTKb
AZV81cCQvfQIpURL5aLn/hfk8z1ZNY5tO3BNuEmsY/8+1HE26StQyVy8u7DGG8QK
AeyuP7e9EFcIXuyKB87l2kYl6MoK4MLMDUSE2wyI1Q9lvOppELrck+80+S/Hm8VJ
J3Kco/1AnEnjWXwkzJmaAbYN+0HLNoBBiMd1n9UBb2PV9XWFzSY+pv6Nqe+osASL
fonzX3U6VmnHBwIDAQABo4HLMIHIMB0GA1UdDgQWBBQ/7lFpOiQJ1iY8pAgiHw13
fdXnOzAfBgNVHSMEGDAWgBRkb8JuZBggJPYCqa9jIwHtzGmb4DA3BggrBgEFBQcB
AQQrMCkwJwYIKwYBBQUHMAKGG2h0dHA6Ly91cmwtZm9yLWFpYS9Sb290LmNlcjAs
BgNVHR8EJTAjMCGgH6AdhhtodHRwOi8vdXJsLWZvci1jcmwvUm9vdC5jcmwwDgYD
VR0PAQH/BAQDAgEGMA8GA1UdEwEB/wQFMAMBAf8wDQYJKoZIhvcNAQELBQADggEB
AFGhE5tMQcbGjX46WO35KeUlFrxCPM5pn/CCPJOHHgEfJJrl25bLH7KduakYfIwu
2+efbq/oSRMsGUZu4clUjovarx1jZxdNNOayhf8MxXYVF5Px1oZzJUOqWbgpwHK1
7OOAaKqDEH6B8Tg4tK4bD3COVW083fKR09k+vR5GnvIoO1OBKHbwSeWAWFrm3boM
MLfLK8bGPVJUL/H42cm+zDujQhH1xpf1tlfaQFLiFN6y55y5BpzhgJOR2cjgI5Ig
gXC5RIEIO5cyBvz3gOqUcWENP9p18blR64Wp7QDjWZbQYzUM3VvI0gheMt/IKbsx
EBTcTSPw4u4GqHGsA80mbDc=
-----END CERTIFICATE-----

Certificate:
    Data:
        Version: 3 (0x2)
        Serial Number: 1 (0x1)
    Signature Algorithm: sha256WithRSAEncryption
        Issuer: CN=BogusRoot
        Validity
            Not Before: Jan  1 12:00:00 2015 GMT
            Not After : Jan  1 12:00:00 2016 GMT
        Subject: CN=BogusRoot
        Subject Public Key Info:
            Public Key Algorithm: rsaEncryption
                Public-Key: (2048 bit)
                Modulus:
                    00:b8:c8:2f:dc:30:b5:3e:65:02:31:fe:76:d5:cf:
                    18:49:18:9a:99:63:02:ea:1f:9c:fc:34:05:04:f5:
                    dc:94:15:48:0c:0b:c0:18:b9:0f:a5:a0:8f:66:27:
                    02:0b:a9:33:0f:a8:27:d7:61:d7:77:7e:d5:ab:db:
                    d4:a0:32:d0:40:9b:66:91:5b:ec:07:df:67:13:14:
                    71:1f:21:98:d8:89:ae:15:dd:68:07:3d:3b:62:5c:
                    34:f8:e8:39:da:2a:23:01:6a:09:a7:91:a1:c1:94:
                    ab:ba:42:7f:24:20:57:c8:67:2a:d6:cf:24:7b:b6:
                    14:ad:69:61:c5:50:6b:6b:d2:77:0c:0c:6e:30:df:
                    2b:e8:c4:de:89:a9:94:bf:8d:70:4e:ee:e1:5d:0f:
                    11:0f:80:71:3d:67:90:59:c5:c7:d6:8b:6a:29:7d:
                    8a:43:7a:98:0d:75:83:db:3c:09:27:19:12:77:99:
                    2c:2b:a2:94:dc:7d:78:41:e2:4a:9a:31:f4:fa:8b:
                    ef:d3:d3:42:dd:1d:a5:be:5d:2f:1c:9c:33:4f:7d:
                    c8:bd:12:eb:18:cd:e0:80:d5:7a:1a:2d:93:fc:1f:
                    59:8e:72:f8:e5:21:e1:f2:fe:b7:6a:c1:e1:39:20:
                    26:60:98:fd:02:f0:5b:a2:6d:13:c7:15:20:9b:ef:
                    d5:31
                Exponent: 65537 (0x10001)
        X509v3 extensions:
            X509v3 Subject Key Identifier: 
                6F:BD:F8:37:8B:1D:B5:1A:91:4C:D6:08:E8:33:85:8C:08:E9:3E:63
            X509v3 Authority Key Identifier: 
                keyid:6F:BD:F8:37:8B:1D:B5:1A:91:4C:D6:08:E8:33:85:8C:08:E9:3E:63

            Authority Information Access: 
                CA Issuers - URI:http://url-for-aia/BogusRoot.cer

            X509v3 CRL Distribution Points: 

                Full Name:
                  URI:http://url-for-crl/BogusRoot.crl

            X509v3 Key Usage: critical
                Certificate Sign, CRL Sign
            X509v3 Basic Constraints: critical
                CA:TRUE
    Signature Algorithm: sha256WithRSAEncryption
         5e:a7:eb:14:09:17:41:8b:14:1b:05:8f:a6:61:25:c1:e4:b9:
         de:ee:a7:44:1a:ba:d7:a9:a0:9e:d2:92:03:f5:86:7e:5e:a1:
         01:c2:29:5c:77:cd:0b:0e:46:8f:4f:35:28:23:ae:2d:35:3c:
         c0:2e:db:73:90:1d:7f:58:81:08:01:76:d7:f5:a4:1e:03:56:
         a6:f6:ac:de:c4:49:c0:3e:99:e7:75:1b:39:d8:7a:c9:a1:d6:
         07:50:02:fd:b9:89:2c:c7:03:96:28:c6:a9:fd:4e:55:f1:2c:
         c0:01:c7:ae:ae:ea:a4:e9:2a:e4:57:35:2d:ef:95:8c:f4:d7:
         d4:7c:35:ed:7f:16:fd:81:9c:9b:1e:c5:2c:9d:f4:06:da:8f:
         bb:6f:9b:64:ff:33:9b:a0:a9:f7:df:6c:ae:48:7b:34:6a:05:
         c5:6e:de:31:e5:64:c5:80:88:45:ab:29:7c:39:ec:5f:98:cf:
         ce:23:f4:e7:06:99:c1:c9:b6:04:8c:d8:7d:7b:8c:e4:a4:87:
         ee:7f:66:b2:d5:92:61:2c:56:9b:86:5c:0d:8e:68:84:c9:96:
         a5:98:6b:bc:6e:3b:4b:c1:0c:10:ae:90:e7:9e:c3:b8:cd:08:
         ea:80:55:9f:74:1c:6e:9f:2a:5c:76:b5:45:84:4d:62:cd:fd:
         68:12:d8:8c
-----BEGIN CERTIFICATE-----
MIIDeTCCAmGgAwIBAgIBATANBgkqhkiG9w0BAQsFADAUMRIwEAYDVQQDDAlCb2d1
c1Jvb3QwHhcNMTUwMTAxMTIwMDAwWhcNMTYwMTAxMTIwMDAwWjAUMRIwEAYDVQQD
DAlCb2d1c1Jvb3QwggEiMA0GCSqGSIb3DQEBAQUAA4IBDwAwggEKAoIBAQC4yC/c
MLU+ZQIx/nbVzxhJGJqZYwLqH5z8NAUE9dyUFUgMC8AYuQ+loI9mJwILqTMPqCfX
Ydd3ftWr29SgMtBAm2aRW+wH32cTFHEfIZjYia4V3WgHPTtiXDT46DnaKiMBagmn
kaHBlKu6Qn8kIFfIZyrWzyR7thStaWHFUGtr0ncMDG4w3yvoxN6JqZS/jXBO7uFd
DxEPgHE9Z5BZxcfWi2opfYpDepgNdYPbPAknGRJ3mSwropTcfXhB4kqaMfT6i+/T
00LdHaW+XS8cnDNPfci9EusYzeCA1XoaLZP8H1mOcvjlIeHy/rdqweE5ICZgmP0C
8FuibRPHFSCb79UxAgMBAAGjgdUwgdIwHQYDVR0OBBYEFG+9+DeLHbUakUzWCOgz
hYwI6T5jMB8GA1UdIwQYMBaAFG+9+DeLHbUakUzWCOgzhYwI6T5jMDwGCCsGAQUF
BwEBBDAwLjAsBggrBgEFBQcwAoYgaHR0cDovL3VybC1mb3ItYWlhL0JvZ3VzUm9v
dC5jZXIwMQYDVR0fBCowKDAmoCSgIoYgaHR0cDovL3VybC1mb3ItY3JsL0JvZ3Vz
Um9vdC5jcmwwDgYDVR0PAQH/BAQDAgEGMA8GA1UdEwEB/wQFMAMBAf8wDQYJKoZI
hvcNAQELBQADggEBAF6n6xQJF0GLFBsFj6ZhJcHkud7up0QautepoJ7SkgP1hn5e
oQHCKVx3zQsORo9PNSgjri01PMAu23OQHX9YgQgBdtf1pB4DVqb2rN7EScA+med1
GznYesmh1gdQAv25iSzHA5Yoxqn9TlXxLMABx66u6qTpKuRXNS3vlYz019R8Ne1/
Fv2BnJsexSyd9Abaj7tvm2T/M5ugqfffbK5IezRqBcVu3jHlZMWAiEWrKXw57F+Y
z84j9OcGmcHJtgSM2H17jOSkh+5/ZrLVkmEsVpuGXA2OaITJlqWYa7xuO0vBDBCu
kOeew7jNCOqAVZ90HG6fKlx2tUWETWLN/WgS2Iw=
-----END CERTIFICATE-----
