Generated by ./generate-certs.py.
Refer to generator script docstring for details.
Certificate:
    Data:
        Version: 3 (0x2)
        Serial Number: 1 (0x1)
    Signature Algorithm: sha256WithRSAEncryption
        Issuer: CN=I1
        Validity
            Not Before: Jan  1 12:00:00 2015 GMT
            Not After : Jan  1 12:00:00 2016 GMT
        Subject: CN=C1
        Subject Public Key Info:
            Public Key Algorithm: rsaEncryption
                Public-Key: (2048 bit)
                Modulus:
                    00:bb:13:e9:bf:8b:1d:f4:75:aa:64:73:cd:df:75:
                    d7:37:79:44:01:6e:57:50:87:9a:17:d0:36:e7:12:
                    29:67:47:e2:7b:ff:a1:0c:36:04:a7:dd:7a:a4:7e:
                    33:c3:12:6c:56:dd:48:b5:07:83:b6:9c:f1:41:d2:
                    72:24:63:d0:08:f8:d3:bf:ea:c7:d2:89:9f:10:57:
                    04:ab:63:a5:e0:4b:53:86:a3:05:be:9f:86:b0:b9:
                    09:c7:77:20:36:f1:03:f1:46:ef:13:d4:d1:39:11:
                    0f:7c:3d:e4:a4:9a:53:9b:f1:2a:7a:1c:52:b7:0c:
                    72:38:ea:f7:97:4d:a3:dd:aa:90:77:d6:0f:59:90:
                    ce:5e:ea:f6:4c:38:9c:15:22:23:dc:36:59:78:24:
                    ca:79:80:f4:60:4e:46:ac:dc:f5:22:1d:49:40:51:
                    af:a5:e1:da:1b:8f:81:a7:b0:5b:8e:49:19:06:a7:
                    83:a7:22:d0:15:0d:8c:e9:b0:1d:4f:e6:68:e4:ac:
                    db:31:50:6c:8f:00:f0:cb:30:d5:e5:65:61:ee:6e:
                    9c:3a:f5:62:2c:ab:c1:1d:44:c7:de:10:a1:c6:a6:
                    a2:89:37:66:ab:ff:06:6f:a6:60:d7:36:2b:b7:5a:
                    36:72:6b:85:fe:79:4a:63:f4:4e:ef:24:09:0c:42:
                    28:c3
                Exponent: 65537 (0x10001)
        X509v3 extensions:
            X509v3 Subject Key Identifier: 
                03:19:93:1B:92:8F:1C:2D:2E:A5:71:01:0D:D0:DF:56:D4:7E:EF:8D
            X509v3 Authority Key Identifier: 
                keyid:84:17:CE:FE:EA:88:CB:E4:D7:19:40:7A:01:E3:62:84:3D:C6:05:EB

            Authority Information Access: 
                CA Issuers - URI:http://url-for-aia/I1.cer

            X509v3 CRL Distribution Points: 

                Full Name:
                  URI:http://url-for-crl/I1.crl

            X509v3 Key Usage: critical
                Digital Signature, Key Encipherment
            X509v3 Extended Key Usage: 
                TLS Web Server Authentication, TLS Web Client Authentication
    Signature Algorithm: sha256WithRSAEncryption
         b7:7c:3d:49:2c:c9:e7:5b:98:21:11:ae:ff:f1:b8:ec:b1:f6:
         59:8b:d0:9c:0c:de:81:89:fe:35:aa:73:8c:56:67:82:bb:0f:
         04:c5:3f:c2:4b:72:2f:29:ae:69:37:0e:86:46:fb:73:af:70:
         8f:36:c3:ad:10:05:41:78:fc:29:9a:79:1d:ce:ff:cc:ec:87:
         8b:ee:da:72:6d:27:7c:7e:44:11:20:79:e0:bd:55:c5:dd:e5:
         9b:1a:ce:dc:8f:9b:25:7d:a1:4b:d0:cc:05:42:7a:2e:b4:79:
         0b:06:5b:28:39:12:a7:54:42:5c:a9:23:a3:8b:64:2e:96:dd:
         35:e0:21:09:ff:60:6d:c1:0b:41:4b:2c:bf:d5:c3:70:64:d0:
         0b:8d:b0:79:3a:b7:00:2e:90:f3:aa:e9:ff:3f:3c:dc:26:7b:
         7e:3e:90:7c:cc:96:d0:4a:f8:8d:b5:e7:49:59:fe:93:c9:8a:
         53:75:db:da:3e:46:af:7c:8b:b6:c8:7a:dd:88:ce:5b:2d:50:
         01:5e:3c:1a:a0:20:b6:4e:60:4c:10:a9:74:d0:36:a0:c6:c8:
         14:d7:3d:1a:11:8d:a3:0b:8a:3a:e2:27:76:c2:bb:26:4c:61:
         29:1d:10:6d:8b:b4:67:a6:66:db:43:76:a0:49:dc:ab:21:64:
         28:5d:d6:cb
-----BEGIN CERTIFICATE-----
MIIDazCCAlOgAwIBAgIBATANBgkqhkiG9w0BAQsFADANMQswCQYDVQQDDAJJMTAe
Fw0xNTAxMDExMjAwMDBaFw0xNjAxMDExMjAwMDBaMA0xCzAJBgNVBAMMAkMxMIIB
IjANBgkqhkiG9w0BAQEFAAOCAQ8AMIIBCgKCAQEAuxPpv4sd9HWqZHPN33XXN3lE
AW5XUIeaF9A25xIpZ0fie/+hDDYEp916pH4zwxJsVt1ItQeDtpzxQdJyJGPQCPjT
v+rH0omfEFcEq2Ol4EtThqMFvp+GsLkJx3cgNvED8UbvE9TROREPfD3kpJpTm/Eq
ehxStwxyOOr3l02j3aqQd9YPWZDOXur2TDicFSIj3DZZeCTKeYD0YE5GrNz1Ih1J
QFGvpeHaG4+Bp7BbjkkZBqeDpyLQFQ2M6bAdT+Zo5KzbMVBsjwDwyzDV5WVh7m6c
OvViLKvBHUTH3hChxqaiiTdmq/8Gb6Zg1zYrt1o2cmuF/nlKY/RO7yQJDEIowwID
AQABo4HVMIHSMB0GA1UdDgQWBBQDGZMbko8cLS6lcQEN0N9W1H7vjTAfBgNVHSME
GDAWgBSEF87+6ojL5NcZQHoB42KEPcYF6zA1BggrBgEFBQcBAQQpMCcwJQYIKwYB
BQUHMAKGGWh0dHA6Ly91cmwtZm9yLWFpYS9JMS5jZXIwKgYDVR0fBCMwITAfoB2g
G4YZaHR0cDovL3VybC1mb3ItY3JsL0kxLmNybDAOBgNVHQ8BAf8EBAMCBaAwHQYD
VR0lBBYwFAYIKwYBBQUHAwEGCCsGAQUFBwMCMA0GCSqGSIb3DQEBCwUAA4IBAQC3
fD1JLMnnW5ghEa7/8bjssfZZi9CcDN6Bif41qnOMVmeCuw8ExT/CS3IvKa5pNw6G
Rvtzr3CPNsOtEAVBePwpmnkdzv/M7IeL7tpybSd8fkQRIHngvVXF3eWbGs7cj5sl
faFL0MwFQnoutHkLBlsoORKnVEJcqSOji2Qult014CEJ/2BtwQtBSyy/1cNwZNAL
jbB5OrcALpDzqun/PzzcJnt+PpB8zJbQSviNtedJWf6TyYpTddvaPkavfIu2yHrd
iM5bLVABXjwaoCC2TmBMEKl00DagxsgU1z0aEY2jC4o64id2wrsmTGEpHRBti7Rn
pmbbQ3agSdyrIWQoXdbL
-----END CERTIFICATE-----
