Generated by ./generate-certs.py.
Refer to generator script docstring for details.
Certificate:
    Data:
        Version: 3 (0x2)
        Serial Number: 1 (0x1)
    Signature Algorithm: sha256WithRSAEncryption
        Issuer: CN=I2
        Validity
            Not Before: Jan  1 12:00:00 2015 GMT
            Not After : Jan  1 12:00:00 2016 GMT
        Subject: CN=D
        Subject Public Key Info:
            Public Key Algorithm: rsaEncryption
                Public-Key: (2048 bit)
                Modulus:
                    00:d5:0f:8b:7e:d9:f3:86:97:fc:5f:8a:c7:df:e7:
                    7e:18:c0:ee:c0:3a:8e:e6:75:65:30:6d:a4:7b:4e:
                    ef:63:82:ac:0c:46:81:ac:42:ff:12:53:06:51:6a:
                    d2:9f:e0:2a:15:cb:3c:80:d3:2a:8b:10:30:ff:0f:
                    bc:47:ab:72:2d:bd:14:06:73:8f:58:ce:4a:64:2f:
                    41:eb:a6:2f:77:2d:67:04:d7:b9:00:b1:de:8b:9d:
                    05:a0:b3:8f:46:5d:24:c9:2f:ba:e0:c1:c4:a0:5b:
                    16:48:6a:f9:a0:0e:82:9b:d4:85:f4:2d:53:07:02:
                    94:ec:2c:d2:bd:bc:86:c1:dc:3b:d7:a2:12:5e:38:
                    78:4b:9d:30:4b:16:1b:36:6f:9a:12:93:89:f6:fa:
                    5f:21:11:7d:ef:b2:ed:03:ab:7c:03:28:48:65:76:
                    10:8e:b3:46:2b:19:a4:16:32:1a:ed:fe:19:fc:37:
                    93:9d:65:57:ad:9c:6b:88:26:f6:30:bc:83:22:d6:
                    c0:51:17:2b:e7:79:b1:bc:45:b7:34:4b:ac:3c:40:
                    8d:83:80:41:88:a4:25:46:ed:00:77:09:4f:39:cf:
                    98:41:6f:49:ad:25:35:e3:01:98:49:13:7d:5e:f5:
                    86:84:f1:e4:71:fb:ba:4a:ee:af:31:16:56:1f:f7:
                    df:cf
                Exponent: 65537 (0x10001)
        X509v3 extensions:
            X509v3 Subject Key Identifier: 
                AE:28:BD:DE:6F:60:00:2A:01:59:8F:FD:E6:C5:27:65:CD:01:04:37
            X509v3 Authority Key Identifier: 
                keyid:B7:FB:54:77:0C:76:74:B0:72:84:2F:4E:AF:24:1F:CA:62:8D:99:61

            Authority Information Access: 
                CA Issuers - URI:http://url-for-aia/I2.cer

            X509v3 CRL Distribution Points: 

                Full Name:
                  URI:http://url-for-crl/I2.crl

            X509v3 Key Usage: critical
                Digital Signature, Key Encipherment
            X509v3 Extended Key Usage: 
                TLS Web Server Authentication, TLS Web Client Authentication
    Signature Algorithm: sha256WithRSAEncryption
         16:1a:ad:91:a8:9a:d5:d2:63:d4:8c:61:73:0e:d4:14:66:ee:
         ef:4e:cb:f4:40:82:42:95:60:ae:65:59:99:ca:62:47:47:48:
         6a:d8:c7:4b:b2:62:a2:c7:45:8a:92:a6:69:0e:f3:7d:8f:9d:
         0b:a7:ba:c0:61:80:76:46:ef:2b:80:56:3a:21:1d:e4:52:2d:
         a0:98:bf:36:cc:36:4e:40:2c:55:48:93:39:e3:d7:54:21:48:
         ce:03:65:9a:df:59:07:d5:76:5e:5c:25:fb:84:3e:a1:54:98:
         ad:d4:7d:ff:7e:c5:62:5e:43:c1:33:f8:04:6d:dd:23:b5:8a:
         48:55:7a:55:69:a5:da:23:46:a2:58:29:6c:22:05:a2:ea:b0:
         be:81:5d:6c:a1:9a:7c:41:a1:ae:02:de:4f:87:5b:83:01:81:
         4f:ba:dc:5f:0a:04:41:83:da:5d:79:2d:9a:ca:82:84:48:1d:
         b7:a7:b4:e5:ab:28:6b:33:33:09:fc:d7:d8:80:0d:d6:f6:38:
         79:91:44:39:28:b8:bf:ee:4a:43:9b:27:42:7a:f2:e2:3c:4d:
         89:1d:21:e0:ce:ec:06:e0:2e:b2:dc:f2:0a:15:7c:33:0b:ec:
         36:8e:26:31:0e:f8:f7:e8:3d:07:d7:2c:91:c3:0c:35:7a:76:
         f3:67:02:c1
-----BEGIN CERTIFICATE-----
MIIDajCCAlKgAwIBAgIBATANBgkqhkiG9w0BAQsFADANMQswCQYDVQQDDAJJMjAe
Fw0xNTAxMDExMjAwMDBaFw0xNjAxMDExMjAwMDBaMAwxCjAIBgNVBAMMAUQwggEi
MA0GCSqGSIb3DQEBAQUAA4IBDwAwggEKAoIBAQDVD4t+2fOGl/xfisff534YwO7A
Oo7mdWUwbaR7Tu9jgqwMRoGsQv8SUwZRatKf4CoVyzyA0yqLEDD/D7xHq3ItvRQG
c49YzkpkL0Hrpi93LWcE17kAsd6LnQWgs49GXSTJL7rgwcSgWxZIavmgDoKb1IX0
LVMHApTsLNK9vIbB3DvXohJeOHhLnTBLFhs2b5oSk4n2+l8hEX3vsu0Dq3wDKEhl
dhCOs0YrGaQWMhrt/hn8N5OdZVetnGuIJvYwvIMi1sBRFyvnebG8Rbc0S6w8QI2D
gEGIpCVG7QB3CU85z5hBb0mtJTXjAZhJE31e9YaE8eRx+7pK7q8xFlYf99/PAgMB
AAGjgdUwgdIwHQYDVR0OBBYEFK4ovd5vYAAqAVmP/ebFJ2XNAQQ3MB8GA1UdIwQY
MBaAFLf7VHcMdnSwcoQvTq8kH8pijZlhMDUGCCsGAQUFBwEBBCkwJzAlBggrBgEF
BQcwAoYZaHR0cDovL3VybC1mb3ItYWlhL0kyLmNlcjAqBgNVHR8EIzAhMB+gHaAb
hhlodHRwOi8vdXJsLWZvci1jcmwvSTIuY3JsMA4GA1UdDwEB/wQEAwIFoDAdBgNV
HSUEFjAUBggrBgEFBQcDAQYIKwYBBQUHAwIwDQYJKoZIhvcNAQELBQADggEBABYa
rZGomtXSY9SMYXMO1BRm7u9Oy/RAgkKVYK5lWZnKYkdHSGrYx0uyYqLHRYqSpmkO
832PnQunusBhgHZG7yuAVjohHeRSLaCYvzbMNk5ALFVIkznj11QhSM4DZZrfWQfV
dl5cJfuEPqFUmK3Uff9+xWJeQ8Ez+ARt3SO1ikhVelVppdojRqJYKWwiBaLqsL6B
XWyhmnxBoa4C3k+HW4MBgU+63F8KBEGD2l15LZrKgoRIHbentOWrKGszMwn819iA
Ddb2OHmRRDkouL/uSkObJ0J68uI8TYkdIeDO7AbgLrLc8goVfDML7DaOJjEO+Pfo
PQfXLJHDDDV6dvNnAsE=
-----END CERTIFICATE-----
