Generated by ./generate-certs.py.
Refer to generator script docstring for details.
Certificate:
    Data:
        Version: 3 (0x2)
        Serial Number: 1 (0x1)
    Signature Algorithm: sha256WithRSAEncryption
        Issuer: CN=I3
        Validity
            Not Before: Jan  1 12:00:00 2015 GMT
            Not After : Jan  1 12:00:00 2016 GMT
        Subject: CN=E1
        Subject Public Key Info:
            Public Key Algorithm: rsaEncryption
                Public-Key: (2048 bit)
                Modulus:
                    00:f1:7c:c7:ef:ed:ae:f5:de:8a:c1:fd:b9:78:1c:
                    8b:8b:73:54:19:45:78:0a:a9:56:df:05:7a:bb:3b:
                    98:18:88:cf:d4:c2:c4:d9:66:5a:81:34:21:47:cb:
                    b7:d2:b4:9a:c6:22:ae:33:fa:f0:6a:3d:6f:7b:e1:
                    ad:7c:fe:e7:33:72:bc:53:aa:d8:92:06:9a:c8:5b:
                    1a:8a:eb:b5:d5:72:de:df:43:97:78:22:e6:da:09:
                    15:46:55:6c:88:c6:4e:4d:81:3d:6d:41:40:10:fc:
                    64:d9:ee:7b:63:fe:fa:77:f1:58:ff:09:b8:46:e2:
                    50:53:68:39:e1:5c:47:05:99:84:dd:3f:dc:e0:27:
                    f9:db:11:39:0c:71:a4:09:b5:42:86:04:f9:f4:fa:
                    4a:34:f9:4b:cd:d3:c5:41:4d:4d:7d:47:27:f4:88:
                    5a:cb:4a:62:65:6d:a8:76:27:6c:95:5b:40:91:3d:
                    49:e2:dc:b9:c4:45:b3:e9:e3:65:67:1a:a4:e2:86:
                    f5:32:1a:fb:e6:95:7b:b0:4f:5b:89:d4:a7:5d:a3:
                    50:a9:5e:bf:aa:c3:e5:0b:72:5c:1e:7f:e6:42:05:
                    1f:21:f3:71:37:2e:48:f0:b6:0a:09:4f:2a:f5:81:
                    fd:46:b5:ba:e1:5f:04:82:8a:6e:b7:83:32:e9:7d:
                    7a:35
                Exponent: 65537 (0x10001)
        X509v3 extensions:
            X509v3 Subject Key Identifier: 
                47:02:FD:6B:F5:26:65:BB:20:CA:5C:49:51:67:52:51:43:AB:40:02
            X509v3 Authority Key Identifier: 
                keyid:B3:B8:D0:C2:16:D7:60:93:F5:51:DB:DF:12:8A:B5:36:66:76:C4:6C

            Authority Information Access: 
                CA Issuers - URI:http://url-for-aia/I3.cer

            X509v3 CRL Distribution Points: 

                Full Name:
                  URI:http://url-for-crl/I3.crl

            X509v3 Key Usage: critical
                Digital Signature, Key Encipherment
            X509v3 Extended Key Usage: 
                TLS Web Server Authentication, TLS Web Client Authentication
    Signature Algorithm: sha256WithRSAEncryption
         53:6d:3b:42:d8:23:af:be:ae:ef:dd:78:47:45:07:93:a9:84:
         1d:e9:a3:11:7f:77:0b:96:31:42:af:68:ca:4d:ed:84:f5:63:
         47:6c:4e:84:f6:79:e5:8c:da:ad:52:02:b7:f2:a3:3c:0e:95:
         a3:8b:fc:54:94:02:5b:29:aa:a6:db:f7:74:da:42:9f:7a:7f:
         de:bf:33:37:07:b9:bc:0a:5d:6f:77:86:89:98:6c:69:92:bf:
         9d:57:1d:da:fb:29:d6:80:ee:32:ed:53:25:66:24:53:57:10:
         79:8a:77:4e:77:15:11:4e:5e:db:2d:35:05:a5:14:09:d2:6c:
         96:76:41:7c:18:e1:fd:a7:22:a8:4c:d4:31:d0:7d:85:19:0d:
         c9:2e:9f:15:09:a4:b8:c2:b5:95:71:29:78:09:fb:b4:87:a4:
         2f:0a:06:12:8f:14:49:8d:64:16:5f:5a:8f:72:5b:a6:c4:ce:
         73:c9:eb:e8:9d:80:b7:76:fd:80:33:5b:6e:dd:97:88:01:49:
         50:6e:7d:55:5d:1a:6d:e8:4c:53:4d:d0:d8:62:ef:25:09:bb:
         84:18:d4:f6:f3:3e:c0:a9:ef:ad:be:14:9b:db:6b:04:5a:c3:
         6b:59:5d:cb:bf:1b:60:6b:00:ab:cb:69:f2:b7:14:97:d2:3c:
         af:a0:49:11
-----BEGIN CERTIFICATE-----
MIIDazCCAlOgAwIBAgIBATANBgkqhkiG9w0BAQsFADANMQswCQYDVQQDDAJJMzAe
Fw0xNTAxMDExMjAwMDBaFw0xNjAxMDExMjAwMDBaMA0xCzAJBgNVBAMMAkUxMIIB
IjANBgkqhkiG9w0BAQEFAAOCAQ8AMIIBCgKCAQEA8XzH7+2u9d6Kwf25eByLi3NU
GUV4CqlW3wV6uzuYGIjP1MLE2WZagTQhR8u30rSaxiKuM/rwaj1ve+GtfP7nM3K8
U6rYkgaayFsaiuu11XLe30OXeCLm2gkVRlVsiMZOTYE9bUFAEPxk2e57Y/76d/FY
/wm4RuJQU2g54VxHBZmE3T/c4Cf52xE5DHGkCbVChgT59PpKNPlLzdPFQU1NfUcn
9Ihay0piZW2odidslVtAkT1J4ty5xEWz6eNlZxqk4ob1Mhr75pV7sE9bidSnXaNQ
qV6/qsPlC3JcHn/mQgUfIfNxNy5I8LYKCU8q9YH9RrW64V8Egoput4My6X16NQID
AQABo4HVMIHSMB0GA1UdDgQWBBRHAv1r9SZluyDKXElRZ1JRQ6tAAjAfBgNVHSME
GDAWgBSzuNDCFtdgk/VR298SirU2ZnbEbDA1BggrBgEFBQcBAQQpMCcwJQYIKwYB
BQUHMAKGGWh0dHA6Ly91cmwtZm9yLWFpYS9JMy5jZXIwKgYDVR0fBCMwITAfoB2g
G4YZaHR0cDovL3VybC1mb3ItY3JsL0kzLmNybDAOBgNVHQ8BAf8EBAMCBaAwHQYD
VR0lBBYwFAYIKwYBBQUHAwEGCCsGAQUFBwMCMA0GCSqGSIb3DQEBCwUAA4IBAQBT
bTtC2COvvq7v3XhHRQeTqYQd6aMRf3cLljFCr2jKTe2E9WNHbE6E9nnljNqtUgK3
8qM8DpWji/xUlAJbKaqm2/d02kKfen/evzM3B7m8Cl1vd4aJmGxpkr+dVx3a+ynW
gO4y7VMlZiRTVxB5indOdxURTl7bLTUFpRQJ0myWdkF8GOH9pyKoTNQx0H2FGQ3J
Lp8VCaS4wrWVcSl4Cfu0h6QvCgYSjxRJjWQWX1qPclumxM5zyevonYC3dv2AM1tu
3ZeIAUlQbn1VXRpt6ExTTdDYYu8lCbuEGNT28z7Aqe+tvhSb22sEWsNrWV3Lvxtg
awCry2nytxSX0jyvoEkR
-----END CERTIFICATE-----
