Generated by ./generate-certs.py.
Refer to generator script docstring for details.
Certificate:
    Data:
        Version: 3 (0x2)
        Serial Number: 2 (0x2)
    Signature Algorithm: sha256WithRSAEncryption
        Issuer: CN=Root
        Validity
            Not Before: Jan  1 12:00:00 2015 GMT
            Not After : Jan  1 12:00:00 2016 GMT
        Subject: CN=I1
        Subject Public Key Info:
            Public Key Algorithm: rsaEncryption
                Public-Key: (2048 bit)
                Modulus:
                    00:c1:66:fe:2a:a6:f6:54:97:b6:f0:ef:43:4a:a0:
                    36:e7:70:2b:85:77:7c:e9:b9:2e:e0:d7:cc:43:b7:
                    43:bb:30:f7:c4:f0:f7:57:44:38:a3:1b:d0:e0:bb:
                    64:16:72:9d:7f:69:98:b5:2a:f9:49:c5:35:7b:46:
                    f4:d8:24:36:b7:56:24:fe:ab:9a:81:1e:eb:9e:18:
                    5a:c2:73:fc:06:66:0d:25:4b:c8:04:bd:33:c0:cf:
                    cc:ca:a4:e6:95:10:a6:a7:82:24:ba:36:b4:f5:25:
                    2c:db:d4:04:78:20:00:40:42:06:54:0c:fc:4c:c8:
                    72:00:a4:e5:46:d2:3f:32:93:c4:75:d4:62:c7:c3:
                    08:3d:da:eb:aa:bb:5b:54:14:08:b3:57:d5:cb:40:
                    37:de:0a:77:4b:5d:88:95:d5:1e:b3:d3:07:48:8f:
                    41:16:b6:78:4f:b5:8d:cd:74:9d:db:60:a6:95:c4:
                    ba:f8:3b:59:87:c9:5c:3b:75:69:3d:bb:d8:5c:39:
                    33:f1:d0:0c:dd:9c:5b:d3:70:e4:85:e3:20:81:86:
                    dc:93:39:ef:4a:3b:3c:ff:be:12:c8:20:2b:2f:a3:
                    3f:d3:5c:03:8c:82:f6:b9:94:27:a3:ff:d1:63:58:
                    86:49:5f:f4:27:39:56:35:04:ee:df:a5:78:7b:7c:
                    b1:cf
                Exponent: 65537 (0x10001)
        X509v3 extensions:
            X509v3 Subject Key Identifier: 
                84:17:CE:FE:EA:88:CB:E4:D7:19:40:7A:01:E3:62:84:3D:C6:05:EB
            X509v3 Authority Key Identifier: 
                keyid:B5:C3:65:5F:95:6A:F7:19:30:E3:80:DD:EF:B0:A4:1B:3D:BE:A6:9D

            Authority Information Access: 
                CA Issuers - URI:http://url-for-aia/Root.cer

            X509v3 CRL Distribution Points: 

                Full Name:
                  URI:http://url-for-crl/Root.crl

            X509v3 Key Usage: critical
                Certificate Sign, CRL Sign
            X509v3 Basic Constraints: critical
                CA:TRUE
    Signature Algorithm: sha256WithRSAEncryption
         5f:ff:6e:d1:01:0c:c2:c6:57:f7:57:71:b6:28:12:b0:7c:24:
         66:ca:cf:5f:3a:14:cb:77:07:14:a5:01:a9:22:6f:b1:60:fa:
         8d:0b:91:54:c7:24:ab:af:9b:be:73:63:fb:08:0c:31:94:5b:
         25:2a:a7:e3:6b:cb:89:c1:7b:48:fb:df:50:4f:3e:fd:97:aa:
         6f:40:2b:1d:15:97:3d:04:3a:6f:c9:dd:04:c7:73:75:88:06:
         e8:e1:cf:bf:c6:d4:12:b9:73:f4:0f:2d:1c:af:06:51:96:ee:
         77:fe:65:28:e6:3b:4d:67:0c:55:83:9a:b9:6e:4d:1f:3a:58:
         a2:03:6f:0f:1f:58:f2:b2:b4:dd:86:bd:fd:53:5c:20:6b:1e:
         73:c7:89:5d:8b:79:31:f6:33:b2:6c:5d:8b:52:b7:b7:4d:dc:
         a4:80:87:54:2a:7a:af:cd:41:ba:82:bb:34:46:25:85:e9:87:
         61:2e:3b:d9:52:09:27:ec:eb:58:9a:39:b8:e0:bc:67:cb:af:
         b7:f0:3f:1c:93:23:42:f2:00:9b:9d:61:6a:d7:ce:5a:67:72:
         b7:06:da:de:13:11:e0:7c:16:69:91:fd:f8:e1:bd:ab:b6:bb:
         96:f9:82:51:8d:e5:ef:1d:6e:b2:97:d6:9d:75:0f:cb:ed:07:
         96:4a:e5:17
-----BEGIN CERTIFICATE-----
MIIDYzCCAkugAwIBAgIBAjANBgkqhkiG9w0BAQsFADAPMQ0wCwYDVQQDDARSb290
MB4XDTE1MDEwMTEyMDAwMFoXDTE2MDEwMTEyMDAwMFowDTELMAkGA1UEAwwCSTEw
ggEiMA0GCSqGSIb3DQEBAQUAA4IBDwAwggEKAoIBAQDBZv4qpvZUl7bw70NKoDbn
cCuFd3zpuS7g18xDt0O7MPfE8PdXRDijG9Dgu2QWcp1/aZi1KvlJxTV7RvTYJDa3
ViT+q5qBHuueGFrCc/wGZg0lS8gEvTPAz8zKpOaVEKangiS6NrT1JSzb1AR4IABA
QgZUDPxMyHIApOVG0j8yk8R11GLHwwg92uuqu1tUFAizV9XLQDfeCndLXYiV1R6z
0wdIj0EWtnhPtY3NdJ3bYKaVxLr4O1mHyVw7dWk9u9hcOTPx0AzdnFvTcOSF4yCB
htyTOe9KOzz/vhLIICsvoz/TXAOMgva5lCej/9FjWIZJX/QnOVY1BO7fpXh7fLHP
AgMBAAGjgcswgcgwHQYDVR0OBBYEFIQXzv7qiMvk1xlAegHjYoQ9xgXrMB8GA1Ud
IwQYMBaAFLXDZV+VavcZMOOA3e+wpBs9vqadMDcGCCsGAQUFBwEBBCswKTAnBggr
BgEFBQcwAoYbaHR0cDovL3VybC1mb3ItYWlhL1Jvb3QuY2VyMCwGA1UdHwQlMCMw
IaAfoB2GG2h0dHA6Ly91cmwtZm9yLWNybC9Sb290LmNybDAOBgNVHQ8BAf8EBAMC
AQYwDwYDVR0TAQH/BAUwAwEB/zANBgkqhkiG9w0BAQsFAAOCAQEAX/9u0QEMwsZX
91dxtigSsHwkZsrPXzoUy3cHFKUBqSJvsWD6jQuRVMckq6+bvnNj+wgMMZRbJSqn
42vLicF7SPvfUE8+/Zeqb0ArHRWXPQQ6b8ndBMdzdYgG6OHPv8bUErlz9A8tHK8G
UZbud/5lKOY7TWcMVYOauW5NHzpYogNvDx9Y8rK03Ya9/VNcIGsec8eJXYt5MfYz
smxdi1K3t03cpICHVCp6r81BuoK7NEYlhemHYS472VIJJ+zrWJo5uOC8Z8uvt/A/
HJMjQvIAm51hatfOWmdytwba3hMR4HwWaZH9+OG9q7a7lvmCUY3l7x1uspfWnXUP
y+0HlkrlFw==
-----END CERTIFICATE-----
