Generated by ./generate-certs.py.
Refer to generator script docstring for details.
Certificate:
    Data:
        Version: 3 (0x2)
        Serial Number: 3 (0x3)
    Signature Algorithm: sha256WithRSAEncryption
        Issuer: CN=Root
        Validity
            Not Before: Jan  1 12:00:00 2015 GMT
            Not After : Jan  1 12:00:00 2016 GMT
        Subject: CN=i1
        Subject Public Key Info:
            Public Key Algorithm: rsaEncryption
                Public-Key: (2048 bit)
                Modulus:
                    00:b9:f4:f5:17:e5:0d:0a:46:f6:81:21:97:dd:ba:
                    5d:f4:16:a7:f8:ec:ac:37:cb:cf:50:d0:de:3b:d1:
                    9f:7c:22:2d:0b:b6:f4:57:76:3a:69:92:fe:0f:be:
                    0c:19:bd:2c:bb:49:bb:f1:d7:89:75:b4:3f:d1:e3:
                    d3:c0:6e:fd:26:63:d9:81:9c:1e:0a:a5:46:6d:18:
                    f8:ce:e1:ab:29:8f:82:5f:f3:d2:4f:ef:d1:77:20:
                    11:b5:c6:b3:1d:8f:0c:06:3e:51:91:4a:73:19:f8:
                    38:b3:b2:57:44:d8:1c:b3:29:8d:85:4f:38:0d:68:
                    7d:4c:43:5a:73:7d:8a:63:62:a6:19:f0:19:3d:ca:
                    32:af:b3:72:7d:d2:68:a6:29:ad:26:54:b6:6f:cc:
                    26:75:3b:c2:58:03:50:af:3b:d2:cc:0a:97:56:ec:
                    4c:18:2c:de:04:32:26:f3:36:15:50:bd:2c:81:2d:
                    44:da:8f:4a:dc:44:1e:c6:b1:e6:97:d6:53:a8:01:
                    ca:c1:e9:0f:1e:17:89:17:c5:07:c1:4d:8b:61:ce:
                    f3:0f:2a:61:5d:eb:25:45:76:74:6c:c1:a3:b9:79:
                    db:39:aa:f9:e7:fe:d5:4b:c8:33:81:dd:a4:40:2c:
                    de:51:e0:48:d3:a3:d5:e7:a7:b8:9b:a0:b5:4f:bf:
                    ba:cd
                Exponent: 65537 (0x10001)
        X509v3 extensions:
            X509v3 Subject Key Identifier: 
                0C:6A:CE:BB:AC:0D:C3:03:19:28:BF:63:76:72:0B:3D:89:5B:D3:B7
            X509v3 Authority Key Identifier: 
                keyid:B5:C3:65:5F:95:6A:F7:19:30:E3:80:DD:EF:B0:A4:1B:3D:BE:A6:9D

            Authority Information Access: 
                CA Issuers - URI:http://url-for-aia/Root.cer

            X509v3 CRL Distribution Points: 

                Full Name:
                  URI:http://url-for-crl/Root.crl

            X509v3 Key Usage: critical
                Certificate Sign, CRL Sign
            X509v3 Basic Constraints: critical
                CA:TRUE
    Signature Algorithm: sha256WithRSAEncryption
         85:49:62:75:55:96:56:c4:8b:46:3a:ee:27:1a:70:84:a4:bc:
         b5:a1:0e:13:49:a3:00:bc:d4:54:ef:79:a7:8a:8f:cc:85:bc:
         9f:cc:11:5b:f8:b3:7d:7b:35:46:bb:67:d1:ed:ed:3e:c6:54:
         76:54:db:29:7d:5f:d0:35:f0:1e:cf:d9:7e:c3:1c:b9:32:2d:
         62:92:cb:bf:f2:8f:d2:a1:aa:95:c2:d9:be:9e:af:80:22:63:
         2b:dc:e4:c0:e8:24:64:7c:db:16:85:3c:a3:03:5d:6d:19:88:
         75:87:21:d3:ef:95:e6:20:79:eb:e1:57:44:e8:72:eb:d6:ea:
         46:58:62:5d:0c:43:3f:84:46:fb:cc:7e:3d:0b:5c:a5:7e:b0:
         be:ce:14:92:d8:4a:2a:2f:76:68:cb:ff:ab:7d:ae:ac:58:2f:
         0d:25:66:46:d3:ac:f5:33:6c:91:c5:98:9d:83:cc:31:a5:c0:
         17:94:fb:9b:30:a7:de:52:17:dc:e5:72:40:45:37:31:32:a6:
         c0:a9:c3:18:f2:0f:94:58:95:3c:03:98:15:70:d3:18:f1:e9:
         91:77:0b:02:02:09:21:6c:b8:34:d4:01:43:e3:97:bb:00:19:
         fb:21:d7:1e:d1:ef:63:00:ae:c2:b8:5d:53:e4:30:25:47:f0:
         0f:cd:08:77
-----BEGIN CERTIFICATE-----
MIIDYzCCAkugAwIBAgIBAzANBgkqhkiG9w0BAQsFADAPMQ0wCwYDVQQDDARSb290
MB4XDTE1MDEwMTEyMDAwMFoXDTE2MDEwMTEyMDAwMFowDTELMAkGA1UEAwwCaTEw
ggEiMA0GCSqGSIb3DQEBAQUAA4IBDwAwggEKAoIBAQC59PUX5Q0KRvaBIZfdul30
Fqf47Kw3y89Q0N470Z98Ii0LtvRXdjppkv4PvgwZvSy7Sbvx14l1tD/R49PAbv0m
Y9mBnB4KpUZtGPjO4aspj4Jf89JP79F3IBG1xrMdjwwGPlGRSnMZ+DizsldE2Byz
KY2FTzgNaH1MQ1pzfYpjYqYZ8Bk9yjKvs3J90mimKa0mVLZvzCZ1O8JYA1CvO9LM
CpdW7EwYLN4EMibzNhVQvSyBLUTaj0rcRB7GseaX1lOoAcrB6Q8eF4kXxQfBTYth
zvMPKmFd6yVFdnRswaO5eds5qvnn/tVLyDOB3aRALN5R4EjTo9Xnp7iboLVPv7rN
AgMBAAGjgcswgcgwHQYDVR0OBBYEFAxqzrusDcMDGSi/Y3ZyCz2JW9O3MB8GA1Ud
IwQYMBaAFLXDZV+VavcZMOOA3e+wpBs9vqadMDcGCCsGAQUFBwEBBCswKTAnBggr
BgEFBQcwAoYbaHR0cDovL3VybC1mb3ItYWlhL1Jvb3QuY2VyMCwGA1UdHwQlMCMw
IaAfoB2GG2h0dHA6Ly91cmwtZm9yLWNybC9Sb290LmNybDAOBgNVHQ8BAf8EBAMC
AQYwDwYDVR0TAQH/BAUwAwEB/zANBgkqhkiG9w0BAQsFAAOCAQEAhUlidVWWVsSL
RjruJxpwhKS8taEOE0mjALzUVO95p4qPzIW8n8wRW/izfXs1Rrtn0e3tPsZUdlTb
KX1f0DXwHs/ZfsMcuTItYpLLv/KP0qGqlcLZvp6vgCJjK9zkwOgkZHzbFoU8owNd
bRmIdYch0++V5iB56+FXROhy69bqRlhiXQxDP4RG+8x+PQtcpX6wvs4UkthKKi92
aMv/q32urFgvDSVmRtOs9TNskcWYnYPMMaXAF5T7mzCn3lIX3OVyQEU3MTKmwKnD
GPIPlFiVPAOYFXDTGPHpkXcLAgIJIWy4NNQBQ+OXuwAZ+yHXHtHvYwCuwrhdU+Qw
JUfwD80Idw==
-----END CERTIFICATE-----
