Generated by ./generate-certs.py.
Refer to generator script docstring for details.
Certificate:
    Data:
        Version: 3 (0x2)
        Serial Number: 4 (0x4)
    Signature Algorithm: sha256WithRSAEncryption
        Issuer: CN=Root
        Validity
            Not Before: Jan  1 12:00:00 2015 GMT
            Not After : Jan  1 12:00:00 2016 GMT
        Subject: CN=I2
        Subject Public Key Info:
            Public Key Algorithm: rsaEncryption
                Public-Key: (2048 bit)
                Modulus:
                    00:bd:84:dd:82:37:cb:c8:69:8a:c2:c6:ff:38:f7:
                    85:93:9e:22:d5:b8:94:12:3b:d9:9f:49:70:ef:ff:
                    39:58:fc:e7:36:32:18:37:d4:2b:d9:4e:4e:67:60:
                    ee:2c:28:d0:4f:66:23:cd:c1:f0:75:f5:54:0e:51:
                    a5:f0:fa:9c:bd:42:5d:02:3a:62:60:83:b8:e5:fe:
                    cd:bc:ad:35:b7:9e:09:ec:3a:81:51:b7:46:56:2d:
                    90:bb:e5:4a:4f:6a:c6:be:39:79:b6:31:99:1b:c4:
                    d0:a1:94:dc:e5:51:8e:9d:a9:c5:d8:91:f9:5c:76:
                    3a:09:d2:8f:0c:24:3a:ff:91:4c:c6:c9:c7:36:53:
                    cc:78:eb:fc:00:25:fd:5f:b3:c0:95:10:91:3d:43:
                    fe:31:b6:b3:84:e9:ec:5f:1b:5a:77:a7:25:29:1a:
                    7a:71:d9:7a:62:85:45:c3:51:da:ed:79:a5:41:7d:
                    0b:49:3e:2b:51:5e:99:33:1f:1c:5a:52:51:6b:07:
                    c5:5a:0b:4b:b6:e1:6c:43:07:f2:b2:65:6e:9d:77:
                    a9:2a:b6:88:7b:a9:d9:97:6b:65:f9:be:4e:39:31:
                    4c:a0:2d:06:18:de:53:7c:bf:80:64:cc:2b:7a:b0:
                    2b:76:03:c4:40:a6:53:f1:dc:74:87:fb:c5:d8:2f:
                    f5:ef
                Exponent: 65537 (0x10001)
        X509v3 extensions:
            X509v3 Subject Key Identifier: 
                B7:FB:54:77:0C:76:74:B0:72:84:2F:4E:AF:24:1F:CA:62:8D:99:61
            X509v3 Authority Key Identifier: 
                keyid:B5:C3:65:5F:95:6A:F7:19:30:E3:80:DD:EF:B0:A4:1B:3D:BE:A6:9D

            Authority Information Access: 
                CA Issuers - URI:http://url-for-aia/Root.cer

            X509v3 CRL Distribution Points: 

                Full Name:
                  URI:http://url-for-crl/Root.crl

            X509v3 Key Usage: critical
                Certificate Sign, CRL Sign
            X509v3 Basic Constraints: critical
                CA:TRUE
    Signature Algorithm: sha256WithRSAEncryption
         4c:7b:dd:61:fc:1e:ea:5a:d7:73:ae:8a:3b:14:19:3a:8c:ae:
         a5:a5:37:1a:74:87:a9:de:9f:79:db:5d:ad:92:85:46:65:35:
         a8:77:8c:c2:4e:b8:90:67:7f:ec:ed:7b:a9:b9:1d:6a:27:05:
         22:19:92:6c:46:02:4f:3a:9c:69:67:29:12:33:e2:d6:db:c1:
         0c:79:cb:10:77:ab:d9:df:77:1b:9c:d2:73:8e:e6:31:72:f4:
         04:24:cb:67:b3:73:cc:02:83:7f:be:fb:01:0f:71:25:c0:02:
         b1:23:aa:77:03:74:28:fd:5e:9b:03:af:44:60:e5:f4:be:c1:
         c4:64:6a:17:47:ab:fe:b3:f5:47:dc:b8:f8:1c:c2:cf:bb:57:
         ca:65:0f:73:f0:32:4d:d7:b5:38:35:f7:01:8c:13:de:ab:de:
         cd:01:a9:5c:57:d7:2c:23:10:70:34:ea:b5:4a:eb:11:6d:ae:
         36:ee:70:3a:d2:96:73:2d:3c:e6:fe:6f:56:ff:ea:57:39:4f:
         ca:70:1b:0e:7e:1c:75:b0:02:0d:4e:92:bb:c0:e6:0e:7d:16:
         c4:07:b9:12:00:a5:a5:2f:fa:0e:38:52:62:7b:55:8e:f3:4d:
         62:c5:c1:71:ff:ab:f2:57:54:21:7d:64:7d:07:dd:d8:d9:26:
         c2:07:39:8f
-----BEGIN CERTIFICATE-----
MIIDYzCCAkugAwIBAgIBBDANBgkqhkiG9w0BAQsFADAPMQ0wCwYDVQQDDARSb290
MB4XDTE1MDEwMTEyMDAwMFoXDTE2MDEwMTEyMDAwMFowDTELMAkGA1UEAwwCSTIw
ggEiMA0GCSqGSIb3DQEBAQUAA4IBDwAwggEKAoIBAQC9hN2CN8vIaYrCxv8494WT
niLVuJQSO9mfSXDv/zlY/Oc2Mhg31CvZTk5nYO4sKNBPZiPNwfB19VQOUaXw+py9
Ql0COmJgg7jl/s28rTW3ngnsOoFRt0ZWLZC75UpPasa+OXm2MZkbxNChlNzlUY6d
qcXYkflcdjoJ0o8MJDr/kUzGycc2U8x46/wAJf1fs8CVEJE9Q/4xtrOE6exfG1p3
pyUpGnpx2XpihUXDUdrteaVBfQtJPitRXpkzHxxaUlFrB8VaC0u24WxDB/KyZW6d
d6kqtoh7qdmXa2X5vk45MUygLQYY3lN8v4BkzCt6sCt2A8RAplPx3HSH+8XYL/Xv
AgMBAAGjgcswgcgwHQYDVR0OBBYEFLf7VHcMdnSwcoQvTq8kH8pijZlhMB8GA1Ud
IwQYMBaAFLXDZV+VavcZMOOA3e+wpBs9vqadMDcGCCsGAQUFBwEBBCswKTAnBggr
BgEFBQcwAoYbaHR0cDovL3VybC1mb3ItYWlhL1Jvb3QuY2VyMCwGA1UdHwQlMCMw
IaAfoB2GG2h0dHA6Ly91cmwtZm9yLWNybC9Sb290LmNybDAOBgNVHQ8BAf8EBAMC
AQYwDwYDVR0TAQH/BAUwAwEB/zANBgkqhkiG9w0BAQsFAAOCAQEATHvdYfwe6lrX
c66KOxQZOoyupaU3GnSHqd6fedtdrZKFRmU1qHeMwk64kGd/7O17qbkdaicFIhmS
bEYCTzqcaWcpEjPi1tvBDHnLEHer2d93G5zSc47mMXL0BCTLZ7NzzAKDf777AQ9x
JcACsSOqdwN0KP1emwOvRGDl9L7BxGRqF0er/rP1R9y4+BzCz7tXymUPc/AyTde1
ODX3AYwT3qvezQGpXFfXLCMQcDTqtUrrEW2uNu5wOtKWcy085v5vVv/qVzlPynAb
Dn4cdbACDU6Su8DmDn0WxAe5EgClpS/6DjhSYntVjvNNYsXBcf+r8ldUIX1kfQfd
2Nkmwgc5jw==
-----END CERTIFICATE-----
