[Created by: ./generate-chains.py]

Certificate chain where the target certificate is contains a public key with
only a 512-bit modulus.

Certificate:
    Data:
        Version: 3 (0x2)
        Serial Number: 1 (0x1)
    Signature Algorithm: sha256WithRSAEncryption
        Issuer: CN=Intermediate
        Validity
            Not Before: Jan  1 12:00:00 2015 GMT
            Not After : Jan  1 12:00:00 2016 GMT
        Subject: CN=Target
        Subject Public Key Info:
            Public Key Algorithm: rsaEncryption
                Public-Key: (512 bit)
                Modulus:
                    00:d5:13:bb:52:bf:ca:19:1a:06:19:68:07:1d:e6:
                    87:16:d3:f0:e0:12:ba:a2:b5:2a:3d:ed:b3:64:16:
                    06:a3:50:fc:b0:a4:49:f2:f9:ab:34:ad:4f:db:0a:
                    3d:2b:25:92:86:3f:94:df:fb:fc:54:f2:c7:6d:9e:
                    d2:10:e0:cd:0d
                Exponent: 65537 (0x10001)
        X509v3 extensions:
            X509v3 Subject Key Identifier: 
                E9:D8:44:8D:24:EE:A1:82:18:6F:21:FA:4E:EC:FB:DF:D1:91:57:9D
            X509v3 Authority Key Identifier: 
                keyid:CC:47:D8:FF:8B:67:33:FB:F5:CD:D0:A7:B6:12:A0:19:27:27:D1:57

            Authority Information Access: 
                CA Issuers - URI:http://url-for-aia/Intermediate.cer

            X509v3 CRL Distribution Points: 

                Full Name:
                  URI:http://url-for-crl/Intermediate.crl

            X509v3 Key Usage: critical
                Digital Signature, Key Encipherment
            X509v3 Extended Key Usage: 
                TLS Web Server Authentication, TLS Web Client Authentication
    Signature Algorithm: sha256WithRSAEncryption
         10:87:ef:fc:16:91:74:55:5e:0d:b3:52:66:70:12:07:a1:ca:
         7c:d6:f8:a2:ff:3c:01:4f:8b:c9:37:55:af:f2:f5:31:bc:89:
         93:3b:96:0f:31:72:b6:96:bb:b4:d6:db:0b:61:a1:27:b7:c1:
         80:dd:3d:40:73:69:84:86:a1:04:eb:53:cd:e8:85:b2:39:dd:
         11:4f:66:e2:39:6f:7c:c0:ef:0b:09:1e:e9:89:b1:60:44:51:
         35:20:64:94:2c:54:39:a9:0b:90:b1:32:a0:16:21:d7:97:70:
         e3:8b:ab:a9:2f:39:5b:ac:c1:e9:16:c6:e9:e5:e6:8a:92:23:
         c2:d6:90:83:48:94:1c:5d:b3:f1:c9:0b:0a:f0:ff:dd:f0:9a:
         42:a2:43:f7:92:1c:de:3d:14:ee:49:92:8d:af:c0:47:63:89:
         af:b7:14:39:cc:55:4a:7e:89:77:41:aa:62:f9:cd:d1:f3:11:
         ea:83:6f:85:48:5d:31:a8:2d:2b:b5:fd:05:46:cb:bc:ce:53:
         a1:7a:b1:03:3b:85:f2:4e:93:61:c7:bd:e1:1e:15:c6:c6:2d:
         19:df:22:57:d1:b7:ff:5b:97:5d:53:f0:ab:78:b2:a6:21:09:
         e1:56:2c:bb:ee:44:94:9d:59:29:f7:f4:ed:24:4f:cf:e9:a1:
         80:fb:82:ad
-----BEGIN CERTIFICATE-----
MIICxTCCAa2gAwIBAgIBATANBgkqhkiG9w0BAQsFADAXMRUwEwYDVQQDDAxJbnRl
cm1lZGlhdGUwHhcNMTUwMTAxMTIwMDAwWhcNMTYwMTAxMTIwMDAwWjARMQ8wDQYD
VQQDDAZUYXJnZXQwXDANBgkqhkiG9w0BAQEFAANLADBIAkEA1RO7Ur/KGRoGGWgH
HeaHFtPw4BK6orUqPe2zZBYGo1D8sKRJ8vmrNK1P2wo9KyWShj+U3/v8VPLHbZ7S
EODNDQIDAQABo4HpMIHmMB0GA1UdDgQWBBTp2ESNJO6hghhvIfpO7Pvf0ZFXnTAf
BgNVHSMEGDAWgBTMR9j/i2cz+/XN0Ke2EqAZJyfRVzA/BggrBgEFBQcBAQQzMDEw
LwYIKwYBBQUHMAKGI2h0dHA6Ly91cmwtZm9yLWFpYS9JbnRlcm1lZGlhdGUuY2Vy
MDQGA1UdHwQtMCswKaAnoCWGI2h0dHA6Ly91cmwtZm9yLWNybC9JbnRlcm1lZGlh
dGUuY3JsMA4GA1UdDwEB/wQEAwIFoDAdBgNVHSUEFjAUBggrBgEFBQcDAQYIKwYB
BQUHAwIwDQYJKoZIhvcNAQELBQADggEBABCH7/wWkXRVXg2zUmZwEgehynzW+KL/
PAFPi8k3Va/y9TG8iZM7lg8xcraWu7TW2wthoSe3wYDdPUBzaYSGoQTrU83ohbI5
3RFPZuI5b3zA7wsJHumJsWBEUTUgZJQsVDmpC5CxMqAWIdeXcOOLq6kvOVuswekW
xunl5oqSI8LWkINIlBxds/HJCwrw/93wmkKiQ/eSHN49FO5Jko2vwEdjia+3FDnM
VUp+iXdBqmL5zdHzEeqDb4VIXTGoLSu1/QVGy7zOU6F6sQM7hfJOk2HHveEeFcbG
LRnfIlfRt/9bl11T8Kt4sqYhCeFWLLvuRJSdWSn39O0kT8/poYD7gq0=
-----END CERTIFICATE-----

Certificate:
    Data:
        Version: 3 (0x2)
        Serial Number: 2 (0x2)
    Signature Algorithm: sha256WithRSAEncryption
        Issuer: CN=Root
        Validity
            Not Before: Jan  1 12:00:00 2015 GMT
            Not After : Jan  1 12:00:00 2016 GMT
        Subject: CN=Intermediate
        Subject Public Key Info:
            Public Key Algorithm: rsaEncryption
                Public-Key: (2048 bit)
                Modulus:
                    00:bf:5d:ac:94:a4:6d:90:41:e2:b8:a8:23:44:d3:
                    0b:a0:16:0f:a9:d1:86:a6:7d:16:1b:0a:74:78:ef:
                    7e:fd:66:74:8d:d7:9e:d4:6b:ec:82:a7:18:59:1b:
                    a6:36:7d:b3:69:ac:5d:70:74:88:37:49:2a:5b:d2:
                    eb:db:56:de:54:f7:35:5a:3c:b6:b2:69:23:c5:f6:
                    73:95:78:80:8c:62:95:0d:2f:8d:0e:64:e2:66:2a:
                    05:7e:fd:70:23:ad:00:39:6d:2d:33:a7:00:af:37:
                    74:41:bf:67:49:bd:51:c1:54:c8:d3:1e:87:f1:87:
                    13:7a:c0:e4:20:52:15:fc:f1:4c:9e:84:30:72:93:
                    df:0e:71:94:54:7c:12:4e:4a:31:a6:77:94:8b:98:
                    35:02:fa:1f:aa:e8:51:c6:a6:6c:b9:40:3b:2d:a3:
                    3f:01:33:7d:5b:60:b3:db:12:cc:1c:a1:7f:94:4b:
                    3b:b8:2a:13:a2:da:d4:cb:5a:b7:a9:60:90:19:b5:
                    d2:83:c0:a2:84:52:44:61:1f:26:ff:3e:e2:43:32:
                    15:a4:96:33:34:3b:7c:90:4b:f0:db:7d:e8:f4:34:
                    65:60:e1:09:06:5a:1c:8a:89:6c:cc:cc:81:c7:e5:
                    d5:56:24:d6:6f:a1:2c:c8:9f:77:ab:8b:17:0b:98:
                    fe:c5
                Exponent: 65537 (0x10001)
        X509v3 extensions:
            X509v3 Subject Key Identifier: 
                CC:47:D8:FF:8B:67:33:FB:F5:CD:D0:A7:B6:12:A0:19:27:27:D1:57
            X509v3 Authority Key Identifier: 
                keyid:BE:33:72:47:C2:B1:97:41:99:C0:31:57:52:56:0C:B5:53:78:5A:A4

            Authority Information Access: 
                CA Issuers - URI:http://url-for-aia/Root.cer

            X509v3 CRL Distribution Points: 

                Full Name:
                  URI:http://url-for-crl/Root.crl

            X509v3 Key Usage: critical
                Certificate Sign, CRL Sign
            X509v3 Basic Constraints: critical
                CA:TRUE
    Signature Algorithm: sha256WithRSAEncryption
         bc:aa:2c:ff:8e:a8:35:b7:d2:b6:ea:6e:46:71:f0:e5:fb:86:
         87:16:10:c5:af:17:cb:97:22:57:bb:12:44:7f:a4:d8:6f:cd:
         9f:05:eb:fc:eb:fc:fc:fd:01:99:08:6a:43:33:29:46:6e:4e:
         7e:8d:82:98:ad:11:2a:02:d3:61:8f:68:aa:4e:f3:ab:f0:9a:
         3e:45:17:57:3b:26:ec:18:79:3d:a6:85:95:1c:0f:0f:e5:37:
         55:55:a8:e9:c2:a6:9b:5f:e3:f8:17:81:28:c0:f9:a5:28:a6:
         25:6b:d1:23:c4:eb:3d:7d:41:64:61:cc:99:da:1e:5e:02:86:
         4d:3d:66:e6:02:d0:d8:9c:f2:4b:87:24:bd:e1:7d:cb:49:ef:
         29:d9:5e:5e:4e:8f:cf:bc:08:09:e1:30:cd:89:33:0e:a1:89:
         7e:36:04:7c:47:3f:1b:ec:69:66:eb:90:0d:ca:98:ff:4c:1c:
         d7:5b:05:61:04:b2:b6:ce:82:77:dc:d4:b4:61:81:79:9a:1d:
         10:e2:49:a6:ca:38:a9:38:44:5e:1b:0e:dd:4f:d2:7d:2f:c8:
         ec:03:49:5d:83:bc:a1:31:80:75:ad:98:2b:67:1b:b6:9d:4a:
         33:1d:64:13:5b:b5:0f:ac:56:89:87:1e:57:34:6c:59:b1:48:
         c3:e3:6d:cc
-----BEGIN CERTIFICATE-----
MIIDbTCCAlWgAwIBAgIBAjANBgkqhkiG9w0BAQsFADAPMQ0wCwYDVQQDDARSb290
MB4XDTE1MDEwMTEyMDAwMFoXDTE2MDEwMTEyMDAwMFowFzEVMBMGA1UEAwwMSW50
ZXJtZWRpYXRlMIIBIjANBgkqhkiG9w0BAQEFAAOCAQ8AMIIBCgKCAQEAv12slKRt
kEHiuKgjRNMLoBYPqdGGpn0WGwp0eO9+/WZ0jdee1GvsgqcYWRumNn2zaaxdcHSI
N0kqW9Lr21beVPc1Wjy2smkjxfZzlXiAjGKVDS+NDmTiZioFfv1wI60AOW0tM6cA
rzd0Qb9nSb1RwVTI0x6H8YcTesDkIFIV/PFMnoQwcpPfDnGUVHwSTkoxpneUi5g1
AvofquhRxqZsuUA7LaM/ATN9W2Cz2xLMHKF/lEs7uCoTotrUy1q3qWCQGbXSg8Ci
hFJEYR8m/z7iQzIVpJYzNDt8kEvw233o9DRlYOEJBlociolszMyBx+XVViTWb6Es
yJ93q4sXC5j+xQIDAQABo4HLMIHIMB0GA1UdDgQWBBTMR9j/i2cz+/XN0Ke2EqAZ
JyfRVzAfBgNVHSMEGDAWgBS+M3JHwrGXQZnAMVdSVgy1U3hapDA3BggrBgEFBQcB
AQQrMCkwJwYIKwYBBQUHMAKGG2h0dHA6Ly91cmwtZm9yLWFpYS9Sb290LmNlcjAs
BgNVHR8EJTAjMCGgH6AdhhtodHRwOi8vdXJsLWZvci1jcmwvUm9vdC5jcmwwDgYD
VR0PAQH/BAQDAgEGMA8GA1UdEwEB/wQFMAMBAf8wDQYJKoZIhvcNAQELBQADggEB
ALyqLP+OqDW30rbqbkZx8OX7hocWEMWvF8uXIle7EkR/pNhvzZ8F6/zr/Pz9AZkI
akMzKUZuTn6NgpitESoC02GPaKpO86vwmj5FF1c7JuwYeT2mhZUcDw/lN1VVqOnC
pptf4/gXgSjA+aUopiVr0SPE6z19QWRhzJnaHl4Chk09ZuYC0Nic8kuHJL3hfctJ
7ynZXl5Oj8+8CAnhMM2JMw6hiX42BHxHPxvsaWbrkA3KmP9MHNdbBWEEsrbOgnfc
1LRhgXmaHRDiSabKOKk4RF4bDt1P0n0vyOwDSV2DvKExgHWtmCtnG7adSjMdZBNb
tQ+sVomHHlc0bFmxSMPjbcw=
-----END CERTIFICATE-----

Certificate:
    Data:
        Version: 3 (0x2)
        Serial Number: 1 (0x1)
    Signature Algorithm: sha256WithRSAEncryption
        Issuer: CN=Root
        Validity
            Not Before: Jan  1 12:00:00 2015 GMT
            Not After : Jan  1 12:00:00 2016 GMT
        Subject: CN=Root
        Subject Public Key Info:
            Public Key Algorithm: rsaEncryption
                Public-Key: (2048 bit)
                Modulus:
                    00:ca:3f:f8:1f:42:8f:55:98:f8:9f:fb:94:03:42:
                    2a:c1:42:3a:2b:2a:f3:54:14:f3:fe:67:25:24:d3:
                    9a:7f:66:1a:60:0b:9d:d8:bd:65:71:b5:f5:d9:fe:
                    eb:f6:04:72:57:97:bc:23:b0:be:bd:ce:94:9e:58:
                    1a:10:e7:33:09:0b:57:a8:1c:6f:fa:f7:ce:d1:31:
                    34:90:1a:b4:60:2d:d2:7f:29:9b:4e:ec:f4:6e:99:
                    21:6b:98:9c:90:09:fc:bd:2f:55:c3:34:38:48:4a:
                    73:fe:58:e2:09:b9:d9:f9:53:f6:84:e2:5d:fc:eb:
                    3c:ba:92:f5:bc:97:cc:ef:43:54:f7:4f:c9:b4:2c:
                    86:95:32:a6:e8:91:f5:8e:31:f8:de:b5:d9:c9:3d:
                    4d:d7:24:4c:8c:58:aa:8a:c5:79:ab:e7:cd:3b:5c:
                    84:67:52:5a:88:33:c3:55:d5:a9:2e:c9:5b:61:7c:
                    87:05:c1:0b:d7:19:4a:fe:bd:ba:af:d7:e5:70:d1:
                    a4:92:08:d2:f2:ca:2b:b1:94:d0:84:57:f9:30:92:
                    fc:3a:67:82:10:6e:e3:89:9f:b3:df:75:6e:99:46:
                    bd:ce:b1:e8:ac:a2:3b:21:80:da:11:13:bd:df:93:
                    0e:0e:ee:5d:f5:39:a2:a8:f7:41:c8:cb:00:5c:ac:
                    ee:b1
                Exponent: 65537 (0x10001)
        X509v3 extensions:
            X509v3 Subject Key Identifier: 
                BE:33:72:47:C2:B1:97:41:99:C0:31:57:52:56:0C:B5:53:78:5A:A4
            X509v3 Authority Key Identifier: 
                keyid:BE:33:72:47:C2:B1:97:41:99:C0:31:57:52:56:0C:B5:53:78:5A:A4

            Authority Information Access: 
                CA Issuers - URI:http://url-for-aia/Root.cer

            X509v3 CRL Distribution Points: 

                Full Name:
                  URI:http://url-for-crl/Root.crl

            X509v3 Key Usage: critical
                Certificate Sign, CRL Sign
            X509v3 Basic Constraints: critical
                CA:TRUE
    Signature Algorithm: sha256WithRSAEncryption
         6a:f1:5f:9d:b3:dd:07:5a:5c:44:0a:17:df:04:6c:e5:17:03:
         a6:ba:c1:85:f3:4f:ff:15:52:85:7c:98:aa:58:ab:39:b2:6d:
         ae:71:ff:85:36:de:d6:72:c6:3f:7b:6e:e3:13:32:d5:cd:d8:
         22:c3:48:71:e7:ed:02:97:5a:b0:bd:e7:fd:d4:21:53:66:7e:
         17:df:97:cd:c0:75:18:f3:a8:6a:0c:bc:de:c3:02:36:17:eb:
         99:a4:b7:01:be:89:27:3c:43:9e:d4:e8:24:2a:81:0b:fa:32:
         74:90:53:5f:c1:3c:2e:cf:04:ec:90:5e:f4:20:8e:39:06:49:
         ee:8d:69:1e:5f:7f:e0:90:ea:b3:cd:70:42:40:76:22:ec:53:
         b4:c7:cd:bf:41:34:92:29:80:97:9a:28:f1:f4:8c:65:a2:74:
         f3:79:a5:0a:fa:4f:a7:df:d2:c2:a8:23:9f:51:15:19:2c:40:
         fd:67:75:3a:24:8c:5b:9a:71:df:02:92:90:d8:e2:58:22:79:
         44:10:e5:2c:fd:7e:25:6e:e2:42:ec:02:67:44:17:8a:ac:e5:
         9c:b2:0b:d3:22:f5:88:2f:53:e6:e8:a5:43:a4:65:97:a6:36:
         f6:57:d3:4b:15:28:55:05:df:52:b5:19:c8:7e:a8:3a:4a:79:
         52:33:b9:52
-----BEGIN CERTIFICATE-----
MIIDZTCCAk2gAwIBAgIBATANBgkqhkiG9w0BAQsFADAPMQ0wCwYDVQQDDARSb290
MB4XDTE1MDEwMTEyMDAwMFoXDTE2MDEwMTEyMDAwMFowDzENMAsGA1UEAwwEUm9v
dDCCASIwDQYJKoZIhvcNAQEBBQADggEPADCCAQoCggEBAMo/+B9Cj1WY+J/7lANC
KsFCOisq81QU8/5nJSTTmn9mGmALndi9ZXG19dn+6/YEcleXvCOwvr3OlJ5YGhDn
MwkLV6gcb/r3ztExNJAatGAt0n8pm07s9G6ZIWuYnJAJ/L0vVcM0OEhKc/5Y4gm5
2flT9oTiXfzrPLqS9byXzO9DVPdPybQshpUypuiR9Y4x+N612ck9TdckTIxYqorF
eavnzTtchGdSWogzw1XVqS7JW2F8hwXBC9cZSv69uq/X5XDRpJII0vLKK7GU0IRX
+TCS/DpnghBu44mfs991bplGvc6x6KyiOyGA2hETvd+TDg7uXfU5oqj3QcjLAFys
7rECAwEAAaOByzCByDAdBgNVHQ4EFgQUvjNyR8Kxl0GZwDFXUlYMtVN4WqQwHwYD
VR0jBBgwFoAUvjNyR8Kxl0GZwDFXUlYMtVN4WqQwNwYIKwYBBQUHAQEEKzApMCcG
CCsGAQUFBzAChhtodHRwOi8vdXJsLWZvci1haWEvUm9vdC5jZXIwLAYDVR0fBCUw
IzAhoB+gHYYbaHR0cDovL3VybC1mb3ItY3JsL1Jvb3QuY3JsMA4GA1UdDwEB/wQE
AwIBBjAPBgNVHRMBAf8EBTADAQH/MA0GCSqGSIb3DQEBCwUAA4IBAQBq8V+ds90H
WlxEChffBGzlFwOmusGF80//FVKFfJiqWKs5sm2ucf+FNt7WcsY/e27jEzLVzdgi
w0hx5+0Cl1qwvef91CFTZn4X35fNwHUY86hqDLzewwI2F+uZpLcBvoknPEOe1Ogk
KoEL+jJ0kFNfwTwuzwTskF70II45BknujWkeX3/gkOqzzXBCQHYi7FO0x82/QTSS
KYCXmijx9IxlonTzeaUK+k+n39LCqCOfURUZLED9Z3U6JIxbmnHfApKQ2OJYInlE
EOUs/X4lbuJC7AJnRBeKrOWcsgvTIvWIL1Pm6KVDpGWXpjb2V9NLFShVBd9StRnI
fqg6SnlSM7lS
-----END CERTIFICATE-----
